Parsing original bitcode rust/4crow/all.bc
Creating linker 
	 Removing identical function _ZN4core4iter6traits8iterator8Iterator8for_each17h03b17951018b3e39E in ./bitcodes/qrcode5_all_1381_[e4L_ccOT].bc
	 Removing identical function _ZN4core4iter6traits8iterator8Iterator8for_each17h03b17951018b3e39E in ./bitcodes/qrcode5_all_1381_[J8g98d5B].bc
	 Removing identical function _ZN102_$LT$core..iter..adapters..map..Map$LT$I$C$F$GT$$u20$as$u20$core..iter..traits..iterator..Iterator$GT$24__iterator_get_unchecked17h30a37547f1a288f3E in ./bitcodes/qrcode5_all_2350_[chKKLarb].bc
	 Removing identical function _ZN4core4iter6traits8iterator8Iterator8for_each17h03b17951018b3e39E in ./bitcodes/qrcode5_all_1381_[Gp2LCd_q].bc
	 Removing identical function _ZN102_$LT$core..iter..adapters..map..Map$LT$I$C$F$GT$$u20$as$u20$core..iter..traits..iterator..Iterator$GT$24__iterator_get_unchecked17h30a37547f1a288f3E in ./bitcodes/qrcode5_all_2350_[4qnb54Jc].bc
	 Removing identical function _ZN4core4iter6traits8iterator8Iterator8for_each17h03b17951018b3e39E in ./bitcodes/qrcode5_all_1381_[jQ__41HC].bc
	 Removing identical function _ZN4core4iter6traits8iterator8Iterator8for_each17h03b17951018b3e39E in ./bitcodes/qrcode5_all_1381_[e46QKnNu].bc
	 Removing identical function _ZN102_$LT$core..iter..adapters..map..Map$LT$I$C$F$GT$$u20$as$u20$core..iter..traits..iterator..Iterator$GT$24__iterator_get_unchecked17h30a37547f1a288f3E in ./bitcodes/qrcode5_all_2350_[CY6g5_hN].bc
	 Removing identical function _ZN102_$LT$core..iter..adapters..map..Map$LT$I$C$F$GT$$u20$as$u20$core..iter..traits..iterator..Iterator$GT$24__iterator_get_unchecked17h30a37547f1a288f3E in ./bitcodes/qrcode5_all_2350_[KWu8Smma].bc
	 Removing identical function _ZN102_$LT$core..iter..adapters..map..Map$LT$I$C$F$GT$$u20$as$u20$core..iter..traits..iterator..Iterator$GT$24__iterator_get_unchecked17h30a37547f1a288f3E in ./bitcodes/qrcode5_all_2350_[UceP_FGk].bc
	 Removing identical function _ZN102_$LT$core..iter..adapters..map..Map$LT$I$C$F$GT$$u20$as$u20$core..iter..traits..iterator..Iterator$GT$24__iterator_get_unchecked17h30a37547f1a288f3E in ./bitcodes/qrcode5_all_2350_[t3559P0D].bc
	 Removing identical function _ZN102_$LT$core..iter..adapters..map..Map$LT$I$C$F$GT$$u20$as$u20$core..iter..traits..iterator..Iterator$GT$24__iterator_get_unchecked17h30a37547f1a288f3E in ./bitcodes/qrcode5_all_2350_[0E8ppBxx].bc
	 Removing identical function _ZN4core4iter6traits8iterator8Iterator8for_each17h03b17951018b3e39E in ./bitcodes/qrcode5_all_1381_[VNSY7rkS].bc
	 Removing identical function _ZN4core4iter6traits8iterator8Iterator8for_each17h03b17951018b3e39E in ./bitcodes/qrcode5_all_1381_[P9a6ZQxT].bc
	 Removing identical function _ZN102_$LT$core..iter..adapters..map..Map$LT$I$C$F$GT$$u20$as$u20$core..iter..traits..iterator..Iterator$GT$24__iterator_get_unchecked17h30a37547f1a288f3E in ./bitcodes/qrcode5_all_2350_[v_ziWB4U].bc
	 Removing identical function _ZN102_$LT$core..iter..adapters..map..Map$LT$I$C$F$GT$$u20$as$u20$core..iter..traits..iterator..Iterator$GT$24__iterator_get_unchecked17h30a37547f1a288f3E in ./bitcodes/qrcode5_all_2350_[Nt_Ga4K7].bc
	 Removing identical function _ZN102_$LT$core..iter..adapters..map..Map$LT$I$C$F$GT$$u20$as$u20$core..iter..traits..iterator..Iterator$GT$24__iterator_get_unchecked17h30a37547f1a288f3E in ./bitcodes/qrcode5_all_2350_[6kwPwuMq].bc
	 Removing identical function _ZN4core4iter6traits8iterator8Iterator8for_each17h03b17951018b3e39E in ./bitcodes/qrcode5_all_1381_[TyUYZgoE].bc
	 Removing identical function _ZN102_$LT$core..iter..adapters..map..Map$LT$I$C$F$GT$$u20$as$u20$core..iter..traits..iterator..Iterator$GT$24__iterator_get_unchecked17h30a37547f1a288f3E in ./bitcodes/qrcode5_all_2350_[189Ts2Y7].bc
	 Removing identical function _ZN4core4iter6traits8iterator8Iterator8for_each17h03b17951018b3e39E in ./bitcodes/qrcode5_all_1381_[CTE3Frek].bc
	 Removing identical function _ZN4core4iter6traits8iterator8Iterator8for_each17h03b17951018b3e39E in ./bitcodes/qrcode5_all_1381_[bP8JjMNG].bc
	 Removing identical function _ZN4core4iter6traits8iterator8Iterator8for_each17h03b17951018b3e39E in ./bitcodes/qrcode5_all_1381_[Y7S5xan8].bc
	 Removing identical function _ZN102_$LT$core..iter..adapters..map..Map$LT$I$C$F$GT$$u20$as$u20$core..iter..traits..iterator..Iterator$GT$24__iterator_get_unchecked17h30a37547f1a288f3E in ./bitcodes/qrcode5_all_2350_[3X6IPNaI].bc
	 Removing identical function _ZN102_$LT$core..iter..adapters..map..Map$LT$I$C$F$GT$$u20$as$u20$core..iter..traits..iterator..Iterator$GT$24__iterator_get_unchecked17h30a37547f1a288f3E in ./bitcodes/qrcode5_all_2350_[tKntwLoh].bc
	 Removing identical function _ZN102_$LT$core..iter..adapters..map..Map$LT$I$C$F$GT$$u20$as$u20$core..iter..traits..iterator..Iterator$GT$24__iterator_get_unchecked17h30a37547f1a288f3E in ./bitcodes/qrcode5_all_2350_[pdJPz5kL].bc
	 Removing identical function _ZN4core4iter6traits8iterator8Iterator8for_each17h03b17951018b3e39E in ./bitcodes/qrcode5_all_1381_[rkDkCO_0].bc
	 Removing identical function _ZN102_$LT$core..iter..adapters..map..Map$LT$I$C$F$GT$$u20$as$u20$core..iter..traits..iterator..Iterator$GT$24__iterator_get_unchecked17h30a37547f1a288f3E in ./bitcodes/qrcode5_all_2350_[NRvm0oEa].bc
	 Removing identical function _ZN4core4iter6traits8iterator8Iterator8for_each17h03b17951018b3e39E in ./bitcodes/qrcode5_all_1381_[CYr7mIWC].bc
	 Removing identical function _ZN102_$LT$core..iter..adapters..map..Map$LT$I$C$F$GT$$u20$as$u20$core..iter..traits..iterator..Iterator$GT$24__iterator_get_unchecked17h30a37547f1a288f3E in ./bitcodes/qrcode5_all_2350_[9FJTvaN0].bc
	 Removing identical function _ZN102_$LT$core..iter..adapters..map..Map$LT$I$C$F$GT$$u20$as$u20$core..iter..traits..iterator..Iterator$GT$24__iterator_get_unchecked17h30a37547f1a288f3E in ./bitcodes/qrcode5_all_2350_[r3N2xGoY].bc
	 Removing identical function _ZN4core4iter6traits8iterator8Iterator8for_each17h03b17951018b3e39E in ./bitcodes/qrcode5_all_1381_[8EE_dFVe].bc
	 Removing identical function _ZN102_$LT$core..iter..adapters..map..Map$LT$I$C$F$GT$$u20$as$u20$core..iter..traits..iterator..Iterator$GT$24__iterator_get_unchecked17h30a37547f1a288f3E in ./bitcodes/qrcode5_all_2350_[9fdPthBz].bc
	 Removing identical function _ZN102_$LT$core..iter..adapters..map..Map$LT$I$C$F$GT$$u20$as$u20$core..iter..traits..iterator..Iterator$GT$24__iterator_get_unchecked17h30a37547f1a288f3E in ./bitcodes/qrcode5_all_2350_[t5z9_xhk].bc
	 Removing identical function _ZN102_$LT$core..iter..adapters..map..Map$LT$I$C$F$GT$$u20$as$u20$core..iter..traits..iterator..Iterator$GT$24__iterator_get_unchecked17h30a37547f1a288f3E in ./bitcodes/qrcode5_all_2350_[zPNZ9ZlT].bc
	 Removing identical function _ZN4core4iter6traits8iterator8Iterator8for_each17h03b17951018b3e39E in ./bitcodes/qrcode5_all_1381_[t2_daS_D].bc
	 Removing identical function _ZN4core4iter6traits8iterator8Iterator8for_each17h03b17951018b3e39E in ./bitcodes/qrcode5_all_1381_[0ryeMZ59].bc
	 Removing identical function _ZN4core4iter6traits8iterator8Iterator8for_each17h03b17951018b3e39E in ./bitcodes/qrcode5_all_1381_[5yNvTQu4].bc
	 Removing identical function _ZN102_$LT$core..iter..adapters..map..Map$LT$I$C$F$GT$$u20$as$u20$core..iter..traits..iterator..Iterator$GT$24__iterator_get_unchecked17h30a37547f1a288f3E in ./bitcodes/qrcode5_all_2350_[e_MAxObD].bc
	 Removing identical function _ZN102_$LT$core..iter..adapters..map..Map$LT$I$C$F$GT$$u20$as$u20$core..iter..traits..iterator..Iterator$GT$24__iterator_get_unchecked17h30a37547f1a288f3E in ./bitcodes/qrcode5_all_2350_[wSLiyyAN].bc
	 Removing identical function _ZN102_$LT$core..iter..adapters..map..Map$LT$I$C$F$GT$$u20$as$u20$core..iter..traits..iterator..Iterator$GT$24__iterator_get_unchecked17h30a37547f1a288f3E in ./bitcodes/qrcode5_all_2350_[DiAs2MrZ].bc
	 Removing identical function _ZN4core4iter6traits8iterator8Iterator8for_each17h03b17951018b3e39E in ./bitcodes/qrcode5_all_1381_[ijGKn3to].bc
	 Removing identical function _ZN4core4iter6traits8iterator8Iterator8for_each17h03b17951018b3e39E in ./bitcodes/qrcode5_all_1381_[QFZAqnST].bc
	 Removing identical function _ZN4core4iter6traits8iterator8Iterator8for_each17h03b17951018b3e39E in ./bitcodes/qrcode5_all_1381_[tfIvxkyJ].bc
	 Removing identical function _ZN4core4iter6traits8iterator8Iterator8for_each17h03b17951018b3e39E in ./bitcodes/qrcode5_all_1381_[Y7ZI2t87].bc
Finishing the switch case for _ZN102_$LT$core..iter..adapters..cycle..Cycle$LT$I$GT$$u20$as$u20$core..iter..traits..iterator..Iterator$GT$9size_hint17hb562490e751a5104E. Final size 25
Finishing the switch case for _ZN102_$LT$core..iter..adapters..map..Map$LT$I$C$F$GT$$u20$as$u20$core..iter..traits..iterator..Iterator$GT$24__iterator_get_unchecked17h30a37547f1a288f3E. Final size 2
Finishing the switch case for _ZN103_$LT$alloc..vec..into_iter..IntoIter$LT$T$C$A$GT$$u20$as$u20$core..iter..traits..iterator..Iterator$GT$24__iterator_get_unchecked17h0fc81070bbe0d704E. Final size 2
Finishing the switch case for _ZN103_$LT$alloc..vec..into_iter..IntoIter$LT$T$C$A$GT$$u20$as$u20$core..iter..traits..iterator..Iterator$GT$9size_hint17h88f56e8c40f880afE. Final size 2
Finishing the switch case for _ZN106_$LT$core..ops..range..Range$LT$usize$GT$$u20$as$u20$core..slice..index..SliceIndex$LT$$u5b$T$u5d$$GT$$GT$9index_mut17h9c4f94c3b03aa397E. Final size 2
Finishing the switch case for _ZN3std2io5error5Error12raw_os_error17h18499eac9d8bea1cE. Final size 23
Finishing the switch case for _ZN3std2io5error5Error12raw_os_error17hff19ab5eadf4189dE. Final size 18
Finishing the switch case for _ZN47_$LT$u32$u20$as$u20$core..iter..range..Step$GT$17forward_unchecked17h0db0511b979a7ca8E. Final size 89
Finishing the switch case for _ZN4core10intrinsics19copy_nonoverlapping17hd9866c2fcb327602E. Final size 6
Finishing the switch case for _ZN4core3num23_$LT$impl$u20$usize$GT$11checked_add17h096d975beb745572E. Final size 88
Finishing the switch case for _ZN4core3ptr41drop_in_place$LT$std..io..error..Repr$GT$17haedb15029a9f36edE. Final size 24
Finishing the switch case for _ZN4core3ptr9const_ptr33_$LT$impl$u20$$BP$const$u20$T$GT$11offset_from17h02b19100594bd202E. Final size 2
Finishing the switch case for _ZN4core4iter6traits8iterator8Iterator4fold17had50487807a5fe23E. Final size 282
Finishing the switch case for _ZN4core4iter6traits8iterator8Iterator8for_each17h03b17951018b3e39E. Final size 2
Finishing the switch case for _ZN4core6option15Option$LT$T$GT$3map17h1a47d23c8837b815E. Final size 298
Finishing the switch case for _ZN56_$LT$char$u20$as$u20$qrcode..render..string..Element$GT$13default_color17hc33573a548f8f261E. Final size 34
Finishing the switch case for _ZN56_$LT$i16$u20$as$u20$checked_int_cast..CheckedIntCast$GT$16as_usize_checked17hf8c27e538d0e444fE. Final size 395
Finishing the switch case for _ZN56_$LT$usize$u20$as$u20$core..iter..traits..accum..Sum$GT$3sum28_$u7b$$u7b$closure$u7d$$u7d$17h54dbf9b2464cbac5E. Final size 77
Finishing the switch case for _ZN58_$LT$usize$u20$as$u20$checked_int_cast..CheckedIntCast$GT$14as_u16_checked17h8c652c149b1ec8f1E. Final size 3
Finishing the switch case for _ZN59_$LT$qrcode..types..EcLevel$u20$as$u20$core..fmt..Debug$GT$3fmt17ha948e4d029cdc453E. Final size 2
Finishing the switch case for _ZN5alloc5alloc6Global10alloc_impl17h1f328160f76f12cfE. Final size 168
Finishing the switch case for _ZN5alloc7raw_vec19RawVec$LT$T$C$A$GT$11allocate_in17h29fe1f804abc0cc2E. Final size 205
Finishing the switch case for _ZN5alloc7raw_vec19RawVec$LT$T$C$A$GT$11allocate_in17h344cc4811a228da3E. Final size 17
Finishing the switch case for _ZN5alloc7raw_vec19RawVec$LT$T$C$A$GT$14current_memory17h2ef02679d8327b97E. Final size 2
Finishing the switch case for _ZN5alloc7raw_vec19RawVec$LT$T$C$A$GT$14current_memory17hf63ae283156fbceeE. Final size 2
Finishing the switch case for _ZN5alloc7raw_vec19RawVec$LT$T$C$A$GT$14grow_amortized17h14d11f244aa212b0E. Final size 2
Finishing the switch case for _ZN5alloc7raw_vec19RawVec$LT$T$C$A$GT$14grow_amortized17h6f899ca47fc55f93E. Final size 2
Finishing the switch case for _ZN5alloc7raw_vec19RawVec$LT$T$C$A$GT$16with_capacity_in17hc167591bf67cc4c3E. Final size 4
Finishing the switch case for _ZN60_$LT$dyn$u20$rand_core..RngCore$u20$as$u20$std..io..Read$GT$4read17h91adfdc68e7ce606E. Final size 22
Finishing the switch case for _ZN60_$LT$qrcode..types..Mode$u20$as$u20$core..cmp..PartialEq$GT$2eq17ha263fa5e4af74859E. Final size 20
Finishing the switch case for _ZN6qrcode5types7Version8is_micro17hdb4237c14d4fb839E. Final size 25
Finishing the switch case for _ZN6qrcode6canvas14mask_functions16horizontal_lines17h0c5de493f21ce1a3E. Final size 310
Finishing the switch case for _ZN6qrcode6canvas6Canvas15coords_to_index17h392521962941e573E. Final size 398
Finishing the switch case for _ZN6qrcode6canvas6Canvas20draw_finder_patterns17hdd8f6522c27cb362E. Final size 44
Finishing the switch case for _ZN75_$LT$core..option..Option$LT$T$GT$$u20$as$u20$core..ops..try_trait..Try$GT$6branch17h00056140ba3de476E. Final size 24
Finishing the switch case for _ZN77_$LT$alloc..raw_vec..RawVec$LT$T$C$A$GT$$u20$as$u20$core..ops..drop..Drop$GT$4drop17h2653c8de238d7e6bE. Final size 12
Finishing the switch case for _ZN77_$LT$alloc..raw_vec..RawVec$LT$T$C$A$GT$$u20$as$u20$core..ops..drop..Drop$GT$4drop17h7425ee577f6364a4E. Final size 11
Finishing the switch case for _ZN80_$LT$core..option..Option$LT$T$GT$$u20$as$u20$qrcode..cast..ExpectOrOverflow$GT$18expect_or_overflow17h0299d77236c2d7f5E. Final size 37
Finishing the switch case for _ZN80_$LT$core..option..Option$LT$T$GT$$u20$as$u20$qrcode..cast..ExpectOrOverflow$GT$18expect_or_overflow17hcc565ad86b0a8398E. Final size 41
Finishing the switch case for _ZN90_$LT$alloc..vec..Vec$LT$T$C$A$GT$$u20$as$u20$core..iter..traits..collect..IntoIterator$GT$9into_iter17h22749a8b022aa6ebE. Final size 2
Finishing the switch case for _ZN90_$LT$alloc..vec..Vec$LT$T$C$A$GT$$u20$as$u20$core..iter..traits..collect..IntoIterator$GT$9into_iter17had3fcf2b000b78efE. Final size 2
_ZN119_$LT$core..ptr..non_null..NonNull$LT$T$GT$$u20$as$u20$core..convert..From$LT$core..ptr..unique..Unique$LT$T$GT$$GT$$GT$4from17h99906cdd09e2e72aE, 0
_ZN4core3ptr6unique15Unique$LT$T$GT$6as_ptr17h7b6dc5fa17adb8fdE, 1
_ZN4core3ptr8non_null16NonNull$LT$T$GT$13new_unchecked17hbf5401e5492d355dE, 2
_ZN153_$LT$core..result..Result$LT$T$C$F$GT$$u20$as$u20$core..ops..try_trait..FromResidual$LT$core..result..Result$LT$core..convert..Infallible$C$E$GT$$GT$$GT$13from_residual17hcad83c8132eb0772E, 3
_ZN50_$LT$T$u20$as$u20$core..convert..From$LT$T$GT$$GT$4from17hf3e5763620b35ad1E, 4
_ZN3std2io5error5Error3new17hbbec2953d413dc62E, 5
_ZN50_$LT$T$u20$as$u20$core..convert..Into$LT$U$GT$$GT$4into17hb87f357238165c1aE, 6
_ZN3std5error155_$LT$impl$u20$core..convert..From$LT$E$GT$$u20$for$u20$alloc..boxed..Box$LT$dyn$u20$std..error..Error$u2b$core..marker..Sync$u2b$core..marker..Send$GT$$GT$4from17hf23253ff3a212793E, 7
_ZN5alloc5alloc15exchange_malloc17h42ae960d88cc7d7fE, 8
_ZN4core3ptr44drop_in_place$LT$getrandom..error..Error$GT$17h767a6a8f0a28348bE, 9
_ZN3std5error5Error6source17hddc49ea714bab468E, 10
_ZN3std5error5Error7type_id17hf5bfc99c72b70415E, 11
_ZN3std5error5Error9backtrace17hd0ac35706756ad2bE, 12
_ZN3std5error5Error11description17h847a6e6e6db07cb2E, 13
_ZN3std5error5Error5cause17h97dfd18e2a68116fE, 14
_ZN62_$LT$getrandom..error..Error$u20$as$u20$core..fmt..Display$GT$3fmt17h4d4f352563a3a74eE, 15
_ZN60_$LT$getrandom..error..Error$u20$as$u20$core..fmt..Debug$GT$3fmt17h1186afda8936c3c4E, 16
_ZN9getrandom5error5Error12raw_os_error17hc3fcefadcdd0af13E, 17
_ZN9getrandom5error13internal_desc17h90a0b0d3a6630f4bE, 18
_ZN4core3num7nonzero10NonZeroU323get17h3f082ff63873d8e4E, 19
_ZN9getrandom5error6os_err17ha3bac122a69fd2c8E, 20
_ZN4core3ptr39drop_in_place$LT$wasi..error..Error$GT$17hc2386742913696b9E, 21
_ZN4core3ptr28drop_in_place$LT$$RF$str$GT$17heae55af66a369966E, 22
_ZN4core3ptr24drop_in_place$LT$u32$GT$17h2835a56d1e264fd2E, 23
_ZN4core3fmt3num50_$LT$impl$u20$core..fmt..Debug$u20$for$u20$u32$GT$3fmt17h7a287d3c00b2dc97E, 24
_ZN4core3ptr24drop_in_place$LT$i32$GT$17h16ac9db18ef64548E, 25
_ZN4core3fmt3num50_$LT$impl$u20$core..fmt..Debug$u20$for$u20$i32$GT$3fmt17he09250123fe1ce84E, 26
_ZN4core3fmt10ArgumentV13new17hc8014da8ef214740E, 27
_ZN4core3fmt9Arguments6new_v117h5c9b71d764a5fdbcE, 28
_ZN4core3fmt10ArgumentV13new17h783b9e99ff59fb19E, 29
_ZN4core3any6TypeId2of17he15a6f5ce9914bd2E, 30
_ZN4core5alloc6layout6Layout25from_size_align_unchecked17h3ab800cd6926da39E, 31
_ZN63_$LT$alloc..alloc..Global$u20$as$u20$core..alloc..Allocator$GT$8allocate17h0c5b0a21465b3c95E, 32
_ZN4core3ptr8non_null26NonNull$LT$$u5b$T$u5d$$GT$10as_mut_ptr17h6e85ee4bf3a57f3eE, 33
_ZN4core3ptr8non_null26NonNull$LT$$u5b$T$u5d$$GT$15as_non_null_ptr17h5a98b9a736d3b3dcE, 34
_ZN4core3ptr8non_null16NonNull$LT$T$GT$6as_ptr17hb86501a1b8ff94ecE, 35
_ZN4core3ptr8non_null16NonNull$LT$T$GT$6as_ptr17h28a082bf1976c52aE, 36
_ZN5alloc5alloc6Global10alloc_impl17h0059515b4a6b9aa6E, 37
_ZN4core5alloc6layout6Layout4size17hf5dd275da22a9eb2E, 38
_ZN4core5alloc6layout6Layout8dangling17h7dae8a739681dc73E, 39
_ZN5alloc5alloc5alloc17h7122b84d94d052c2E, 40
_ZN5alloc5alloc12alloc_zeroed17hacf8dc91bd6bc4eaE, 41
_ZN4core3ptr8non_null16NonNull$LT$T$GT$3new17h5a4ed9d9a7401132E, 42
_ZN4core6option15Option$LT$T$GT$5ok_or17h087ecc05d4e3421bE, 43
_ZN79_$LT$core..result..Result$LT$T$C$E$GT$$u20$as$u20$core..ops..try_trait..Try$GT$6branch17h1f7f6c784f4fc600E, 44
_ZN4core3ptr8non_null26NonNull$LT$$u5b$T$u5d$$GT$20slice_from_raw_parts17h06ded7b2392b8107E, 45
_ZN4core3ptr24slice_from_raw_parts_mut17hc78141cbcf23342aE, 46
_ZN4core3ptr8non_null16NonNull$LT$T$GT$13new_unchecked17h578860023807e023E, 47
_ZN4core3ptr8metadata18from_raw_parts_mut17hc599220fb8f2c084E, 48
_ZN4core3ptr7mut_ptr31_$LT$impl$u20$$BP$mut$u20$T$GT$7is_null17hbf0e90b85e1e8915E, 49
_ZN4core3ptr7mut_ptr31_$LT$impl$u20$$BP$mut$u20$T$GT$13guaranteed_eq17h8e034779a9bbaebeE, 50
_ZN4core5alloc6layout6Layout5align17h8b868deecc4ad237E, 51
_ZN4core3num7nonzero12NonZeroUsize3get17h0c6e89df7cb1ba9fE, 52
_ZN4core3num7nonzero12NonZeroUsize13new_unchecked17ha163cb732585db2eE, 53
_ZN4core3ptr117drop_in_place$LT$alloc..boxed..Box$LT$dyn$u20$std..error..Error$u2b$core..marker..Sync$u2b$core..marker..Send$GT$$GT$17hddc5fd032b10da08E, 54
_ZN5alloc5alloc8box_free17h8bcba8a967356838E, 55
_ZN4core3ptr6unique15Unique$LT$T$GT$6as_ref17h75fd784b1b791811E, 56
_ZN4core3ptr6unique15Unique$LT$T$GT$4cast17h6ff74950346d54b3E, 57
_ZN50_$LT$T$u20$as$u20$core..convert..Into$LT$U$GT$$GT$4into17he43da956f2317563E, 58
_ZN63_$LT$alloc..alloc..Global$u20$as$u20$core..alloc..Allocator$GT$10deallocate17he3aef2bc8adc564fE, 59
_ZN5alloc5alloc7dealloc17h8a3571ae025474fcE, 60
_ZN4core3ptr6unique15Unique$LT$T$GT$6as_ptr17h65bea5371e9444abE, 61
_ZN4core3ptr6unique15Unique$LT$T$GT$13new_unchecked17h6a14e7fa625f5b73E, 62
_ZN4core3ptr41drop_in_place$LT$std..io..error..Repr$GT$17haedb15029a9f36edE_original, 63
_ZN4core3ptr68drop_in_place$LT$alloc..boxed..Box$LT$std..io..error..Custom$GT$$GT$17h14aa3ec730d44cdaE, 64
_ZN4core3ptr43drop_in_place$LT$std..io..error..Custom$GT$17h0eafb24f59c24034E, 65
_ZN5alloc5alloc8box_free17hc460e92ab7127cb6E, 66
_ZN4core3ptr6unique15Unique$LT$T$GT$6as_ref17h4b5963668c8828f9E, 67
_ZN4core3ptr6unique15Unique$LT$T$GT$4cast17h36456ed71fde5bddE, 68
_ZN4core3ptr6unique15Unique$LT$T$GT$6as_ptr17ha9e9e464db809852E, 69
_ZN4core3ptr42drop_in_place$LT$std..io..error..Error$GT$17h2912c11375c846f6E, 70
_ZN4core3ptr92drop_in_place$LT$dyn$u20$std..error..Error$u2b$core..marker..Sync$u2b$core..marker..Send$GT$17h24912ea8a526449eE, 71
_ZN4core5slice29_$LT$impl$u20$$u5b$T$u5d$$GT$10as_mut_ptr17h0dfce008b74eb701E, 72
_ZN4core5slice29_$LT$impl$u20$$u5b$T$u5d$$GT$8is_empty17h54c3955368a089dbE, 73
_ZN4core6option15Option$LT$T$GT$6unwrap17h5bc71d5068b53627E, 74
_ZN4core6result19Result$LT$T$C$E$GT$7map_err17h881d9cfc26c7fcefE, 75
_ZN9getrandom3imp15getrandom_inner28_$u7b$$u7b$closure$u7d$$u7d$17h2aa4c547d10fd5deE, 76
_ZN4core3num7nonzero10NonZeroU323new17h736f81240fa63112E, 77
_ZN50_$LT$T$u20$as$u20$core..convert..Into$LT$U$GT$$GT$4into17h2e330281d3b80b0aE, 78
_ZN101_$LT$getrandom..error..Error$u20$as$u20$core..convert..From$LT$core..num..nonzero..NonZeroU32$GT$$GT$4from17h31acf06ce35a3890E, 79
_ZN9getrandom11error_impls102_$LT$impl$u20$core..convert..From$LT$std..io..error..Error$GT$$u20$for$u20$getrandom..error..Error$GT$4from17ha6e8f6af28bb5a28E, 80
_ZN3std2io5error5Error12raw_os_error17hff19ab5eadf4189dE_original, 81
_ZN9getrandom11error_impls102_$LT$impl$u20$core..convert..From$LT$getrandom..error..Error$GT$$u20$for$u20$std..io..error..Error$GT$4from17hf559307f1648eef5E, 82
_ZN3std2io5error5Error17from_raw_os_error17hf8c07dbd2bb83a3fE, 83
_ZN9getrandom9getrandom17h2475c2c1d73d9744E, 84
_ZN9getrandom3imp15getrandom_inner17h5c609c2f02ef0e6aE, 85
_ZN42_$LT$$RF$T$u20$as$u20$core..fmt..Debug$GT$3fmt17h347f9fcef83b8030E, 86
_ZN72_$LT$rand_core..block..BlockRng$LT$R$GT$$u20$as$u20$core..fmt..Debug$GT$3fmt17h978a04fe0b124aa1E, 87
_ZN97_$LT$rand_chacha..chacha..Array64$LT$T$GT$$u20$as$u20$core..convert..AsRef$LT$$u5b$T$u5d$$GT$$GT$6as_ref17h8d96ab38f63c235fE, 88
_ZN4core3ptr26drop_in_place$LT$usize$GT$17h62b1bfa82af8e5d1E, 89
_ZN4core3fmt3num52_$LT$impl$u20$core..fmt..Debug$u20$for$u20$usize$GT$3fmt17hababd7d1d20223f0E, 90
_ZN4core3ptr54drop_in_place$LT$rand_chacha..chacha..ChaCha20Core$GT$17h55b21ccbc73b79f2E, 91
_ZN70_$LT$rand_chacha..chacha..ChaCha20Core$u20$as$u20$core..fmt..Debug$GT$3fmt17hc8013821defbcad2E, 92
_ZN4core3fmt9Arguments6new_v117hb449728fe3ba04c1E, 93
_ZN42_$LT$$RF$T$u20$as$u20$core..fmt..Debug$GT$3fmt17h4f5591cdfa3eddb5E, 94
_ZN72_$LT$rand_core..block..BlockRng$LT$R$GT$$u20$as$u20$core..fmt..Debug$GT$3fmt17hcab93ba207d738eaE, 95
_ZN4core3ptr54drop_in_place$LT$rand_chacha..chacha..ChaCha12Core$GT$17h8caa6bf8f671d63bE, 96
_ZN70_$LT$rand_chacha..chacha..ChaCha12Core$u20$as$u20$core..fmt..Debug$GT$3fmt17h5ba18b9b91a1d1abE, 97
_ZN42_$LT$$RF$T$u20$as$u20$core..fmt..Debug$GT$3fmt17h91f6e11c46b225deE, 98
_ZN72_$LT$rand_core..block..BlockRng$LT$R$GT$$u20$as$u20$core..fmt..Debug$GT$3fmt17h88d27cb3be9b56d5E, 99
_ZN4core3ptr53drop_in_place$LT$rand_chacha..chacha..ChaCha8Core$GT$17h345178f46859c584E, 100
_ZN69_$LT$rand_chacha..chacha..ChaCha8Core$u20$as$u20$core..fmt..Debug$GT$3fmt17hebb488435c314c3fE, 101
_ZN42_$LT$$RF$T$u20$as$u20$core..fmt..Debug$GT$3fmt17he929d8eb7f2f48b2E, 102
_ZN4core9panicking13assert_failed17heb210aa75fa25c09E, 103
_ZN4core3ptr30drop_in_place$LT$$RF$usize$GT$17he7eb6f3d22701778E, 104
_ZN9rand_core5block17BlockRng$LT$R$GT$3new17h1a1a32975a7395c0E, 105
_ZN80_$LT$rand_chacha..chacha..Array64$LT$T$GT$$u20$as$u20$core..default..Default$GT$7default17h2c06e8110a454aa0E, 106
_ZN46_$LT$u32$u20$as$u20$core..default..Default$GT$7default17he7f6a904467aae8bE, 107
_ZN9rand_core5block17BlockRng$LT$R$GT$3new17h9318faa289a33ce4E, 108
_ZN9rand_core5block17BlockRng$LT$R$GT$3new17he9b6153801488764E, 109
_ZN11rand_chacha4guts10read_u32le17hd55034454f03c75fE, 110
_ZN4core7convert3num63_$LT$impl$u20$core..convert..From$LT$u8$GT$$u20$for$u20$u32$GT$4from17h7d3b453e902950bfE, 111
_ZN113_$LT$rand_chacha..chacha..ChaCha20Rng$u20$as$u20$core..convert..From$LT$rand_chacha..chacha..ChaCha20Core$GT$$GT$4from17h11fd76780a01883eE, 112
_ZN69_$LT$rand_chacha..chacha..ChaCha20Rng$u20$as$u20$core..fmt..Debug$GT$3fmt17h34f295de94c8a28aE, 113
_ZN4core3ptr92drop_in_place$LT$$RF$rand_core..block..BlockRng$LT$rand_chacha..chacha..ChaCha20Core$GT$$GT$17hd5756afa5b6d789eE, 114
_ZN113_$LT$rand_chacha..chacha..ChaCha12Rng$u20$as$u20$core..convert..From$LT$rand_chacha..chacha..ChaCha12Core$GT$$GT$4from17h59855aa8b69ae73aE, 115
_ZN69_$LT$rand_chacha..chacha..ChaCha12Rng$u20$as$u20$core..fmt..Debug$GT$3fmt17h91c7ec5dbac08790E, 116
_ZN4core3ptr92drop_in_place$LT$$RF$rand_core..block..BlockRng$LT$rand_chacha..chacha..ChaCha12Core$GT$$GT$17hfc4b39b2f708b7b1E, 117
_ZN111_$LT$rand_chacha..chacha..ChaCha8Rng$u20$as$u20$core..convert..From$LT$rand_chacha..chacha..ChaCha8Core$GT$$GT$4from17h76937b8a5863fbd8E, 118
_ZN68_$LT$rand_chacha..chacha..ChaCha8Rng$u20$as$u20$core..fmt..Debug$GT$3fmt17h4e6b37eb207df937E, 119
_ZN4core3ptr91drop_in_place$LT$$RF$rand_core..block..BlockRng$LT$rand_chacha..chacha..ChaCha8Core$GT$$GT$17h0c2e5a17e4943ae2E, 120
_ZN57_$LT$libc..wasi..fpos_t$u20$as$u20$core..clone..Clone$GT$5clone17h7fa0bd97768683f7E, 121
_ZN53_$LT$libc..wasi..tm$u20$as$u20$core..clone..Clone$GT$5clone17h1e670e86cc0c5e14E, 122
_ZN58_$LT$libc..wasi..timeval$u20$as$u20$core..clone..Clone$GT$5clone17h3fb77cb22a188d53E, 123
_ZN59_$LT$libc..wasi..timespec$u20$as$u20$core..clone..Clone$GT$5clone17h949d27ca0038c2b9E, 124
_ZN54_$LT$libc..wasi..tms$u20$as$u20$core..clone..Clone$GT$5clone17h632c9efc49b7ebccE, 125
_ZN61_$LT$libc..wasi..itimerspec$u20$as$u20$core..clone..Clone$GT$5clone17h1968d98addcef6bbE, 126
_ZN56_$LT$libc..wasi..iovec$u20$as$u20$core..clone..Clone$GT$5clone17hd8df33a2a61fd5dfE, 127
_ZN56_$LT$libc..wasi..lconv$u20$as$u20$core..clone..Clone$GT$5clone17he2d93205a92dba66E, 128
_ZN57_$LT$libc..wasi..pollfd$u20$as$u20$core..clone..Clone$GT$5clone17h554cd6bf8e85bca7E, 129
_ZN57_$LT$libc..wasi..rusage$u20$as$u20$core..clone..Clone$GT$5clone17h43779372facccd25E, 130
_ZN55_$LT$libc..wasi..stat$u20$as$u20$core..clone..Clone$GT$5clone17ha680d732232c0f04E, 131
_ZN100_$LT$core..iter..adapters..take..Take$LT$I$GT$$u20$as$u20$core..iter..traits..iterator..Iterator$GT$4next17h01d04b1b4771269bE, 132
_ZN102_$LT$core..iter..adapters..cycle..Cycle$LT$I$GT$$u20$as$u20$core..iter..traits..iterator..Iterator$GT$4next17h23aaca1257e57456E, 133
_ZN104_$LT$core..iter..adapters..cloned..Cloned$LT$I$GT$$u20$as$u20$core..iter..traits..iterator..Iterator$GT$4next17h4224c55601d57898E, 134
_ZN84_$LT$core..iter..adapters..cloned..Cloned$LT$I$GT$$u20$as$u20$core..clone..Clone$GT$5clone17haa443c45096b93c7E, 135
_ZN71_$LT$core..slice..iter..Iter$LT$T$GT$$u20$as$u20$core..clone..Clone$GT$5clone17h6a2a6c3649cef827E, 136
_ZN91_$LT$core..slice..iter..Iter$LT$T$GT$$u20$as$u20$core..iter..traits..iterator..Iterator$GT$4next17h37cdf9123afbf39aE, 137
_ZN4core6option19Option$LT$$RF$T$GT$6cloned17h5e9d81e18a350649E, 138
_ZN4core6option15Option$LT$T$GT$3map17hc0210308b48f241dE, 139
_ZN4core6option19Option$LT$$RF$T$GT$6cloned28_$u7b$$u7b$closure$u7d$$u7d$17hc91ad0839a38a34aE, 140
_ZN4core5clone5impls51_$LT$impl$u20$core..clone..Clone$u20$for$u20$u8$GT$5clone17h34998e6189a7f6baE, 141
_ZN4core3ptr8non_null16NonNull$LT$T$GT$6as_ptr17h6e0e1910394da0e9E, 142
_ZN4core3ptr7mut_ptr31_$LT$impl$u20$$BP$mut$u20$T$GT$7is_null17hd09b17d776f57d43E, 143
_ZN4core3ptr9const_ptr33_$LT$impl$u20$$BP$const$u20$T$GT$7is_null17h10087deb99dd5f90E, 144
_ZN4core3ptr8non_null16NonNull$LT$T$GT$13new_unchecked17h150d5b7ab31cc145E, 145
_ZN4core3ptr9const_ptr33_$LT$impl$u20$$BP$const$u20$T$GT$13guaranteed_eq17h8def6195d5a426fdE, 146
_ZN4core3ptr7mut_ptr31_$LT$impl$u20$$BP$mut$u20$T$GT$13guaranteed_eq17ha5e0b61699908416E, 147
_ZN100_$LT$core..iter..adapters..take..Take$LT$I$GT$$u20$as$u20$core..iter..traits..iterator..Iterator$GT$9size_hint17h350588f8a34e7dcaE, 148
_ZN102_$LT$core..iter..adapters..cycle..Cycle$LT$I$GT$$u20$as$u20$core..iter..traits..iterator..Iterator$GT$9size_hint17hb562490e751a5104E_original, 149
_ZN4core3cmp3min17hebc7e93c872b5cd6E, 150
_ZN4core3cmp3Ord3min17hf810b7b9baf22705E, 151
_ZN4core3cmp6min_by17h0c79ccafeee55f09E, 152
_ZN4core3ops8function6FnOnce9call_once17h8f6534f8b507da3dE, 153
_ZN4core3cmp5impls50_$LT$impl$u20$core..cmp..Ord$u20$for$u20$usize$GT$3cmp17h6679dc9c92bdda7cE, 154
_ZN104_$LT$core..iter..adapters..cloned..Cloned$LT$I$GT$$u20$as$u20$core..iter..traits..iterator..Iterator$GT$9size_hint17h31989205b3d5d2abE, 155
_ZN91_$LT$core..slice..iter..Iter$LT$T$GT$$u20$as$u20$core..iter..traits..iterator..Iterator$GT$9size_hint17h177d923123911572E, 156
_ZN4core4iter8adapters3zip17try_get_unchecked17h718729b9093d3481E, 157
_ZN4core3ops8function5FnMut8call_mut17h927a83ad3b5bef90E, 158
_ZN6qrcode6canvas100_$LT$impl$u20$core..convert..From$LT$qrcode..canvas..Module$GT$$u20$for$u20$qrcode..types..Color$GT$4from17he3d845fd28ccdceeE, 159
_ZN72_$LT$I$u20$as$u20$core..iter..adapters..zip..SpecTrustedRandomAccess$GT$17try_get_unchecked17hd3e73a7f0edbc8f1E, 160
_ZN103_$LT$alloc..vec..into_iter..IntoIter$LT$T$C$A$GT$$u20$as$u20$core..iter..traits..iterator..Iterator$GT$24__iterator_get_unchecked17h56f22098dda087b1E, 161
_ZN4core3mem12maybe_uninit20MaybeUninit$LT$T$GT$6zeroed17h3dd08e66bb527e7cE, 162
_ZN4core3ptr4read17h085d554cd46599b9E, 163
_ZN4core10intrinsics19copy_nonoverlapping17ha4ae292995536613E, 164
_ZN4core10intrinsics11write_bytes17h8672b291989b7bdaE, 165
_ZN102_$LT$core..iter..adapters..map..Map$LT$I$C$F$GT$$u20$as$u20$core..iter..traits..iterator..Iterator$GT$24__iterator_get_unchecked17hf08dbd5baa384d9aE, 166
_ZN4core4iter8adapters3zip17try_get_unchecked17h517e22e3a791c407E, 167
_ZN6qrcode6QrCode8into_vec28_$u7b$$u7b$closure$u7d$$u7d$17hbb43f9c9dd63a22fE, 168
_ZN4core3cmp9PartialEq2ne17hf2a9ac3c0a64039bE, 169
_ZN61_$LT$qrcode..types..Color$u20$as$u20$core..cmp..PartialEq$GT$2eq17h9385d589d55ef5a6E, 170
_ZN72_$LT$I$u20$as$u20$core..iter..adapters..zip..SpecTrustedRandomAccess$GT$17try_get_unchecked17hbb1a6b351c70a08bE, 171
_ZN103_$LT$alloc..vec..into_iter..IntoIter$LT$T$C$A$GT$$u20$as$u20$core..iter..traits..iterator..Iterator$GT$24__iterator_get_unchecked17h0fc81070bbe0d704E_original, 172
_ZN4core3mem12maybe_uninit20MaybeUninit$LT$T$GT$6zeroed17h59ff0c37da78b08fE, 173
_ZN4core3ptr4read17h3dd2de5f90a85acfE, 174
_ZN4core10intrinsics19copy_nonoverlapping17h7adc581d7e26bef4E, 175
_ZN4core10intrinsics11write_bytes17h456731e880c1ebaaE, 176
_ZN102_$LT$core..iter..adapters..map..Map$LT$I$C$F$GT$$u20$as$u20$core..iter..traits..iterator..Iterator$GT$4fold17h19022ee73b523168E, 177
_ZN4core4iter8adapters3map8map_fold17h28565e8591a7ebdbE, 178
_ZN4core4iter6traits8iterator8Iterator4fold17had50487807a5fe23E_original, 179
_ZN103_$LT$alloc..vec..into_iter..IntoIter$LT$T$C$A$GT$$u20$as$u20$core..iter..traits..iterator..Iterator$GT$4next17hcc1885f30dc5eea4E, 180
_ZN4core4iter8adapters3map8map_fold28_$u7b$$u7b$closure$u7d$$u7d$17h5ae1673f0b3a4a76E, 181
_ZN4core3ptr732drop_in_place$LT$core..iter..adapters..map..map_fold$LT$qrcode..canvas..Module$C$qrcode..types..Color$C$$LP$$RP$$C$$LT$qrcode..types..Color$u20$as$u20$core..convert..From$LT$qrcode..canvas..Module$GT$$GT$..from$C$core..iter..traits..iterator..Iterator..for_each..call$LT$qrcode..types..Color$C$$LT$alloc..vec..Vec$LT$qrcode..types..Color$GT$$u20$as$u20$alloc..vec..spec_extend..SpecExtend$LT$qrcode..types..Color$C$core..iter..adapters..map..Map$LT$alloc..vec..into_iter..IntoIter$LT$qrcode..canvas..Module$GT$$C$$LT$qrcode..types..Color$u20$as$u20$core..convert..From$LT$qrcode..canvas..Module$GT$$GT$..from$GT$$GT$$GT$..spec_extend..$u7b$$u7b$closure$u7d$$u7d$$GT$..$u7b$$u7b$closure$u7d$$u7d$$GT$..$u7b$$u7b$closure$u7d$$u7d$$GT$17h3a814874e87ff8adE, 182
_ZN4core3ptr82drop_in_place$LT$alloc..vec..into_iter..IntoIter$LT$qrcode..canvas..Module$GT$$GT$17h507a40084407643aE, 183
_ZN86_$LT$alloc..vec..into_iter..IntoIter$LT$T$C$A$GT$$u20$as$u20$core..ops..drop..Drop$GT$4drop17h60e5ebff340b75a6E, 184
_ZN5alloc3vec9into_iter21IntoIter$LT$T$C$A$GT$16as_raw_mut_slice17h4e13523abc877ebcE, 185
_ZN4core3ptr176drop_in_place$LT$$LT$alloc..vec..into_iter..IntoIter$LT$T$C$A$GT$$u20$as$u20$core..ops..drop..Drop$GT$..drop..DropGuard$LT$qrcode..canvas..Module$C$alloc..alloc..Global$GT$$GT$17h55ced421b11c2b93E, 186
_ZN157_$LT$$LT$alloc..vec..into_iter..IntoIter$LT$T$C$A$GT$$u20$as$u20$core..ops..drop..Drop$GT$..drop..DropGuard$LT$T$C$A$GT$$u20$as$u20$core..ops..drop..Drop$GT$4drop17h7eb7d7cd4e89e9d0E, 187
_ZN4core3ptr4read17h281e860fdd7d3a25E, 188
_ZN4core3ptr8non_null16NonNull$LT$T$GT$6as_ptr17h2f661f7e02ed7f80E, 189
_ZN5alloc7raw_vec19RawVec$LT$T$C$A$GT$17from_raw_parts_in17h9a1a354234a38bf5E, 190
_ZN4core3ptr73drop_in_place$LT$alloc..raw_vec..RawVec$LT$qrcode..canvas..Module$GT$$GT$17h2e260c67ee393370E, 191
_ZN77_$LT$alloc..raw_vec..RawVec$LT$T$C$A$GT$$u20$as$u20$core..ops..drop..Drop$GT$4drop17h65d90d4d8e1a3876E, 192
_ZN5alloc7raw_vec19RawVec$LT$T$C$A$GT$14current_memory17hbb83002bc39dbb60E, 193
_ZN63_$LT$alloc..alloc..Global$u20$as$u20$core..alloc..Allocator$GT$10deallocate17ha3149f1b23334086E, 194
_ZN4core5alloc6layout6Layout4size17h91bb376302428f55E, 195
_ZN5alloc5alloc7dealloc17h2987b8c5a5d4b739E, 196
_ZN4core5alloc6layout6Layout5align17hc39e8022aea4872bE, 197
_ZN4core3num7nonzero12NonZeroUsize3get17h6db17d3b95b974beE, 198
_ZN4core5alloc6layout6Layout25from_size_align_unchecked17h762f7537800c900eE, 199
_ZN4core3ptr6unique15Unique$LT$T$GT$4cast17h8be954cd76a97a8eE, 200
_ZN50_$LT$T$u20$as$u20$core..convert..Into$LT$U$GT$$GT$4into17ha46ae5018e9616e3E, 201
_ZN119_$LT$core..ptr..non_null..NonNull$LT$T$GT$$u20$as$u20$core..convert..From$LT$core..ptr..unique..Unique$LT$T$GT$$GT$$GT$4from17h57ddb1eaa80c591dE, 202
_ZN4core3ptr6unique15Unique$LT$T$GT$6as_ptr17h3ab90125ad886d10E, 203
_ZN4core3ptr6unique15Unique$LT$T$GT$6as_ptr17hf5a3d2cd18796b25E, 204
_ZN4core3ptr6unique15Unique$LT$T$GT$13new_unchecked17hca1e20b05b516736E, 205
_ZN4core3num7nonzero12NonZeroUsize13new_unchecked17h23d53114ef540be2E, 206
_ZN4core3ptr6unique15Unique$LT$T$GT$13new_unchecked17h45dbb9ad223d08dfE, 207
_ZN4core10intrinsics19copy_nonoverlapping17h06dc3e348764a3a3E, 208
_ZN83_$LT$$RF$mut$u20$I$u20$as$u20$core..iter..traits..exact_size..ExactSizeIterator$GT$3len17ha3b2ce83cb936018E, 209
_ZN4core3ptr24slice_from_raw_parts_mut17h7e91a578f5c790a5E, 210
_ZN4core3ptr8metadata18from_raw_parts_mut17hd20caf181a7fe757E, 211
_ZN4core4iter6traits10exact_size17ExactSizeIterator3len17h93ac5c48fa333f79E, 212
_ZN103_$LT$alloc..vec..into_iter..IntoIter$LT$T$C$A$GT$$u20$as$u20$core..iter..traits..iterator..Iterator$GT$9size_hint17h88f56e8c40f880afE_original, 213
_ZN70_$LT$core..option..Option$LT$T$GT$$u20$as$u20$core..cmp..PartialEq$GT$2eq17hbdbed3826bdc329bE, 214
_ZN4core9panicking13assert_failed17ha5281f9e9646966bE, 215
_ZN4core3ptr58drop_in_place$LT$$RF$core..option..Option$LT$usize$GT$$GT$17he93e54869cce4a5aE, 216
_ZN42_$LT$$RF$T$u20$as$u20$core..fmt..Debug$GT$3fmt17h62f2df5aa55ae1ffE, 217
_ZN66_$LT$core..option..Option$LT$T$GT$$u20$as$u20$core..fmt..Debug$GT$3fmt17h53ac03a4cdd5901dE, 218
_ZN4core3ptr30drop_in_place$LT$$RF$usize$GT$17h699e952e7afef6ebE, 219
_ZN42_$LT$$RF$T$u20$as$u20$core..fmt..Debug$GT$3fmt17h2277c905e03bd34bE, 220
_ZN4core3fmt3num52_$LT$impl$u20$core..fmt..Debug$u20$for$u20$usize$GT$3fmt17h05263ea14c2a60a6E, 221
_ZN4core3cmp5impls56_$LT$impl$u20$core..cmp..PartialEq$u20$for$u20$usize$GT$2eq17h007510762393a3efE, 222
_ZN4core3ptr9const_ptr33_$LT$impl$u20$$BP$const$u20$T$GT$11offset_from17h29c4b7ba473c0511E, 223
_ZN4core3ptr503drop_in_place$LT$core..iter..traits..iterator..Iterator..for_each..call$LT$qrcode..types..Color$C$$LT$alloc..vec..Vec$LT$qrcode..types..Color$GT$$u20$as$u20$alloc..vec..spec_extend..SpecExtend$LT$qrcode..types..Color$C$core..iter..adapters..map..Map$LT$alloc..vec..into_iter..IntoIter$LT$qrcode..canvas..Module$GT$$C$$LT$qrcode..types..Color$u20$as$u20$core..convert..From$LT$qrcode..canvas..Module$GT$$GT$..from$GT$$GT$$GT$..spec_extend..$u7b$$u7b$closure$u7d$$u7d$$GT$..$u7b$$u7b$closure$u7d$$u7d$$GT$17h2a1b1754f2ae707fE, 224
_ZN4core3ptr389drop_in_place$LT$$LT$alloc..vec..Vec$LT$qrcode..types..Color$GT$$u20$as$u20$alloc..vec..spec_extend..SpecExtend$LT$qrcode..types..Color$C$core..iter..adapters..map..Map$LT$alloc..vec..into_iter..IntoIter$LT$qrcode..canvas..Module$GT$$C$$LT$qrcode..types..Color$u20$as$u20$core..convert..From$LT$qrcode..canvas..Module$GT$$GT$..from$GT$$GT$$GT$..spec_extend..$u7b$$u7b$closure$u7d$$u7d$$GT$17h0a9c4931eca9b1f0E, 225
_ZN4core3ptr62drop_in_place$LT$alloc..vec..set_len_on_drop..SetLenOnDrop$GT$17h04c267681ea04a0bE, 226
_ZN83_$LT$alloc..vec..set_len_on_drop..SetLenOnDrop$u20$as$u20$core..ops..drop..Drop$GT$4drop17h71b242508c742a00E, 227
_ZN4core4iter6traits8iterator8Iterator8for_each4call28_$u7b$$u7b$closure$u7d$$u7d$17heb9f2a75ce5b0559E, 228
_ZN97_$LT$alloc..vec..Vec$LT$T$C$A$GT$$u20$as$u20$alloc..vec..spec_extend..SpecExtend$LT$T$C$I$GT$$GT$11spec_extend28_$u7b$$u7b$closure$u7d$$u7d$17h7eb5fc517191553bE, 229
_ZN4core3ptr5write17h8736775331976851E, 230
_ZN5alloc3vec15set_len_on_drop12SetLenOnDrop13increment_len17h541f32cc34813bbfE, 231
_ZN102_$LT$core..iter..adapters..map..Map$LT$I$C$F$GT$$u20$as$u20$core..iter..traits..iterator..Iterator$GT$4fold17h373aa9b12052f31fE, 232
_ZN4core4iter8adapters3map8map_fold17hd2f44a5049f5785eE, 233
_ZN4core4iter6traits8iterator8Iterator4fold17hc3fc39b629d44ceeE, 234
_ZN4core4iter5range101_$LT$impl$u20$core..iter..traits..iterator..Iterator$u20$for$u20$core..ops..range..Range$LT$A$GT$$GT$4next17h6422e24fa36040abE, 235
_ZN4core4iter8adapters3map8map_fold28_$u7b$$u7b$closure$u7d$$u7d$17hbe4e9b4307012fe4E, 236
_ZN108_$LT$core..iter..adapters..filter..Filter$LT$I$C$P$GT$$u20$as$u20$core..iter..traits..iterator..Iterator$GT$5count8to_usize28_$u7b$$u7b$closure$u7d$$u7d$17h8dbcd287394a8125E, 237
_ZN56_$LT$usize$u20$as$u20$core..iter..traits..accum..Sum$GT$3sum28_$u7b$$u7b$closure$u7d$$u7d$17h54dbf9b2464cbac5E_original, 238
_ZN6qrcode6canvas6Canvas32compute_light_side_penalty_score28_$u7b$$u7b$closure$u7d$$u7d$17h4d9641bf611a9cfaE, 239
_ZN6qrcode6canvas6Canvas3get17hf60445f3e2ab4510E, 240
_ZN6qrcode6canvas6Module7is_dark17hfb1d2449b53ab898E, 241
_ZN6qrcode6canvas6Canvas15coords_to_index17h392521962941e573E_original, 242
_ZN81_$LT$alloc..vec..Vec$LT$T$C$A$GT$$u20$as$u20$core..ops..index..Index$LT$I$GT$$GT$5index17h962308feb41db9b9E, 243
_ZN72_$LT$alloc..vec..Vec$LT$T$C$A$GT$$u20$as$u20$core..ops..deref..Deref$GT$5deref17h8f517b602979b487E, 244
_ZN4core5slice5index74_$LT$impl$u20$core..ops..index..Index$LT$I$GT$$u20$for$u20$$u5b$T$u5d$$GT$5index17h6108a20ac47a8dcdE, 245
_ZN75_$LT$usize$u20$as$u20$core..slice..index..SliceIndex$LT$$u5b$T$u5d$$GT$$GT$5index17h1dd61d8eeb8b71d4E, 246
_ZN5alloc3vec16Vec$LT$T$C$A$GT$6as_ptr17he8b4b9f44d894781E, 247
_ZN4core5slice3raw14from_raw_parts17h9708ab3d2f82078cE, 248
_ZN4core3ptr20slice_from_raw_parts17h26fa49e50b17743dE, 249
_ZN4core3ptr9const_ptr33_$LT$impl$u20$$BP$const$u20$T$GT$4cast17h998aec4227983fb8E, 250
_ZN4core3ptr8metadata14from_raw_parts17hec1b3cb01b70183bE, 251
_ZN5alloc7raw_vec19RawVec$LT$T$C$A$GT$3ptr17h57ab0316f95cc142E, 252
_ZN4core3ptr7mut_ptr31_$LT$impl$u20$$BP$mut$u20$T$GT$7is_null17hbfb44646db954b39E, 253
_ZN40_$LT$i16$u20$as$u20$qrcode..cast..As$GT$8as_usize17h6b817409dfbc7587E, 254
_ZN56_$LT$i16$u20$as$u20$checked_int_cast..CheckedIntCast$GT$16as_usize_checked17hf8c27e538d0e444fE_original, 255
_ZN80_$LT$core..option..Option$LT$T$GT$$u20$as$u20$qrcode..cast..ExpectOrOverflow$GT$18expect_or_overflow17hc228d05519b64909E, 256
_ZN4core3fmt10ArgumentV13new17h785e06a3002a877bE, 257
_ZN44_$LT$$RF$T$u20$as$u20$core..fmt..Display$GT$3fmt17h28edf6eace4ccdbfE, 258
_ZN4core3fmt10ArgumentV13new17h7c80cc6fa99af8b3E, 259
_ZN4core3fmt9Arguments6new_v117hbc99469c22b53225E, 260
_ZN89_$LT$core..ops..range..Range$LT$T$GT$$u20$as$u20$core..iter..range..RangeIteratorImpl$GT$9spec_next17h3dd04bcac0bac04eE, 261
_ZN4core3cmp5impls55_$LT$impl$u20$core..cmp..PartialOrd$u20$for$u20$i16$GT$2lt17haf03f433529831c5E, 262
_ZN4core5clone5impls52_$LT$impl$u20$core..clone..Clone$u20$for$u20$i16$GT$5clone17hbb33dacdcaf0e936E, 263
_ZN47_$LT$i16$u20$as$u20$core..iter..range..Step$GT$17forward_unchecked17h4043dded8b3ecec3E, 264
_ZN4core3mem7replace17hbb396654b66f7e47E, 265
_ZN4core3ptr4read17hc0cba1c62eb822e5E, 266
_ZN4core3ptr5write17h5be3898f2a47e086E, 267
_ZN4core10intrinsics19copy_nonoverlapping17h69889e715fe44a37E, 268
_ZN102_$LT$core..iter..adapters..map..Map$LT$I$C$F$GT$$u20$as$u20$core..iter..traits..iterator..Iterator$GT$4fold17h4488f9d1f9db204cE, 269
_ZN4core4iter8adapters3map8map_fold17h1699908a5b3edc1dE, 270
_ZN4core4iter6traits8iterator8Iterator4fold17hc18b12e558db8096E, 271
_ZN4core4iter8adapters3map8map_fold28_$u7b$$u7b$closure$u7d$$u7d$17h320e0d1496037c22E, 272
_ZN6qrcode4bits4Bits22push_alphanumeric_data28_$u7b$$u7b$closure$u7d$$u7d$17h1d1143983be902edE, 273
_ZN6qrcode4bits4Bits22push_alphanumeric_data28_$u7b$$u7b$closure$u7d$$u7d$17hfad621b45623a134E, 274
_ZN6qrcode4bits18alphanumeric_digit17hc22049749834ea2aE, 275
_ZN4core7convert3num63_$LT$impl$u20$core..convert..From$LT$u8$GT$$u20$for$u20$u16$GT$4from17h151a43be156dd6a4E, 276
_ZN102_$LT$core..iter..adapters..map..Map$LT$I$C$F$GT$$u20$as$u20$core..iter..traits..iterator..Iterator$GT$4fold17h46cb7d5cd7ca08ccE, 277
_ZN4core4iter8adapters3map8map_fold17hae2762395435fb14E, 278
_ZN4core4iter6traits8iterator8Iterator4fold17h23878d0bda33e5b0E, 279
_ZN91_$LT$core..slice..iter..Iter$LT$T$GT$$u20$as$u20$core..iter..traits..iterator..Iterator$GT$4next17h5312e9a375768a70E, 280
_ZN4core4iter8adapters3map8map_fold28_$u7b$$u7b$closure$u7d$$u7d$17h3ca562d6b996e32aE, 281
_ZN6qrcode6canvas6Canvas15apply_best_mask28_$u7b$$u7b$closure$u7d$$u7d$17h51d29c4c0f574186E, 282
_ZN4core4iter8adapters3map8map_fold28_$u7b$$u7b$closure$u7d$$u7d$17hca4a692c8eab51f7E, 283
_ZN4core4iter6traits8iterator8Iterator10min_by_key3key28_$u7b$$u7b$closure$u7d$$u7d$17h05dd09b2874d1349E, 284
_ZN4core4iter6traits8iterator8Iterator6min_by4fold28_$u7b$$u7b$closure$u7d$$u7d$17h705e755860c5fdadE, 285
_ZN4core3cmp6min_by17h624058f0fe702942E, 286
_ZN4core3ops8function5impls80_$LT$impl$u20$core..ops..function..FnOnce$LT$A$GT$$u20$for$u20$$RF$mut$u20$F$GT$9call_once17h2986002fd7c0cb15E, 287
_ZN4core3ptr57drop_in_place$LT$$LP$u16$C$qrcode..canvas..Canvas$RP$$GT$17hcb751e3d031d6badE, 288
_ZN4core3ptr43drop_in_place$LT$qrcode..canvas..Canvas$GT$17h577dadda6a93293dE, 289
_ZN4core3ptr66drop_in_place$LT$alloc..vec..Vec$LT$qrcode..canvas..Module$GT$$GT$17h2964c08d1730eb5bE, 290
_ZN70_$LT$alloc..vec..Vec$LT$T$C$A$GT$$u20$as$u20$core..ops..drop..Drop$GT$4drop17hb95f7140a92de1a6E, 291
_ZN5alloc3vec16Vec$LT$T$C$A$GT$10as_mut_ptr17h425c46af2a0a0489E, 292
_ZN4core3ops8function5FnMut8call_mut17h72d95caeba0065a1E, 293
_ZN4core4iter6traits8iterator8Iterator10min_by_key7compare17he9384d2beae833ccE, 294
_ZN4core3cmp5impls48_$LT$impl$u20$core..cmp..Ord$u20$for$u20$u16$GT$3cmp17h6f5c959ad6d252c7E, 295
_ZN4core3ops8function5FnMut8call_mut17h7e57d65cf486bc39E, 296
_ZN6qrcode6canvas6Canvas28compute_total_penalty_scores17h57fdced0f099b426E, 297
_ZN6qrcode6canvas6Canvas30compute_adjacent_penalty_score17h4ad0a40b437d01bfE, 298
_ZN6qrcode6canvas6Canvas32compute_light_side_penalty_score17hf1c126bc8d625efcE, 299
_ZN6qrcode6canvas6Canvas27compute_block_penalty_score17h9f2734bf922c5c8eE, 300
_ZN6qrcode6canvas6Canvas28compute_finder_penalty_score17h50c1fcdf4d0889d1E, 301
_ZN6qrcode6canvas6Canvas29compute_balance_penalty_score17hc04707505fb3d442E, 302
_ZN4core5slice29_$LT$impl$u20$$u5b$T$u5d$$GT$4iter17h7a06ddec63505568E, 303
_ZN4core4iter6traits8iterator8Iterator6filter17h522b1349f4feb127E, 304
_ZN108_$LT$core..iter..adapters..filter..Filter$LT$I$C$P$GT$$u20$as$u20$core..iter..traits..iterator..Iterator$GT$5count17hd3efc92bb10606aeE, 305
_ZN5alloc3vec16Vec$LT$T$C$A$GT$3len17h3999b0f0d9c71586E, 306
_ZN42_$LT$usize$u20$as$u20$qrcode..cast..As$GT$6as_u1617h10d739b7f3b43e3eE, 307
_ZN58_$LT$usize$u20$as$u20$checked_int_cast..CheckedIntCast$GT$14as_u16_checked17h8c652c149b1ec8f1E_original, 308
_ZN80_$LT$core..option..Option$LT$T$GT$$u20$as$u20$qrcode..cast..ExpectOrOverflow$GT$18expect_or_overflow17hee90fc393c569282E, 309
_ZN4core3fmt10ArgumentV13new17hb604654b6bb9dedfE, 310
_ZN108_$LT$core..iter..adapters..filter..Filter$LT$I$C$P$GT$$u20$as$u20$core..iter..traits..iterator..Iterator$GT$5count8to_usize17h44b35a56bf5950e5E, 311
_ZN4core4iter6traits8iterator8Iterator3map17h0edf803eea109974E, 312
_ZN4core4iter6traits8iterator8Iterator3sum17hcfbb2aca3cf218cbE, 313
_ZN56_$LT$usize$u20$as$u20$core..iter..traits..accum..Sum$GT$3sum17h8a2083f33a262982E, 314
_ZN102_$LT$core..iter..adapters..map..Map$LT$I$C$F$GT$$u20$as$u20$core..iter..traits..iterator..Iterator$GT$4fold17hc445969fda27f748E, 315
_ZN4core4iter8adapters3map8map_fold17hc1ba8cdb907ae716E, 316
_ZN4core4iter6traits8iterator8Iterator4fold17h1e6d583f05411142E, 317
_ZN91_$LT$core..slice..iter..Iter$LT$T$GT$$u20$as$u20$core..iter..traits..iterator..Iterator$GT$4next17h8a8ecbab4c75dea1E, 318
_ZN4core4iter8adapters3map8map_fold28_$u7b$$u7b$closure$u7d$$u7d$17hf3f0b452a27775d4E, 319
_ZN108_$LT$core..iter..adapters..filter..Filter$LT$I$C$P$GT$$u20$as$u20$core..iter..traits..iterator..Iterator$GT$5count8to_usize28_$u7b$$u7b$closure$u7d$$u7d$17h09e9faeff41933e9E, 320
_ZN56_$LT$usize$u20$as$u20$core..iter..traits..accum..Sum$GT$3sum28_$u7b$$u7b$closure$u7d$$u7d$17h5be9c5328d6cac68E, 321
_ZN6qrcode6canvas6Canvas29compute_balance_penalty_score28_$u7b$$u7b$closure$u7d$$u7d$17hff23d78d31a420f9E, 322
_ZN4core3ptr9const_ptr33_$LT$impl$u20$$BP$const$u20$T$GT$7is_null17hd80749d9f5b99c9eE, 323
_ZN4core3ptr8non_null16NonNull$LT$T$GT$13new_unchecked17he0b73b51a4074063E, 324
_ZN4core4iter8adapters3map16Map$LT$I$C$F$GT$3new17h886226a499863f26E, 325
_ZN4core4iter8adapters6filter19Filter$LT$I$C$P$GT$3new17h0a160b5ba533886fE, 326
_ZN4core5slice4iter13Iter$LT$T$GT$3new17h67f88d1d5d6740fbE, 327
_ZN4core5slice29_$LT$impl$u20$$u5b$T$u5d$$GT$6as_ptr17h246b62d08eb6b133E, 328
_ZN4core5slice29_$LT$impl$u20$$u5b$T$u5d$$GT$3len17h59087c8ba5cac3e4E, 329
_ZN63_$LT$I$u20$as$u20$core..iter..traits..collect..IntoIterator$GT$9into_iter17h4735a568eeaa45dbE, 330
_ZN5alloc5alloc15exchange_malloc17hb8d4f529427e3d08E, 331
_ZN4core4iter6traits8iterator8Iterator3map17hcbcf4308861b0533E, 332
_ZN4core5slice29_$LT$impl$u20$$u5b$T$u5d$$GT$4iter17hdc883ca4f5aab749E, 333
_ZN4core4iter6traits8iterator8Iterator6cloned17h303d402e2d8af407E, 334
_ZN4core4iter6traits8iterator8Iterator2ne17h63b2a3c61402aff9E, 335
_ZN4core3ptr145drop_in_place$LT$alloc..boxed..Box$LT$dyn$u20$core..ops..function..Fn$LT$$LP$i16$C$$RP$$GT$$u2b$Output$u20$$u3d$$u20$qrcode..types..Color$GT$$GT$17hd01e458f4ee2f1cfE, 336
_ZN4core4iter6traits8iterator8Iterator3any17hce66096838d76890E, 337
_ZN4core4iter6traits8iterator8Iterator3any5check17he9044d41c2e751d9E, 338
_ZN4core4iter6traits8iterator8Iterator8try_fold17h0b414e5698fa0955E, 339
_ZN90_$LT$core..ops..control_flow..ControlFlow$LT$B$C$C$GT$$u20$as$u20$core..cmp..PartialEq$GT$2eq17h9d78d64f22e2ddb8E, 340
_ZN4core3cmp5impls59_$LT$impl$u20$core..cmp..PartialEq$u20$for$u20$$LP$$RP$$GT$2eq17ha699e61a9fef39b7E, 341
_ZN4core4iter6traits8iterator8Iterator3any5check28_$u7b$$u7b$closure$u7d$$u7d$17h8fd3acb5d72402abE, 342
_ZN95_$LT$core..ops..control_flow..ControlFlow$LT$B$C$C$GT$$u20$as$u20$core..ops..try_trait..Try$GT$11from_output17hbac3096b831ad065E, 343
_ZN95_$LT$core..ops..control_flow..ControlFlow$LT$B$C$C$GT$$u20$as$u20$core..ops..try_trait..Try$GT$6branch17h4b143ac28dc011f4E, 344
_ZN104_$LT$core..ops..control_flow..ControlFlow$LT$B$C$C$GT$$u20$as$u20$core..ops..try_trait..FromResidual$GT$13from_residual17h7e39860cb771b12eE, 345
_ZN4core3ops8function5impls71_$LT$impl$u20$core..ops..function..FnMut$LT$A$GT$$u20$for$u20$$RF$F$GT$8call_mut17h8f22aa66ae04e88bE, 346
_ZN6qrcode6canvas6Canvas28compute_finder_penalty_score28_$u7b$$u7b$closure$u7d$$u7d$17h130a2becbe3d3acaE, 347
_ZN86_$LT$alloc..boxed..Box$LT$F$C$A$GT$$u20$as$u20$core..ops..function..Fn$LT$Args$GT$$GT$4call17hf761c8533d929775E, 348
_ZN5alloc5alloc8box_free17h424130ee04817b27E, 349
_ZN4core3ptr6unique15Unique$LT$T$GT$6as_ref17hb03cb3b783ce5c93E, 350
_ZN4core3ptr6unique15Unique$LT$T$GT$4cast17h0508afd810438379E, 351
_ZN4core3ptr6unique15Unique$LT$T$GT$6as_ptr17h2c43ee3c226bb78dE, 352
_ZN4core4iter6traits8iterator8Iterator2eq17hcd8caf9a9fa4121dE, 353
_ZN4core4iter6traits8iterator8Iterator5eq_by17h51e332e96f79d825E, 354
_ZN63_$LT$I$u20$as$u20$core..iter..traits..collect..IntoIterator$GT$9into_iter17he86a9a9d70fe7cc7E, 355
_ZN102_$LT$core..iter..adapters..map..Map$LT$I$C$F$GT$$u20$as$u20$core..iter..traits..iterator..Iterator$GT$4next17h141a4235bebef3c1E, 356
_ZN104_$LT$core..iter..adapters..cloned..Cloned$LT$I$GT$$u20$as$u20$core..iter..traits..iterator..Iterator$GT$4next17hb1799737a4e06398E, 357
_ZN4core4iter6traits8iterator8Iterator2eq28_$u7b$$u7b$closure$u7d$$u7d$17hbc4061ead34212c2E, 358
_ZN4core6option15Option$LT$T$GT$7is_none17h26d74c0d5ea9b680E, 359
_ZN4core6option15Option$LT$T$GT$7is_some17h4d57d832e6d663b7E, 360
_ZN91_$LT$core..slice..iter..Iter$LT$T$GT$$u20$as$u20$core..iter..traits..iterator..Iterator$GT$4next17h82db6e2cdbd78309E, 361
_ZN4core6option19Option$LT$$RF$T$GT$6cloned17hf7719353f4ade97dE, 362
_ZN4core6option15Option$LT$T$GT$3map17hdb9f19ed92243b6cE, 363
_ZN4core6option19Option$LT$$RF$T$GT$6cloned28_$u7b$$u7b$closure$u7d$$u7d$17h3db3f101a68f1663E, 364
_ZN59_$LT$qrcode..types..Color$u20$as$u20$core..clone..Clone$GT$5clone17h59e9955cfaa81197E, 365
_ZN4core3ptr8non_null16NonNull$LT$T$GT$6as_ptr17h001d93b2e17ba23cE, 366
_ZN4core3ptr7mut_ptr31_$LT$impl$u20$$BP$mut$u20$T$GT$7is_null17h2e1dbb13bcf96d05E, 367
_ZN4core3ptr9const_ptr33_$LT$impl$u20$$BP$const$u20$T$GT$7is_null17h14c5b0a9431a40e8E, 368
_ZN4core3ptr8non_null16NonNull$LT$T$GT$13new_unchecked17h30aab06101f64cbdE, 369
_ZN4core6option15Option$LT$T$GT$3map17h8e6d53f4084709c5E, 370
_ZN4core3ops8function5impls80_$LT$impl$u20$core..ops..function..FnOnce$LT$A$GT$$u20$for$u20$$RF$mut$u20$F$GT$9call_once17hd61a47710a2f2232E, 371
_ZN4core3ops8function5impls71_$LT$impl$u20$core..ops..function..FnMut$LT$A$GT$$u20$for$u20$$RF$F$GT$8call_mut17hd6945c4703b0b5b0E, 372
_ZN4core4iter8adapters6cloned15Cloned$LT$I$GT$3new17h29138053a537398aE, 373
_ZN4core5slice4iter13Iter$LT$T$GT$3new17h6c59b100703c2796E, 374
_ZN4core5slice29_$LT$impl$u20$$u5b$T$u5d$$GT$6as_ptr17hf11998830925344bE, 375
_ZN4core5slice29_$LT$impl$u20$$u5b$T$u5d$$GT$3len17h319693321bb71646E, 376
_ZN4core4iter8adapters3map16Map$LT$I$C$F$GT$3new17h5a2504f4c6a72b8bE, 377
_ZN4core3ptr102drop_in_place$LT$qrcode..canvas..Canvas..compute_finder_penalty_score..$u7b$$u7b$closure$u7d$$u7d$$GT$17h0dceb9e181ffbc01E, 378
_ZN6qrcode6canvas6Canvas28compute_finder_penalty_score28_$u7b$$u7b$closure$u7d$$u7d$17hb5773f6ade169ddcE, 379
_ZN4core3ops8function6FnOnce40call_once$u7b$$u7b$vtable.shim$u7d$$u7d$17h10e5bf5e33296a6cE, 380
_ZN4core3ops8function6FnOnce9call_once17hdb989b458dd4cd6bE, 381
_ZN50_$LT$T$u20$as$u20$core..convert..Into$LT$U$GT$$GT$4into17h0a424ed538e85b73E, 382
_ZN4core3ptr102drop_in_place$LT$qrcode..canvas..Canvas..compute_finder_penalty_score..$u7b$$u7b$closure$u7d$$u7d$$GT$17hdf10a409843c4afdE, 383
_ZN6qrcode6canvas6Canvas28compute_finder_penalty_score28_$u7b$$u7b$closure$u7d$$u7d$17h60bc991b52d82d19E, 384
_ZN4core3ops8function6FnOnce40call_once$u7b$$u7b$vtable.shim$u7d$$u7d$17hab12e1a2b6751a0eE, 385
_ZN4core3ops8function6FnOnce9call_once17hab31646319cd2f0bE, 386
_ZN63_$LT$alloc..alloc..Global$u20$as$u20$core..alloc..Allocator$GT$8allocate17h50a5a83fcd020892E, 387
_ZN4core3ptr8non_null26NonNull$LT$$u5b$T$u5d$$GT$10as_mut_ptr17h5e9491345b86eff9E, 388
_ZN4core3ptr8non_null26NonNull$LT$$u5b$T$u5d$$GT$15as_non_null_ptr17h5cf28d8bdc3983dcE, 389
_ZN4core3ptr8non_null16NonNull$LT$T$GT$6as_ptr17heebae5f7c9616423E, 390
_ZN5alloc5alloc6Global10alloc_impl17h1f328160f76f12cfE_original, 391
_ZN4core5alloc6layout6Layout8dangling17he03b91d5856b3f00E, 392
_ZN5alloc5alloc5alloc17h59fd6c392280264cE, 393
_ZN5alloc5alloc12alloc_zeroed17h7a68e40818515360E, 394
_ZN4core3ptr8non_null16NonNull$LT$T$GT$3new17h326dded7065ee8daE, 395
_ZN4core6option15Option$LT$T$GT$5ok_or17h77e7547f19e7b462E, 396
_ZN79_$LT$core..result..Result$LT$T$C$E$GT$$u20$as$u20$core..ops..try_trait..Try$GT$6branch17h3cb96ee5f8e4046bE, 397
_ZN4core3ptr8non_null26NonNull$LT$$u5b$T$u5d$$GT$20slice_from_raw_parts17h7f1d1b4843548b4dE, 398
_ZN153_$LT$core..result..Result$LT$T$C$F$GT$$u20$as$u20$core..ops..try_trait..FromResidual$LT$core..result..Result$LT$core..convert..Infallible$C$E$GT$$GT$$GT$13from_residual17hf59ff700afe23efeE, 399
_ZN50_$LT$T$u20$as$u20$core..convert..From$LT$T$GT$$GT$4from17h14522c8d029e1e89E, 400
_ZN4core3ptr24slice_from_raw_parts_mut17hc7d5b3d831ba452dE, 401
_ZN4core3ptr8non_null16NonNull$LT$T$GT$13new_unchecked17hc4df7f2259841becE, 402
_ZN4core3ptr8metadata18from_raw_parts_mut17h6a23ce2ca357ba8fE, 403
_ZN63_$LT$qrcode..canvas..Module$u20$as$u20$core..cmp..PartialEq$GT$2eq17hfcda3bb2ff0a4546E, 404
_ZN4core4iter6traits8iterator8Iterator6filter17hd18d1a3b8f68bc90E, 405
_ZN108_$LT$core..iter..adapters..filter..Filter$LT$I$C$P$GT$$u20$as$u20$core..iter..traits..iterator..Iterator$GT$5count17h7031e9c745cb0143E, 406
_ZN4core4iter6traits8iterator8Iterator6filter17h08611de088ad43abE, 407
_ZN108_$LT$core..iter..adapters..filter..Filter$LT$I$C$P$GT$$u20$as$u20$core..iter..traits..iterator..Iterator$GT$5count17h94a9eb45f30900f8E, 408
_ZN4core3cmp3max17h3e40bd372211bbedE, 409
_ZN4core3cmp3Ord3max17h4af2aed039831c3aE, 410
_ZN4core3cmp6max_by17h86d0814ef01d71c4E, 411
_ZN108_$LT$core..iter..adapters..filter..Filter$LT$I$C$P$GT$$u20$as$u20$core..iter..traits..iterator..Iterator$GT$5count8to_usize17h9fc89dbf3d9b49a3E, 412
_ZN4core4iter6traits8iterator8Iterator3map17hcb9d75889d7d0d18E, 413
_ZN4core4iter6traits8iterator8Iterator3sum17h9af625cd0eca5d3cE, 414
_ZN56_$LT$usize$u20$as$u20$core..iter..traits..accum..Sum$GT$3sum17h4a8cb1ce34519aaeE, 415
_ZN102_$LT$core..iter..adapters..map..Map$LT$I$C$F$GT$$u20$as$u20$core..iter..traits..iterator..Iterator$GT$4fold17hf6479a143ea95944E, 416
_ZN4core4iter8adapters3map8map_fold17he0d6840a64d30762E, 417
_ZN4core4iter6traits8iterator8Iterator4fold17h2a923a18db305dc7E, 418
_ZN4core4iter8adapters3map8map_fold28_$u7b$$u7b$closure$u7d$$u7d$17h1f35b752b6e57c02E, 419
_ZN108_$LT$core..iter..adapters..filter..Filter$LT$I$C$P$GT$$u20$as$u20$core..iter..traits..iterator..Iterator$GT$5count8to_usize28_$u7b$$u7b$closure$u7d$$u7d$17h587efc83073d02d0E, 420
_ZN56_$LT$usize$u20$as$u20$core..iter..traits..accum..Sum$GT$3sum28_$u7b$$u7b$closure$u7d$$u7d$17h72d53966a73b68c1E, 421
_ZN6qrcode6canvas6Canvas32compute_light_side_penalty_score28_$u7b$$u7b$closure$u7d$$u7d$17hcc0ebc4d5c2f3dccE, 422
_ZN4core4iter8adapters3map16Map$LT$I$C$F$GT$3new17hda2b88baa4ed7384E, 423
_ZN4core4iter8adapters6filter19Filter$LT$I$C$P$GT$3new17h32a9687ec5718f3dE, 424
_ZN108_$LT$core..iter..adapters..filter..Filter$LT$I$C$P$GT$$u20$as$u20$core..iter..traits..iterator..Iterator$GT$5count8to_usize17h21a1e8100755de2bE, 425
_ZN4core4iter6traits8iterator8Iterator3map17hba74e154bfef9ef3E, 426
_ZN4core4iter6traits8iterator8Iterator3sum17hb87ec86ea16ee96bE, 427
_ZN56_$LT$usize$u20$as$u20$core..iter..traits..accum..Sum$GT$3sum17ha38826f5a41cda21E, 428
_ZN4core4iter8adapters3map16Map$LT$I$C$F$GT$3new17he6245395d69e9c23E, 429
_ZN4core4iter8adapters6filter19Filter$LT$I$C$P$GT$3new17h14ecca63c1cd3226E, 430
_ZN4core4iter6traits8iterator8Iterator3map17h1e235cb0100a9791E, 431
_ZN91_$LT$core..option..Option$LT$T$GT$$u20$as$u20$core..iter..traits..collect..IntoIterator$GT$9into_iter17hf1bd7ac625630b0fE, 432
_ZN4core4iter6traits8iterator8Iterator5chain17hd8eb1488d2556006E, 433
_ZN63_$LT$I$u20$as$u20$core..iter..traits..collect..IntoIterator$GT$9into_iter17h1285ca8f5379e471E, 434
_ZN106_$LT$core..iter..adapters..chain..Chain$LT$A$C$B$GT$$u20$as$u20$core..iter..traits..iterator..Iterator$GT$4next17he4688f3a135ece2dE, 435
_ZN102_$LT$core..iter..adapters..map..Map$LT$I$C$F$GT$$u20$as$u20$core..iter..traits..iterator..Iterator$GT$4next17hc552bcc6c3aec5beE, 436
_ZN90_$LT$core..option..IntoIter$LT$A$GT$$u20$as$u20$core..iter..traits..iterator..Iterator$GT$4next17hbc5c091a7d2ed70fE, 437
_ZN86_$LT$core..option..Item$LT$A$GT$$u20$as$u20$core..iter..traits..iterator..Iterator$GT$4next17h4474e229734717d3E, 438
_ZN4core6option15Option$LT$T$GT$4take17h62783bfac390269eE, 439
_ZN4core3mem4take17h1062fc371a765962E, 440
_ZN72_$LT$core..option..Option$LT$T$GT$$u20$as$u20$core..default..Default$GT$7default17h7e4734e310587759E, 441
_ZN4core3mem7replace17h2bb6302f231a62fcE, 442
_ZN4core3ptr4read17h69885b64259ed80bE, 443
_ZN4core3ptr5write17ha814d82362f87451E, 444
_ZN4core10intrinsics19copy_nonoverlapping17hb493e48aae3af3a9E, 445
_ZN4core6option15Option$LT$T$GT$3map17hd38ac00454b40508E, 446
_ZN4core3ops8function5impls80_$LT$impl$u20$core..ops..function..FnOnce$LT$A$GT$$u20$for$u20$$RF$mut$u20$F$GT$9call_once17h0bf92b2f81f4c5dbE, 447
_ZN6qrcode6canvas6Canvas30compute_adjacent_penalty_score28_$u7b$$u7b$closure$u7d$$u7d$17h1000b49dcb5b61acE, 448
_ZN63_$LT$I$u20$as$u20$core..iter..traits..collect..IntoIterator$GT$9into_iter17he7cdd7de43535f39E, 449
_ZN4core4iter8adapters5chain18Chain$LT$A$C$B$GT$3new17h13e9a55f358a2659E, 450
_ZN4core4iter8adapters3map16Map$LT$I$C$F$GT$3new17he0ac24fd0b815b73E, 451
_ZN61_$LT$qrcode..canvas..Canvas$u20$as$u20$core..clone..Clone$GT$5clone17h61f4b2ec8e81b648E, 452
_ZN6qrcode6canvas6Canvas10apply_mask17hb5a50c81feae9e08E, 453
_ZN6qrcode6canvas17get_mask_function17h97982ee5cc22cb28E, 454
_ZN6qrcode6canvas6Canvas25draw_format_info_patterns17h0d3d61b27e7e8700E, 455
_ZN6qrcode6canvas6Canvas7get_mut17hc25185b224fb58ccE, 456
_ZN6qrcode6canvas6Module4mask17h231826c003fec0b3E, 457
_ZN60_$LT$qrcode..types..Color$u20$as$u20$core..ops..bit..Not$GT$3not17hd6e7c1469be457f6E, 458
_ZN84_$LT$alloc..vec..Vec$LT$T$C$A$GT$$u20$as$u20$core..ops..index..IndexMut$LT$I$GT$$GT$9index_mut17hebd2020213305401E, 459
_ZN75_$LT$alloc..vec..Vec$LT$T$C$A$GT$$u20$as$u20$core..ops..deref..DerefMut$GT$9deref_mut17h63bfa07f19a488f9E, 460
_ZN4core5slice5index77_$LT$impl$u20$core..ops..index..IndexMut$LT$I$GT$$u20$for$u20$$u5b$T$u5d$$GT$9index_mut17h70264612593c12cdE, 461
_ZN75_$LT$usize$u20$as$u20$core..slice..index..SliceIndex$LT$$u5b$T$u5d$$GT$$GT$9index_mut17h1884b89e0c21b2f8E, 462
_ZN4core5slice3raw18from_raw_parts_mut17h281e918e4dfdb723E, 463
_ZN3std9panicking11begin_panic17h88db7771877114f5E, 464
_ZN6qrcode6canvas6Canvas37draw_format_info_patterns_with_number17h1ba709de93beb608E, 465
_ZN4core7convert3num64_$LT$impl$u20$core..convert..From$LT$u16$GT$$u20$for$u20$u32$GT$4from17h2a5ab9bd65a06b56E, 466
_ZN6qrcode6canvas6Canvas11draw_number17h8c05f105ef0cf585E, 467
_ZN6qrcode6canvas6Canvas3put17ha08338090c09f74fE, 468
_ZN4core5slice4iter87_$LT$impl$u20$core..iter..traits..collect..IntoIterator$u20$for$u20$$RF$$u5b$T$u5d$$GT$9into_iter17h80bb8770d6f9f7f4E, 469
_ZN91_$LT$core..slice..iter..Iter$LT$T$GT$$u20$as$u20$core..iter..traits..iterator..Iterator$GT$4next17h4cc8f71bd21cad54E, 470
_ZN4core3ptr8non_null16NonNull$LT$T$GT$6as_ptr17h12ff1506da889802E, 471
_ZN4core3ptr7mut_ptr31_$LT$impl$u20$$BP$mut$u20$T$GT$7is_null17h3649b4f5643d5013E, 472
_ZN4core3ptr9const_ptr33_$LT$impl$u20$$BP$const$u20$T$GT$7is_null17hce2117fbee88ad87E, 473
_ZN4core3ptr8non_null16NonNull$LT$T$GT$13new_unchecked17hc3774b2f9b017d9eE, 474
_ZN4core5slice29_$LT$impl$u20$$u5b$T$u5d$$GT$4iter17h979e0cc60aed8b40E, 475
_ZN4core5slice4iter13Iter$LT$T$GT$3new17h72d4a08fe0b3088dE, 476
_ZN4core5slice29_$LT$impl$u20$$u5b$T$u5d$$GT$6as_ptr17he935dd05303e74dcE, 477
_ZN4core5slice29_$LT$impl$u20$$u5b$T$u5d$$GT$3len17h88abd87f7c5cd8c4E, 478
_ZN3std10sys_common9backtrace26__rust_end_short_backtrace17h043413d8ea8a8e7dE, 479
_ZN3std9panicking11begin_panic28_$u7b$$u7b$closure$u7d$$u7d$17h9ce3b1ee6372faaaE, 480
_ZN4core4hint9black_box17h0ccccc442c86d01eE, 481
_ZN3std9panicking11begin_panic21PanicPayload$LT$A$GT$3new17h1afc7b59d8873fd5E, 482
_ZN4core3ptr77drop_in_place$LT$std..panicking..begin_panic..PanicPayload$LT$$RF$str$GT$$GT$17h35aec0c35408e1c6E, 483
_ZN91_$LT$std..panicking..begin_panic..PanicPayload$LT$A$GT$$u20$as$u20$core..panic..BoxMeUp$GT$8take_box17h7c1906c7fcbcec50E, 484
_ZN91_$LT$std..panicking..begin_panic..PanicPayload$LT$A$GT$$u20$as$u20$core..panic..BoxMeUp$GT$3get17hfa6c43c69a190229E, 485
_ZN4core3ptr28drop_in_place$LT$$RF$str$GT$17h184bfb498dc39e46E, 486
_ZN36_$LT$T$u20$as$u20$core..any..Any$GT$7type_id17h0546c85c3780dc6dE, 487
_ZN4core3any6TypeId2of17h12c52927487e80a8E, 488
_ZN4core6option15Option$LT$T$GT$4take17h54189264c79c426dE, 489
_ZN5alloc5boxed16Box$LT$T$C$A$GT$8into_raw17h4dc43640c3d55b4eE, 490
_ZN5alloc5boxed16Box$LT$T$C$A$GT$23into_raw_with_allocator17h2d394e485f013269E, 491
_ZN5alloc5boxed16Box$LT$T$C$A$GT$11into_unique17h38175ba2e0807ad3E, 492
_ZN4core3ptr6unique15Unique$LT$T$GT$6as_ptr17hae3af460f6ed50e9E, 493
_ZN5alloc5boxed16Box$LT$T$C$A$GT$4leak17h082aca81fed919b4E, 494
_ZN95_$LT$core..ptr..unique..Unique$LT$T$GT$$u20$as$u20$core..convert..From$LT$$RF$mut$u20$T$GT$$GT$4from17hee98b9c6511af29aE, 495
_ZN4core3mem4take17h9388487c6f812affE, 496
_ZN72_$LT$core..option..Option$LT$T$GT$$u20$as$u20$core..default..Default$GT$7default17h7ff0398dd881617aE, 497
_ZN4core3mem7replace17h297f2ff9f1d9c7e9E, 498
_ZN4core3ptr4read17h4ad55b004281764cE, 499
_ZN4core3ptr5write17hb02df6fd6717310bE, 500
_ZN4core10intrinsics19copy_nonoverlapping17h77b454135f32a211E, 501
_ZN6qrcode6canvas14mask_functions12checkerboard17haf105961ff6e07bfE, 502
_ZN6qrcode6canvas14mask_functions16horizontal_lines17h0c5de493f21ce1a3E_original, 503
_ZN6qrcode6canvas14mask_functions14vertical_lines17hf108ae5da232a184E, 504
_ZN6qrcode6canvas14mask_functions14diagonal_lines17hb18dd5bcb89f2502E, 505
_ZN6qrcode6canvas14mask_functions18large_checkerboard17h88df9f9cc3fa1076E, 506
_ZN6qrcode6canvas14mask_functions6fields17ha09b25d03d40bed9E, 507
_ZN6qrcode6canvas14mask_functions8diamonds17h5796f09c2eee731cE, 508
_ZN6qrcode6canvas14mask_functions6meadow17h583976267cd91102E, 509
_ZN61_$LT$qrcode..types..Version$u20$as$u20$core..clone..Clone$GT$5clone17hc1a7691ae0905ce6E, 510
_ZN61_$LT$qrcode..types..EcLevel$u20$as$u20$core..clone..Clone$GT$5clone17h495bbb0c17e2e32fE, 511
_ZN67_$LT$alloc..vec..Vec$LT$T$C$A$GT$$u20$as$u20$core..clone..Clone$GT$5clone17h63c3538dba954935E, 512
_ZN5alloc3vec16Vec$LT$T$C$A$GT$9allocator17h84644639ba048742E, 513
_ZN59_$LT$alloc..alloc..Global$u20$as$u20$core..clone..Clone$GT$5clone17hce77bde5834c1c2fE, 514
_ZN5alloc5slice29_$LT$impl$u20$$u5b$T$u5d$$GT$9to_vec_in17h76501ee39ad95dadE, 515
_ZN5alloc5slice4hack6to_vec17h0e11e0d66b296f9cE, 516
_ZN52_$LT$T$u20$as$u20$alloc..slice..hack..ConvertVec$GT$6to_vec17hc1e5517cf8ad5d8cE, 517
_ZN5alloc3vec16Vec$LT$T$C$A$GT$16with_capacity_in17h5708030d28e38772E, 518
_ZN4core3ptr9const_ptr33_$LT$impl$u20$$BP$const$u20$T$GT$22copy_to_nonoverlapping17h16b9b88f55d5c838E, 519
_ZN5alloc3vec16Vec$LT$T$C$A$GT$7set_len17he262a8f567d33735E, 520
_ZN5alloc7raw_vec19RawVec$LT$T$C$A$GT$16with_capacity_in17hedd3fb602bba1da9E, 521
_ZN5alloc7raw_vec19RawVec$LT$T$C$A$GT$11allocate_in17hdb13133fbceddeafE, 522
_ZN5alloc7raw_vec19RawVec$LT$T$C$A$GT$6new_in17h48d9257f6e753ad1E, 523
_ZN4core5alloc6layout6Layout5array17h4e2ef13121f6c984E, 524
_ZN5alloc7raw_vec11alloc_guard17h60637971908bc5f3E, 525
_ZN63_$LT$alloc..alloc..Global$u20$as$u20$core..alloc..Allocator$GT$15allocate_zeroed17hd41923ed3f7ac06aE, 526
_ZN4core3ptr8non_null16NonNull$LT$T$GT$4cast17h23c4ab314b211e83E, 527
_ZN4core3ptr8non_null26NonNull$LT$$u5b$T$u5d$$GT$3len17ha95ae6d206d5a87cE, 528
_ZN5alloc7raw_vec19RawVec$LT$T$C$A$GT$19capacity_from_bytes17h8ebbc2c17a05ad74E, 529
_ZN4core3ptr8metadata8metadata17he4bf014727b47bd3E, 530
_ZN4core5alloc6layout6Layout3new17he7cebb987240120bE, 531
_ZN4core5alloc6layout6Layout6repeat17hade2239c981df9f9E, 532
_ZN79_$LT$core..result..Result$LT$T$C$E$GT$$u20$as$u20$core..ops..try_trait..Try$GT$6branch17h2a67dc79a22b8892E, 533
_ZN4core5alloc6layout6Layout12pad_to_align17h53f5a9215942f050E, 534
_ZN153_$LT$core..result..Result$LT$T$C$F$GT$$u20$as$u20$core..ops..try_trait..FromResidual$LT$core..result..Result$LT$core..convert..Infallible$C$E$GT$$GT$$GT$13from_residual17h47c2d7e40891addeE, 535
_ZN50_$LT$T$u20$as$u20$core..convert..From$LT$T$GT$$GT$4from17hb5a8acc5132db2e7E, 536
_ZN4core5alloc6layout6Layout18padding_needed_for17h8dd85d0f3aaacc5aE, 537
_ZN4core5alloc6layout6Layout15from_size_align17h3ff9b515edd875a6E, 538
_ZN4core6result19Result$LT$T$C$E$GT$6unwrap17h7d90e70c229edf9aE, 539
_ZN4core3ptr53drop_in_place$LT$core..alloc..layout..LayoutError$GT$17hf1cd6c09249db4d9E, 540
_ZN4core3num23_$LT$impl$u20$usize$GT$11checked_mul17he16b67360067e0b0E, 541
_ZN4core6option15Option$LT$T$GT$5ok_or17he1fac3d96da67370E, 542
_ZN79_$LT$core..result..Result$LT$T$C$E$GT$$u20$as$u20$core..ops..try_trait..Try$GT$6branch17hdb24a34b3792db52E, 543
_ZN153_$LT$core..result..Result$LT$T$C$F$GT$$u20$as$u20$core..ops..try_trait..FromResidual$LT$core..result..Result$LT$core..convert..Infallible$C$E$GT$$GT$$GT$13from_residual17h4f21cb46a451c17cE, 544
_ZN4core5alloc6layout10size_align17he3495084d574012fE, 545
_ZN4core3ptr6unique15Unique$LT$T$GT$8dangling17h0b343d9a7a3ebfedE, 546
_ZN5alloc7raw_vec19RawVec$LT$T$C$A$GT$9allocator17h572ddc51aab4c0ecE, 547
_ZN4core3ptr8non_null16NonNull$LT$T$GT$6as_ptr17h15217669f1b8e8d7E, 548
_ZN4core3ptr7mut_ptr31_$LT$impl$u20$$BP$mut$u20$T$GT$7is_null17hef062988dd062ff4E, 549
_ZN4core3ptr9const_ptr33_$LT$impl$u20$$BP$const$u20$T$GT$7is_null17h4125bee20f5bdda5E, 550
_ZN4core3ptr8non_null16NonNull$LT$T$GT$13new_unchecked17hefad41941e0c91b6E, 551
_ZN102_$LT$core..iter..adapters..map..Map$LT$I$C$F$GT$$u20$as$u20$core..iter..traits..iterator..Iterator$GT$4fold17h4f032fa195e3a34bE, 552
_ZN4core4iter8adapters3map8map_fold17h7a6a697b8b1cb97aE, 553
_ZN4core4iter6traits8iterator8Iterator4fold17he8ed2a5838c31aa5E, 554
_ZN4core4iter8adapters3map8map_fold28_$u7b$$u7b$closure$u7d$$u7d$17h139b1957832773c1E, 555
_ZN4core3ptr572drop_in_place$LT$core..iter..adapters..map..map_fold$LT$$RF$qrcode..types..Color$C$bool$C$$LP$$RP$$C$qrcode..QrCode..to_vec..$u7b$$u7b$closure$u7d$$u7d$$C$core..iter..traits..iterator..Iterator..for_each..call$LT$bool$C$$LT$alloc..vec..Vec$LT$bool$GT$$u20$as$u20$alloc..vec..spec_extend..SpecExtend$LT$bool$C$core..iter..adapters..map..Map$LT$core..slice..iter..Iter$LT$qrcode..types..Color$GT$$C$qrcode..QrCode..to_vec..$u7b$$u7b$closure$u7d$$u7d$$GT$$GT$$GT$..spec_extend..$u7b$$u7b$closure$u7d$$u7d$$GT$..$u7b$$u7b$closure$u7d$$u7d$$GT$..$u7b$$u7b$closure$u7d$$u7d$$GT$17hc6ce10ed7701faa2E, 556
_ZN4core3ptr401drop_in_place$LT$core..iter..traits..iterator..Iterator..for_each..call$LT$bool$C$$LT$alloc..vec..Vec$LT$bool$GT$$u20$as$u20$alloc..vec..spec_extend..SpecExtend$LT$bool$C$core..iter..adapters..map..Map$LT$core..slice..iter..Iter$LT$qrcode..types..Color$GT$$C$qrcode..QrCode..to_vec..$u7b$$u7b$closure$u7d$$u7d$$GT$$GT$$GT$..spec_extend..$u7b$$u7b$closure$u7d$$u7d$$GT$..$u7b$$u7b$closure$u7d$$u7d$$GT$17hcd97a12e352fcf02E, 557
_ZN4core3ptr303drop_in_place$LT$$LT$alloc..vec..Vec$LT$bool$GT$$u20$as$u20$alloc..vec..spec_extend..SpecExtend$LT$bool$C$core..iter..adapters..map..Map$LT$core..slice..iter..Iter$LT$qrcode..types..Color$GT$$C$qrcode..QrCode..to_vec..$u7b$$u7b$closure$u7d$$u7d$$GT$$GT$$GT$..spec_extend..$u7b$$u7b$closure$u7d$$u7d$$GT$17hacbe2de888f4bdf0E, 558
_ZN6qrcode6QrCode6to_vec28_$u7b$$u7b$closure$u7d$$u7d$17habceb845b6bc29cbE, 559
_ZN4core4iter6traits8iterator8Iterator8for_each4call28_$u7b$$u7b$closure$u7d$$u7d$17hd0bb07d3a00ce842E, 560
_ZN97_$LT$alloc..vec..Vec$LT$T$C$A$GT$$u20$as$u20$alloc..vec..spec_extend..SpecExtend$LT$T$C$I$GT$$GT$11spec_extend28_$u7b$$u7b$closure$u7d$$u7d$17hc11f7f1b631b7125E, 561
_ZN4core3ptr5write17h44bc77bd5ca4e3a8E, 562
_ZN102_$LT$core..iter..adapters..map..Map$LT$I$C$F$GT$$u20$as$u20$core..iter..traits..iterator..Iterator$GT$4fold17h6bc04bddc38a9217E, 563
_ZN4core4iter8adapters3map8map_fold17h6639393d2f315cfdE, 564
_ZN4core4iter6traits8iterator8Iterator4fold17h484166c10cec503aE, 565
_ZN91_$LT$core..slice..iter..Iter$LT$T$GT$$u20$as$u20$core..iter..traits..iterator..Iterator$GT$4next17hd0584efbf178c207E, 566
_ZN4core4iter8adapters3map8map_fold28_$u7b$$u7b$closure$u7d$$u7d$17h5d164525fce2595cE, 567
_ZN4core3ptr666drop_in_place$LT$core..iter..adapters..map..map_fold$LT$$RF$$RF$$u5b$u8$u5d$$C$alloc..vec..Vec$LT$u8$GT$$C$$LP$$RP$$C$qrcode..ec..construct_codewords..$u7b$$u7b$closure$u7d$$u7d$$C$core..iter..traits..iterator..Iterator..for_each..call$LT$alloc..vec..Vec$LT$u8$GT$$C$$LT$alloc..vec..Vec$LT$alloc..vec..Vec$LT$u8$GT$$GT$$u20$as$u20$alloc..vec..spec_extend..SpecExtend$LT$alloc..vec..Vec$LT$u8$GT$$C$core..iter..adapters..map..Map$LT$core..slice..iter..Iter$LT$$RF$$u5b$u8$u5d$$GT$$C$qrcode..ec..construct_codewords..$u7b$$u7b$closure$u7d$$u7d$$GT$$GT$$GT$..spec_extend..$u7b$$u7b$closure$u7d$$u7d$$GT$..$u7b$$u7b$closure$u7d$$u7d$$GT$..$u7b$$u7b$closure$u7d$$u7d$$GT$17he935fb3f3c6dae74E, 568
_ZN4core3ptr469drop_in_place$LT$core..iter..traits..iterator..Iterator..for_each..call$LT$alloc..vec..Vec$LT$u8$GT$$C$$LT$alloc..vec..Vec$LT$alloc..vec..Vec$LT$u8$GT$$GT$$u20$as$u20$alloc..vec..spec_extend..SpecExtend$LT$alloc..vec..Vec$LT$u8$GT$$C$core..iter..adapters..map..Map$LT$core..slice..iter..Iter$LT$$RF$$u5b$u8$u5d$$GT$$C$qrcode..ec..construct_codewords..$u7b$$u7b$closure$u7d$$u7d$$GT$$GT$$GT$..spec_extend..$u7b$$u7b$closure$u7d$$u7d$$GT$..$u7b$$u7b$closure$u7d$$u7d$$GT$17h58f2ebeca21d902cE, 569
_ZN4core3ptr350drop_in_place$LT$$LT$alloc..vec..Vec$LT$alloc..vec..Vec$LT$u8$GT$$GT$$u20$as$u20$alloc..vec..spec_extend..SpecExtend$LT$alloc..vec..Vec$LT$u8$GT$$C$core..iter..adapters..map..Map$LT$core..slice..iter..Iter$LT$$RF$$u5b$u8$u5d$$GT$$C$qrcode..ec..construct_codewords..$u7b$$u7b$closure$u7d$$u7d$$GT$$GT$$GT$..spec_extend..$u7b$$u7b$closure$u7d$$u7d$$GT$17hb44af10a1c566ad2E, 570
_ZN6qrcode2ec19construct_codewords28_$u7b$$u7b$closure$u7d$$u7d$17h426546c8dd2e1615E, 571
_ZN4core4iter6traits8iterator8Iterator8for_each4call28_$u7b$$u7b$closure$u7d$$u7d$17h084071e4e212423bE, 572
_ZN97_$LT$alloc..vec..Vec$LT$T$C$A$GT$$u20$as$u20$alloc..vec..spec_extend..SpecExtend$LT$T$C$I$GT$$GT$11spec_extend28_$u7b$$u7b$closure$u7d$$u7d$17h4195f20d34375693E, 573
_ZN4core3ptr5write17he89830104b0845acE, 574
_ZN6qrcode2ec28create_error_correction_code17h752ea2a88358ac12E, 575
_ZN4core5slice29_$LT$impl$u20$$u5b$T$u5d$$GT$3len17hbe00496efc61a2b4E, 576
_ZN5alloc5slice29_$LT$impl$u20$$u5b$T$u5d$$GT$6to_vec17h85678db6b93a29baE, 577
_ZN5alloc3vec16Vec$LT$T$C$A$GT$6resize17h399adc3e5dbf4be1E, 578
_ZN63_$LT$I$u20$as$u20$core..iter..traits..collect..IntoIterator$GT$9into_iter17hbb7aec827de0468cE, 579
_ZN4core4iter5range101_$LT$impl$u20$core..iter..traits..iterator..Iterator$u20$for$u20$core..ops..range..Range$LT$A$GT$$GT$4next17hda0cf33d67893ec8E, 580
_ZN5alloc3vec16Vec$LT$T$C$A$GT$9split_off17haa70022381a80c2bE, 581
_ZN81_$LT$alloc..vec..Vec$LT$T$C$A$GT$$u20$as$u20$core..ops..index..Index$LT$I$GT$$GT$5index17h54c421a1c9f7586bE, 582
_ZN4core7convert3num65_$LT$impl$u20$core..convert..From$LT$u8$GT$$u20$for$u20$usize$GT$4from17hbbbadfb00b660012E, 583
_ZN84_$LT$alloc..vec..Vec$LT$T$C$A$GT$$u20$as$u20$core..ops..index..IndexMut$LT$I$GT$$GT$9index_mut17h45890eeeb09be187E, 584
_ZN4core5slice29_$LT$impl$u20$$u5b$T$u5d$$GT$8iter_mut17h2e5a4ba9d717a4f0E, 585
_ZN4core5slice29_$LT$impl$u20$$u5b$T$u5d$$GT$4iter17h8e1db0d62dfec820E, 586
_ZN4core4iter6traits8iterator8Iterator3zip17h9d77351a5862a80eE, 587
_ZN63_$LT$I$u20$as$u20$core..iter..traits..collect..IntoIterator$GT$9into_iter17hc576764dcf7484b6E, 588
_ZN102_$LT$core..iter..adapters..zip..Zip$LT$A$C$B$GT$$u20$as$u20$core..iter..traits..iterator..Iterator$GT$4next17ha7df928cc9d9b62fE, 589
_ZN4core3ptr46drop_in_place$LT$alloc..vec..Vec$LT$u8$GT$$GT$17h7d4ffa0f8f72a4f3E, 590
_ZN70_$LT$alloc..vec..Vec$LT$T$C$A$GT$$u20$as$u20$core..ops..drop..Drop$GT$4drop17h718b510341a3c17cE, 591
_ZN4core3ptr53drop_in_place$LT$alloc..raw_vec..RawVec$LT$u8$GT$$GT$17h216007d21e59dacbE, 592
_ZN77_$LT$alloc..raw_vec..RawVec$LT$T$C$A$GT$$u20$as$u20$core..ops..drop..Drop$GT$4drop17h7d0be1d5195108b5E, 593
_ZN5alloc7raw_vec19RawVec$LT$T$C$A$GT$14current_memory17h92538018eaaa61efE, 594
_ZN4core3ptr6unique15Unique$LT$T$GT$4cast17he0ced1f6088fbbebE, 595
_ZN5alloc3vec16Vec$LT$T$C$A$GT$10as_mut_ptr17h4dcce14c4b5b5e93E, 596
_ZN5alloc7raw_vec19RawVec$LT$T$C$A$GT$3ptr17h7d80fb85f4dd8155E, 597
_ZN111_$LT$core..iter..adapters..zip..Zip$LT$A$C$B$GT$$u20$as$u20$core..iter..adapters..zip..ZipImpl$LT$A$C$B$GT$$GT$4next17haab3213c6149e762E, 598
_ZN94_$LT$core..slice..iter..IterMut$LT$T$GT$$u20$as$u20$core..iter..traits..iterator..Iterator$GT$24__iterator_get_unchecked17hec8a85c17e929fa5E, 599
_ZN91_$LT$core..slice..iter..Iter$LT$T$GT$$u20$as$u20$core..iter..traits..iterator..Iterator$GT$24__iterator_get_unchecked17h18e179aa1cdcee4eE, 600
_ZN63_$LT$I$u20$as$u20$core..iter..traits..collect..IntoIterator$GT$9into_iter17h099a8ee099c1b71fE, 601
_ZN4core4iter8adapters3zip16Zip$LT$A$C$B$GT$3new17h15d2f2516b3cf0d1E, 602
_ZN111_$LT$core..iter..adapters..zip..Zip$LT$A$C$B$GT$$u20$as$u20$core..iter..adapters..zip..ZipImpl$LT$A$C$B$GT$$GT$3new17hd0baed77b211e30bE, 603
_ZN4core4iter8adapters3zip19TrustedRandomAccess4size17h471242eef05ca7a3E, 604
_ZN4core4iter8adapters3zip19TrustedRandomAccess4size17h5fa60ba291b36b3dE, 605
_ZN94_$LT$core..slice..iter..IterMut$LT$T$GT$$u20$as$u20$core..iter..traits..iterator..Iterator$GT$9size_hint17hcbe85164d913b055E, 606
_ZN4core5slice4iter13Iter$LT$T$GT$3new17he48a8256d710d5d9E, 607
_ZN4core5slice29_$LT$impl$u20$$u5b$T$u5d$$GT$6as_ptr17h043527ccacbd24e8E, 608
_ZN4core5slice4iter16IterMut$LT$T$GT$3new17h4adfc5ff9c700048E, 609
_ZN4core5slice29_$LT$impl$u20$$u5b$T$u5d$$GT$10as_mut_ptr17ha4b1f70c5bab0754E, 610
_ZN75_$LT$alloc..vec..Vec$LT$T$C$A$GT$$u20$as$u20$core..ops..deref..DerefMut$GT$9deref_mut17h332640f3324cd4b1E, 611
_ZN4core5slice5index77_$LT$impl$u20$core..ops..index..IndexMut$LT$I$GT$$u20$for$u20$$u5b$T$u5d$$GT$9index_mut17h226a097a5a473b03E, 612
_ZN110_$LT$core..ops..range..RangeFrom$LT$usize$GT$$u20$as$u20$core..slice..index..SliceIndex$LT$$u5b$T$u5d$$GT$$GT$9index_mut17hf9e19848a2fd9faeE, 613
_ZN110_$LT$core..ops..range..RangeFrom$LT$usize$GT$$u20$as$u20$core..slice..index..SliceIndex$LT$$u5b$T$u5d$$GT$$GT$17get_unchecked_mut17he1548e8da1f8eb37E, 614
_ZN106_$LT$core..ops..range..Range$LT$usize$GT$$u20$as$u20$core..slice..index..SliceIndex$LT$$u5b$T$u5d$$GT$$GT$17get_unchecked_mut17h8b7638468df54a80E, 615
_ZN4core5slice3raw18from_raw_parts_mut17hd17ab137667a025dE, 616
_ZN72_$LT$alloc..vec..Vec$LT$T$C$A$GT$$u20$as$u20$core..ops..deref..Deref$GT$5deref17h615f4cdbdecba4a3E, 617
_ZN4core5slice5index74_$LT$impl$u20$core..ops..index..Index$LT$I$GT$$u20$for$u20$$u5b$T$u5d$$GT$5index17h154de136dfdab3a7E, 618
_ZN75_$LT$usize$u20$as$u20$core..slice..index..SliceIndex$LT$$u5b$T$u5d$$GT$$GT$5index17h44e68161033b57feE, 619
_ZN5alloc3vec16Vec$LT$T$C$A$GT$6as_ptr17h61e7df91b8b93390E, 620
_ZN4core5slice3raw14from_raw_parts17h2605e8015f839c1bE, 621
_ZN4core3ptr20slice_from_raw_parts17he7416b4e32421d70E, 622
_ZN4core3ptr9const_ptr33_$LT$impl$u20$$BP$const$u20$T$GT$4cast17hee1da726317fa338E, 623
_ZN4core3ptr8metadata14from_raw_parts17hdc4b37f266accc8dE, 624
_ZN5alloc3vec16Vec$LT$T$C$A$GT$3len17hcd22abc9345db582E, 625
_ZN5alloc3vec16Vec$LT$T$C$A$GT$8capacity17he4327884c74ec623E, 626
_ZN5alloc3vec16Vec$LT$T$C$A$GT$9allocator17h8c2e075a871f6c22E, 627
_ZN5alloc3vec16Vec$LT$T$C$A$GT$16with_capacity_in17he4168c5d03b72043E, 628
_ZN5alloc3vec16Vec$LT$T$C$A$GT$7set_len17he4cfb30444e0124fE, 629
_ZN4core10intrinsics19copy_nonoverlapping17h8388f54be6447e37E, 630
_ZN4core3mem7replace17hb75677ed5d40a0f1E, 631
_ZN4core3ptr4read17h62bd8911a03b91beE, 632
_ZN4core10intrinsics19copy_nonoverlapping17hcaca9e76ff56964cE, 633
_ZN5alloc7raw_vec19RawVec$LT$T$C$A$GT$16with_capacity_in17h2dcb31740e2deb35E, 634
_ZN5alloc7raw_vec19RawVec$LT$T$C$A$GT$11allocate_in17h6307c41f26643d62E, 635
_ZN5alloc7raw_vec19RawVec$LT$T$C$A$GT$6new_in17h6ced3c81b84ce72dE, 636
_ZN4core5alloc6layout6Layout5array17h559f92798057eeb1E, 637
_ZN4core3ptr8non_null16NonNull$LT$T$GT$4cast17h8e590b17a9cc1324E, 638
_ZN5alloc7raw_vec19RawVec$LT$T$C$A$GT$19capacity_from_bytes17ha4070ba7a4b71833E, 639
_ZN4core5alloc6layout6Layout3new17h3fb49514f7c88fd1E, 640
_ZN4core5alloc6layout10size_align17hb3c9b1eec8e35404E, 641
_ZN4core3ptr6unique15Unique$LT$T$GT$8dangling17h8dd619420b217eceE, 642
_ZN5alloc7raw_vec19RawVec$LT$T$C$A$GT$9allocator17hd9b1080511e41acfE, 643
_ZN89_$LT$core..ops..range..Range$LT$T$GT$$u20$as$u20$core..iter..range..RangeIteratorImpl$GT$9spec_next17hbaf41ed496063d45E, 644
_ZN4core3cmp5impls57_$LT$impl$u20$core..cmp..PartialOrd$u20$for$u20$usize$GT$2lt17h153a8d08d56205c0E, 645
_ZN4core5clone5impls54_$LT$impl$u20$core..clone..Clone$u20$for$u20$usize$GT$5clone17h4c2e2c612a25bf9aE, 646
_ZN49_$LT$usize$u20$as$u20$core..iter..range..Step$GT$17forward_unchecked17ha516cf7ce3060fddE, 647
_ZN4core3mem7replace17hf13ca540c10a3445E, 648
_ZN4core3ptr4read17hb98d4392e83d756cE, 649
_ZN4core3ptr5write17h08dc7151c0508906E, 650
_ZN4core10intrinsics19copy_nonoverlapping17h3dfee6105d4a0f65E, 651
_ZN5alloc3vec16Vec$LT$T$C$A$GT$8truncate17hcc4642ac992c9f82E, 652
_ZN5alloc3vec16Vec$LT$T$C$A$GT$11extend_with17h79e95a940269148dE, 653
_ZN5alloc3vec16Vec$LT$T$C$A$GT$7reserve17h263a1e8ec0cdd15cE, 654
_ZN5alloc3vec15set_len_on_drop12SetLenOnDrop3new17hfba521ea9fdad6daE, 655
_ZN86_$LT$alloc..vec..ExtendElement$LT$T$GT$$u20$as$u20$alloc..vec..ExtendWith$LT$T$GT$$GT$4next17h87ef2121f9293732E, 656
_ZN4core3ptr5write17hb03d860ac5a0909eE, 657
_ZN86_$LT$alloc..vec..ExtendElement$LT$T$GT$$u20$as$u20$alloc..vec..ExtendWith$LT$T$GT$$GT$4last17hcdd188742102c905E, 658
_ZN5alloc7raw_vec19RawVec$LT$T$C$A$GT$7reserve17h646bbfb176f9622bE, 659
_ZN5alloc7raw_vec19RawVec$LT$T$C$A$GT$13needs_to_grow17haaacce9048014d99E, 660
_ZN5alloc7raw_vec19RawVec$LT$T$C$A$GT$7reserve21do_reserve_and_handle17he2c886c14f487b9aE, 661
_ZN5alloc7raw_vec19RawVec$LT$T$C$A$GT$14grow_amortized17h14d11f244aa212b0E_original, 662
_ZN5alloc7raw_vec14handle_reserve17hb9d631538fcb9f63E, 663
_ZN4core3num23_$LT$impl$u20$usize$GT$11checked_add17hec9cba067c36ca11E, 664
_ZN4core6option15Option$LT$T$GT$5ok_or17hf534d2d7ca27458cE, 665
_ZN79_$LT$core..result..Result$LT$T$C$E$GT$$u20$as$u20$core..ops..try_trait..Try$GT$6branch17h4a9a02ac875551eaE, 666
_ZN153_$LT$core..result..Result$LT$T$C$F$GT$$u20$as$u20$core..ops..try_trait..FromResidual$LT$core..result..Result$LT$core..convert..Infallible$C$E$GT$$GT$$GT$13from_residual17h2cd12c82359edd17E, 667
_ZN5alloc7raw_vec11finish_grow17hb44f25c922bb0f92E, 668
_ZN79_$LT$core..result..Result$LT$T$C$E$GT$$u20$as$u20$core..ops..try_trait..Try$GT$6branch17hbde67592cacfb6bcE, 669
_ZN5alloc7raw_vec19RawVec$LT$T$C$A$GT$7set_ptr17h67680f27dad16226E, 670
_ZN4core6result19Result$LT$T$C$E$GT$7map_err17hbca8b2a9784e23c8E, 671
_ZN79_$LT$core..result..Result$LT$T$C$E$GT$$u20$as$u20$core..ops..try_trait..Try$GT$6branch17hfbda0eb712040617E, 672
_ZN153_$LT$core..result..Result$LT$T$C$F$GT$$u20$as$u20$core..ops..try_trait..FromResidual$LT$core..result..Result$LT$core..convert..Infallible$C$E$GT$$GT$$GT$13from_residual17h9dc712679f933f8bE, 673
_ZN79_$LT$core..result..Result$LT$T$C$E$GT$$u20$as$u20$core..ops..try_trait..Try$GT$6branch17h06848bacc06d60e7E, 674
_ZN4core6result19Result$LT$T$C$E$GT$7map_err17h1a2326ab0979c6f6E, 675
_ZN63_$LT$alloc..alloc..Global$u20$as$u20$core..alloc..Allocator$GT$4grow17hc69bcfd82adc2361E, 676
_ZN5alloc5alloc6Global9grow_impl17h672ccf61cf85e15eE, 677
_ZN5alloc5alloc7realloc17h4cc442e1fa84ca2aE, 678
_ZN4core10intrinsics11write_bytes17h92f37295d9206652E, 679
_ZN79_$LT$core..result..Result$LT$T$C$E$GT$$u20$as$u20$core..ops..try_trait..Try$GT$6branch17he80796354b3aabbbE, 680
_ZN5alloc7raw_vec11finish_grow28_$u7b$$u7b$closure$u7d$$u7d$17hb9cdcfa78ca27c2dE, 681
_ZN50_$LT$T$u20$as$u20$core..convert..From$LT$T$GT$$GT$4from17h59546e2d61366025E, 682
_ZN5alloc7raw_vec11finish_grow28_$u7b$$u7b$closure$u7d$$u7d$17hf418e4db4ba2ff5dE, 683
_ZN5alloc5slice29_$LT$impl$u20$$u5b$T$u5d$$GT$9to_vec_in17h213b27c066d5903eE, 684
_ZN5alloc5slice4hack6to_vec17h556e789918126b04E, 685
_ZN52_$LT$T$u20$as$u20$alloc..slice..hack..ConvertVec$GT$6to_vec17ha550610a88e1e6cdE, 686
_ZN4core3ptr9const_ptr33_$LT$impl$u20$$BP$const$u20$T$GT$22copy_to_nonoverlapping17h68aecb4a7672abf8E, 687
_ZN4core3ptr8non_null16NonNull$LT$T$GT$6as_ptr17h8038f07f8ab22696E, 688
_ZN4core3ptr7mut_ptr31_$LT$impl$u20$$BP$mut$u20$T$GT$7is_null17hd02c254c65d7421cE, 689
_ZN4core3ptr9const_ptr33_$LT$impl$u20$$BP$const$u20$T$GT$7is_null17hdc4248b29313c339E, 690
_ZN4core3ptr8non_null16NonNull$LT$T$GT$13new_unchecked17hdb1cd4bf55b697b0E, 691
_ZN102_$LT$core..iter..adapters..map..Map$LT$I$C$F$GT$$u20$as$u20$core..iter..traits..iterator..Iterator$GT$4fold17h7bfe1da8f70197ebE, 692
_ZN4core4iter8adapters3map8map_fold17h45dd473239702df8E, 693
_ZN4core4iter6traits8iterator8Iterator4fold17hc9ccd74b403f4ab9E, 694
_ZN4core4iter8adapters3map8map_fold28_$u7b$$u7b$closure$u7d$$u7d$17ha9a6eec00c552af2E, 695
_ZN4core3ptr596drop_in_place$LT$core..iter..adapters..map..map_fold$LT$$RF$qrcode..canvas..Module$C$bool$C$$LP$$RP$$C$qrcode..canvas..Canvas..to_bools..$u7b$$u7b$closure$u7d$$u7d$$C$core..iter..traits..iterator..Iterator..for_each..call$LT$bool$C$$LT$alloc..vec..Vec$LT$bool$GT$$u20$as$u20$alloc..vec..spec_extend..SpecExtend$LT$bool$C$core..iter..adapters..map..Map$LT$core..slice..iter..Iter$LT$qrcode..canvas..Module$GT$$C$qrcode..canvas..Canvas..to_bools..$u7b$$u7b$closure$u7d$$u7d$$GT$$GT$$GT$..spec_extend..$u7b$$u7b$closure$u7d$$u7d$$GT$..$u7b$$u7b$closure$u7d$$u7d$$GT$..$u7b$$u7b$closure$u7d$$u7d$$GT$17h63193555418990c7E, 696
_ZN4core3ptr413drop_in_place$LT$core..iter..traits..iterator..Iterator..for_each..call$LT$bool$C$$LT$alloc..vec..Vec$LT$bool$GT$$u20$as$u20$alloc..vec..spec_extend..SpecExtend$LT$bool$C$core..iter..adapters..map..Map$LT$core..slice..iter..Iter$LT$qrcode..canvas..Module$GT$$C$qrcode..canvas..Canvas..to_bools..$u7b$$u7b$closure$u7d$$u7d$$GT$$GT$$GT$..spec_extend..$u7b$$u7b$closure$u7d$$u7d$$GT$..$u7b$$u7b$closure$u7d$$u7d$$GT$17h1268d462e016d09aE, 697
_ZN4core3ptr315drop_in_place$LT$$LT$alloc..vec..Vec$LT$bool$GT$$u20$as$u20$alloc..vec..spec_extend..SpecExtend$LT$bool$C$core..iter..adapters..map..Map$LT$core..slice..iter..Iter$LT$qrcode..canvas..Module$GT$$C$qrcode..canvas..Canvas..to_bools..$u7b$$u7b$closure$u7d$$u7d$$GT$$GT$$GT$..spec_extend..$u7b$$u7b$closure$u7d$$u7d$$GT$17h3b697675fc6f0cbbE, 698
_ZN6qrcode6canvas6Canvas8to_bools28_$u7b$$u7b$closure$u7d$$u7d$17ha84b36f49c0a92dbE, 699
_ZN4core4iter6traits8iterator8Iterator8for_each4call28_$u7b$$u7b$closure$u7d$$u7d$17h9c7911de9127eb90E, 700
_ZN97_$LT$alloc..vec..Vec$LT$T$C$A$GT$$u20$as$u20$alloc..vec..spec_extend..SpecExtend$LT$T$C$I$GT$$GT$11spec_extend28_$u7b$$u7b$closure$u7d$$u7d$17h662d851bd42fe6c0E, 701
_ZN102_$LT$core..iter..adapters..map..Map$LT$I$C$F$GT$$u20$as$u20$core..iter..traits..iterator..Iterator$GT$4fold17h8fc251d7b5bd72cbE, 702
_ZN4core4iter8adapters3map8map_fold17h63069f6c609dd777E, 703
_ZN102_$LT$core..iter..adapters..map..Map$LT$I$C$F$GT$$u20$as$u20$core..iter..traits..iterator..Iterator$GT$4fold17hc3ae22d947a37a3eE, 704
_ZN4core4iter8adapters3map8map_fold17h9d23b461da45a672E, 705
_ZN4core4iter6traits8iterator8Iterator4fold17hb62ac2700c4b685eE, 706
_ZN103_$LT$alloc..vec..into_iter..IntoIter$LT$T$C$A$GT$$u20$as$u20$core..iter..traits..iterator..Iterator$GT$4next17he055b4daec8bf2dcE, 707
_ZN4core4iter8adapters3map8map_fold28_$u7b$$u7b$closure$u7d$$u7d$17h032321d8beed5039E, 708
_ZN4core3ptr580drop_in_place$LT$core..iter..adapters..map..map_fold$LT$qrcode..types..Color$C$bool$C$$LP$$RP$$C$qrcode..QrCode..into_vec..$u7b$$u7b$closure$u7d$$u7d$$C$core..iter..traits..iterator..Iterator..for_each..call$LT$bool$C$$LT$alloc..vec..Vec$LT$bool$GT$$u20$as$u20$alloc..vec..spec_extend..SpecExtend$LT$bool$C$core..iter..adapters..map..Map$LT$alloc..vec..into_iter..IntoIter$LT$qrcode..types..Color$GT$$C$qrcode..QrCode..into_vec..$u7b$$u7b$closure$u7d$$u7d$$GT$$GT$$GT$..spec_extend..$u7b$$u7b$closure$u7d$$u7d$$GT$..$u7b$$u7b$closure$u7d$$u7d$$GT$..$u7b$$u7b$closure$u7d$$u7d$$GT$17h00ae46571936da24E, 709
_ZN4core3ptr80drop_in_place$LT$alloc..vec..into_iter..IntoIter$LT$qrcode..types..Color$GT$$GT$17hb3535e6cd18a3113E, 710
_ZN86_$LT$alloc..vec..into_iter..IntoIter$LT$T$C$A$GT$$u20$as$u20$core..ops..drop..Drop$GT$4drop17h1a6853aec6e8472eE, 711
_ZN5alloc3vec9into_iter21IntoIter$LT$T$C$A$GT$16as_raw_mut_slice17hd433feccff581600E, 712
_ZN4core3ptr174drop_in_place$LT$$LT$alloc..vec..into_iter..IntoIter$LT$T$C$A$GT$$u20$as$u20$core..ops..drop..Drop$GT$..drop..DropGuard$LT$qrcode..types..Color$C$alloc..alloc..Global$GT$$GT$17hbef329fbd3d9a0e2E, 713
_ZN157_$LT$$LT$alloc..vec..into_iter..IntoIter$LT$T$C$A$GT$$u20$as$u20$core..ops..drop..Drop$GT$..drop..DropGuard$LT$T$C$A$GT$$u20$as$u20$core..ops..drop..Drop$GT$4drop17h4e5a9a0cdfc06d29E, 714
_ZN5alloc7raw_vec19RawVec$LT$T$C$A$GT$17from_raw_parts_in17hb08d871d2cdc9daaE, 715
_ZN4core3ptr71drop_in_place$LT$alloc..raw_vec..RawVec$LT$qrcode..types..Color$GT$$GT$17hf61dc5898776d2f1E, 716
_ZN77_$LT$alloc..raw_vec..RawVec$LT$T$C$A$GT$$u20$as$u20$core..ops..drop..Drop$GT$4drop17h7425ee577f6364a4E_original, 717
_ZN5alloc7raw_vec19RawVec$LT$T$C$A$GT$14current_memory17h786da48564cbea02E, 718
_ZN4core3ptr6unique15Unique$LT$T$GT$4cast17hf256d22c50af0f9eE, 719
_ZN4core3ptr6unique15Unique$LT$T$GT$6as_ptr17h5ca25ab54e4f9206E, 720
_ZN4core3ptr6unique15Unique$LT$T$GT$13new_unchecked17h7790a3b5c3c78976E, 721
_ZN83_$LT$$RF$mut$u20$I$u20$as$u20$core..iter..traits..exact_size..ExactSizeIterator$GT$3len17h1cc2366d50ab0850E, 722
_ZN4core3ptr24slice_from_raw_parts_mut17h4de980a90fa124b4E, 723
_ZN4core3ptr8metadata18from_raw_parts_mut17h31c97110cd873e42E, 724
_ZN4core4iter6traits10exact_size17ExactSizeIterator3len17ha724eb74497f0c7fE, 725
_ZN103_$LT$alloc..vec..into_iter..IntoIter$LT$T$C$A$GT$$u20$as$u20$core..iter..traits..iterator..Iterator$GT$9size_hint17h7bfaadc9219293c8E, 726
_ZN4core3ptr9const_ptr33_$LT$impl$u20$$BP$const$u20$T$GT$11offset_from17h02b19100594bd202E_original, 727
_ZN4core3ptr411drop_in_place$LT$core..iter..traits..iterator..Iterator..for_each..call$LT$bool$C$$LT$alloc..vec..Vec$LT$bool$GT$$u20$as$u20$alloc..vec..spec_extend..SpecExtend$LT$bool$C$core..iter..adapters..map..Map$LT$alloc..vec..into_iter..IntoIter$LT$qrcode..types..Color$GT$$C$qrcode..QrCode..into_vec..$u7b$$u7b$closure$u7d$$u7d$$GT$$GT$$GT$..spec_extend..$u7b$$u7b$closure$u7d$$u7d$$GT$..$u7b$$u7b$closure$u7d$$u7d$$GT$17h5afe509bd5953257E, 728
_ZN4core3ptr313drop_in_place$LT$$LT$alloc..vec..Vec$LT$bool$GT$$u20$as$u20$alloc..vec..spec_extend..SpecExtend$LT$bool$C$core..iter..adapters..map..Map$LT$alloc..vec..into_iter..IntoIter$LT$qrcode..types..Color$GT$$C$qrcode..QrCode..into_vec..$u7b$$u7b$closure$u7d$$u7d$$GT$$GT$$GT$..spec_extend..$u7b$$u7b$closure$u7d$$u7d$$GT$17ha2fae4df7e2ac39cE, 729
_ZN4core4iter6traits8iterator8Iterator8for_each4call28_$u7b$$u7b$closure$u7d$$u7d$17h56c9a87fc2e4a620E, 730
_ZN97_$LT$alloc..vec..Vec$LT$T$C$A$GT$$u20$as$u20$alloc..vec..spec_extend..SpecExtend$LT$T$C$I$GT$$GT$11spec_extend28_$u7b$$u7b$closure$u7d$$u7d$17h092651d29b49376dE, 731
_ZN102_$LT$core..iter..adapters..map..Map$LT$I$C$F$GT$$u20$as$u20$core..iter..traits..iterator..Iterator$GT$4fold17hee982129f50967acE, 732
_ZN4core4iter8adapters3map8map_fold17h6d9ca1c0c9761405E, 733
_ZN4core4iter6traits8iterator8Iterator4fold17h6cca499c6ab1d94eE, 734
_ZN91_$LT$core..slice..iter..Iter$LT$T$GT$$u20$as$u20$core..iter..traits..iterator..Iterator$GT$4next17h4b023191a3e4d304E, 735
_ZN4core4iter8adapters3map8map_fold28_$u7b$$u7b$closure$u7d$$u7d$17h824b6e6e1295c27cE, 736
_ZN6qrcode8optimize17total_encoded_len28_$u7b$$u7b$closure$u7d$$u7d$17ha4bc254726393340E, 737
_ZN56_$LT$usize$u20$as$u20$core..iter..traits..accum..Sum$GT$3sum28_$u7b$$u7b$closure$u7d$$u7d$17hf17ed191005fa9d9E, 738
_ZN6qrcode8optimize7Segment11encoded_len17h8d51604040ee000bE, 739
_ZN60_$LT$qrcode..types..Mode$u20$as$u20$core..cmp..PartialEq$GT$2eq17ha263fa5e4af74859E_original, 740
_ZN6qrcode5types7Version15mode_bits_count17hb973b7389af1154eE, 741
_ZN6qrcode5types4Mode17length_bits_count17h968d8bb2f8200113E, 742
_ZN6qrcode5types4Mode15data_bits_count17he445494b94cea9f4E, 743
_ZN4core3ptr8non_null16NonNull$LT$T$GT$6as_ptr17hbd7d7143ad00934bE, 744
_ZN4core3ptr7mut_ptr31_$LT$impl$u20$$BP$mut$u20$T$GT$7is_null17h86193a7085699e2dE, 745
_ZN4core3ptr9const_ptr33_$LT$impl$u20$$BP$const$u20$T$GT$7is_null17hf19872e3fc851eedE, 746
_ZN4core3ptr8non_null16NonNull$LT$T$GT$13new_unchecked17h72c1ad3ede76989aE, 747
_ZN102_$LT$core..iter..adapters..map..Map$LT$I$C$F$GT$$u20$as$u20$core..iter..traits..iterator..Iterator$GT$4fold17hfad1752075896288E, 748
_ZN4core4iter8adapters3map8map_fold17hb51c939f99879e6fE, 749
_ZN4core4iter6traits8iterator8Iterator4fold17h3379ccf26372fd89E, 750
_ZN4core4iter8adapters3map8map_fold28_$u7b$$u7b$closure$u7d$$u7d$17h17ff449a5cc46c19E, 751
_ZN6qrcode4bits4Bits17push_numeric_data28_$u7b$$u7b$closure$u7d$$u7d$17h6d25f6b8412a8de3E, 752
_ZN6qrcode4bits4Bits17push_numeric_data28_$u7b$$u7b$closure$u7d$$u7d$17h19d463b989ffa4b9E, 753
_ZN102_$LT$core..iter..adapters..map..Map$LT$I$C$F$GT$$u20$as$u20$core..iter..traits..iterator..Iterator$GT$4next17h3d9ae55bccd7ed24E, 754
_ZN102_$LT$core..iter..adapters..map..Map$LT$I$C$F$GT$$u20$as$u20$core..iter..traits..iterator..Iterator$GT$4next17ha42609892b45bc3fE, 755
_ZN4core6option15Option$LT$T$GT$3map17h5d18117d2ec2ad80E, 756
_ZN4core3ops8function5impls80_$LT$impl$u20$core..ops..function..FnOnce$LT$A$GT$$u20$for$u20$$RF$mut$u20$F$GT$9call_once17h2f099468b1d2cc6cE, 757
_ZN4core6option15Option$LT$T$GT$3map17h56339fd660abbab3E, 758
_ZN4core3ops8function5impls80_$LT$impl$u20$core..ops..function..FnOnce$LT$A$GT$$u20$for$u20$$RF$mut$u20$F$GT$9call_once17h54af61f89bd02b70E, 759
_ZN102_$LT$core..iter..adapters..map..Map$LT$I$C$F$GT$$u20$as$u20$core..iter..traits..iterator..Iterator$GT$9size_hint17h09c293a6a39a210aE, 760
_ZN91_$LT$core..slice..iter..Iter$LT$T$GT$$u20$as$u20$core..iter..traits..iterator..Iterator$GT$9size_hint17h02c92917b57ffd9bE, 761
_ZN102_$LT$core..iter..adapters..map..Map$LT$I$C$F$GT$$u20$as$u20$core..iter..traits..iterator..Iterator$GT$9size_hint17h183623ea82544ac6E, 762
_ZN91_$LT$core..slice..iter..Iter$LT$T$GT$$u20$as$u20$core..iter..traits..iterator..Iterator$GT$9size_hint17ha193955c7886fd22E, 763
_ZN102_$LT$core..iter..adapters..map..Map$LT$I$C$F$GT$$u20$as$u20$core..iter..traits..iterator..Iterator$GT$9size_hint17h1e95ecf4b515f632E, 764
_ZN102_$LT$core..iter..adapters..map..Map$LT$I$C$F$GT$$u20$as$u20$core..iter..traits..iterator..Iterator$GT$9size_hint17hbf5214888f000f57E, 765
_ZN102_$LT$core..iter..adapters..map..Map$LT$I$C$F$GT$$u20$as$u20$core..iter..traits..iterator..Iterator$GT$9size_hint17hea7e541a9a18c06dE, 766
_ZN91_$LT$core..slice..iter..Iter$LT$T$GT$$u20$as$u20$core..iter..traits..iterator..Iterator$GT$9size_hint17h33f79cc9f87cb60dE, 767
_ZN103_$LT$alloc..vec..into_iter..IntoIter$LT$T$C$A$GT$$u20$as$u20$core..iter..traits..iterator..Iterator$GT$4next17h187c895def3ee710E, 768
_ZN4core3ptr4read17h279de2bb2f8dcbf0E, 769
_ZN4core3mem12maybe_uninit20MaybeUninit$LT$T$GT$6zeroed17hca1798c807827f36E, 770
_ZN4core10intrinsics11write_bytes17h8b1c47e3ebdd25f7E, 771
_ZN4core10intrinsics19copy_nonoverlapping17hd9866c2fcb327602E_original, 772
_ZN103_$LT$alloc..vec..into_iter..IntoIter$LT$T$C$A$GT$$u20$as$u20$core..iter..traits..iterator..Iterator$GT$4next17h2d3b448f8336770aE, 773
_ZN4core3ptr4read17ha8b0ac4908dc3b20E, 774
_ZN4core3mem12maybe_uninit20MaybeUninit$LT$T$GT$6zeroed17habe73b4cff70bab2E, 775
_ZN4core10intrinsics11write_bytes17hc319d1d02da9966cE, 776
_ZN4core10intrinsics19copy_nonoverlapping17h2785cc0b0d96709aE, 777
_ZN103_$LT$alloc..vec..into_iter..IntoIter$LT$T$C$A$GT$$u20$as$u20$core..iter..traits..iterator..Iterator$GT$9size_hint17h2fd12f8c2301888aE, 778
_ZN4core3ptr9const_ptr33_$LT$impl$u20$$BP$const$u20$T$GT$11offset_from17hf73e942f6615dce7E, 779
_ZN103_$LT$alloc..vec..into_iter..IntoIter$LT$T$C$A$GT$$u20$as$u20$core..iter..traits..iterator..Iterator$GT$9size_hint17he12fb75b6efc332dE, 780
_ZN4core3ptr9const_ptr33_$LT$impl$u20$$BP$const$u20$T$GT$11offset_from17h4c0af7dfc7b8a5f3E, 781
_ZN104_$LT$core..iter..adapters..cloned..Cloned$LT$I$GT$$u20$as$u20$core..iter..traits..iterator..Iterator$GT$4next17h179035d13d56ea8eE, 782
_ZN4core6option19Option$LT$$RF$T$GT$6cloned17h324aeab294edb1a4E, 783
_ZN4core6option15Option$LT$T$GT$3map17h5b89cb4f555ca832E, 784
_ZN4core6option19Option$LT$$RF$T$GT$6cloned28_$u7b$$u7b$closure$u7d$$u7d$17hb73c656020532928E, 785
_ZN64_$LT$qrcode..optimize..Segment$u20$as$u20$core..clone..Clone$GT$5clone17h09c094e4a536ac7cE, 786
_ZN106_$LT$core..ops..range..Range$LT$usize$GT$$u20$as$u20$core..slice..index..SliceIndex$LT$$u5b$T$u5d$$GT$$GT$13get_unchecked17h653c217a58575b32E, 787
_ZN4core3ptr9const_ptr43_$LT$impl$u20$$BP$const$u20$$u5b$T$u5d$$GT$6as_ptr17h0d48cf46a5c76df8E, 788
_ZN106_$LT$core..ops..range..Range$LT$usize$GT$$u20$as$u20$core..slice..index..SliceIndex$LT$$u5b$T$u5d$$GT$$GT$5index17h353d0fea27f82df4E, 789
_ZN106_$LT$core..ops..range..Range$LT$usize$GT$$u20$as$u20$core..slice..index..SliceIndex$LT$$u5b$T$u5d$$GT$$GT$9index_mut17h9c4f94c3b03aa397E_original, 790
_ZN107_$LT$core..ops..range..RangeInclusive$LT$T$GT$$u20$as$u20$core..iter..range..RangeInclusiveIteratorImpl$GT$14spec_next_back17h5b7b02681a8ab5e4E, 791
_ZN4core3ops5range25RangeInclusive$LT$Idx$GT$8is_empty17h4446032cf190b6e8E, 792
_ZN4core3cmp5impls55_$LT$impl$u20$core..cmp..PartialOrd$u20$for$u20$i32$GT$2lt17h14926bfedd6bfd4eE, 793
_ZN4core5clone5impls52_$LT$impl$u20$core..clone..Clone$u20$for$u20$i32$GT$5clone17he2189366988c4cb7E, 794
_ZN47_$LT$i32$u20$as$u20$core..iter..range..Step$GT$18backward_unchecked17h4c1f4d137beac74cE, 795
_ZN4core3mem7replace17ha4c5d03c8186f3f3E, 796
_ZN4core3ptr4read17h5c93709c2eb354d9E, 797
_ZN4core3ptr5write17h13fbabc37ade6b56E, 798
_ZN4core10intrinsics19copy_nonoverlapping17hbbb4442f38ab9ae2E, 799
_ZN4core3cmp5impls55_$LT$impl$u20$core..cmp..PartialOrd$u20$for$u20$i32$GT$2le17h684d8a0eddc147dbE, 800
_ZN107_$LT$core..ops..range..RangeInclusive$LT$T$GT$$u20$as$u20$core..iter..range..RangeInclusiveIteratorImpl$GT$9spec_next17hcd2418c8c3137f6dE, 801
_ZN4core3ops5range25RangeInclusive$LT$Idx$GT$8is_empty17h3fd17464f92eb332E, 802
_ZN4core3cmp5impls55_$LT$impl$u20$core..cmp..PartialOrd$u20$for$u20$i16$GT$2le17hd9149946b95036c8E, 803
_ZN108_$LT$core..ops..range..RangeTo$LT$usize$GT$$u20$as$u20$core..slice..index..SliceIndex$LT$$u5b$T$u5d$$GT$$GT$13get_unchecked17h5b5235698b4b04ccE, 804
_ZN108_$LT$core..ops..range..RangeTo$LT$usize$GT$$u20$as$u20$core..slice..index..SliceIndex$LT$$u5b$T$u5d$$GT$$GT$5index17h7d67094ec859cc73E, 805
_ZN108_$LT$core..ops..range..RangeTo$LT$usize$GT$$u20$as$u20$core..slice..index..SliceIndex$LT$$u5b$T$u5d$$GT$$GT$9index_mut17h8e450f627be510d5E, 806
_ZN110_$LT$core..iter..adapters..enumerate..Enumerate$LT$I$GT$$u20$as$u20$core..iter..traits..iterator..Iterator$GT$4next17h17b15eb4300c0006E, 807
_ZN75_$LT$core..option..Option$LT$T$GT$$u20$as$u20$core..ops..try_trait..Try$GT$6branch17h8198d9b5eb7d3121E, 808
_ZN84_$LT$core..option..Option$LT$T$GT$$u20$as$u20$core..ops..try_trait..FromResidual$GT$13from_residual17h24286b5f4103b8d5E, 809
_ZN110_$LT$core..iter..adapters..enumerate..Enumerate$LT$I$GT$$u20$as$u20$core..iter..traits..iterator..Iterator$GT$4next17h815ba140c1a5ce99E, 810
_ZN75_$LT$core..option..Option$LT$T$GT$$u20$as$u20$core..ops..try_trait..Try$GT$6branch17h75ae1fec93ddaa1bE, 811
_ZN84_$LT$core..option..Option$LT$T$GT$$u20$as$u20$core..ops..try_trait..FromResidual$GT$13from_residual17he3247897b0516279E, 812
_ZN110_$LT$core..iter..adapters..enumerate..Enumerate$LT$I$GT$$u20$as$u20$core..iter..traits..iterator..Iterator$GT$4next17hf048120ba4de1978E, 813
_ZN91_$LT$core..slice..iter..Iter$LT$T$GT$$u20$as$u20$core..iter..traits..iterator..Iterator$GT$4next17he4258a07bd236e6fE, 814
_ZN75_$LT$core..option..Option$LT$T$GT$$u20$as$u20$core..ops..try_trait..Try$GT$6branch17h00056140ba3de476E_original, 815
_ZN84_$LT$core..option..Option$LT$T$GT$$u20$as$u20$core..ops..try_trait..FromResidual$GT$13from_residual17hd4929376a7b64e66E, 816
_ZN4core3ptr8non_null16NonNull$LT$T$GT$6as_ptr17h610ec56f3bc6a53cE, 817
_ZN4core3ptr7mut_ptr31_$LT$impl$u20$$BP$mut$u20$T$GT$7is_null17hc1f0d81381951121E, 818
_ZN4core3ptr9const_ptr33_$LT$impl$u20$$BP$const$u20$T$GT$7is_null17heb27e059cd88fe7eE, 819
_ZN4core3ptr8non_null16NonNull$LT$T$GT$13new_unchecked17h4ab69ee613862a95E, 820
_ZN110_$LT$core..ops..range..RangeFrom$LT$usize$GT$$u20$as$u20$core..slice..index..SliceIndex$LT$$u5b$T$u5d$$GT$$GT$13get_unchecked17h37506624d10e193cE, 821
_ZN4core3ptr9const_ptr43_$LT$impl$u20$$BP$const$u20$$u5b$T$u5d$$GT$3len17h6becc90f72971679E, 822
_ZN110_$LT$core..ops..range..RangeFrom$LT$usize$GT$$u20$as$u20$core..slice..index..SliceIndex$LT$$u5b$T$u5d$$GT$$GT$5index17h3f9c62324e7f2ff0E, 823
_ZN111_$LT$alloc..vec..Vec$LT$T$GT$$u20$as$u20$alloc..vec..spec_from_iter_nested..SpecFromIterNested$LT$T$C$I$GT$$GT$9from_iter17h4d70671016f59da5E, 824
_ZN5alloc3vec12Vec$LT$T$GT$13with_capacity17h0d30a068b1e5d1c3E, 825
_ZN97_$LT$alloc..vec..Vec$LT$T$C$A$GT$$u20$as$u20$alloc..vec..spec_extend..SpecExtend$LT$T$C$I$GT$$GT$11spec_extend17h63151e6a7021026fE, 826
_ZN5alloc3vec16Vec$LT$T$C$A$GT$7reserve17he436a951ad051265E, 827
_ZN5alloc3vec16Vec$LT$T$C$A$GT$10as_mut_ptr17h864520fba014ff64E, 828
_ZN5alloc3vec16Vec$LT$T$C$A$GT$3len17hb33d58afde25af73E, 829
_ZN4core4iter6traits8iterator8Iterator8for_each17he2052effecda8904E, 830
_ZN4core4iter6traits8iterator8Iterator8for_each4call17h07fb0beea1ea6152E, 831
_ZN5alloc7raw_vec19RawVec$LT$T$C$A$GT$3ptr17hf65d3ec5eeb5f4ddE, 832
_ZN4core3ptr7mut_ptr31_$LT$impl$u20$$BP$mut$u20$T$GT$7is_null17h7198ce193930c0dcE, 833
_ZN4core3ptr6unique15Unique$LT$T$GT$6as_ptr17h5f4c035a785d4b70E, 834
_ZN5alloc7raw_vec19RawVec$LT$T$C$A$GT$7reserve17h4e8b18ce9253b799E, 835
_ZN5alloc7raw_vec19RawVec$LT$T$C$A$GT$13needs_to_grow17h527a1beaf1632b1dE, 836
_ZN5alloc7raw_vec19RawVec$LT$T$C$A$GT$7reserve21do_reserve_and_handle17hd2fc3a7794d06204E, 837
_ZN5alloc7raw_vec19RawVec$LT$T$C$A$GT$14grow_amortized17ha2eb7e5d29ac246dE, 838
_ZN4core5alloc6layout6Layout5array17h0e006585aa5cf750E, 839
_ZN5alloc7raw_vec19RawVec$LT$T$C$A$GT$14current_memory17h2de0e16ab3567136E, 840
_ZN5alloc7raw_vec19RawVec$LT$T$C$A$GT$7set_ptr17ha70fd58e4fbd430dE, 841
_ZN4core3ptr8non_null16NonNull$LT$T$GT$4cast17h87e9d6eb9e67dcfeE, 842
_ZN4core3ptr8non_null16NonNull$LT$T$GT$6as_ptr17hf5b1f4f74dff3d60E, 843
_ZN4core3ptr6unique15Unique$LT$T$GT$13new_unchecked17h89e04d51b6ce11d2E, 844
_ZN5alloc7raw_vec19RawVec$LT$T$C$A$GT$19capacity_from_bytes17hcd90a0ba46b00e4cE, 845
_ZN4core3ptr8non_null16NonNull$LT$T$GT$13new_unchecked17h90a1ff10bcbd7cc6E, 846
_ZN4core3ptr6unique15Unique$LT$T$GT$4cast17h7d49290e359bc4f1E, 847
_ZN4core5alloc6layout6Layout3new17h9e86e7d638b9f2d5E, 848
_ZN4core5alloc6layout10size_align17h6220c699a6b2dd62E, 849
_ZN5alloc3vec16Vec$LT$T$C$A$GT$16with_capacity_in17hd18875fc63fa9bfdE, 850
_ZN5alloc7raw_vec19RawVec$LT$T$C$A$GT$16with_capacity_in17hd4e25ebbeb5aae5dE, 851
_ZN5alloc7raw_vec19RawVec$LT$T$C$A$GT$11allocate_in17h344cc4811a228da3E_original, 852
_ZN5alloc7raw_vec19RawVec$LT$T$C$A$GT$6new_in17h1dd7044db6008aecE, 853
_ZN4core3ptr6unique15Unique$LT$T$GT$8dangling17hdc0a0171802f6fa8E, 854
_ZN111_$LT$alloc..vec..Vec$LT$T$GT$$u20$as$u20$alloc..vec..spec_from_iter_nested..SpecFromIterNested$LT$T$C$I$GT$$GT$9from_iter17h5f8e56ec9d95204eE, 855
_ZN5alloc3vec12Vec$LT$T$GT$13with_capacity17h852bedc705fd1067E, 856
_ZN97_$LT$alloc..vec..Vec$LT$T$C$A$GT$$u20$as$u20$alloc..vec..spec_extend..SpecExtend$LT$T$C$I$GT$$GT$11spec_extend17h733bb0aebbdab392E, 857
_ZN5alloc3vec16Vec$LT$T$C$A$GT$7reserve17h289dd6c1d1dfdfa7E, 858
_ZN5alloc3vec16Vec$LT$T$C$A$GT$10as_mut_ptr17hd4de120f07599634E, 859
_ZN5alloc3vec16Vec$LT$T$C$A$GT$3len17hf0e01bca70efebdcE, 860
_ZN4core4iter6traits8iterator8Iterator8for_each17hd4b839f5bf0a62e5E, 861
_ZN4core4iter6traits8iterator8Iterator8for_each4call17hc2477a45e53945fbE, 862
_ZN5alloc7raw_vec19RawVec$LT$T$C$A$GT$3ptr17h45cb29e41cb28b54E, 863
_ZN4core3ptr7mut_ptr31_$LT$impl$u20$$BP$mut$u20$T$GT$7is_null17h3772b31a4afc2616E, 864
_ZN4core3ptr6unique15Unique$LT$T$GT$6as_ptr17h58779022c749d754E, 865
_ZN5alloc7raw_vec19RawVec$LT$T$C$A$GT$7reserve17hfe3926d22acad700E, 866
_ZN5alloc7raw_vec19RawVec$LT$T$C$A$GT$13needs_to_grow17h8f98b72e2079a0f8E, 867
_ZN5alloc7raw_vec19RawVec$LT$T$C$A$GT$7reserve21do_reserve_and_handle17h6d156803ffff84c2E, 868
_ZN5alloc7raw_vec19RawVec$LT$T$C$A$GT$14grow_amortized17h2f1fe9c567004162E, 869
_ZN4core5alloc6layout6Layout5array17hf49a733a84a75414E, 870
_ZN5alloc7raw_vec19RawVec$LT$T$C$A$GT$14current_memory17h8d388554f18497b5E, 871
_ZN5alloc7raw_vec19RawVec$LT$T$C$A$GT$7set_ptr17hc10c8694f532b493E, 872
_ZN4core3ptr8non_null16NonNull$LT$T$GT$4cast17h51f78943af6196d8E, 873
_ZN4core3ptr8non_null16NonNull$LT$T$GT$6as_ptr17hd2dc384862fdd55eE, 874
_ZN4core3ptr6unique15Unique$LT$T$GT$13new_unchecked17hdee1fb77237dbcd3E, 875
_ZN5alloc7raw_vec19RawVec$LT$T$C$A$GT$19capacity_from_bytes17h28694346d16aeaddE, 876
_ZN4core3ptr8non_null16NonNull$LT$T$GT$13new_unchecked17h4a9c33fe55fea803E, 877
_ZN4core3ptr6unique15Unique$LT$T$GT$4cast17h06f0380e36b0f866E, 878
_ZN4core5alloc6layout6Layout3new17h3770b126a1d34753E, 879
_ZN4core5alloc6layout10size_align17h365362b0cfacd191E, 880
_ZN5alloc3vec16Vec$LT$T$C$A$GT$16with_capacity_in17h280b04de52f5c357E, 881
_ZN5alloc7raw_vec19RawVec$LT$T$C$A$GT$16with_capacity_in17h48b2bd8b40f96163E, 882
_ZN5alloc7raw_vec19RawVec$LT$T$C$A$GT$11allocate_in17hb2cb9239c781e1b3E, 883
_ZN5alloc7raw_vec19RawVec$LT$T$C$A$GT$6new_in17h592430f786b0c37bE, 884
_ZN4core3ptr6unique15Unique$LT$T$GT$8dangling17h3ddb845fc9510140E, 885
_ZN111_$LT$alloc..vec..Vec$LT$T$GT$$u20$as$u20$alloc..vec..spec_from_iter_nested..SpecFromIterNested$LT$T$C$I$GT$$GT$9from_iter17haf40730220ea0756E, 886
_ZN97_$LT$alloc..vec..Vec$LT$T$C$A$GT$$u20$as$u20$alloc..vec..spec_extend..SpecExtend$LT$T$C$I$GT$$GT$11spec_extend17h9d51d2ad7cbac551E, 887
_ZN4core4iter6traits8iterator8Iterator8for_each17h1c13d2e27405c718E, 888
_ZN4core4iter6traits8iterator8Iterator8for_each4call17h8120dc610f5dc4e7E, 889
_ZN111_$LT$alloc..vec..Vec$LT$T$GT$$u20$as$u20$alloc..vec..spec_from_iter_nested..SpecFromIterNested$LT$T$C$I$GT$$GT$9from_iter17hbaf30b1405010d28E, 890
_ZN97_$LT$alloc..vec..Vec$LT$T$C$A$GT$$u20$as$u20$alloc..vec..spec_extend..SpecExtend$LT$T$C$I$GT$$GT$11spec_extend17h551a41a27f7ced7cE, 891
_ZN4core4iter6traits8iterator8Iterator8for_each17h10b93980ab09e5c2E, 892
_ZN4core4iter6traits8iterator8Iterator8for_each4call17h9f27ceec4144fcf4E, 893
_ZN111_$LT$alloc..vec..Vec$LT$T$GT$$u20$as$u20$alloc..vec..spec_from_iter_nested..SpecFromIterNested$LT$T$C$I$GT$$GT$9from_iter17hc4b2182577aca51fE, 894
_ZN83_$LT$qrcode..optimize..Parser$u20$as$u20$core..iter..traits..iterator..Iterator$GT$4next17h06933d8b696ff1a1E, 895
_ZN5alloc3vec12Vec$LT$T$GT$3new17h80e170fbf52ad0a2E, 896
_ZN4core4iter6traits8iterator8Iterator9size_hint17h9c8ce44d983337efE, 897
_ZN5alloc3vec12Vec$LT$T$GT$13with_capacity17ha6266edf8763e442E, 898
_ZN5alloc3vec16Vec$LT$T$C$A$GT$10as_mut_ptr17hf64129093531cc47E, 899
_ZN4core3ptr5write17h32be7754c35430ebE, 900
_ZN5alloc3vec16Vec$LT$T$C$A$GT$7set_len17he8248838f9afc8d7E, 901
_ZN97_$LT$alloc..vec..Vec$LT$T$C$A$GT$$u20$as$u20$alloc..vec..spec_extend..SpecExtend$LT$T$C$I$GT$$GT$11spec_extend17hf69c709db4a2f414E, 902
_ZN5alloc3vec16Vec$LT$T$C$A$GT$16extend_desugared17hc2250ed402eeefadE, 903
_ZN5alloc3vec16Vec$LT$T$C$A$GT$3len17h73d24b2c21b3e2c8E, 904
_ZN5alloc3vec16Vec$LT$T$C$A$GT$8capacity17h07ef6f6bf7365d0dE, 905
_ZN5alloc3vec16Vec$LT$T$C$A$GT$7reserve17h3ed054d790e04669E, 906
_ZN5alloc7raw_vec19RawVec$LT$T$C$A$GT$7reserve17hf3b9bd953347825fE, 907
_ZN5alloc7raw_vec19RawVec$LT$T$C$A$GT$13needs_to_grow17hf73a53694bd02d23E, 908
_ZN5alloc7raw_vec19RawVec$LT$T$C$A$GT$7reserve21do_reserve_and_handle17h46fd031ecfc265e2E, 909
_ZN5alloc7raw_vec19RawVec$LT$T$C$A$GT$14grow_amortized17h441f76f4ea1dc6cbE, 910
_ZN4core5alloc6layout6Layout5array17h6bf3ce3a3556be21E, 911
_ZN5alloc7raw_vec19RawVec$LT$T$C$A$GT$14current_memory17h2ef02679d8327b97E_original, 912
_ZN5alloc7raw_vec19RawVec$LT$T$C$A$GT$7set_ptr17h6df6552e2c19e757E, 913
_ZN4core3ptr8non_null16NonNull$LT$T$GT$4cast17h50cfd30e37bc9f00E, 914
_ZN4core3ptr6unique15Unique$LT$T$GT$13new_unchecked17hb14720b27d6de2cbE, 915
_ZN5alloc7raw_vec19RawVec$LT$T$C$A$GT$19capacity_from_bytes17h55931fed94c16795E, 916
_ZN4core3ptr6unique15Unique$LT$T$GT$4cast17h63c23cc487d7bbc1E, 917
_ZN4core3ptr6unique15Unique$LT$T$GT$6as_ptr17ha00db3432ab297feE, 918
_ZN4core5alloc6layout6Layout3new17hca1bcb048f46e6b3E, 919
_ZN4core5alloc6layout10size_align17hfdda948d79ad84f3E, 920
_ZN5alloc7raw_vec19RawVec$LT$T$C$A$GT$3ptr17hc9331d939677b836E, 921
_ZN5alloc3vec16Vec$LT$T$C$A$GT$16with_capacity_in17h1c34d265636fada0E, 922
_ZN5alloc7raw_vec19RawVec$LT$T$C$A$GT$16with_capacity_in17h306f0e73886856e1E, 923
_ZN5alloc7raw_vec19RawVec$LT$T$C$A$GT$11allocate_in17h093971a4382f95a2E, 924
_ZN5alloc7raw_vec19RawVec$LT$T$C$A$GT$6new_in17had7cc7936917cf91E, 925
_ZN4core3ptr6unique15Unique$LT$T$GT$8dangling17he57c96fc7d785457E, 926
_ZN93_$LT$qrcode..optimize..EcsIter$LT$I$GT$$u20$as$u20$core..iter..traits..iterator..Iterator$GT$4next17hb758afdcdf65c46aE, 927
_ZN6qrcode8optimize11ExclCharSet7from_u817hec875d07e9a9ac04E, 928
_ZN111_$LT$alloc..vec..Vec$LT$T$GT$$u20$as$u20$alloc..vec..spec_from_iter_nested..SpecFromIterNested$LT$T$C$I$GT$$GT$9from_iter17hcf189110791921bdE, 929
_ZN95_$LT$qrcode..optimize..Optimizer$LT$I$GT$$u20$as$u20$core..iter..traits..iterator..Iterator$GT$4next17h4396f06ce5599f71E, 930
_ZN4core4iter6traits8iterator8Iterator9size_hint17h8e5b7c54bc8ea574E, 931
_ZN97_$LT$alloc..vec..Vec$LT$T$C$A$GT$$u20$as$u20$alloc..vec..spec_extend..SpecExtend$LT$T$C$I$GT$$GT$11spec_extend17h86209be37bce1400E, 932
_ZN5alloc3vec16Vec$LT$T$C$A$GT$16extend_desugared17hfcdface27396645bE, 933
_ZN6qrcode5types4Mode3max17h50bae5630e9f55b4E, 934
_ZN61_$LT$qrcode..types..Mode$u20$as$u20$core..cmp..PartialOrd$GT$11partial_cmp17h9cdfe577c0b05c70E, 935
_ZN111_$LT$alloc..vec..Vec$LT$T$GT$$u20$as$u20$alloc..vec..spec_from_iter_nested..SpecFromIterNested$LT$T$C$I$GT$$GT$9from_iter17he0fa6e134ea31d1eE, 936
_ZN5alloc3vec12Vec$LT$T$GT$13with_capacity17h9c119c6d758ba3d4E, 937
_ZN97_$LT$alloc..vec..Vec$LT$T$C$A$GT$$u20$as$u20$alloc..vec..spec_extend..SpecExtend$LT$T$C$I$GT$$GT$11spec_extend17h65d34e0ba51ddab1E, 938
_ZN5alloc3vec16Vec$LT$T$C$A$GT$7reserve17h65aed77472e2ff08E, 939
_ZN5alloc3vec16Vec$LT$T$C$A$GT$10as_mut_ptr17hbf2ba469a215e8e5E, 940
_ZN5alloc3vec16Vec$LT$T$C$A$GT$3len17h52b6d09acc04c988E, 941
_ZN4core4iter6traits8iterator8Iterator8for_each17h068fbe4e3ea249a4E, 942
_ZN4core4iter6traits8iterator8Iterator8for_each4call17h09132a9aff1fedc6E, 943
_ZN5alloc7raw_vec19RawVec$LT$T$C$A$GT$3ptr17h28bf92f6d05bf93fE, 944
_ZN5alloc7raw_vec19RawVec$LT$T$C$A$GT$7reserve17hb664c9bac54becdfE, 945
_ZN5alloc7raw_vec19RawVec$LT$T$C$A$GT$13needs_to_grow17hee3154d2de4f779cE, 946
_ZN5alloc7raw_vec19RawVec$LT$T$C$A$GT$7reserve21do_reserve_and_handle17he5d4a32e9e23c423E, 947
_ZN5alloc7raw_vec19RawVec$LT$T$C$A$GT$14grow_amortized17h38b9e76c2a4298e6E, 948
_ZN4core5alloc6layout6Layout5array17h451cabac452f0249E, 949
_ZN5alloc7raw_vec19RawVec$LT$T$C$A$GT$7set_ptr17hd0fb8cc0f0df4d9bE, 950
_ZN4core3ptr8non_null16NonNull$LT$T$GT$4cast17hf562df5b58d3bf72E, 951
_ZN5alloc7raw_vec19RawVec$LT$T$C$A$GT$19capacity_from_bytes17h9b3be331fa937077E, 952
_ZN4core5alloc6layout6Layout3new17hfad253ec4eeba4beE, 953
_ZN4core5alloc6layout10size_align17h91efcd81d0c9e224E, 954
_ZN5alloc3vec16Vec$LT$T$C$A$GT$16with_capacity_in17he4c8de6268045bb1E, 955
_ZN5alloc7raw_vec19RawVec$LT$T$C$A$GT$16with_capacity_in17h1bc2d6f9b357b7f3E, 956
_ZN5alloc7raw_vec19RawVec$LT$T$C$A$GT$11allocate_in17h2f845ce4a0b963ebE, 957
_ZN5alloc7raw_vec19RawVec$LT$T$C$A$GT$6new_in17h6a67366c8de3e093E, 958
_ZN4core3ptr6unique15Unique$LT$T$GT$8dangling17h620b67ee498afe78E, 959
_ZN132_$LT$alloc..vec..Vec$LT$T$C$A$GT$$u20$as$u20$alloc..vec..spec_extend..SpecExtend$LT$$RF$T$C$core..slice..iter..Iter$LT$T$GT$$GT$$GT$11spec_extend17h815c5e6e767ab9afE, 960
_ZN4core5slice4iter13Iter$LT$T$GT$8as_slice17h6a781bbb9a3cd828E, 961
_ZN5alloc3vec16Vec$LT$T$C$A$GT$15append_elements17hec4891fd8dd1751fE, 962
_ZN153_$LT$core..result..Result$LT$T$C$F$GT$$u20$as$u20$core..ops..try_trait..FromResidual$LT$core..result..Result$LT$core..convert..Infallible$C$E$GT$$GT$$GT$13from_residual17h1c133fd984f373caE, 963
_ZN50_$LT$T$u20$as$u20$core..convert..From$LT$T$GT$$GT$4from17hef18045aaf56bbe9E, 964
_ZN153_$LT$core..result..Result$LT$T$C$F$GT$$u20$as$u20$core..ops..try_trait..FromResidual$LT$core..result..Result$LT$core..convert..Infallible$C$E$GT$$GT$$GT$13from_residual17h27d042f469a974c2E, 965
_ZN153_$LT$core..result..Result$LT$T$C$F$GT$$u20$as$u20$core..ops..try_trait..FromResidual$LT$core..result..Result$LT$core..convert..Infallible$C$E$GT$$GT$$GT$13from_residual17h489c8483572d5abdE, 966
_ZN153_$LT$core..result..Result$LT$T$C$F$GT$$u20$as$u20$core..ops..try_trait..FromResidual$LT$core..result..Result$LT$core..convert..Infallible$C$E$GT$$GT$$GT$13from_residual17h7e958ca0f21edde9E, 967
_ZN153_$LT$core..result..Result$LT$T$C$F$GT$$u20$as$u20$core..ops..try_trait..FromResidual$LT$core..result..Result$LT$core..convert..Infallible$C$E$GT$$GT$$GT$13from_residual17hd6b0ef4686481161E, 968
_ZN157_$LT$$LT$alloc..vec..into_iter..IntoIter$LT$T$C$A$GT$$u20$as$u20$core..ops..drop..Drop$GT$..drop..DropGuard$LT$T$C$A$GT$$u20$as$u20$core..ops..drop..Drop$GT$4drop17h822f67eb56fede39E, 969
_ZN5alloc7raw_vec19RawVec$LT$T$C$A$GT$17from_raw_parts_in17h4bcb98db356eb914E, 970
_ZN4core3ptr76drop_in_place$LT$alloc..raw_vec..RawVec$LT$qrcode..optimize..Segment$GT$$GT$17h4a0edf76a6fb5f9cE, 971
_ZN77_$LT$alloc..raw_vec..RawVec$LT$T$C$A$GT$$u20$as$u20$core..ops..drop..Drop$GT$4drop17hf08cc956f11b6f9fE, 972
_ZN157_$LT$$LT$alloc..vec..into_iter..IntoIter$LT$T$C$A$GT$$u20$as$u20$core..ops..drop..Drop$GT$..drop..DropGuard$LT$T$C$A$GT$$u20$as$u20$core..ops..drop..Drop$GT$4drop17heea147eb930b9d86E, 973
_ZN4core3ptr8non_null16NonNull$LT$T$GT$6as_ptr17h9dbf2bd70bcc6344E, 974
_ZN5alloc7raw_vec19RawVec$LT$T$C$A$GT$17from_raw_parts_in17h51449658bfbd2b4fE, 975
_ZN4core3ptr55drop_in_place$LT$alloc..raw_vec..RawVec$LT$char$GT$$GT$17h42a7922171605ac2E, 976
_ZN77_$LT$alloc..raw_vec..RawVec$LT$T$C$A$GT$$u20$as$u20$core..ops..drop..Drop$GT$4drop17hfea20531b53a8befE, 977
_ZN5alloc7raw_vec19RawVec$LT$T$C$A$GT$14current_memory17hf63ae283156fbceeE_original, 978
_ZN4core3ptr6unique15Unique$LT$T$GT$4cast17hea9a39b04a25e3f8E, 979
_ZN4core3ptr6unique15Unique$LT$T$GT$6as_ptr17h2b682ef4d85b2d7bE, 980
_ZN4core3ptr6unique15Unique$LT$T$GT$13new_unchecked17h545280bf1ae8ec14E, 981
_ZN42_$LT$$RF$T$u20$as$u20$core..fmt..Debug$GT$3fmt17h48c4e9dd8af12a3aE, 982
_ZN4core3fmt3num50_$LT$impl$u20$core..fmt..Debug$u20$for$u20$i16$GT$3fmt17h36dc020283f597c7E, 983
_ZN42_$LT$$RF$T$u20$as$u20$core..fmt..Debug$GT$3fmt17hb928c8d50e798e2cE, 984
_ZN57_$LT$qrcode..types..Color$u20$as$u20$core..fmt..Debug$GT$3fmt17ha9ad2493cdc4056eE, 985
_ZN42_$LT$$RF$T$u20$as$u20$core..fmt..Debug$GT$3fmt17hed6f599ef1fba51cE, 986
_ZN56_$LT$qrcode..types..Mode$u20$as$u20$core..fmt..Debug$GT$3fmt17h6f33bbfe92f8b568E, 987
_ZN49_$LT$$RF$T$u20$as$u20$core..ops..deref..Deref$GT$5deref17h83b22dba13c2c04bE, 988
_ZN4core10intrinsics19copy_nonoverlapping17h8f4885ae39eaf58eE, 989
_ZN4core3fmt10ArgumentV13new17h87ecd20772ea10f6E, 990
_ZN4core3fmt10ArgumentV13new17hf6b03605329f39c6E, 991
_ZN4core3fmt10ArgumentV13new17hfca5758ea66e7e9bE, 992
_ZN4core3mem6forget17h316d622b37623763E, 993
_ZN4core3mem6forget17hbf4f4db67be6f097E, 994
_ZN4core3mem7replace17h2281ebef47e18a16E, 995
_ZN4core3ptr4read17h15b61c636cacb880E, 996
_ZN4core3ptr5write17hf36809f360ea5f15E, 997
_ZN4core3ops5range25RangeInclusive$LT$Idx$GT$3new17h4d1e8f8de4789cd1E, 998
_ZN4core3ops5range25RangeInclusive$LT$Idx$GT$3new17h90f30b3fe468484cE, 999
_ZN4core3ptr114drop_in_place$LT$core..iter..adapters..enumerate..Enumerate$LT$alloc..vec..into_iter..IntoIter$LT$char$GT$$GT$$GT$17h8b92ecd46a859211E, 1000
_ZN4core3ptr64drop_in_place$LT$alloc..vec..into_iter..IntoIter$LT$char$GT$$GT$17h0ec9dac10d3971cbE, 1001
_ZN86_$LT$alloc..vec..into_iter..IntoIter$LT$T$C$A$GT$$u20$as$u20$core..ops..drop..Drop$GT$4drop17h0aa3fb544670df03E, 1002
_ZN5alloc3vec9into_iter21IntoIter$LT$T$C$A$GT$16as_raw_mut_slice17h0d59d71988f2939dE, 1003
_ZN4core3ptr158drop_in_place$LT$$LT$alloc..vec..into_iter..IntoIter$LT$T$C$A$GT$$u20$as$u20$core..ops..drop..Drop$GT$..drop..DropGuard$LT$char$C$alloc..alloc..Global$GT$$GT$17h342eed6179ed0f4dE, 1004
_ZN83_$LT$$RF$mut$u20$I$u20$as$u20$core..iter..traits..exact_size..ExactSizeIterator$GT$3len17he2514dca91b62201E, 1005
_ZN4core3ptr24slice_from_raw_parts_mut17h4e79019e198d6543E, 1006
_ZN4core3ptr8metadata18from_raw_parts_mut17hc9129685b1132815E, 1007
_ZN4core4iter6traits10exact_size17ExactSizeIterator3len17hfcd7f17b12654f9aE, 1008
_ZN4core3ptr120drop_in_place$LT$dyn$u20$core..ops..function..Fn$LT$$LP$i16$C$$RP$$GT$$u2b$Output$u20$$u3d$$u20$qrcode..types..Color$GT$17h89cb6c40c8ef59faE, 1009
_ZN4core3ptr174drop_in_place$LT$core..iter..adapters..map..Map$LT$alloc..vec..into_iter..IntoIter$LT$qrcode..types..Color$GT$$C$qrcode..QrCode..into_vec..$u7b$$u7b$closure$u7d$$u7d$$GT$$GT$17hd17e83f720b3bde1E, 1010
_ZN4core3ptr179drop_in_place$LT$$LT$alloc..vec..into_iter..IntoIter$LT$T$C$A$GT$$u20$as$u20$core..ops..drop..Drop$GT$..drop..DropGuard$LT$qrcode..optimize..Segment$C$alloc..alloc..Global$GT$$GT$17h60277fa35fa03af9E, 1011
_ZN4core3ptr20slice_from_raw_parts17h73784998712b5674E, 1012
_ZN4core3ptr9const_ptr33_$LT$impl$u20$$BP$const$u20$T$GT$4cast17ha0ef640a2137f363E, 1013
_ZN4core3ptr8metadata14from_raw_parts17h57a3473258ad1209E, 1014
_ZN4core3ptr20slice_from_raw_parts17h7577a45c1fc0e612E, 1015
_ZN4core3ptr9const_ptr33_$LT$impl$u20$$BP$const$u20$T$GT$4cast17hab4f92ef8aecc670E, 1016
_ZN4core3ptr8metadata14from_raw_parts17h5d782b443032d6deE, 1017
_ZN4core3ptr20slice_from_raw_parts17h94e4b5edcda22bddE, 1018
_ZN4core3ptr9const_ptr33_$LT$impl$u20$$BP$const$u20$T$GT$4cast17hb3b75e0678f1e7f7E, 1019
_ZN4core3ptr8metadata14from_raw_parts17he01486d98ec8c872E, 1020
_ZN4core3ptr20slice_from_raw_parts17h9ca7a56d2ebfa697E, 1021
_ZN4core3ptr9const_ptr33_$LT$impl$u20$$BP$const$u20$T$GT$4cast17h3f7a901998f477a4E, 1022
_ZN4core3ptr8metadata14from_raw_parts17h7a37605c72a20b0bE, 1023
_ZN4core3ptr218drop_in_place$LT$core..iter..adapters..map..Map$LT$alloc..vec..into_iter..IntoIter$LT$qrcode..canvas..Module$GT$$C$$LT$qrcode..types..Color$u20$as$u20$core..convert..From$LT$qrcode..canvas..Module$GT$$GT$..from$GT$$GT$17h107e9f9427633b88E, 1024
_ZN4core3ptr219drop_in_place$LT$$LT$alloc..vec..Vec$LT$$RF$$u5b$u8$u5d$$GT$$u20$as$u20$alloc..vec..spec_extend..SpecExtend$LT$$RF$$u5b$u8$u5d$$C$core..slice..iter..Chunks$LT$u8$GT$$GT$$GT$..spec_extend..$u7b$$u7b$closure$u7d$$u7d$$GT$17h6935f780bf12b258E, 1025
_ZN4core3ptr24slice_from_raw_parts_mut17h8d3943940ed9eae4E, 1026
_ZN4core3ptr8metadata18from_raw_parts_mut17ha7489b4d54bfde5bE, 1027
_ZN4core3ptr24slice_from_raw_parts_mut17ha0179762129d4603E, 1028
_ZN4core3ptr8metadata18from_raw_parts_mut17h748a0a16adc5fadaE, 1029
_ZN4core3ptr24slice_from_raw_parts_mut17he6d0e6ebca2b73f8E, 1030
_ZN4core3ptr8metadata18from_raw_parts_mut17habe803573331f11cE, 1031
_ZN4core3ptr329drop_in_place$LT$core..iter..traits..iterator..Iterator..for_each..call$LT$$RF$$u5b$u8$u5d$$C$$LT$alloc..vec..Vec$LT$$RF$$u5b$u8$u5d$$GT$$u20$as$u20$alloc..vec..spec_extend..SpecExtend$LT$$RF$$u5b$u8$u5d$$C$core..slice..iter..Chunks$LT$u8$GT$$GT$$GT$..spec_extend..$u7b$$u7b$closure$u7d$$u7d$$GT$..$u7b$$u7b$closure$u7d$$u7d$$GT$17hced62e37faabf5beE, 1032
_ZN4core3ptr39drop_in_place$LT$qrcode..bits..Bits$GT$17h1c312a8ae9c8293fE, 1033
_ZN4core3ptr56drop_in_place$LT$$u5b$alloc..vec..Vec$LT$u8$GT$$u5d$$GT$17habde0f514c267268E, 1034
_ZN4core3ptr5write17h115892bdab8b4d16E, 1035
_ZN4core3ptr5write17h911d9930a2f4405cE, 1036
_ZN4core3ptr5write17heb653dcd08d7397bE, 1037
_ZN4core3ptr60drop_in_place$LT$alloc..vec..Vec$LT$$RF$$u5b$u8$u5d$$GT$$GT$17h7ee29945d1583243E, 1038
_ZN70_$LT$alloc..vec..Vec$LT$T$C$A$GT$$u20$as$u20$core..ops..drop..Drop$GT$4drop17hea802bf476d70a31E, 1039
_ZN4core3ptr67drop_in_place$LT$alloc..raw_vec..RawVec$LT$$RF$$u5b$u8$u5d$$GT$$GT$17h3d14892eceb488efE, 1040
_ZN77_$LT$alloc..raw_vec..RawVec$LT$T$C$A$GT$$u20$as$u20$core..ops..drop..Drop$GT$4drop17h2653c8de238d7e6bE_original, 1041
_ZN5alloc7raw_vec19RawVec$LT$T$C$A$GT$14current_memory17h2de7105f5739e516E, 1042
_ZN4core3ptr6unique15Unique$LT$T$GT$4cast17he73ed98a87fc0160E, 1043
_ZN4core3ptr6unique15Unique$LT$T$GT$6as_ptr17h991dfa33de7fb729E, 1044
_ZN5alloc3vec16Vec$LT$T$C$A$GT$10as_mut_ptr17h291d9d3a59b833a9E, 1045
_ZN5alloc7raw_vec19RawVec$LT$T$C$A$GT$3ptr17h7daa61e91048c0eeE, 1046
_ZN4core3ptr69drop_in_place$LT$alloc..vec..Vec$LT$alloc..vec..Vec$LT$u8$GT$$GT$$GT$17he966b698cbde0be3E, 1047
_ZN70_$LT$alloc..vec..Vec$LT$T$C$A$GT$$u20$as$u20$core..ops..drop..Drop$GT$4drop17h5d35eebddd510582E, 1048
_ZN4core3ptr76drop_in_place$LT$alloc..raw_vec..RawVec$LT$alloc..vec..Vec$LT$u8$GT$$GT$$GT$17h89cf6c4b946a3a56E, 1049
_ZN77_$LT$alloc..raw_vec..RawVec$LT$T$C$A$GT$$u20$as$u20$core..ops..drop..Drop$GT$4drop17h400504c5c2ee95b2E, 1050
_ZN4core3ptr69drop_in_place$LT$alloc..vec..Vec$LT$qrcode..optimize..Segment$GT$$GT$17hdfc3853797949a32E, 1051
_ZN70_$LT$alloc..vec..Vec$LT$T$C$A$GT$$u20$as$u20$core..ops..drop..Drop$GT$4drop17h7f4b6ec8f65df290E, 1052
_ZN4core3ptr6unique15Unique$LT$T$GT$13new_unchecked17h304ec157adfa855fE, 1053
_ZN4core3ptr6unique15Unique$LT$T$GT$8dangling17h0f8c40f2abba4346E, 1054
_ZN4core3ptr6unique15Unique$LT$T$GT$8dangling17h41bbe2586ea07184E, 1055
_ZN4core3ptr7mut_ptr31_$LT$impl$u20$$BP$mut$u20$T$GT$7is_null17h4d23e078f0e40a2aE, 1056
_ZN4core3ptr7mut_ptr31_$LT$impl$u20$$BP$mut$u20$T$GT$7is_null17hf3525323460fc84eE, 1057
_ZN4core3ptr85drop_in_place$LT$alloc..vec..into_iter..IntoIter$LT$qrcode..optimize..Segment$GT$$GT$17h5e8cc712297d5618E, 1058
_ZN86_$LT$alloc..vec..into_iter..IntoIter$LT$T$C$A$GT$$u20$as$u20$core..ops..drop..Drop$GT$4drop17hdf4322953a59c203E, 1059
_ZN5alloc3vec9into_iter21IntoIter$LT$T$C$A$GT$16as_raw_mut_slice17h257e84b479b46799E, 1060
_ZN83_$LT$$RF$mut$u20$I$u20$as$u20$core..iter..traits..exact_size..ExactSizeIterator$GT$3len17h301ba51394a5c931E, 1061
_ZN4core4iter6traits10exact_size17ExactSizeIterator3len17h069b5001952cd092E, 1062
_ZN4core3ptr8non_null16NonNull$LT$T$GT$13new_unchecked17h3317d107216ec4f8E, 1063
_ZN4core3ptr8non_null16NonNull$LT$T$GT$13new_unchecked17hc00b83df62a12003E, 1064
_ZN4core3ptr8non_null16NonNull$LT$T$GT$4cast17h507c9220a5574f1bE, 1065
_ZN4core3ptr8non_null16NonNull$LT$T$GT$4cast17hcc1cddf4685a49e1E, 1066
_ZN4core3ptr8non_null16NonNull$LT$T$GT$6as_ptr17h940cd48fafe434cbE, 1067
_ZN4core3ptr9const_ptr33_$LT$impl$u20$$BP$const$u20$T$GT$22copy_to_nonoverlapping17hb92c941a6c3ef27fE, 1068
_ZN4core3ptr9const_ptr33_$LT$impl$u20$$BP$const$u20$T$GT$7is_null17h006e93e58b47f933E, 1069
_ZN4core3ptr9const_ptr33_$LT$impl$u20$$BP$const$u20$T$GT$7is_null17h73f504ba4f377e61E, 1070
_ZN4core4iter5range101_$LT$impl$u20$core..iter..traits..iterator..Iterator$u20$for$u20$core..ops..range..Range$LT$A$GT$$GT$4next17h86719a34dcb9cfcfE, 1071
_ZN89_$LT$core..ops..range..Range$LT$T$GT$$u20$as$u20$core..iter..range..RangeIteratorImpl$GT$9spec_next17hf80737484d937b91E, 1072
_ZN4core3cmp5impls55_$LT$impl$u20$core..cmp..PartialOrd$u20$for$u20$u32$GT$2lt17h5ab54ad7fc2ad80fE, 1073
_ZN4core5clone5impls52_$LT$impl$u20$core..clone..Clone$u20$for$u20$u32$GT$5clone17hc542d6a6ff804c67E, 1074
_ZN47_$LT$u32$u20$as$u20$core..iter..range..Step$GT$17forward_unchecked17h0db0511b979a7ca8E_original, 1075
_ZN4core4iter5range110_$LT$impl$u20$core..iter..traits..iterator..Iterator$u20$for$u20$core..ops..range..RangeInclusive$LT$A$GT$$GT$4next17h4a72ec3804106ddcE, 1076
_ZN4core4iter5range125_$LT$impl$u20$core..iter..traits..double_ended..DoubleEndedIterator$u20$for$u20$core..ops..range..RangeInclusive$LT$A$GT$$GT$9next_back17h522c78e05fb987b4E, 1077
_ZN4core4iter6traits8iterator8Iterator10min_by_key17hf1aeb916b916e5daE, 1078
_ZN4core4iter6traits8iterator8Iterator10min_by_key3key17h65f4cced431e8cceE, 1079
_ZN4core4iter6traits8iterator8Iterator3map17h3128863df74113b4E, 1080
_ZN4core4iter6traits8iterator8Iterator6min_by17hbc368024d374c3dbE, 1081
_ZN75_$LT$core..option..Option$LT$T$GT$$u20$as$u20$core..ops..try_trait..Try$GT$6branch17h2566219461bca417E, 1082
_ZN84_$LT$core..option..Option$LT$T$GT$$u20$as$u20$core..ops..try_trait..FromResidual$GT$13from_residual17h3cc2a6fe95ce2f0eE, 1083
_ZN4core4iter6traits8iterator8Iterator6min_by4fold17h4785a75c06e14150E, 1084
_ZN4core4iter6traits8iterator8Iterator6reduce17hbbfd377e822b2cfbE, 1085
_ZN84_$LT$core..option..Option$LT$T$GT$$u20$as$u20$core..ops..try_trait..FromResidual$GT$13from_residual17h208e347ba8d4d89fE, 1086
_ZN4core4iter8adapters3map16Map$LT$I$C$F$GT$3new17hc783490b86efa13fE, 1087
_ZN4core4iter6traits8iterator8Iterator3map17h00d4411c420414d5E, 1088
_ZN4core4iter8adapters3map16Map$LT$I$C$F$GT$3new17hce467a487befdc69E, 1089
_ZN4core4iter6traits8iterator8Iterator3map17h178473cfdc9c8606E, 1090
_ZN4core4iter8adapters3map16Map$LT$I$C$F$GT$3new17hcf272003f75eb1d9E, 1091
_ZN4core4iter6traits8iterator8Iterator3map17h18a2c8be2ad6fc17E, 1092
_ZN4core4iter8adapters3map16Map$LT$I$C$F$GT$3new17h7914e32b1ba71cb5E, 1093
_ZN4core4iter6traits8iterator8Iterator3map17h43fc5b5bae7bcef0E, 1094
_ZN4core4iter8adapters3map16Map$LT$I$C$F$GT$3new17hc428ec3ea8583407E, 1095
_ZN4core4iter6traits8iterator8Iterator3map17h5336745dcc3d5308E, 1096
_ZN4core4iter8adapters3map16Map$LT$I$C$F$GT$3new17h64deb64141fbcbd3E, 1097
_ZN4core4iter6traits8iterator8Iterator3map17h5be74973c981fa5bE, 1098
_ZN4core4iter8adapters3map16Map$LT$I$C$F$GT$3new17h320473fe123e37e4E, 1099
_ZN4core4iter6traits8iterator8Iterator3map17h5e0bf1a5bc2a8732E, 1100
_ZN4core4iter8adapters3map16Map$LT$I$C$F$GT$3new17he5869a145451090cE, 1101
_ZN4core4iter6traits8iterator8Iterator3map17hb4c41439c4876d2dE, 1102
_ZN4core4iter8adapters3map16Map$LT$I$C$F$GT$3new17hb4ffbc89a7f48134E, 1103
_ZN4core4iter6traits8iterator8Iterator3map17hdc3da9b876ee1c3fE, 1104
_ZN4core4iter8adapters3map16Map$LT$I$C$F$GT$3new17h5eee6a514c4d1f16E, 1105
_ZN4core4iter6traits8iterator8Iterator3rev17hb228b89f45b8a0a0E, 1106
_ZN4core4iter8adapters3rev12Rev$LT$T$GT$3new17hee825dfd87137374E, 1107
_ZN4core4iter6traits8iterator8Iterator3sum17h9dc328ff747624e3E, 1108
_ZN56_$LT$usize$u20$as$u20$core..iter..traits..accum..Sum$GT$3sum17h433ef88f3d99514eE, 1109
_ZN4core4iter6traits8iterator8Iterator4fold17hf5f3ba5a79b4c30bE, 1110
_ZN93_$LT$core..slice..iter..Chunks$LT$T$GT$$u20$as$u20$core..iter..traits..iterator..Iterator$GT$4next17hf83f8f83ac2fa0e2E, 1111
_ZN4core4iter6traits8iterator8Iterator8for_each4call28_$u7b$$u7b$closure$u7d$$u7d$17h5652638c4bf12524E, 1112
_ZN97_$LT$alloc..vec..Vec$LT$T$C$A$GT$$u20$as$u20$alloc..vec..spec_extend..SpecExtend$LT$T$C$I$GT$$GT$11spec_extend28_$u7b$$u7b$closure$u7d$$u7d$17hf6bad38a2e6cc78bE, 1113
_ZN4core5slice29_$LT$impl$u20$$u5b$T$u5d$$GT$8is_empty17he1e166701cb109e3E, 1114
_ZN4core5slice29_$LT$impl$u20$$u5b$T$u5d$$GT$8split_at17h9526e25c63d5691aE, 1115
_ZN4core5slice29_$LT$impl$u20$$u5b$T$u5d$$GT$18split_at_unchecked17h758af2fc0458f63bE, 1116
_ZN4core5slice29_$LT$impl$u20$$u5b$T$u5d$$GT$13get_unchecked17h700373428db56e81E, 1117
_ZN4core5slice29_$LT$impl$u20$$u5b$T$u5d$$GT$13get_unchecked17h3ad27e41ca0afb73E, 1118
_ZN4core4iter6traits8iterator8Iterator4take17h0ca4259983a9abb4E, 1119
_ZN4core4iter8adapters4take13Take$LT$I$GT$3new17hc2a1af0627ff7b32E, 1120
_ZN4core4iter6traits8iterator8Iterator5cycle17hd569400d3518ccceE, 1121
_ZN4core4iter8adapters5cycle14Cycle$LT$I$GT$3new17h1fae5ca55b906448E, 1122
_ZN4core4iter6traits8iterator8Iterator6cloned17h331c0d0c3a776e53E, 1123
_ZN4core4iter8adapters6cloned15Cloned$LT$I$GT$3new17hb6821cfb3746f989E, 1124
_ZN4core4iter6traits8iterator8Iterator6cloned17hf178e13d57c92b14E, 1125
_ZN4core4iter8adapters6cloned15Cloned$LT$I$GT$3new17h1d3e149ca28aaf3cE, 1126
_ZN4core4iter6traits8iterator8Iterator7collect17h03b8b96fa70cf9d6E, 1127
_ZN95_$LT$alloc..vec..Vec$LT$T$GT$$u20$as$u20$core..iter..traits..collect..FromIterator$LT$T$GT$$GT$9from_iter17hc54d9c2dfc73fee8E, 1128
_ZN63_$LT$I$u20$as$u20$core..iter..traits..collect..IntoIterator$GT$9into_iter17h30363e06460c1328E, 1129
_ZN98_$LT$alloc..vec..Vec$LT$T$GT$$u20$as$u20$alloc..vec..spec_from_iter..SpecFromIter$LT$T$C$I$GT$$GT$9from_iter17h15dc8f8433e88eebE, 1130
_ZN4core4iter6traits8iterator8Iterator7collect17h09961118d8644004E, 1131
_ZN95_$LT$alloc..vec..Vec$LT$T$GT$$u20$as$u20$core..iter..traits..collect..FromIterator$LT$T$GT$$GT$9from_iter17h3cae91cbd1e55117E, 1132
_ZN63_$LT$I$u20$as$u20$core..iter..traits..collect..IntoIterator$GT$9into_iter17he4d950d2412abd32E, 1133
_ZN5alloc3vec18source_iter_marker108_$LT$impl$u20$alloc..vec..spec_from_iter..SpecFromIter$LT$T$C$I$GT$$u20$for$u20$alloc..vec..Vec$LT$T$GT$$GT$9from_iter17h576124b928571b83E, 1134
_ZN96_$LT$core..iter..adapters..map..Map$LT$I$C$F$GT$$u20$as$u20$core..iter..adapters..SourceIter$GT$8as_inner17hc28af6aa5e48698fE, 1135
_ZN94_$LT$alloc..vec..into_iter..IntoIter$LT$T$GT$$u20$as$u20$alloc..vec..into_iter..AsIntoIter$GT$12as_into_iter17h78d29f48c3724736E, 1136
_ZN85_$LT$I$u20$as$u20$alloc..vec..source_iter_marker..SpecInPlaceCollect$LT$T$C$I$GT$$GT$16collect_in_place17h0e276dd2e4b8ba80E, 1137
_ZN5alloc3vec9into_iter21IntoIter$LT$T$C$A$GT$32forget_allocation_drop_remaining17h1743819e7f20f6eeE, 1138
_ZN5alloc3vec12Vec$LT$T$GT$14from_raw_parts17h6e126e0a207dc5c7E, 1139
_ZN5alloc3vec16Vec$LT$T$C$A$GT$17from_raw_parts_in17h360c3abafbf0f890E, 1140
_ZN5alloc7raw_vec19RawVec$LT$T$C$A$GT$17from_raw_parts_in17h88f92ba3d155bb6aE, 1141
_ZN4core4iter8adapters3zip19TrustedRandomAccess4size17hdf6d9500b8fb8884E, 1142
_ZN97_$LT$alloc..vec..into_iter..IntoIter$LT$T$C$A$GT$$u20$as$u20$core..iter..adapters..SourceIter$GT$8as_inner17ha88bd6e0f1f72ee5E, 1143
_ZN4core4iter6traits8iterator8Iterator7collect17h7084df7cec8add4dE, 1144
_ZN95_$LT$alloc..vec..Vec$LT$T$GT$$u20$as$u20$core..iter..traits..collect..FromIterator$LT$T$GT$$GT$9from_iter17h5dcff0dcee2e3ebfE, 1145
_ZN63_$LT$I$u20$as$u20$core..iter..traits..collect..IntoIterator$GT$9into_iter17h61a1aa61cc848d22E, 1146
_ZN98_$LT$alloc..vec..Vec$LT$T$GT$$u20$as$u20$alloc..vec..spec_from_iter..SpecFromIter$LT$T$C$I$GT$$GT$9from_iter17h325b2e0a57a3e81cE, 1147
_ZN4core4iter6traits8iterator8Iterator7collect17h820fc937689ce22eE, 1148
_ZN95_$LT$alloc..vec..Vec$LT$T$GT$$u20$as$u20$core..iter..traits..collect..FromIterator$LT$T$GT$$GT$9from_iter17h38ce777b05e36dd0E, 1149
_ZN63_$LT$I$u20$as$u20$core..iter..traits..collect..IntoIterator$GT$9into_iter17h7ae9e4eea999c64bE, 1150
_ZN98_$LT$alloc..vec..Vec$LT$T$GT$$u20$as$u20$alloc..vec..spec_from_iter..SpecFromIter$LT$T$C$I$GT$$GT$9from_iter17he571c97a18afcef9E, 1151
_ZN4core4iter6traits8iterator8Iterator7collect17h82ca12bda6099b5bE, 1152
_ZN95_$LT$alloc..vec..Vec$LT$T$GT$$u20$as$u20$core..iter..traits..collect..FromIterator$LT$T$GT$$GT$9from_iter17heafe512c9f9067b8E, 1153
_ZN63_$LT$I$u20$as$u20$core..iter..traits..collect..IntoIterator$GT$9into_iter17h629c5ccd1b59758aE, 1154
_ZN98_$LT$alloc..vec..Vec$LT$T$GT$$u20$as$u20$alloc..vec..spec_from_iter..SpecFromIter$LT$T$C$I$GT$$GT$9from_iter17h2ee2839f0645feaaE, 1155
_ZN4core4iter6traits8iterator8Iterator7collect17h960bdb6ad2445911E, 1156
_ZN95_$LT$alloc..vec..Vec$LT$T$GT$$u20$as$u20$core..iter..traits..collect..FromIterator$LT$T$GT$$GT$9from_iter17h098637c2944342e2E, 1157
_ZN63_$LT$I$u20$as$u20$core..iter..traits..collect..IntoIterator$GT$9into_iter17h1f9b576fa46fb1f1E, 1158
_ZN5alloc3vec18source_iter_marker108_$LT$impl$u20$alloc..vec..spec_from_iter..SpecFromIter$LT$T$C$I$GT$$u20$for$u20$alloc..vec..Vec$LT$T$GT$$GT$9from_iter17h4ba04681f6c5417aE, 1159
_ZN96_$LT$core..iter..adapters..map..Map$LT$I$C$F$GT$$u20$as$u20$core..iter..adapters..SourceIter$GT$8as_inner17h35dd726c82d9529bE, 1160
_ZN94_$LT$alloc..vec..into_iter..IntoIter$LT$T$GT$$u20$as$u20$alloc..vec..into_iter..AsIntoIter$GT$12as_into_iter17h1ddf9193dd35f695E, 1161
_ZN85_$LT$I$u20$as$u20$alloc..vec..source_iter_marker..SpecInPlaceCollect$LT$T$C$I$GT$$GT$16collect_in_place17hf035430adcad7305E, 1162
_ZN5alloc3vec9into_iter21IntoIter$LT$T$C$A$GT$32forget_allocation_drop_remaining17h74c94a21ed0b7dc0E, 1163
_ZN5alloc3vec12Vec$LT$T$GT$14from_raw_parts17h7262360fc230a72bE, 1164
_ZN5alloc3vec16Vec$LT$T$C$A$GT$17from_raw_parts_in17hdf3e0b0e30fd9dc0E, 1165
_ZN4core4iter8adapters3zip19TrustedRandomAccess4size17h154e579b7b5bc867E, 1166
_ZN97_$LT$alloc..vec..into_iter..IntoIter$LT$T$C$A$GT$$u20$as$u20$core..iter..adapters..SourceIter$GT$8as_inner17h520104b618d8c9d2E, 1167
_ZN4core4iter6traits8iterator8Iterator7collect17hf019a8b90e9b8623E, 1168
_ZN95_$LT$alloc..vec..Vec$LT$T$GT$$u20$as$u20$core..iter..traits..collect..FromIterator$LT$T$GT$$GT$9from_iter17hf494d9c16161c6b9E, 1169
_ZN63_$LT$I$u20$as$u20$core..iter..traits..collect..IntoIterator$GT$9into_iter17ha989e39e3349d189E, 1170
_ZN98_$LT$alloc..vec..Vec$LT$T$GT$$u20$as$u20$alloc..vec..spec_from_iter..SpecFromIter$LT$T$C$I$GT$$GT$9from_iter17h7ed89ba8cd8be0bbE, 1171
_ZN4core4iter6traits8iterator8Iterator8for_each4call17h8557450223f0ea82E, 1172
_ZN4core4iter6traits8iterator8Iterator9enumerate17h10c7c90e5ba6e3d0E, 1173
_ZN4core4iter8adapters9enumerate18Enumerate$LT$I$GT$3new17hf05b33fc4a69bbeaE, 1174
_ZN4core4iter6traits8iterator8Iterator9enumerate17h28083399b1c4a41fE, 1175
_ZN4core4iter8adapters9enumerate18Enumerate$LT$I$GT$3new17ha56f9d38c3d08050E, 1176
_ZN4core4iter6traits8iterator8Iterator9enumerate17h560f7522a4fc8787E, 1177
_ZN4core4iter8adapters9enumerate18Enumerate$LT$I$GT$3new17ha1c8e859e77b0b24E, 1178
_ZN4core5alloc6layout10size_align17h49a9e46f9302dd57E, 1179
_ZN4core5alloc6layout10size_align17hc09ca7b6df72ab08E, 1180
_ZN4core5alloc6layout6Layout3new17h234df07dadc88dc7E, 1181
_ZN4core5alloc6layout6Layout3new17h3c6eee988423c06eE, 1182
_ZN4core5alloc6layout6Layout5array17h04e1224b234efd76E, 1183
_ZN4core5alloc6layout6Layout5array17h1a1d7070e0d65a8aE, 1184
_ZN4core5array98_$LT$impl$u20$core..iter..traits..collect..IntoIterator$u20$for$u20$$RF$$u5b$T$u3b$$u20$N$u5d$$GT$9into_iter17h703c80d474f69defE, 1185
_ZN4core5slice29_$LT$impl$u20$$u5b$T$u5d$$GT$4iter17hdff5c677f4944cc0E, 1186
_ZN4core5slice4iter13Iter$LT$T$GT$3new17h15ddc22317fa7df3E, 1187
_ZN4core5slice29_$LT$impl$u20$$u5b$T$u5d$$GT$6as_ptr17hb051b6408b5a093bE, 1188
_ZN4core5slice29_$LT$impl$u20$$u5b$T$u5d$$GT$3len17h8add58bece9f3859E, 1189
_ZN4core5slice29_$LT$impl$u20$$u5b$T$u5d$$GT$3len17h8ad13c274105b9f8E, 1190
_ZN4core5slice29_$LT$impl$u20$$u5b$T$u5d$$GT$3len17h930042b5630c2d88E, 1191
_ZN4core5slice29_$LT$impl$u20$$u5b$T$u5d$$GT$3len17hc77427be670b4119E, 1192
_ZN4core5slice29_$LT$impl$u20$$u5b$T$u5d$$GT$3len17hca6841f1a9ed2248E, 1193
_ZN4core5slice29_$LT$impl$u20$$u5b$T$u5d$$GT$3len17he851ccef1f975ae7E, 1194
_ZN4core5slice29_$LT$impl$u20$$u5b$T$u5d$$GT$4iter17h21c1603ebb71572aE, 1195
_ZN4core5slice4iter13Iter$LT$T$GT$3new17h3c5d67bf5137a031E, 1196
_ZN4core5slice29_$LT$impl$u20$$u5b$T$u5d$$GT$6as_ptr17h087137ab531c4a1cE, 1197
_ZN4core5slice29_$LT$impl$u20$$u5b$T$u5d$$GT$4iter17h7aafb961d529d279E, 1198
_ZN4core5slice4iter13Iter$LT$T$GT$3new17h55e298e209ea4b14E, 1199
_ZN4core5slice29_$LT$impl$u20$$u5b$T$u5d$$GT$6as_ptr17h5633e16eb868e3d5E, 1200
_ZN4core5slice29_$LT$impl$u20$$u5b$T$u5d$$GT$4iter17h9f77e4fac59c8e53E, 1201
_ZN4core5slice4iter13Iter$LT$T$GT$3new17hc37954dfcff192ecE, 1202
_ZN4core5slice29_$LT$impl$u20$$u5b$T$u5d$$GT$6as_ptr17h48b93448c1a0d9a2E, 1203
_ZN4core5slice29_$LT$impl$u20$$u5b$T$u5d$$GT$4iter17hd3e89394d3263f2cE, 1204
_ZN4core5slice4iter13Iter$LT$T$GT$3new17hae39b06894b85a94E, 1205
_ZN4core5slice29_$LT$impl$u20$$u5b$T$u5d$$GT$6as_ptr17ha9511de8c767469eE, 1206
_ZN4core5slice29_$LT$impl$u20$$u5b$T$u5d$$GT$4iter17hf07c8eabd543af99E, 1207
_ZN4core5slice4iter13Iter$LT$T$GT$3new17hc80cd2b472fbcbe7E, 1208
_ZN4core5slice29_$LT$impl$u20$$u5b$T$u5d$$GT$6as_ptr17hbbe7b6ea13ec5b7eE, 1209
_ZN4core5slice29_$LT$impl$u20$$u5b$T$u5d$$GT$4last17h4fb85beef0cf953dE, 1210
_ZN4core5slice29_$LT$impl$u20$$u5b$T$u5d$$GT$4last17hfb7783ff95c478dfE, 1211
_ZN4core5slice29_$LT$impl$u20$$u5b$T$u5d$$GT$6chunks17hb221ff476777ab7dE, 1212
_ZN4core5slice4iter15Chunks$LT$T$GT$3new17h5f67c42974e22bc7E, 1213
_ZN4core9panicking13assert_failed17h0d735a1fbc123c8bE, 1214
_ZN4core5slice3raw14from_raw_parts17h265b81279df7ac17E, 1215
_ZN4core5slice3raw14from_raw_parts17h272e88d50201eadbE, 1216
_ZN4core5slice3raw14from_raw_parts17h7636336509a8374bE, 1217
_ZN4core5slice3raw14from_raw_parts17hd4d162f7a8565dfaE, 1218
_ZN4core5slice3raw18from_raw_parts_mut17h35423345773d53d4E, 1219
_ZN4core5slice4iter87_$LT$impl$u20$core..iter..traits..collect..IntoIterator$u20$for$u20$$RF$$u5b$T$u5d$$GT$9into_iter17h8590da445f8c2af8E, 1220
_ZN4core5slice4iter87_$LT$impl$u20$core..iter..traits..collect..IntoIterator$u20$for$u20$$RF$$u5b$T$u5d$$GT$9into_iter17haba01a6255180e7fE, 1221
_ZN4core5slice4iter87_$LT$impl$u20$core..iter..traits..collect..IntoIterator$u20$for$u20$$RF$$u5b$T$u5d$$GT$9into_iter17hb16c0152a40f0441E, 1222
_ZN4core5slice5index74_$LT$impl$u20$core..ops..index..Index$LT$I$GT$$u20$for$u20$$u5b$T$u5d$$GT$5index17h14853ebafa815f2eE, 1223
_ZN75_$LT$usize$u20$as$u20$core..slice..index..SliceIndex$LT$$u5b$T$u5d$$GT$$GT$5index17h015e38205ac76d6cE, 1224
_ZN4core5slice5index74_$LT$impl$u20$core..ops..index..Index$LT$I$GT$$u20$for$u20$$u5b$T$u5d$$GT$5index17h1aed013f477efb58E, 1225
_ZN4core5slice5index74_$LT$impl$u20$core..ops..index..Index$LT$I$GT$$u20$for$u20$$u5b$T$u5d$$GT$5index17h284f665c0eef437bE, 1226
_ZN4core5slice5index74_$LT$impl$u20$core..ops..index..Index$LT$I$GT$$u20$for$u20$$u5b$T$u5d$$GT$5index17hef1184d38d92ed36E, 1227
_ZN4core5slice5index77_$LT$impl$u20$core..ops..index..IndexMut$LT$I$GT$$u20$for$u20$$u5b$T$u5d$$GT$9index_mut17h037b97c2bf6ed2b0E, 1228
_ZN4core5slice5index77_$LT$impl$u20$core..ops..index..IndexMut$LT$I$GT$$u20$for$u20$$u5b$T$u5d$$GT$9index_mut17h1e5cb2a63ecdbda7E, 1229
_ZN75_$LT$usize$u20$as$u20$core..slice..index..SliceIndex$LT$$u5b$T$u5d$$GT$$GT$9index_mut17h11406961125b3e0fE, 1230
_ZN4core5slice5index77_$LT$impl$u20$core..ops..index..IndexMut$LT$I$GT$$u20$for$u20$$u5b$T$u5d$$GT$9index_mut17h26976f8d08461715E, 1231
_ZN97_$LT$core..ops..range..RangeFull$u20$as$u20$core..slice..index..SliceIndex$LT$$u5b$T$u5d$$GT$$GT$9index_mut17hd8dc19cf3aa8369fE, 1232
_ZN4core5slice5index77_$LT$impl$u20$core..ops..index..IndexMut$LT$I$GT$$u20$for$u20$$u5b$T$u5d$$GT$9index_mut17hd4a74c8f0188bf93E, 1233
_ZN75_$LT$usize$u20$as$u20$core..slice..index..SliceIndex$LT$$u5b$T$u5d$$GT$$GT$9index_mut17h236118afadde94bfE, 1234
_ZN4core5tuple72_$LT$impl$u20$core..cmp..PartialEq$u20$for$u20$$LP$A$C$B$C$C$C$D$RP$$GT$2ne17he41de85226eb3940E, 1235
_ZN4core3cmp5impls56_$LT$impl$u20$core..cmp..PartialEq$u20$for$u20$usize$GT$2ne17h131c331250208a55E, 1236
_ZN4core5tuple74_$LT$impl$u20$core..default..Default$u20$for$u20$$LP$A$C$B$C$C$C$D$RP$$GT$7default17hfa4ab0f7f2c18d55E, 1237
_ZN48_$LT$usize$u20$as$u20$core..default..Default$GT$7default17h834c848dbd06d846E, 1238
_ZN4core6option15Option$LT$T$GT$6expect17h16c7ed7d828922eaE, 1239
_ZN4core6option15Option$LT$T$GT$6expect17h58758d34fcff4d03E, 1240
_ZN4core6option15Option$LT$T$GT$6expect17h74d199518d060e2eE, 1241
_ZN4core6option15Option$LT$T$GT$6expect17hbbb083719ae98609E, 1242
_ZN4core6result19Result$LT$T$C$E$GT$2or17h83f81b22cb3f4deaE, 1243
_ZN4core6result19Result$LT$T$C$E$GT$6expect17hb585964a8491f265E, 1244
_ZN4core3ptr43drop_in_place$LT$qrcode..types..QrError$GT$17h7d31006e11238983E, 1245
_ZN59_$LT$qrcode..types..QrError$u20$as$u20$core..fmt..Debug$GT$3fmt17hd6180215b16ab5edE, 1246
_ZN52_$LT$T$u20$as$u20$alloc..slice..hack..ConvertVec$GT$6to_vec17haa5ef6de47baa39eE, 1247
_ZN5alloc3vec16Vec$LT$T$C$A$GT$7set_len17hab6efc78e0b50580E, 1248
_ZN52_$LT$char$u20$as$u20$alloc..vec..is_zero..IsZero$GT$7is_zero28_$u7b$$u7b$closure$u7d$$u7d$17h689503eb0c349d56E, 1249
_ZN5alloc3vec12Vec$LT$T$GT$13with_capacity17h0c318d4bd89f43fcE, 1250
_ZN5alloc3vec12Vec$LT$T$GT$13with_capacity17h37c717dd0baba376E, 1251
_ZN5alloc3vec16Vec$LT$T$C$A$GT$16with_capacity_in17h5c42ff5533ecc4f6E, 1252
_ZN5alloc7raw_vec19RawVec$LT$T$C$A$GT$16with_capacity_in17hc167591bf67cc4c3E_original, 1253
_ZN5alloc7raw_vec19RawVec$LT$T$C$A$GT$11allocate_in17hdfb4148fa2c23d08E, 1254
_ZN5alloc7raw_vec19RawVec$LT$T$C$A$GT$6new_in17h5d53eedb9b29406dE, 1255
_ZN5alloc7raw_vec19RawVec$LT$T$C$A$GT$19capacity_from_bytes17hbe0dcfe3995f0288E, 1256
_ZN5alloc3vec12Vec$LT$T$GT$3new17hff16a6b1c66efcf6E, 1257
_ZN5alloc3vec16Vec$LT$T$C$A$GT$10as_mut_ptr17hf8cbab2aca3d952bE, 1258
_ZN5alloc7raw_vec19RawVec$LT$T$C$A$GT$3ptr17h484c8487c15db1c6E, 1259
_ZN5alloc3vec16Vec$LT$T$C$A$GT$11extend_with17h47468bdc95927d6fE, 1260
_ZN5alloc3vec16Vec$LT$T$C$A$GT$7reserve17h315747fc43b3ab73E, 1261
_ZN5alloc3vec16Vec$LT$T$C$A$GT$3len17h3c9fc752826f3b5fE, 1262
_ZN86_$LT$alloc..vec..ExtendElement$LT$T$GT$$u20$as$u20$alloc..vec..ExtendWith$LT$T$GT$$GT$4next17hf6379057f9d69552E, 1263
_ZN86_$LT$alloc..vec..ExtendElement$LT$T$GT$$u20$as$u20$alloc..vec..ExtendWith$LT$T$GT$$GT$4last17h0948d85026f43d98E, 1264
_ZN4core5clone5impls53_$LT$impl$u20$core..clone..Clone$u20$for$u20$char$GT$5clone17ha301df3604cfe18eE, 1265
_ZN5alloc7raw_vec19RawVec$LT$T$C$A$GT$7reserve17h71eed5ad6b4e8207E, 1266
_ZN5alloc7raw_vec19RawVec$LT$T$C$A$GT$13needs_to_grow17h8c0c8077e3cae9ddE, 1267
_ZN5alloc7raw_vec19RawVec$LT$T$C$A$GT$7reserve21do_reserve_and_handle17h53a44f47b9ce4320E, 1268
_ZN5alloc7raw_vec19RawVec$LT$T$C$A$GT$14grow_amortized17h6f899ca47fc55f93E_original, 1269
_ZN5alloc7raw_vec19RawVec$LT$T$C$A$GT$7set_ptr17hdcf94b1587d3a84fE, 1270
_ZN5alloc7raw_vec19RawVec$LT$T$C$A$GT$19capacity_from_bytes17hd9a21149a3794780E, 1271
_ZN5alloc3vec16Vec$LT$T$C$A$GT$11extend_with17h55bc34071b0cc5aeE, 1272
_ZN5alloc3vec16Vec$LT$T$C$A$GT$7reserve17hbe0da233440fd46fE, 1273
_ZN86_$LT$alloc..vec..ExtendElement$LT$T$GT$$u20$as$u20$alloc..vec..ExtendWith$LT$T$GT$$GT$4next17hb13e2c60666eb8aaE, 1274
_ZN86_$LT$alloc..vec..ExtendElement$LT$T$GT$$u20$as$u20$alloc..vec..ExtendWith$LT$T$GT$$GT$4last17h002e30f97989aa3fE, 1275
_ZN61_$LT$qrcode..canvas..Module$u20$as$u20$core..clone..Clone$GT$5clone17h21df78760c4cd8f1E, 1276
_ZN5alloc7raw_vec19RawVec$LT$T$C$A$GT$7reserve17ha0a6bc3a3ab33807E, 1277
_ZN5alloc7raw_vec19RawVec$LT$T$C$A$GT$13needs_to_grow17h19ab01fd2d8efd2aE, 1278
_ZN5alloc7raw_vec19RawVec$LT$T$C$A$GT$7reserve21do_reserve_and_handle17h23b601e355bf136bE, 1279
_ZN5alloc7raw_vec19RawVec$LT$T$C$A$GT$14grow_amortized17h1d44e32cffce055bE, 1280
_ZN5alloc7raw_vec19RawVec$LT$T$C$A$GT$7set_ptr17h5fef71c0ad56f22eE, 1281
_ZN5alloc3vec16Vec$LT$T$C$A$GT$16extend_desugared17h02c08531748e00c7E, 1282
_ZN5alloc3vec16Vec$LT$T$C$A$GT$16with_capacity_in17h4f6008659afc5f30E, 1283
_ZN5alloc7raw_vec19RawVec$LT$T$C$A$GT$16with_capacity_in17h471499fba7ae1730E, 1284
_ZN5alloc7raw_vec19RawVec$LT$T$C$A$GT$11allocate_in17h29fe1f804abc0cc2E_original, 1285
_ZN5alloc7raw_vec19RawVec$LT$T$C$A$GT$6new_in17h6cd42e5a2afd4d07E, 1286
_ZN5alloc3vec16Vec$LT$T$C$A$GT$17extend_from_slice17hc0c3be22259dbbe2E, 1287
_ZN5alloc3vec16Vec$LT$T$C$A$GT$3len17hb800fdc0c8093c48E, 1288
_ZN5alloc3vec16Vec$LT$T$C$A$GT$4push17h86b12b191d19fe3cE, 1289
_ZN5alloc3vec16Vec$LT$T$C$A$GT$6as_ptr17h0e4eb433e7b6122aE, 1290
_ZN5alloc3vec16Vec$LT$T$C$A$GT$6as_ptr17h5fd82a9f056279b7E, 1291
_ZN5alloc3vec16Vec$LT$T$C$A$GT$6as_ptr17h9e6589a999cac4abE, 1292
_ZN5alloc3vec16Vec$LT$T$C$A$GT$6as_ptr17hd2a780ca4678fe19E, 1293
_ZN5alloc3vec16Vec$LT$T$C$A$GT$7reserve17h8ab79fa349bebb2eE, 1294
_ZN5alloc7raw_vec19RawVec$LT$T$C$A$GT$7reserve17hbae978a10b893e30E, 1295
_ZN5alloc7raw_vec19RawVec$LT$T$C$A$GT$13needs_to_grow17h455b524764c74dc6E, 1296
_ZN5alloc7raw_vec19RawVec$LT$T$C$A$GT$7reserve21do_reserve_and_handle17h487305b70a05216bE, 1297
_ZN5alloc7raw_vec19RawVec$LT$T$C$A$GT$14grow_amortized17h041841ca163f05abE, 1298
_ZN5alloc7raw_vec19RawVec$LT$T$C$A$GT$7set_ptr17h8834d95fb75a61adE, 1299
_ZN5alloc3vec16Vec$LT$T$C$A$GT$8is_empty17h3b52f69c3c1dc651E, 1300
_ZN5alloc3vec16Vec$LT$T$C$A$GT$9allocator17h47d9b80755c59ac7E, 1301
_ZN5alloc7raw_vec19RawVec$LT$T$C$A$GT$9allocator17hb8d2cd0d4b0cff37E, 1302
_ZN5alloc3vec16Vec$LT$T$C$A$GT$9allocator17h7edab57f4f8014ccE, 1303
_ZN5alloc7raw_vec19RawVec$LT$T$C$A$GT$9allocator17he7d79205155e1cebE, 1304
_ZN5alloc3vec16Vec$LT$T$C$A$GT$9allocator17h9c6959c83503d131E, 1305
_ZN5alloc7raw_vec19RawVec$LT$T$C$A$GT$9allocator17hd87dc23314988aefE, 1306
_ZN5alloc3vec9from_elem17h39a9ed8157f87ac4E, 1307
_ZN62_$LT$T$u20$as$u20$alloc..vec..spec_from_elem..SpecFromElem$GT$9from_elem17h9e7bd319cf946b0eE, 1308
_ZN5alloc3vec9from_elem17h47932ff9b624d09bE, 1309
_ZN62_$LT$T$u20$as$u20$alloc..vec..spec_from_elem..SpecFromElem$GT$9from_elem17h6ac3b5041101bcecE, 1310
_ZN52_$LT$char$u20$as$u20$alloc..vec..is_zero..IsZero$GT$7is_zero17h760981f8ecbb3010E, 1311
_ZN5alloc7raw_vec19RawVec$LT$T$C$A$GT$23with_capacity_zeroed_in17h616e6aec8c6a3f6bE, 1312
_ZN5alloc5slice29_$LT$impl$u20$$u5b$T$u5d$$GT$9to_vec_in17h852ab797c9049c5eE, 1313
_ZN5alloc5slice4hack6to_vec17h51c6fa9086316478E, 1314
_ZN63_$LT$I$u20$as$u20$core..iter..traits..collect..IntoIterator$GT$9into_iter17h2d0eb9c9452a62feE, 1315
_ZN63_$LT$I$u20$as$u20$core..iter..traits..collect..IntoIterator$GT$9into_iter17h7703da7e38d6caacE, 1316
_ZN63_$LT$I$u20$as$u20$core..iter..traits..collect..IntoIterator$GT$9into_iter17h9ecff64f6fe72556E, 1317
_ZN63_$LT$I$u20$as$u20$core..iter..traits..collect..IntoIterator$GT$9into_iter17haa597b04891ff195E, 1318
_ZN63_$LT$I$u20$as$u20$core..iter..traits..collect..IntoIterator$GT$9into_iter17hb77831ba44d2ad89E, 1319
_ZN63_$LT$I$u20$as$u20$core..iter..traits..collect..IntoIterator$GT$9into_iter17hc360fc0e300b1984E, 1320
_ZN63_$LT$I$u20$as$u20$core..iter..traits..collect..IntoIterator$GT$9into_iter17hcb02c944c5833a08E, 1321
_ZN63_$LT$I$u20$as$u20$core..iter..traits..collect..IntoIterator$GT$9into_iter17hcc8dffa0684df5d5E, 1322
_ZN63_$LT$I$u20$as$u20$core..iter..traits..collect..IntoIterator$GT$9into_iter17hd3692d2769ed4e8dE, 1323
_ZN63_$LT$I$u20$as$u20$core..iter..traits..collect..IntoIterator$GT$9into_iter17hea80bd819c1f67e5E, 1324
_ZN63_$LT$I$u20$as$u20$core..iter..traits..collect..IntoIterator$GT$9into_iter17hf12d99fae438705dE, 1325
_ZN67_$LT$alloc..vec..Vec$LT$T$C$A$GT$$u20$as$u20$core..clone..Clone$GT$5clone17hf8b9b3958d591cf4E, 1326
_ZN72_$LT$alloc..vec..Vec$LT$T$C$A$GT$$u20$as$u20$core..ops..deref..Deref$GT$5deref17hb9c7b00096b27423E, 1327
_ZN72_$LT$alloc..vec..Vec$LT$T$C$A$GT$$u20$as$u20$core..ops..deref..Deref$GT$5deref17h0cb404dfe6ff795aE, 1328
_ZN72_$LT$alloc..vec..Vec$LT$T$C$A$GT$$u20$as$u20$core..ops..deref..Deref$GT$5deref17h13f2cca12d03026eE, 1329
_ZN72_$LT$alloc..vec..Vec$LT$T$C$A$GT$$u20$as$u20$core..ops..deref..Deref$GT$5deref17h5683920f2877692fE, 1330
_ZN75_$LT$alloc..vec..Vec$LT$T$C$A$GT$$u20$as$u20$core..ops..deref..DerefMut$GT$9deref_mut17hbbde5675f0798073E, 1331
_ZN79_$LT$core..result..Result$LT$T$C$E$GT$$u20$as$u20$core..ops..try_trait..Try$GT$6branch17h76667cf887033bd8E, 1332
_ZN79_$LT$core..result..Result$LT$T$C$E$GT$$u20$as$u20$core..ops..try_trait..Try$GT$6branch17hbf8dc0c096a6fed3E, 1333
_ZN79_$LT$core..result..Result$LT$T$C$E$GT$$u20$as$u20$core..ops..try_trait..Try$GT$6branch17hd2f174b5a28c69eeE, 1334
_ZN79_$LT$core..result..Result$LT$T$C$E$GT$$u20$as$u20$core..ops..try_trait..Try$GT$6branch17hf703c674cce30da8E, 1335
_ZN81_$LT$alloc..vec..Vec$LT$T$C$A$GT$$u20$as$u20$core..ops..index..Index$LT$I$GT$$GT$5index17h5493c1769cb96098E, 1336
_ZN84_$LT$alloc..vec..Vec$LT$T$C$A$GT$$u20$as$u20$core..ops..index..IndexMut$LT$I$GT$$GT$9index_mut17h448cd01cafc27e53E, 1337
_ZN84_$LT$alloc..vec..Vec$LT$T$C$A$GT$$u20$as$u20$core..ops..index..IndexMut$LT$I$GT$$GT$9index_mut17h8f71beb5a649448eE, 1338
_ZN90_$LT$alloc..vec..Vec$LT$T$C$A$GT$$u20$as$u20$core..iter..traits..collect..IntoIterator$GT$9into_iter17h22749a8b022aa6ebE_original, 1339
_ZN90_$LT$alloc..vec..Vec$LT$T$C$A$GT$$u20$as$u20$core..iter..traits..collect..IntoIterator$GT$9into_iter17h2e43fcc2762ceb86E, 1340
_ZN90_$LT$alloc..vec..Vec$LT$T$C$A$GT$$u20$as$u20$core..iter..traits..collect..IntoIterator$GT$9into_iter17h617c0a3f4db77f28E, 1341
_ZN90_$LT$alloc..vec..Vec$LT$T$C$A$GT$$u20$as$u20$core..iter..traits..collect..IntoIterator$GT$9into_iter17had3fcf2b000b78efE_original, 1342
_ZN91_$LT$core..slice..iter..Iter$LT$T$GT$$u20$as$u20$core..iter..traits..iterator..Iterator$GT$4next17h8b94b2a9235db285E, 1343
_ZN91_$LT$core..slice..iter..Iter$LT$T$GT$$u20$as$u20$core..iter..traits..iterator..Iterator$GT$4next17h9ad1d08bb7f1c341E, 1344
_ZN93_$LT$alloc..vec..Vec$LT$T$C$A$GT$$u20$as$u20$core..iter..traits..collect..Extend$LT$T$GT$$GT$6extend17h055b6ba01a9602aeE, 1345
_ZN97_$LT$alloc..vec..Vec$LT$T$C$A$GT$$u20$as$u20$alloc..vec..spec_extend..SpecExtend$LT$T$C$I$GT$$GT$11spec_extend17h64e2709f87313243E, 1346
_ZN93_$LT$alloc..vec..Vec$LT$T$C$A$GT$$u20$as$u20$core..iter..traits..collect..Extend$LT$T$GT$$GT$6extend17h2f2e514dcbc269cdE, 1347
_ZN97_$LT$alloc..vec..Vec$LT$T$C$A$GT$$u20$as$u20$alloc..vec..spec_extend..SpecExtend$LT$T$C$I$GT$$GT$11spec_extend17h0b3096af8d17e1b0E, 1348
_ZN93_$LT$core..slice..iter..Chunks$LT$T$GT$$u20$as$u20$core..iter..traits..iterator..Iterator$GT$9size_hint17h7b627ad4b6694775E, 1349
_ZN98_$LT$core..iter..adapters..rev..Rev$LT$I$GT$$u20$as$u20$core..iter..traits..iterator..Iterator$GT$4next17h803765ee6b79ea50E, 1350
_ZN6qrcode4bits4Bits3new17hbf0f92c70071e476E, 1351
_ZN6qrcode4bits4Bits10into_bytes17hd4deee9e7d2e8b4dE, 1352
_ZN6qrcode4bits4Bits3len17hd97cb5f542c693c5E, 1353
_ZN6qrcode4bits4Bits8is_empty17he3038c9e7cf38dbaE, 1354
_ZN6qrcode4bits4Bits7max_len17h377be87f96f4ac4fE, 1355
_ZN6qrcode5types7Version5fetch17hb5a7a39d45c85a1cE, 1356
_ZN6qrcode4bits4Bits7version17hc40c054e33652e0aE, 1357
_ZN6qrcode4bits4Bits19push_mode_indicator17h7ea8e72a91415f9aE, 1358
_ZN6qrcode4bits4Bits19push_number_checked17h72411921519654b0E, 1359
_ZN6qrcode4bits4Bits11push_number17h1f6376b447d8e420E, 1360
_ZN46_$LT$u16$u20$as$u20$qrcode..cast..Truncate$GT$14truncate_as_u817h7a717034aa4b1c8eE, 1361
_ZN6qrcode4bits4Bits19push_eci_designator17h468f69b2c315adb4E, 1362
_ZN6qrcode4bits4Bits7reserve17h410bdbad185af40eE, 1363
_ZN40_$LT$u32$u20$as$u20$qrcode..cast..As$GT$6as_u1617h4b90d0b5cdaa77e8E, 1364
_ZN56_$LT$u32$u20$as$u20$checked_int_cast..CheckedIntCast$GT$14as_u16_checked17hc8e50255da0c7ab8E, 1365
_ZN80_$LT$core..option..Option$LT$T$GT$$u20$as$u20$qrcode..cast..ExpectOrOverflow$GT$18expect_or_overflow17h1aa1af1bbedaa33bE, 1366
_ZN6qrcode4bits4Bits17push_numeric_data17h0b0dae4145fac6c5E, 1367
_ZN6qrcode4bits4Bits11push_header17h6a260ed66269b6aeE, 1368
_ZN6qrcode4bits4Bits22push_alphanumeric_data17h9b38b81ce919eb7eE, 1369
_ZN6qrcode4bits4Bits14push_byte_data17hb3c90545e206d092E, 1370
_ZN6qrcode4bits4Bits15push_kanji_data17heefceab94fc39fecE, 1371
_ZN6qrcode4bits4Bits24push_fnc1_first_position17hd064147722a8ff44E, 1372
_ZN6qrcode4bits4Bits25push_fnc1_second_position17h5ae80ec26ea6456cE, 1373
_ZN6qrcode4bits4Bits15push_terminator17h26b057d06fd0ac78E, 1374
_ZN6qrcode4bits4Bits13push_segments17h49882c86388c8ceaE, 1375
_ZN95_$LT$qrcode..optimize..Optimizer$LT$I$GT$$u20$as$u20$core..iter..traits..iterator..Iterator$GT$4next17hf62a5ae813e72ed3E, 1376
_ZN6qrcode4bits4Bits13push_segments17hd759191d102075a8E, 1377
_ZN6qrcode4bits4Bits17push_optimal_data17h5b38daaf39e15d1aE, 1378
_ZN6qrcode8optimize6Parser3new17hd154e0bba85b2d22E, 1379
_ZN6qrcode8optimize6Parser8optimize17h6845658555650e2dE, 1380
_ZN6qrcode8optimize18Optimizer$LT$I$GT$3new17h685383635cdb08c7E, 1381
_ZN6qrcode4bits11encode_auto17h2d973fe44a97f089E, 1382
_ZN6qrcode8optimize18Optimizer$LT$I$GT$3new17hcc327bd105b2034eE, 1383
_ZN6qrcode8optimize17total_encoded_len17hf5e0406259feef87E, 1384
_ZN6qrcode4bits16find_min_version17h9757cdf50f7b63cbE, 1385
_ZN42_$LT$usize$u20$as$u20$qrcode..cast..As$GT$6as_i1617h7552c5d6d407aae5E, 1386
_ZN58_$LT$usize$u20$as$u20$checked_int_cast..CheckedIntCast$GT$14as_i16_checked17hfc48c95a74e73797E, 1387
_ZN80_$LT$core..option..Option$LT$T$GT$$u20$as$u20$qrcode..cast..ExpectOrOverflow$GT$18expect_or_overflow17h69a476d32569edd8E, 1388
_ZN6qrcode6canvas6Canvas3new17hda59a4aac07c99a7E, 1389
_ZN6qrcode5types7Version5width17h0c90495c44403753E, 1390
_ZN6qrcode6canvas6Canvas28draw_all_functional_patterns17h5ae8225e5ebf1f55E, 1391
_ZN6qrcode6canvas6Canvas20draw_finder_patterns17hdd8f6522c27cb362E_original, 1392
_ZN6qrcode6canvas6Canvas23draw_alignment_patterns17hf5df3f06f9e84987E, 1393
_ZN6qrcode6canvas6Canvas34draw_reserved_format_info_patterns17h0e7c45555992adeaE, 1394
_ZN6qrcode6canvas6Canvas20draw_timing_patterns17h6e4c4c1a0889187fE, 1395
_ZN6qrcode6canvas6Canvas26draw_version_info_patterns17h5b88a78fcb0e7d41E, 1396
_ZN6qrcode6canvas6Canvas9draw_line17h16f4e39df1787691E, 1397
_ZN6qrcode6canvas6Canvas25draw_alignment_pattern_at17h015a49711ade6e41E, 1398
_ZN63_$LT$qrcode..canvas..Module$u20$as$u20$core..cmp..PartialEq$GT$2ne17he71877c87c330fa3E, 1399
_ZN6qrcode6canvas6Canvas22draw_finder_pattern_at17ha302bae2f3e2f835E, 1400
_ZN6qrcode6canvas13is_functional17h514232ded3b19ba2E, 1401
_ZN4core3num21_$LT$impl$u20$i16$GT$3abs17h4be5bd4c826d7410E, 1402
_ZN89_$LT$qrcode..canvas..DataModuleIter$u20$as$u20$core..iter..traits..iterator..Iterator$GT$4next17hf84ae43ee9b9debaE, 1403
_ZN6qrcode6canvas6Canvas9draw_data17hf0d21fafc5432700E, 1404
_ZN6qrcode6canvas14DataModuleIter3new17hceb5363f02b02af0E, 1405
_ZN6qrcode6canvas6Canvas14draw_codewords17h054b22d3f6d17a34E, 1406
_ZN6qrcode6canvas6Canvas15apply_best_mask17h5bfe402043119bd1E, 1407
_ZN6qrcode6canvas6Canvas8to_bools17h2d336550665c7232E, 1408
_ZN6qrcode6canvas6Canvas11into_colors17hca7450c6e2a9ca3aE, 1409
_ZN80_$LT$core..option..Option$LT$T$GT$$u20$as$u20$qrcode..cast..ExpectOrOverflow$GT$18expect_or_overflow17h0299d77236c2d7f5E_original, 1410
_ZN80_$LT$core..option..Option$LT$T$GT$$u20$as$u20$qrcode..cast..ExpectOrOverflow$GT$18expect_or_overflow17h09bd7674b36e897fE, 1411
_ZN80_$LT$core..option..Option$LT$T$GT$$u20$as$u20$qrcode..cast..ExpectOrOverflow$GT$18expect_or_overflow17h0a12c12158c58863E, 1412
_ZN80_$LT$core..option..Option$LT$T$GT$$u20$as$u20$qrcode..cast..ExpectOrOverflow$GT$18expect_or_overflow17h2bc3448f6aad9517E, 1413
_ZN80_$LT$core..option..Option$LT$T$GT$$u20$as$u20$qrcode..cast..ExpectOrOverflow$GT$18expect_or_overflow17h31fdef32551643f6E, 1414
_ZN80_$LT$core..option..Option$LT$T$GT$$u20$as$u20$qrcode..cast..ExpectOrOverflow$GT$18expect_or_overflow17h45962dd39d304414E, 1415
_ZN80_$LT$core..option..Option$LT$T$GT$$u20$as$u20$qrcode..cast..ExpectOrOverflow$GT$18expect_or_overflow17h50a16b5a2c73cc5dE, 1416
_ZN80_$LT$core..option..Option$LT$T$GT$$u20$as$u20$qrcode..cast..ExpectOrOverflow$GT$18expect_or_overflow17h5c50378e3d323ad4E, 1417
_ZN80_$LT$core..option..Option$LT$T$GT$$u20$as$u20$qrcode..cast..ExpectOrOverflow$GT$18expect_or_overflow17h70470fc5c5e38806E, 1418
_ZN80_$LT$core..option..Option$LT$T$GT$$u20$as$u20$qrcode..cast..ExpectOrOverflow$GT$18expect_or_overflow17h71298b669db52d6cE, 1419
_ZN80_$LT$core..option..Option$LT$T$GT$$u20$as$u20$qrcode..cast..ExpectOrOverflow$GT$18expect_or_overflow17h974eed4e4bf03faaE, 1420
_ZN80_$LT$core..option..Option$LT$T$GT$$u20$as$u20$qrcode..cast..ExpectOrOverflow$GT$18expect_or_overflow17had6650023af777c9E, 1421
_ZN80_$LT$core..option..Option$LT$T$GT$$u20$as$u20$qrcode..cast..ExpectOrOverflow$GT$18expect_or_overflow17hc120782a18435ec4E, 1422
_ZN80_$LT$core..option..Option$LT$T$GT$$u20$as$u20$qrcode..cast..ExpectOrOverflow$GT$18expect_or_overflow17hcc565ad86b0a8398E_original, 1423
_ZN80_$LT$core..option..Option$LT$T$GT$$u20$as$u20$qrcode..cast..ExpectOrOverflow$GT$18expect_or_overflow17hea24520a32606d59E, 1424
_ZN80_$LT$core..option..Option$LT$T$GT$$u20$as$u20$qrcode..cast..ExpectOrOverflow$GT$18expect_or_overflow17head82a3bc5ad0163E, 1425
_ZN6qrcode2ec19construct_codewords17h14f9c08edf3737e4E, 1426
_ZN6qrcode5types7Version5fetch17hb22ca43ebc4c6b60E, 1427
_ZN6qrcode2ec10interleave17h343292263dad4196E, 1428
_ZN6qrcode2ec10interleave17h5f14e33ede279f07E, 1429
_ZN6qrcode2ec18max_allowed_errors17hcbc472c6a3e92743E, 1430
_ZN56_$LT$char$u20$as$u20$qrcode..render..string..Element$GT$13default_color17hc33573a548f8f261E_original, 1431
_ZN6qrcode5types5Color6select17h0bc2e552cc341a6fE, 1432
_ZN56_$LT$char$u20$as$u20$qrcode..render..string..Element$GT$6strlen17ha7e6e9eab6019172E, 1433
_ZN4core4char7methods22_$LT$impl$u20$char$GT$8len_utf817hc602d792b4d2fd32E, 1434
_ZN4core4char7methods8len_utf817h9156de380824c87fE, 1435
_ZN56_$LT$char$u20$as$u20$qrcode..render..string..Element$GT$16append_to_string17hc118f6e8eefdc94cE, 1436
_ZN5alloc6string6String4push17ha4b0dac928b47b3dE, 1437
_ZN4core4char7methods22_$LT$impl$u20$char$GT$11encode_utf817h2e638cd0c541e95dE, 1438
_ZN4core4char7methods15encode_utf8_raw17h79574b9d3cfa1f63E, 1439
_ZN4core3str8converts23from_utf8_unchecked_mut17hed9bdc06e25df439E, 1440
_ZN59_$LT$$RF$str$u20$as$u20$qrcode..render..string..Element$GT$13default_color17h3d05c7ef5e8b66a6E, 1441
_ZN6qrcode5types5Color6select17h0fa3cf67e9fcc890E, 1442
_ZN59_$LT$$RF$str$u20$as$u20$qrcode..render..string..Element$GT$6strlen17h866e20e997474dd1E, 1443
_ZN4core3str21_$LT$impl$u20$str$GT$3len17h4bae814729924c9cE, 1444
_ZN59_$LT$$RF$str$u20$as$u20$qrcode..render..string..Element$GT$16append_to_string17hb16edb35dab1365cE, 1445
_ZN5alloc6string6String8push_str17h7e9181affb1f4c2dE, 1446
_ZN6qrcode6render6string53_$LT$impl$u20$qrcode..render..Pixel$u20$for$u20$P$GT$17default_unit_size17hd254a694bb438f38E, 1447
_ZN6qrcode6render6string53_$LT$impl$u20$qrcode..render..Pixel$u20$for$u20$P$GT$13default_color17hc1cceea4694f95b9E, 1448
_ZN82_$LT$qrcode..render..string..Canvas$LT$P$GT$$u20$as$u20$qrcode..render..Canvas$GT$3new17he39cecb04874d9c4E, 1449
_ZN40_$LT$u32$u20$as$u20$qrcode..cast..As$GT$8as_usize17hc9da7db9684d0ad8E, 1450
_ZN40_$LT$u32$u20$as$u20$qrcode..cast..As$GT$8as_isize17hb8d89cddceed9513E, 1451
_ZN42_$LT$usize$u20$as$u20$qrcode..cast..As$GT$8as_isize17h08865d2dfae44b87E, 1452
_ZN42_$LT$isize$u20$as$u20$qrcode..cast..As$GT$8as_usize17hb0325f6ec320afebE, 1453
_ZN58_$LT$isize$u20$as$u20$checked_int_cast..CheckedIntCast$GT$16as_usize_checked17h7d2e262371cd8963E, 1454
_ZN58_$LT$usize$u20$as$u20$checked_int_cast..CheckedIntCast$GT$16as_isize_checked17h27085ec9d1d37ae0E, 1455
_ZN56_$LT$u32$u20$as$u20$checked_int_cast..CheckedIntCast$GT$16as_isize_checked17hd9acde62333ecf14E, 1456
_ZN56_$LT$u32$u20$as$u20$checked_int_cast..CheckedIntCast$GT$16as_usize_checked17h7a5b3c744c82757fE, 1457
_ZN82_$LT$qrcode..render..string..Canvas$LT$P$GT$$u20$as$u20$qrcode..render..Canvas$GT$15draw_dark_pixel17h5f736b82884ee9d1E, 1458
_ZN82_$LT$qrcode..render..string..Canvas$LT$P$GT$$u20$as$u20$qrcode..render..Canvas$GT$10into_image17h335255efb2f1a633E, 1459
_ZN5alloc6string6String13with_capacity17hfb6dd47da3fc18f6E, 1460
_ZN6qrcode6render6Canvas14draw_dark_rect17h88d6197c899d45deE, 1461
_ZN6qrcode6render17Renderer$LT$P$GT$3new17hecf3f92c945000b4E, 1462
_ZN42_$LT$usize$u20$as$u20$qrcode..cast..As$GT$6as_u3217h4183e47ddeafe10cE, 1463
_ZN58_$LT$usize$u20$as$u20$checked_int_cast..CheckedIntCast$GT$14as_u32_checked17hff86f603572887aeE, 1464
_ZN6qrcode6render17Renderer$LT$P$GT$10dark_color17h3fbb49ad5625a5ffE, 1465
_ZN6qrcode6render17Renderer$LT$P$GT$11light_color17h8b290a7970899d01E, 1466
_ZN6qrcode6render17Renderer$LT$P$GT$10quiet_zone17h68973f2920a961ecE, 1467
_ZN6qrcode6render17Renderer$LT$P$GT$5build17h85abbc328d8167a1E, 1468
_ZN61_$LT$qrcode..types..QrError$u20$as$u20$core..fmt..Display$GT$3fmt17h22dd45a9caebe7e6E, 1469
_ZN6qrcode5types7Version8is_micro17hdb4237c14d4fb839E_original, 1470
_ZN6qrcode6QrCode9with_bits17hb9eeaa69621e64d7E, 1471
_ZN6qrcode6QrCode7version17hc66261058056733cE, 1472
_ZN6qrcode6QrCode22error_correction_level17h7b09cb2ae4739becE, 1473
_ZN6qrcode6QrCode5width17ha766f73176129dd7E, 1474
_ZN6qrcode6QrCode18max_allowed_errors17hf6955d826cda5055E, 1475
_ZN6qrcode6QrCode13is_functional17hf0d35ee317892a27E, 1476
_ZN6qrcode6QrCode12to_debug_str17hde465cc7c1a17531E, 1477
_ZN6qrcode6QrCode6render17h3b680da8fef21bffE, 1478
_ZN6qrcode6QrCode6to_vec17h21316c02dc0e7729E, 1479
_ZN6qrcode6QrCode8into_vec17h06cf8ac6cfea9fc6E, 1480
_ZN6qrcode6QrCode9to_colors17hfc6419c8d7479f06E, 1481
_ZN6qrcode6QrCode11into_colors17hde66e8e9ecaa97d8E, 1482
_ZN87_$LT$qrcode..QrCode$u20$as$u20$core..ops..index..Index$LT$$LP$usize$C$usize$RP$$GT$$GT$5index17h78c475833ba51bd1E, 1483
_ZN59_$LT$qrcode..canvas..Module$u20$as$u20$core..fmt..Debug$GT$3fmt17hfc42c759bf2401dcE, 1484
_ZN4core3ptr45drop_in_place$LT$$RF$qrcode..types..Color$GT$17h222943e33e2c6ad3E, 1485
_ZN64_$LT$qrcode..canvas..MaskPattern$u20$as$u20$core..fmt..Debug$GT$3fmt17hb4dc775b606c21b4E, 1486
_ZN40_$LT$i16$u20$as$u20$qrcode..cast..As$GT$6as_u1617hcb3b5f20a168bd15E, 1487
_ZN56_$LT$i16$u20$as$u20$checked_int_cast..CheckedIntCast$GT$14as_u16_checked17h4f90dfa44c6c96cfE, 1488
_ZN40_$LT$i16$u20$as$u20$qrcode..cast..As$GT$6as_i1617hdf30a050e8f12df3E, 1489
_ZN56_$LT$i16$u20$as$u20$checked_int_cast..CheckedIntCast$GT$14as_i16_checked17h06ca9ccd2b8e09a3E, 1490
_ZN40_$LT$i16$u20$as$u20$qrcode..cast..As$GT$6as_u3217habd3a1663c0a4818E, 1491
_ZN56_$LT$i16$u20$as$u20$checked_int_cast..CheckedIntCast$GT$14as_u32_checked17ha9f2c2d350e02d4eE, 1492
_ZN40_$LT$i16$u20$as$u20$qrcode..cast..As$GT$8as_isize17hc880ba8e48118b7eE, 1493
_ZN56_$LT$i16$u20$as$u20$checked_int_cast..CheckedIntCast$GT$16as_isize_checked17hebbcccc8b6e91a49E, 1494
_ZN40_$LT$u32$u20$as$u20$qrcode..cast..As$GT$6as_i1617h44ba85ab5d812daaE, 1495
_ZN56_$LT$u32$u20$as$u20$checked_int_cast..CheckedIntCast$GT$14as_i16_checked17he2ec4bf38eebec28E, 1496
_ZN40_$LT$u32$u20$as$u20$qrcode..cast..As$GT$6as_u3217h1c8239719dd91633E, 1497
_ZN56_$LT$u32$u20$as$u20$checked_int_cast..CheckedIntCast$GT$14as_u32_checked17hd5e7166f2419e145E, 1498
_ZN42_$LT$usize$u20$as$u20$qrcode..cast..As$GT$8as_usize17h17add71fc61b1eb0E, 1499
_ZN58_$LT$usize$u20$as$u20$checked_int_cast..CheckedIntCast$GT$16as_usize_checked17h4ae9ce838746aa76E, 1500
_ZN42_$LT$isize$u20$as$u20$qrcode..cast..As$GT$6as_u1617h97bdf7714e10b7beE, 1501
_ZN58_$LT$isize$u20$as$u20$checked_int_cast..CheckedIntCast$GT$14as_u16_checked17he4aa9e7a59002691E, 1502
_ZN42_$LT$isize$u20$as$u20$qrcode..cast..As$GT$6as_i1617habc5bb8d1c30c68dE, 1503
_ZN58_$LT$isize$u20$as$u20$checked_int_cast..CheckedIntCast$GT$14as_i16_checked17h20f76b527ad3343cE, 1504
_ZN42_$LT$isize$u20$as$u20$qrcode..cast..As$GT$6as_u3217hfb78c89c8c48c90eE, 1505
_ZN58_$LT$isize$u20$as$u20$checked_int_cast..CheckedIntCast$GT$14as_u32_checked17hc299c0f8975ec341E, 1506
_ZN42_$LT$isize$u20$as$u20$qrcode..cast..As$GT$8as_isize17hdbedcdb6600fa91dE, 1507
_ZN58_$LT$isize$u20$as$u20$checked_int_cast..CheckedIntCast$GT$16as_isize_checked17hb33de422d1f58d32E, 1508
_ZN62_$LT$qrcode..optimize..Segment$u20$as$u20$core..fmt..Debug$GT$3fmt17h6db488940392fce7E, 1509
_ZN4core3ptr44drop_in_place$LT$$RF$qrcode..types..Mode$GT$17h36fdeb7293b5e8caE, 1510
_ZN59_$LT$qrcode..types..EcLevel$u20$as$u20$core..fmt..Debug$GT$3fmt17ha948e4d029cdc453E_original, 1511
_ZN59_$LT$qrcode..types..Version$u20$as$u20$core..fmt..Debug$GT$3fmt17hed4d7c7f126eb4dfE, 1512
_ZN4core3ptr28drop_in_place$LT$$RF$i16$GT$17h3fdfe0cf1b264021E, 1513
_ZN100_$LT$core..iter..adapters..fuse..Fuse$LT$I$GT$$u20$as$u20$core..iter..traits..iterator..Iterator$GT$4next17h0bb403f938c5b095E, 1514
_ZN107_$LT$core..iter..adapters..fuse..Fuse$LT$I$GT$$u20$as$u20$core..iter..adapters..fuse..FuseImpl$LT$I$GT$$GT$4next17ha3974c025b28e3dbE, 1515
_ZN102_$LT$core..iter..adapters..map..Map$LT$I$C$F$GT$$u20$as$u20$core..iter..traits..iterator..Iterator$GT$4next17hd00d5b18877c04d4E, 1516
_ZN103_$LT$alloc..vec..into_iter..IntoIter$LT$T$C$A$GT$$u20$as$u20$core..iter..traits..iterator..Iterator$GT$4next17hd4724780fee44ea5E, 1517
_ZN4core6option15Option$LT$T$GT$3map17h1a47d23c8837b815E_original, 1518
_ZN4core3ops8function5impls80_$LT$impl$u20$core..ops..function..FnOnce$LT$A$GT$$u20$for$u20$$RF$mut$u20$F$GT$9call_once17hc2549acbf7024589E, 1519
_ZN18multivariant_zxing6run_qr28_$u7b$$u7b$closure$u7d$$u7d$17h40d50e3e71ced146E, 1520
_ZN5alloc3vec9from_elem17h16f0cdf27e01d21cE, 1521
_ZN63_$LT$u8$u20$as$u20$alloc..vec..spec_from_elem..SpecFromElem$GT$9from_elem17ha8d1009cf3f2ef48E, 1522
_ZN5alloc7raw_vec19RawVec$LT$T$C$A$GT$23with_capacity_zeroed_in17hbe576fbc64a9b238E, 1523
_ZN4core3ptr4read17h88c459c5971aff2aE, 1524
_ZN4core3mem12maybe_uninit20MaybeUninit$LT$T$GT$6zeroed17h0961f2f5f618907dE, 1525
_ZN4core10intrinsics11write_bytes17h4e6d89a63aaf65e0E, 1526
_ZN4core10intrinsics19copy_nonoverlapping17h9b3c6e885c8e385eE, 1527
_ZN100_$LT$core..iter..adapters..fuse..Fuse$LT$I$GT$$u20$as$u20$core..iter..traits..iterator..Iterator$GT$9size_hint17h4d69e3e8d2ed0a9aE, 1528
_ZN107_$LT$core..iter..adapters..fuse..Fuse$LT$I$GT$$u20$as$u20$core..iter..adapters..fuse..FuseImpl$LT$I$GT$$GT$9size_hint17hbfa778d7ef30570cE, 1529
_ZN102_$LT$core..iter..adapters..map..Map$LT$I$C$F$GT$$u20$as$u20$core..iter..traits..iterator..Iterator$GT$9size_hint17he9580f7cba8e9a11E, 1530
_ZN103_$LT$alloc..vec..into_iter..IntoIter$LT$T$C$A$GT$$u20$as$u20$core..iter..traits..iterator..Iterator$GT$9size_hint17h939171c13c9c672bE, 1531
_ZN4core3ptr9const_ptr33_$LT$impl$u20$$BP$const$u20$T$GT$11offset_from17hfe815f1061d3e24bE, 1532
_ZN103_$LT$alloc..vec..into_iter..IntoIter$LT$T$C$A$GT$$u20$as$u20$core..iter..traits..iterator..Iterator$GT$4next17haa61be17f64102f1E, 1533
_ZN4core3ptr4read17h853b99f35cb0b047E, 1534
_ZN4core3mem12maybe_uninit20MaybeUninit$LT$T$GT$6zeroed17h52d9df47544b4c82E, 1535
_ZN103_$LT$alloc..vec..into_iter..IntoIter$LT$T$C$A$GT$$u20$as$u20$core..iter..traits..iterator..Iterator$GT$9size_hint17h6d73f64ecdac83f7E, 1536
_ZN4core3ptr9const_ptr33_$LT$impl$u20$$BP$const$u20$T$GT$11offset_from17hc9c8f0fca9a5a8acE, 1537
_ZN111_$LT$alloc..vec..Vec$LT$T$GT$$u20$as$u20$alloc..vec..spec_from_iter_nested..SpecFromIterNested$LT$T$C$I$GT$$GT$9from_iter17ha3159aa7b46e853fE, 1538
_ZN114_$LT$core..iter..adapters..flatten..FlatMap$LT$I$C$U$C$F$GT$$u20$as$u20$core..iter..traits..iterator..Iterator$GT$4next17h156f99b9c584d5b7E, 1539
_ZN114_$LT$core..iter..adapters..flatten..FlatMap$LT$I$C$U$C$F$GT$$u20$as$u20$core..iter..traits..iterator..Iterator$GT$9size_hint17ha5ddd6a93b178460E, 1540
_ZN97_$LT$alloc..vec..Vec$LT$T$C$A$GT$$u20$as$u20$alloc..vec..spec_extend..SpecExtend$LT$T$C$I$GT$$GT$11spec_extend17h1b4e4db293d3c189E, 1541
_ZN4core3ptr196drop_in_place$LT$core..iter..adapters..flatten..FlatMap$LT$alloc..vec..into_iter..IntoIter$LT$bool$GT$$C$alloc..vec..Vec$LT$u8$GT$$C$multivariant_zxing..run_qr..$u7b$$u7b$closure$u7d$$u7d$$GT$$GT$17h58adb3ab41cf5347E, 1542
_ZN4core3ptr256drop_in_place$LT$core..iter..adapters..flatten..FlattenCompat$LT$core..iter..adapters..map..Map$LT$alloc..vec..into_iter..IntoIter$LT$bool$GT$$C$multivariant_zxing..run_qr..$u7b$$u7b$closure$u7d$$u7d$$GT$$C$alloc..vec..into_iter..IntoIter$LT$u8$GT$$GT$$GT$17h33082104cba6830bE, 1543
_ZN4core3ptr200drop_in_place$LT$core..iter..adapters..fuse..Fuse$LT$core..iter..adapters..map..Map$LT$alloc..vec..into_iter..IntoIter$LT$bool$GT$$C$multivariant_zxing..run_qr..$u7b$$u7b$closure$u7d$$u7d$$GT$$GT$$GT$17hea68e2a0ae8e1c8dE, 1544
_ZN4core3ptr90drop_in_place$LT$core..option..Option$LT$alloc..vec..into_iter..IntoIter$LT$u8$GT$$GT$$GT$17hb30c5e84a8c966f7E, 1545
_ZN4core3ptr62drop_in_place$LT$alloc..vec..into_iter..IntoIter$LT$u8$GT$$GT$17he88b11492c81be62E, 1546
_ZN86_$LT$alloc..vec..into_iter..IntoIter$LT$T$C$A$GT$$u20$as$u20$core..ops..drop..Drop$GT$4drop17h959db070684fbfc0E, 1547
_ZN5alloc3vec9into_iter21IntoIter$LT$T$C$A$GT$16as_raw_mut_slice17hf979707a0ec6dd98E, 1548
_ZN4core3ptr156drop_in_place$LT$$LT$alloc..vec..into_iter..IntoIter$LT$T$C$A$GT$$u20$as$u20$core..ops..drop..Drop$GT$..drop..DropGuard$LT$u8$C$alloc..alloc..Global$GT$$GT$17h5df1913dd73ac1e7E, 1549
_ZN157_$LT$$LT$alloc..vec..into_iter..IntoIter$LT$T$C$A$GT$$u20$as$u20$core..ops..drop..Drop$GT$..drop..DropGuard$LT$T$C$A$GT$$u20$as$u20$core..ops..drop..Drop$GT$4drop17h0de83563b06abd98E, 1550
_ZN5alloc7raw_vec19RawVec$LT$T$C$A$GT$17from_raw_parts_in17h10e299c1749ff889E, 1551
_ZN83_$LT$$RF$mut$u20$I$u20$as$u20$core..iter..traits..exact_size..ExactSizeIterator$GT$3len17h1b2efd5880209c2aE, 1552
_ZN4core4iter6traits10exact_size17ExactSizeIterator3len17h158e88d97b30c475E, 1553
_ZN4core3ptr188drop_in_place$LT$core..option..Option$LT$core..iter..adapters..map..Map$LT$alloc..vec..into_iter..IntoIter$LT$bool$GT$$C$multivariant_zxing..run_qr..$u7b$$u7b$closure$u7d$$u7d$$GT$$GT$$GT$17hc0b8a22e84421bb2E, 1554
_ZN4core3ptr160drop_in_place$LT$core..iter..adapters..map..Map$LT$alloc..vec..into_iter..IntoIter$LT$bool$GT$$C$multivariant_zxing..run_qr..$u7b$$u7b$closure$u7d$$u7d$$GT$$GT$17h7e3c09d6a8e703d1E, 1555
_ZN4core3ptr64drop_in_place$LT$alloc..vec..into_iter..IntoIter$LT$bool$GT$$GT$17h730f5b8fba10789aE, 1556
_ZN86_$LT$alloc..vec..into_iter..IntoIter$LT$T$C$A$GT$$u20$as$u20$core..ops..drop..Drop$GT$4drop17h7611aaed2937a751E, 1557
_ZN5alloc3vec9into_iter21IntoIter$LT$T$C$A$GT$16as_raw_mut_slice17h70005d8ef7c4e135E, 1558
_ZN4core3ptr158drop_in_place$LT$$LT$alloc..vec..into_iter..IntoIter$LT$T$C$A$GT$$u20$as$u20$core..ops..drop..Drop$GT$..drop..DropGuard$LT$bool$C$alloc..alloc..Global$GT$$GT$17h74a652acfaa69d74E, 1559
_ZN157_$LT$$LT$alloc..vec..into_iter..IntoIter$LT$T$C$A$GT$$u20$as$u20$core..ops..drop..Drop$GT$..drop..DropGuard$LT$T$C$A$GT$$u20$as$u20$core..ops..drop..Drop$GT$4drop17ha7627f59ff71f99cE, 1560
_ZN4core3ptr55drop_in_place$LT$alloc..raw_vec..RawVec$LT$bool$GT$$GT$17h4cacc98f614d8a14E, 1561
_ZN77_$LT$alloc..raw_vec..RawVec$LT$T$C$A$GT$$u20$as$u20$core..ops..drop..Drop$GT$4drop17hec6050cc195174b6E, 1562
_ZN63_$LT$alloc..alloc..Global$u20$as$u20$core..alloc..Allocator$GT$10deallocate17hebba8d096c41a3c1E, 1563
_ZN4core5alloc6layout6Layout4size17hf6fa0a88a28c857bE, 1564
_ZN5alloc5alloc7dealloc17hfc1899db67a853ebE, 1565
_ZN4core5alloc6layout6Layout5align17h75347e751f9e1d3aE, 1566
_ZN4core3num7nonzero12NonZeroUsize3get17hd40e85101bd92763E, 1567
_ZN83_$LT$$RF$mut$u20$I$u20$as$u20$core..iter..traits..exact_size..ExactSizeIterator$GT$3len17h0f066fed9eb709a3E, 1568
_ZN4core3ptr24slice_from_raw_parts_mut17h1b978725fa0ce7c1E, 1569
_ZN4core3ptr8metadata18from_raw_parts_mut17h02022ed95d30385fE, 1570
_ZN4core4iter6traits10exact_size17ExactSizeIterator3len17h38b8e288f832f45eE, 1571
_ZN5alloc3vec16Vec$LT$T$C$A$GT$16extend_desugared17h0c7df719f9059154E, 1572
_ZN116_$LT$core..iter..adapters..flatten..FlattenCompat$LT$I$C$U$GT$$u20$as$u20$core..iter..traits..iterator..Iterator$GT$9size_hint17hb2cc575e6ce785dcE, 1573
_ZN4core6option15Option$LT$T$GT$6as_ref17hc46adf904f2c81afE, 1574
_ZN4core6option15Option$LT$T$GT$6map_or17h2cbc93931354c1ffE, 1575
_ZN4core3num23_$LT$impl$u20$usize$GT$11checked_add17h096d975beb745572E_original, 1576
_ZN4core3ops8function6FnOnce9call_once17h639aec700418870bE, 1577
_ZN116_$LT$core..iter..adapters..flatten..FlattenCompat$LT$I$C$U$GT$$u20$as$u20$core..iter..traits..iterator..Iterator$GT$4next17h5a924946e98c886eE, 1578
_ZN4core6option15Option$LT$T$GT$6as_mut17ha48d8e74988387d8E, 1579
_ZN90_$LT$alloc..vec..Vec$LT$T$C$A$GT$$u20$as$u20$core..iter..traits..collect..IntoIterator$GT$9into_iter17hb66dce39ae3762aaE, 1580
_ZN75_$LT$core..option..Option$LT$T$GT$$u20$as$u20$core..ops..try_trait..Try$GT$6branch17hce53aac293045215E, 1581
_ZN84_$LT$core..option..Option$LT$T$GT$$u20$as$u20$core..ops..try_trait..FromResidual$GT$13from_residual17hcbad56029b7deae6E, 1582
_ZN4core3cmp3Ord3max17ha3a666ff70d964f1E, 1583
_ZN4core3cmp6max_by17h6a8b815a9d52ad1eE, 1584
_ZN4core3ops8function6FnOnce9call_once17h74123628a9dd24deE, 1585
_ZN4core3cmp5impls48_$LT$impl$u20$core..cmp..Ord$u20$for$u20$u32$GT$3cmp17hd5878d2243418486E, 1586
_ZN4core3cmp3max17h254ed462e04b6bf0E, 1587
_ZN4core3ptr35drop_in_place$LT$qrcode..QrCode$GT$17he5bbefabd6b720ccE, 1588
_ZN4core3ptr64drop_in_place$LT$alloc..vec..Vec$LT$qrcode..types..Color$GT$$GT$17h46f0da46c2e0d711E, 1589
_ZN70_$LT$alloc..vec..Vec$LT$T$C$A$GT$$u20$as$u20$core..ops..drop..Drop$GT$4drop17h313fd2dcea6dea31E, 1590
_ZN4core3ptr42drop_in_place$LT$alloc..string..String$GT$17h728e503d8c449f95E, 1591
_ZN4core4iter6traits8iterator8Iterator3map17hec098762f6ffbe11E, 1592
_ZN4core4iter8adapters3map16Map$LT$I$C$F$GT$3new17h858cc7d14bea0176E, 1593
_ZN4core4iter6traits8iterator8Iterator4fuse17ha8ecadad190102e2E, 1594
_ZN4core4iter8adapters4fuse13Fuse$LT$I$GT$3new17ha2a2dd7b7a490910E, 1595
_ZN4core4iter6traits8iterator8Iterator7collect17h4d0c2505c980e861E, 1596
_ZN95_$LT$alloc..vec..Vec$LT$T$GT$$u20$as$u20$core..iter..traits..collect..FromIterator$LT$T$GT$$GT$9from_iter17hb0fc9912132507f6E, 1597
_ZN63_$LT$I$u20$as$u20$core..iter..traits..collect..IntoIterator$GT$9into_iter17h386531deaf1756c0E, 1598
_ZN98_$LT$alloc..vec..Vec$LT$T$GT$$u20$as$u20$alloc..vec..spec_from_iter..SpecFromIter$LT$T$C$I$GT$$GT$9from_iter17h382ac9451012bd11E, 1599
_ZN4core4iter6traits8iterator8Iterator8flat_map17h0f9d4acd468ed0feE, 1600
_ZN4core4iter8adapters7flatten24FlatMap$LT$I$C$U$C$F$GT$3new17h103e242d2716c2d2E, 1601
_ZN4core4iter8adapters7flatten26FlattenCompat$LT$I$C$U$GT$3new17h21ebc62a1b64246bE, 1602
_ZN4core6result19Result$LT$T$C$E$GT$6unwrap17h77dc0608d2808ef2E, 1603
_ZN4core3ptr43drop_in_place$LT$qrcode..types..QrError$GT$17h3c0498fada1e8350E, 1604
_ZN5alloc3vec16Vec$LT$T$C$A$GT$9allocator17h1179be7d73c82a61E, 1605
_ZN5alloc7raw_vec19RawVec$LT$T$C$A$GT$9allocator17h1e2543c328b96466E, 1606
_ZN6qrcode6QrCode27with_error_correction_level17h09f216cfdb870c52E, 1607
_ZN82_$LT$alloc..string..String$u20$as$u20$core..convert..AsRef$LT$$u5b$u8$u5d$$GT$$GT$6as_ref17he02b4ebcf5521ce4E, 1608
_ZN79_$LT$core..result..Result$LT$T$C$E$GT$$u20$as$u20$core..ops..try_trait..Try$GT$6branch17hcfeb8976ef46794eE, 1609
_ZN5alloc6string6String8as_bytes17h9b8a741d7080dfd9E, 1610
_ZN6qrcode6QrCode3new17hf33ed4fcf5fd78c5E, 1611
_ZN6qrcode6render17Renderer$LT$P$GT$17module_dimensions17habeb7c1b7bd1daf8E, 1612
_ZN90_$LT$alloc..vec..Vec$LT$T$C$A$GT$$u20$as$u20$core..iter..traits..collect..IntoIterator$GT$9into_iter17h6fde9b219ef9e7ffE, 1613
run_qr, 1614
run_qr_str, 1615
_ZN153_$LT$core..result..Result$LT$T$C$F$GT$$u20$as$u20$core..ops..try_trait..FromResidual$LT$core..result..Result$LT$core..convert..Infallible$C$E$GT$$GT$$GT$13from_residual17hacbf4d4d103eb13cE, 1616
_ZN94_$LT$rand_core..error..Error$u20$as$u20$core..convert..From$LT$getrandom..error..Error$GT$$GT$4from17h0c02b0c2d336d2a6E, 1617
_ZN5alloc5alloc15exchange_malloc17haef3ee68d5036509E, 1618
_ZN4core3ptr44drop_in_place$LT$getrandom..error..Error$GT$17h6fe64866d366361fE, 1619
_ZN4core5alloc6layout6Layout25from_size_align_unchecked17h9656f52dd9c83733E, 1620
_ZN63_$LT$alloc..alloc..Global$u20$as$u20$core..alloc..Allocator$GT$8allocate17haadf67aeb95bc2f1E, 1621
_ZN5alloc5alloc6Global10alloc_impl17h4444c0abaf2fc844E, 1622
_ZN4core5alloc6layout6Layout4size17h5a1cdb73742d12f1E, 1623
_ZN4core5alloc6layout6Layout8dangling17h3c99f5de65f37b41E, 1624
_ZN5alloc5alloc5alloc17h4c804343669e60bbE, 1625
_ZN5alloc5alloc12alloc_zeroed17hc518c0b9c32171acE, 1626
_ZN4core5alloc6layout6Layout5align17h1704f6c2fab53d70E, 1627
_ZN4core3num7nonzero12NonZeroUsize3get17hae4780532f81dc2aE, 1628
_ZN4core3num7nonzero12NonZeroUsize13new_unchecked17h9d6d806e98377af9E, 1629
_ZN153_$LT$core..result..Result$LT$T$C$F$GT$$u20$as$u20$core..ops..try_trait..FromResidual$LT$core..result..Result$LT$core..convert..Infallible$C$E$GT$$GT$$GT$13from_residual17hd6f935f41bd58c23E, 1630
_ZN9rand_core5error102_$LT$impl$u20$core..convert..From$LT$rand_core..error..Error$GT$$u20$for$u20$std..io..error..Error$GT$4from17h04866f8530ec6464E, 1631
_ZN9rand_core5error5Error12raw_os_error17hd8dccc51346265cdE, 1632
_ZN3std2io5error5Error17from_raw_os_error17h09ee5e912628a2c3E, 1633
_ZN3std2io5error5Error3new17hfee6f086b8fe07afE, 1634
_ZN4core3ptr44drop_in_place$LT$rand_core..error..Error$GT$17ha93bf339af9a996dE, 1635
_ZN50_$LT$T$u20$as$u20$core..convert..Into$LT$U$GT$$GT$4into17ha0b45553d8bf7f60E, 1636
_ZN3std5error155_$LT$impl$u20$core..convert..From$LT$E$GT$$u20$for$u20$alloc..boxed..Box$LT$dyn$u20$std..error..Error$u2b$core..marker..Sync$u2b$core..marker..Send$GT$$GT$4from17ha415c85c909dc634E, 1637
_ZN61_$LT$rand_core..error..Error$u20$as$u20$std..error..Error$GT$6source17hc516fa50f3f0b756E, 1638
_ZN3std5error5Error7type_id17h390a5c73b41067edE, 1639
_ZN3std5error5Error9backtrace17h16fac0337f006e9bE, 1640
_ZN3std5error5Error11description17h1bcdabe14098fa38E, 1641
_ZN3std5error5Error5cause17h64e95a9727120073E, 1642
_ZN62_$LT$rand_core..error..Error$u20$as$u20$core..fmt..Display$GT$3fmt17hfb502d6f0bcb651cE, 1643
_ZN60_$LT$rand_core..error..Error$u20$as$u20$core..fmt..Debug$GT$3fmt17hb9d18e9c75f10f29E, 1644
_ZN67_$LT$alloc..boxed..Box$LT$T$C$A$GT$$u20$as$u20$core..fmt..Debug$GT$3fmt17h6a46959eb719fbf1E, 1645
_ZN4core3fmt10ArgumentV13new17h8bf3160e8f4809c7E, 1646
_ZN4core3fmt9Arguments6new_v117h0205e9033162ef89E, 1647
_ZN69_$LT$alloc..boxed..Box$LT$T$C$A$GT$$u20$as$u20$core..fmt..Display$GT$3fmt17h09f160c0fecce675E, 1648
_ZN4core3any6TypeId2of17h4cf7734baebe8d72E, 1649
_ZN80_$LT$dyn$u20$std..error..Error$u2b$core..marker..Sync$u2b$core..marker..Send$GT$12downcast_ref17h796ce0d3db3a6c1fE, 1650
_ZN3std2io5error5Error12raw_os_error17h18499eac9d8bea1cE_original, 1651
_ZN9rand_core5error5Error4code17h2dac4d1dc0f75a8bE, 1652
_ZN4core3num7nonzero91_$LT$impl$u20$core..convert..From$LT$core..num..nonzero..NonZeroU32$GT$$u20$for$u20$u32$GT$4from17hfdbdad359746e603E, 1653
_ZN80_$LT$dyn$u20$std..error..Error$u2b$core..marker..Sync$u2b$core..marker..Send$GT$12downcast_ref17hdbc638bb74a7b600E, 1654
_ZN4core6option15Option$LT$T$GT$3map17hde5936c9d64a9aa9E, 1655
_ZN9rand_core5error5Error4code28_$u7b$$u7b$closure$u7d$$u7d$17h4fec445d5edd0beeE, 1656
_ZN34_$LT$dyn$u20$std..error..Error$GT$12downcast_ref17h945bc6718ba42c2eE, 1657
_ZN34_$LT$dyn$u20$std..error..Error$GT$2is17h47a03c5732fbdcf6E, 1658
_ZN4core3any6TypeId2of17h1134f5ab357b31bbE, 1659
_ZN58_$LT$core..any..TypeId$u20$as$u20$core..cmp..PartialEq$GT$2eq17h440ee6b2cf982480E, 1660
_ZN34_$LT$dyn$u20$std..error..Error$GT$12downcast_ref17hb6f1f561c0c1f010E, 1661
_ZN34_$LT$dyn$u20$std..error..Error$GT$2is17h8b268945307f6356E, 1662
_ZN4core3any6TypeId2of17he74e433e4343ed12E, 1663
_ZN42_$LT$$RF$T$u20$as$u20$core..fmt..Debug$GT$3fmt17ha16acbbe734c233dE, 1664
_ZN67_$LT$core..num..nonzero..NonZeroU32$u20$as$u20$core..fmt..Debug$GT$3fmt17h67f5ae2d943a6bc1E, 1665
_ZN4core3num7nonzero10NonZeroU323get17hf45a7615cebbf1d4E, 1666
_ZN4core3fmt3num50_$LT$impl$u20$core..fmt..Debug$u20$for$u20$u32$GT$3fmt17h1e98d204313b31a7E, 1667
_ZN4core10intrinsics19copy_nonoverlapping17ha7c052f6a96bb8c8E, 1668
_ZN4core3cmp3Ord3min17hc13421425198eacbE, 1669
_ZN4core3cmp6min_by17h6e07ec7c3bb62c11E, 1670
_ZN4core3ops8function6FnOnce9call_once17h99ac9490b5981c7cE, 1671
_ZN4core3cmp5impls50_$LT$impl$u20$core..cmp..Ord$u20$for$u20$usize$GT$3cmp17h8ea5b0437a9896dcE, 1672
_ZN4core3cmp3min17h322d4a31185692e0E, 1673
_ZN4core3fmt10ArgumentV13new17h794f83b20ba2fb45E, 1674
_ZN4core3fmt10ArgumentV13new17hc8fa22d762795962E, 1675
_ZN4core3ptr83drop_in_place$LT$core..result..Result$LT$$LP$$RP$$C$rand_core..error..Error$GT$$GT$17h050f400399f1441aE, 1676
_ZN4core5slice29_$LT$impl$u20$$u5b$T$u5d$$GT$3len17h116af646f602cc7eE, 1677
_ZN4core5slice29_$LT$impl$u20$$u5b$T$u5d$$GT$3len17he9da4b0ddf872cc9E, 1678
_ZN4core5slice29_$LT$impl$u20$$u5b$T$u5d$$GT$6as_ptr17ha78ad8528c604e19E, 1679
_ZN4core5slice29_$LT$impl$u20$$u5b$T$u5d$$GT$6as_ptr17hff8a5ed2e76341f0E, 1680
_ZN4core5slice3raw18from_raw_parts_mut17hfdde0dcfee2fe8f3E, 1681
_ZN79_$LT$core..result..Result$LT$T$C$E$GT$$u20$as$u20$core..ops..try_trait..Try$GT$6branch17h47301bce092eb6d2E, 1682
_ZN79_$LT$core..result..Result$LT$T$C$E$GT$$u20$as$u20$core..ops..try_trait..Try$GT$6branch17he7b7689788566630E, 1683
_ZN66_$LT$rand_core..error..ErrorCode$u20$as$u20$core..fmt..Display$GT$3fmt17h520c9b0fc30074a1E, 1684
_ZN69_$LT$core..num..nonzero..NonZeroU32$u20$as$u20$core..fmt..Display$GT$3fmt17h4ce9586badefbdaaE, 1685
_ZN9rand_core5impls19fill_via_u32_chunks17h2b2f58b391420c68E, 1686
_ZN9rand_core5impls19fill_via_u64_chunks17h6544117ef5e3fd7eE, 1687
_ZN9rand_core5impls17next_u32_via_fill17hfe51f9d0a2ad7318E, 1688
_ZN59_$LT$rand_core..os..OsRng$u20$as$u20$rand_core..RngCore$GT$10fill_bytes17hea086eb363a25376E, 1689
_ZN59_$LT$rand_core..os..OsRng$u20$as$u20$rand_core..RngCore$GT$14try_fill_bytes17hb8abe74e09da41f0E, 1690
_ZN9rand_core5impls17next_u64_via_fill17he5c565b3f04125efE, 1691
_ZN59_$LT$rand_core..os..OsRng$u20$as$u20$rand_core..RngCore$GT$8next_u3217h3c5a6ac7ef60e693E, 1692
_ZN59_$LT$rand_core..os..OsRng$u20$as$u20$rand_core..RngCore$GT$8next_u6417h5a0098d99039d024E, 1693
_ZN60_$LT$dyn$u20$rand_core..RngCore$u20$as$u20$std..io..Read$GT$4read17h91adfdc68e7ce606E_original, 1694
_ZN64_$LT$rand_core..error..ErrorCode$u20$as$u20$core..fmt..Debug$GT$3fmt17h8cf000246012bd0aE, 1695
_ZN4core3ptr55drop_in_place$LT$$RF$core..num..nonzero..NonZeroU32$GT$17h38aeb0114d6f0631E, 1696
_ZN57_$LT$rand_core..os..OsRng$u20$as$u20$core..fmt..Debug$GT$3fmt17h9d8fb723d903a5cbE, 1697
_ZN153_$LT$core..result..Result$LT$T$C$F$GT$$u20$as$u20$core..ops..try_trait..FromResidual$LT$core..result..Result$LT$core..convert..Infallible$C$E$GT$$GT$$GT$13from_residual17hffb2df44e017e744E, 1698
_ZN50_$LT$T$u20$as$u20$core..convert..From$LT$T$GT$$GT$4from17hfad4cd456ef7c637E, 1699
_ZN42_$LT$$RF$T$u20$as$u20$core..fmt..Debug$GT$3fmt17h37a7ebf6438cf111E, 1700
_ZN44_$LT$$RF$T$u20$as$u20$core..fmt..Display$GT$3fmt17h8fa5719ad885d54aE, 1701
_ZN4core3fmt10ArgumentV13new17h8fd27ac602a29596E, 1702
_ZN4core3fmt10ArgumentV13new17he7b99d36c1d0b2eeE, 1703
_ZN4core5slice29_$LT$impl$u20$$u5b$T$u5d$$GT$3len17ha8d5f480f6f8304cE, 1704
_ZN4core5slice29_$LT$impl$u20$$u5b$T$u5d$$GT$3len17hc5ef9d14934c0c75E, 1705
_ZN4core5slice29_$LT$impl$u20$$u5b$T$u5d$$GT$3len17hd573621a65f80093E, 1706
_ZN4core5slice29_$LT$impl$u20$$u5b$T$u5d$$GT$6as_ptr17h189f6521ea598dceE, 1707
_ZN4core5slice29_$LT$impl$u20$$u5b$T$u5d$$GT$6as_ptr17hd0ab236951a13c7fE, 1708
_ZN75_$LT$core..option..Option$LT$T$GT$$u20$as$u20$core..ops..try_trait..Try$GT$6branch17h77601f6df09b34acE, 1709
_ZN79_$LT$core..result..Result$LT$T$C$E$GT$$u20$as$u20$core..ops..try_trait..Try$GT$6branch17h7a94d568a8bf134dE, 1710
_ZN84_$LT$core..option..Option$LT$T$GT$$u20$as$u20$core..ops..try_trait..FromResidual$GT$13from_residual17h7e205b33357a28e1E, 1711
_ZN4wasi5error5Error14from_raw_error17ha378458656d4c25fE, 1712
_ZN4core3num7nonzero10NonZeroU163new17h328c54c3d488def2E, 1713
_ZN4wasi5error5Error9raw_error17h204b1d187a0190cbE, 1714
_ZN4core3num7nonzero10NonZeroU163get17h1e43c20e21009b81E, 1715
_ZN57_$LT$wasi..error..Error$u20$as$u20$core..fmt..Display$GT$3fmt17h27886b6bab7e11c5E, 1716
_ZN4wasi13lib_generated8strerror17h8364859a413e6fabE, 1717
_ZN69_$LT$core..num..nonzero..NonZeroU16$u20$as$u20$core..fmt..Display$GT$3fmt17h0cae7c8c84183059E, 1718
_ZN4core3fmt9Arguments6new_v117h29af085c8ca050c6E, 1719
_ZN55_$LT$wasi..error..Error$u20$as$u20$core..fmt..Debug$GT$3fmt17h1818e9e37c7217e5E, 1720
_ZN4core3ptr28drop_in_place$LT$$RF$str$GT$17h8aee0edffc0f3537E, 1721
_ZN4core3ptr51drop_in_place$LT$core..num..nonzero..NonZeroU16$GT$17hd0d2e1ad1c1efc47E, 1722
_ZN67_$LT$core..num..nonzero..NonZeroU16$u20$as$u20$core..fmt..Debug$GT$3fmt17heebaa3920c6ad499E, 1723
_ZN4core3fmt3num50_$LT$impl$u20$core..fmt..Debug$u20$for$u20$u16$GT$3fmt17h0418703e685d2bbeE, 1724
_ZN4wasi13lib_generated8args_get17h519de77f14b788fdE, 1725
_ZN4wasi13lib_generated14args_sizes_get17h769d0fe432ec34fbE, 1726
_ZN4wasi13lib_generated11environ_get17h0ae9c6b846cd3a82E, 1727
_ZN4wasi13lib_generated17environ_sizes_get17h91cfa5d14136ff19E, 1728
_ZN4wasi13lib_generated13clock_res_get17h0563da1b9102eccbE, 1729
_ZN4wasi13lib_generated14clock_time_get17h242cde123d7cc80cE, 1730
_ZN4wasi13lib_generated9fd_advise17h598fb692eacc578eE, 1731
_ZN4wasi13lib_generated11fd_allocate17h66435751545182c7E, 1732
_ZN4wasi13lib_generated8fd_close17h71cea1c3ce0f4124E, 1733
_ZN4wasi13lib_generated11fd_datasync17h9f325d30548f9508E, 1734
_ZN4wasi13lib_generated13fd_fdstat_get17h55207db421818b8bE, 1735
_ZN4wasi13lib_generated19fd_fdstat_set_flags17h01b5a7bf9e91a348E, 1736
_ZN4wasi13lib_generated20fd_fdstat_set_rights17hb79f3514371183eeE, 1737
_ZN4wasi13lib_generated15fd_filestat_get17h5a7edae3982be7e5E, 1738
_ZN4wasi13lib_generated20fd_filestat_set_size17h0c25a6868b7162afE, 1739
_ZN4wasi13lib_generated21fd_filestat_set_times17h047e4980c701d643E, 1740
_ZN4wasi13lib_generated8fd_pread17hda27bc785ca328eeE, 1741
_ZN4wasi13lib_generated14fd_prestat_get17he67e5343f0a31b42E, 1742
_ZN4wasi13lib_generated19fd_prestat_dir_name17h23a9f667d7811297E, 1743
_ZN4wasi13lib_generated9fd_pwrite17h744703d3b987f72eE, 1744
_ZN4wasi13lib_generated7fd_read17h8ff37bef172314a1E, 1745
_ZN4wasi13lib_generated10fd_readdir17h355ff0bd577d03e9E, 1746
_ZN4wasi13lib_generated11fd_renumber17hd7a751f7de29a50dE, 1747
_ZN4wasi13lib_generated7fd_seek17hdbded35a90179a60E, 1748
_ZN4wasi13lib_generated7fd_sync17h282bb23b696f13bfE, 1749
_ZN4wasi13lib_generated7fd_tell17h5704babdeab35c4aE, 1750
_ZN4wasi13lib_generated8fd_write17h720f0e27da262881E, 1751
_ZN4wasi13lib_generated21path_create_directory17h7df23cc25412b57dE, 1752
_ZN4core3str21_$LT$impl$u20$str$GT$6as_ptr17h3246a35f3a2670a1E, 1753
_ZN4core3str21_$LT$impl$u20$str$GT$3len17h8e5895c1ea7952deE, 1754
_ZN4wasi13lib_generated17path_filestat_get17h984c476b34e37293E, 1755
_ZN4wasi13lib_generated23path_filestat_set_times17ha86840b03c5f09a6E, 1756
_ZN4wasi13lib_generated9path_link17h62745a701f0237f9E, 1757
_ZN4wasi13lib_generated9path_open17h4bc137694af4ccadE, 1758
_ZN4wasi13lib_generated13path_readlink17h08ca091692a4c34eE, 1759
_ZN4wasi13lib_generated21path_remove_directory17h8a3c81b1fcc4d1f7E, 1760
_ZN4wasi13lib_generated11path_rename17hb12367f41a243e80E, 1761
_ZN4wasi13lib_generated12path_symlink17hc29695ecda785378E, 1762
_ZN4wasi13lib_generated16path_unlink_file17h4569017db5a276e5E, 1763
_ZN4wasi13lib_generated11poll_oneoff17h08057681826a76bdE, 1764
_ZN4wasi13lib_generated9proc_exit17hb59673a202539ac5E, 1765
_ZN4wasi13lib_generated10proc_raise17h17eb56dbc2fa8a0eE, 1766
_ZN4wasi13lib_generated11sched_yield17h247a7c765454d792E, 1767
_ZN4wasi13lib_generated10random_get17hadd98fcb7ddd9d1cE, 1768
_ZN4wasi13lib_generated9sock_recv17hfed7e934fdf52207E, 1769
_ZN4wasi13lib_generated9sock_send17hfa7ac73517a1cf84E, 1770
_ZN4wasi13lib_generated13sock_shutdown17h33d97e17d0e94d46E, 1771
_ZN42_$LT$$RF$T$u20$as$u20$core..fmt..Debug$GT$3fmt17h32c4b3dafba9413eE, 1772
_ZN4core3fmt3num50_$LT$impl$u20$core..fmt..Debug$u20$for$u20$u64$GT$3fmt17hb460d6e99c440958E, 1773
_ZN42_$LT$$RF$T$u20$as$u20$core..fmt..Debug$GT$3fmt17h46e1ad1568a9c174E, 1774
_ZN4core3fmt3num51_$LT$impl$u20$core..fmt..Debug$u20$for$u20$u128$GT$3fmt17h3ab3519290d0a27aE, 1775
_ZN42_$LT$$RF$T$u20$as$u20$core..fmt..Debug$GT$3fmt17h9a4d4e05a30cf257E, 1776
_ZN4core5array69_$LT$impl$u20$core..fmt..Debug$u20$for$u20$$u5b$T$u3b$$u20$N$u5d$$GT$3fmt17hdf0ce0b3c583a6eeE, 1777
_ZN4core5array85_$LT$impl$u20$core..ops..index..Index$LT$I$GT$$u20$for$u20$$u5b$T$u3b$$u20$N$u5d$$GT$5index17h497e690b37fcbfc2E, 1778
_ZN42_$LT$$RF$T$u20$as$u20$core..fmt..Debug$GT$3fmt17hf3ca1d8fed53ba20E, 1779
_ZN48_$LT$$u5b$T$u5d$$u20$as$u20$core..fmt..Debug$GT$3fmt17h5107fb04ab75136aE, 1780
_ZN4core5slice29_$LT$impl$u20$$u5b$T$u5d$$GT$4iter17hd76dadb607e69920E, 1781
_ZN4core3fmt8builders9DebugList7entries17ha016a5c0fd42a2a1E, 1782
_ZN63_$LT$I$u20$as$u20$core..iter..traits..collect..IntoIterator$GT$9into_iter17hb4b1882df176dfedE, 1783
_ZN91_$LT$core..slice..iter..Iter$LT$T$GT$$u20$as$u20$core..iter..traits..iterator..Iterator$GT$4next17h322d859f6803d3b6E, 1784
_ZN4core3ptr29drop_in_place$LT$$RF$u128$GT$17h3aecea163e1d8a0fE, 1785
_ZN4core3ptr8non_null16NonNull$LT$T$GT$6as_ptr17h2d78c0436c5c3082E, 1786
_ZN4core3ptr7mut_ptr31_$LT$impl$u20$$BP$mut$u20$T$GT$7is_null17h5a20aa81a513964fE, 1787
_ZN4core3ptr9const_ptr33_$LT$impl$u20$$BP$const$u20$T$GT$7is_null17h72613852fbf7d233E, 1788
_ZN4core3ptr8non_null16NonNull$LT$T$GT$13new_unchecked17h397a85265c6a4fa0E, 1789
_ZN4core3ptr9const_ptr33_$LT$impl$u20$$BP$const$u20$T$GT$13guaranteed_eq17hf921296fadf5ab44E, 1790
_ZN4core3ptr7mut_ptr31_$LT$impl$u20$$BP$mut$u20$T$GT$13guaranteed_eq17hbe929b6f6284a802E, 1791
_ZN4core5slice4iter13Iter$LT$T$GT$3new17h948cb0188a6f9206E, 1792
_ZN4core5slice29_$LT$impl$u20$$u5b$T$u5d$$GT$6as_ptr17h089f7750de91cc07E, 1793
_ZN4core5slice29_$LT$impl$u20$$u5b$T$u5d$$GT$3len17hb0f90a2b1af97ec6E, 1794
_ZN4core5slice5index74_$LT$impl$u20$core..ops..index..Index$LT$I$GT$$u20$for$u20$$u5b$T$u5d$$GT$5index17h17ce62e5bcdd2f69E, 1795
_ZN97_$LT$core..ops..range..RangeFull$u20$as$u20$core..slice..index..SliceIndex$LT$$u5b$T$u5d$$GT$$GT$5index17h83ddf32819743c20E, 1796
_ZN42_$LT$$RF$T$u20$as$u20$core..fmt..Debug$GT$3fmt17h9ed2b4cc93a240f4E, 1797
_ZN4core5array69_$LT$impl$u20$core..fmt..Debug$u20$for$u20$$u5b$T$u3b$$u20$N$u5d$$GT$3fmt17hd46d3a3341c9bae0E, 1798
_ZN4core5array85_$LT$impl$u20$core..ops..index..Index$LT$I$GT$$u20$for$u20$$u5b$T$u3b$$u20$N$u5d$$GT$5index17h8950dd1fe19aa44dE, 1799
_ZN42_$LT$$RF$T$u20$as$u20$core..fmt..Debug$GT$3fmt17hd970ad563cc4d832E, 1800
_ZN48_$LT$$u5b$T$u5d$$u20$as$u20$core..fmt..Debug$GT$3fmt17hebfb2d5da0ae5640E, 1801
_ZN4core5slice29_$LT$impl$u20$$u5b$T$u5d$$GT$4iter17h311a2cdb64d1d7b7E, 1802
_ZN4core3fmt8builders9DebugList7entries17h2ae3c4412833bc68E, 1803
_ZN63_$LT$I$u20$as$u20$core..iter..traits..collect..IntoIterator$GT$9into_iter17hd6d4ede4cb09d36fE, 1804
_ZN91_$LT$core..slice..iter..Iter$LT$T$GT$$u20$as$u20$core..iter..traits..iterator..Iterator$GT$4next17h2ed76d2076ad7e29E, 1805
_ZN4core3ptr28drop_in_place$LT$$RF$u64$GT$17h16c72a6284ce3939E, 1806
_ZN4core3ptr8non_null16NonNull$LT$T$GT$6as_ptr17h63671546fc89ade0E, 1807
_ZN4core3ptr7mut_ptr31_$LT$impl$u20$$BP$mut$u20$T$GT$7is_null17haeaa19e28ee44151E, 1808
_ZN4core3ptr9const_ptr33_$LT$impl$u20$$BP$const$u20$T$GT$7is_null17hadc281cc692ecc27E, 1809
_ZN4core3ptr8non_null16NonNull$LT$T$GT$13new_unchecked17he213f51b77b653dbE, 1810
_ZN4core5slice4iter13Iter$LT$T$GT$3new17hfeb782858e4ded9bE, 1811
_ZN4core5slice29_$LT$impl$u20$$u5b$T$u5d$$GT$6as_ptr17h130b784cae57c67eE, 1812
_ZN4core5slice29_$LT$impl$u20$$u5b$T$u5d$$GT$3len17hb51423c9e8f160fcE, 1813
_ZN4core5slice5index74_$LT$impl$u20$core..ops..index..Index$LT$I$GT$$u20$for$u20$$u5b$T$u5d$$GT$5index17h809130cf0205d633E, 1814
_ZN97_$LT$core..ops..range..RangeFull$u20$as$u20$core..slice..index..SliceIndex$LT$$u5b$T$u5d$$GT$$GT$5index17hf291b87eb54cd37dE, 1815
_ZN42_$LT$$RF$T$u20$as$u20$core..fmt..Debug$GT$3fmt17hbbf6ee6b45088cdeE, 1816
_ZN4core3fmt3num50_$LT$impl$u20$core..fmt..Debug$u20$for$u20$u32$GT$3fmt17ha2734356af835024E, 1817
_ZN42_$LT$$RF$T$u20$as$u20$core..fmt..Debug$GT$3fmt17hd3ca8cba15f92928E, 1818
_ZN4core5array69_$LT$impl$u20$core..fmt..Debug$u20$for$u20$$u5b$T$u3b$$u20$N$u5d$$GT$3fmt17h24c79e4e746034a4E, 1819
_ZN4core5array85_$LT$impl$u20$core..ops..index..Index$LT$I$GT$$u20$for$u20$$u5b$T$u3b$$u20$N$u5d$$GT$5index17h05300d93fa42c889E, 1820
_ZN42_$LT$$RF$T$u20$as$u20$core..fmt..Debug$GT$3fmt17he779337b72ab5831E, 1821
_ZN48_$LT$$u5b$T$u5d$$u20$as$u20$core..fmt..Debug$GT$3fmt17hd0f1f3b8853ab685E, 1822
_ZN4core5slice29_$LT$impl$u20$$u5b$T$u5d$$GT$4iter17h56e4c48071a13ab2E, 1823
_ZN4core3fmt8builders9DebugList7entries17hb1afcce0dddbf362E, 1824
_ZN63_$LT$I$u20$as$u20$core..iter..traits..collect..IntoIterator$GT$9into_iter17h1950e95aa8ce11faE, 1825
_ZN91_$LT$core..slice..iter..Iter$LT$T$GT$$u20$as$u20$core..iter..traits..iterator..Iterator$GT$4next17ha4c08317f2f62541E, 1826
_ZN4core3ptr28drop_in_place$LT$$RF$u32$GT$17h54f2e7e221c6cb39E, 1827
_ZN4core3ptr8non_null16NonNull$LT$T$GT$6as_ptr17hcc3ac90e216b0b27E, 1828
_ZN4core3ptr7mut_ptr31_$LT$impl$u20$$BP$mut$u20$T$GT$7is_null17ha1c280bc5d8afe55E, 1829
_ZN4core3ptr9const_ptr33_$LT$impl$u20$$BP$const$u20$T$GT$7is_null17h9ae7ec8d0f86880fE, 1830
_ZN4core3ptr8non_null16NonNull$LT$T$GT$13new_unchecked17h595f1a8b7c9d565cE, 1831
_ZN4core5slice4iter13Iter$LT$T$GT$3new17he6beeb043487e769E, 1832
_ZN4core5slice29_$LT$impl$u20$$u5b$T$u5d$$GT$6as_ptr17hfaf100606f1dab2aE, 1833
_ZN4core5slice29_$LT$impl$u20$$u5b$T$u5d$$GT$3len17h68c4c0bc4fc8c10dE, 1834
_ZN4core5slice5index74_$LT$impl$u20$core..ops..index..Index$LT$I$GT$$u20$for$u20$$u5b$T$u5d$$GT$5index17hd822958e645401c3E, 1835
_ZN97_$LT$core..ops..range..RangeFull$u20$as$u20$core..slice..index..SliceIndex$LT$$u5b$T$u5d$$GT$$GT$5index17h8491ef89e8a590d3E, 1836
_ZN10ppv_lite867generic6o_of_q17h1c54353f338b61fcE, 1837
_ZN4core7convert3num65_$LT$impl$u20$core..convert..From$LT$u64$GT$$u20$for$u20$u128$GT$4from17h0e092a7d1580c2c0E, 1838
_ZN10ppv_lite867generic6q_of_o17h2488c29bdbf39e66E, 1839
_ZN10ppv_lite867generic17rotate_u128_right17h7c85a9b7f6f0cfecE, 1840
_ZN71_$LT$ppv_lite86..generic..u32x4_generic$u20$as$u20$core..fmt..Debug$GT$3fmt17h9abfab71b5221150E, 1841
_ZN4core3ptr49drop_in_place$LT$$RF$$u5b$u32$u3b$$u20$4$u5d$$GT$17haa07e4784b1ce9faE, 1842
_ZN71_$LT$ppv_lite86..generic..u64x2_generic$u20$as$u20$core..fmt..Debug$GT$3fmt17h07f46f8a42ce2a94E, 1843
_ZN4core3ptr49drop_in_place$LT$$RF$$u5b$u64$u3b$$u20$2$u5d$$GT$17h8ea572fcba178f24E, 1844
_ZN72_$LT$ppv_lite86..generic..u128x1_generic$u20$as$u20$core..fmt..Debug$GT$3fmt17h0434836002e0b0b3E, 1845
_ZN4core3ptr50drop_in_place$LT$$RF$$u5b$u128$u3b$$u20$1$u5d$$GT$17hb3ee33f702b33a19E, 1846
_ZN6qrcode6canvas6Canvas15coords_to_index17h392521962941e573E_0_, 1847
_ZN60_$LT$dyn$u20$rand_core..RngCore$u20$as$u20$std..io..Read$GT$4read17h91adfdc68e7ce606E_1_, 1848
_ZN60_$LT$qrcode..types..Mode$u20$as$u20$core..cmp..PartialEq$GT$2eq17ha263fa5e4af74859E_2_, 1849
_ZN80_$LT$core..option..Option$LT$T$GT$$u20$as$u20$qrcode..cast..ExpectOrOverflow$GT$18expect_or_overflow17hcc565ad86b0a8398E_3_, 1850
_ZN6qrcode6canvas6Canvas15coords_to_index17h392521962941e573E_4_, 1851
_ZN4core6option15Option$LT$T$GT$3map17h1a47d23c8837b815E_5_, 1852
_ZN47_$LT$u32$u20$as$u20$core..iter..range..Step$GT$17forward_unchecked17h0db0511b979a7ca8E_6_, 1853
_ZN4core4iter6traits8iterator8Iterator4fold17had50487807a5fe23E_7_, 1854
_ZN4core6option15Option$LT$T$GT$3map17h1a47d23c8837b815E_8_, 1855
_ZN56_$LT$i16$u20$as$u20$checked_int_cast..CheckedIntCast$GT$16as_usize_checked17hf8c27e538d0e444fE_9_, 1856
_ZN4core4iter6traits8iterator8Iterator8for_each17h03b17951018b3e39E_10_, 1857
_ZN3std2io5error5Error12raw_os_error17h18499eac9d8bea1cE_10_, 1858
_ZN5alloc7raw_vec19RawVec$LT$T$C$A$GT$16with_capacity_in17hc167591bf67cc4c3E_11_, 1859
_ZN56_$LT$usize$u20$as$u20$core..iter..traits..accum..Sum$GT$3sum28_$u7b$$u7b$closure$u7d$$u7d$17h54dbf9b2464cbac5E_12_, 1860
_ZN4core4iter6traits8iterator8Iterator4fold17had50487807a5fe23E_13_, 1861
_ZN4core4iter6traits8iterator8Iterator4fold17had50487807a5fe23E_14_, 1862
_ZN5alloc7raw_vec19RawVec$LT$T$C$A$GT$11allocate_in17h29fe1f804abc0cc2E_15_, 1863
_ZN4core4iter6traits8iterator8Iterator4fold17had50487807a5fe23E_16_, 1864
_ZN6qrcode6canvas6Canvas15coords_to_index17h392521962941e573E_17_, 1865
_ZN4core4iter6traits8iterator8Iterator4fold17had50487807a5fe23E_18_, 1866
_ZN6qrcode6canvas6Canvas15coords_to_index17h392521962941e573E_19_, 1867
_ZN4core3num23_$LT$impl$u20$usize$GT$11checked_add17h096d975beb745572E_20_, 1868
_ZN5alloc7raw_vec19RawVec$LT$T$C$A$GT$11allocate_in17h29fe1f804abc0cc2E_21_, 1869
_ZN6qrcode6canvas6Canvas15coords_to_index17h392521962941e573E_22_, 1870
_ZN47_$LT$u32$u20$as$u20$core..iter..range..Step$GT$17forward_unchecked17h0db0511b979a7ca8E_23_, 1871
_ZN4core6option15Option$LT$T$GT$3map17h1a47d23c8837b815E_24_, 1872
_ZN6qrcode6canvas6Canvas15coords_to_index17h392521962941e573E_25_, 1873
_ZN4core3num23_$LT$impl$u20$usize$GT$11checked_add17h096d975beb745572E_26_, 1874
_ZN5alloc5alloc6Global10alloc_impl17h1f328160f76f12cfE_27_, 1875
_ZN80_$LT$core..option..Option$LT$T$GT$$u20$as$u20$qrcode..cast..ExpectOrOverflow$GT$18expect_or_overflow17h0299d77236c2d7f5E_28_, 1876
_ZN3std2io5error5Error12raw_os_error17hff19ab5eadf4189dE_29_, 1877
_ZN47_$LT$u32$u20$as$u20$core..iter..range..Step$GT$17forward_unchecked17h0db0511b979a7ca8E_30_, 1878
_ZN6qrcode6canvas14mask_functions16horizontal_lines17h0c5de493f21ce1a3E_31_, 1879
_ZN56_$LT$i16$u20$as$u20$checked_int_cast..CheckedIntCast$GT$16as_usize_checked17hf8c27e538d0e444fE_32_, 1880
_ZN6qrcode6canvas6Canvas15coords_to_index17h392521962941e573E_33_, 1881
_ZN80_$LT$core..option..Option$LT$T$GT$$u20$as$u20$qrcode..cast..ExpectOrOverflow$GT$18expect_or_overflow17h0299d77236c2d7f5E_34_, 1882
_ZN56_$LT$i16$u20$as$u20$checked_int_cast..CheckedIntCast$GT$16as_usize_checked17hf8c27e538d0e444fE_35_, 1883
_ZN6qrcode6canvas14mask_functions16horizontal_lines17h0c5de493f21ce1a3E_36_, 1884
_ZN4core6option15Option$LT$T$GT$3map17h1a47d23c8837b815E_37_, 1885
_ZN6qrcode5types7Version8is_micro17hdb4237c14d4fb839E_38_, 1886
_ZN6qrcode6canvas6Canvas20draw_finder_patterns17hdd8f6522c27cb362E_39_, 1887
_ZN80_$LT$core..option..Option$LT$T$GT$$u20$as$u20$qrcode..cast..ExpectOrOverflow$GT$18expect_or_overflow17h0299d77236c2d7f5E_40_, 1888
_ZN4core6option15Option$LT$T$GT$3map17h1a47d23c8837b815E_41_, 1889
_ZN6qrcode6canvas6Canvas15coords_to_index17h392521962941e573E_42_, 1890
_ZN6qrcode6canvas14mask_functions16horizontal_lines17h0c5de493f21ce1a3E_43_, 1891
_ZN80_$LT$core..option..Option$LT$T$GT$$u20$as$u20$qrcode..cast..ExpectOrOverflow$GT$18expect_or_overflow17hcc565ad86b0a8398E_44_, 1892
_ZN6qrcode6canvas14mask_functions16horizontal_lines17h0c5de493f21ce1a3E_45_, 1893
_ZN4core3ptr41drop_in_place$LT$std..io..error..Repr$GT$17haedb15029a9f36edE_46_, 1894
_ZN4core6option15Option$LT$T$GT$3map17h1a47d23c8837b815E_47_, 1895
_ZN6qrcode6canvas6Canvas20draw_finder_patterns17hdd8f6522c27cb362E_48_, 1896
_ZN5alloc5alloc6Global10alloc_impl17h1f328160f76f12cfE_49_, 1897
_ZN5alloc7raw_vec19RawVec$LT$T$C$A$GT$11allocate_in17h29fe1f804abc0cc2E_50_, 1898
_ZN6qrcode6canvas14mask_functions16horizontal_lines17h0c5de493f21ce1a3E_51_, 1899
_ZN56_$LT$i16$u20$as$u20$checked_int_cast..CheckedIntCast$GT$16as_usize_checked17hf8c27e538d0e444fE_52_, 1900
_ZN4core3num23_$LT$impl$u20$usize$GT$11checked_add17h096d975beb745572E_53_, 1901
_ZN47_$LT$u32$u20$as$u20$core..iter..range..Step$GT$17forward_unchecked17h0db0511b979a7ca8E_54_, 1902
_ZN6qrcode6canvas6Canvas15coords_to_index17h392521962941e573E_55_, 1903
_ZN56_$LT$i16$u20$as$u20$checked_int_cast..CheckedIntCast$GT$16as_usize_checked17hf8c27e538d0e444fE_56_, 1904
_ZN6qrcode6canvas6Canvas20draw_finder_patterns17hdd8f6522c27cb362E_57_, 1905
_ZN5alloc7raw_vec19RawVec$LT$T$C$A$GT$11allocate_in17h29fe1f804abc0cc2E_58_, 1906
_ZN80_$LT$core..option..Option$LT$T$GT$$u20$as$u20$qrcode..cast..ExpectOrOverflow$GT$18expect_or_overflow17h0299d77236c2d7f5E_59_, 1907
_ZN4core4iter6traits8iterator8Iterator4fold17had50487807a5fe23E_60_, 1908
_ZN6qrcode6canvas6Canvas15coords_to_index17h392521962941e573E_61_, 1909
_ZN4core4iter6traits8iterator8Iterator4fold17had50487807a5fe23E_62_, 1910
_ZN6qrcode5types7Version8is_micro17hdb4237c14d4fb839E_63_, 1911
_ZN6qrcode6canvas14mask_functions16horizontal_lines17h0c5de493f21ce1a3E_64_, 1912
_ZN6qrcode6canvas6Canvas15coords_to_index17h392521962941e573E_65_, 1913
_ZN6qrcode6canvas6Canvas15coords_to_index17h392521962941e573E_66_, 1914
_ZN4core3num23_$LT$impl$u20$usize$GT$11checked_add17h096d975beb745572E_67_, 1915
_ZN4core6option15Option$LT$T$GT$3map17h1a47d23c8837b815E_68_, 1916
_ZN4core6option15Option$LT$T$GT$3map17h1a47d23c8837b815E_69_, 1917
_ZN6qrcode6canvas6Canvas15coords_to_index17h392521962941e573E_70_, 1918
_ZN80_$LT$core..option..Option$LT$T$GT$$u20$as$u20$qrcode..cast..ExpectOrOverflow$GT$18expect_or_overflow17h0299d77236c2d7f5E_71_, 1919
_ZN6qrcode6canvas14mask_functions16horizontal_lines17h0c5de493f21ce1a3E_72_, 1920
_ZN6qrcode6canvas6Canvas15coords_to_index17h392521962941e573E_73_, 1921
_ZN4core4iter6traits8iterator8Iterator4fold17had50487807a5fe23E_74_, 1922
_ZN6qrcode6canvas6Canvas15coords_to_index17h392521962941e573E_75_, 1923
_ZN6qrcode6canvas14mask_functions16horizontal_lines17h0c5de493f21ce1a3E_76_, 1924
_ZN4core3num23_$LT$impl$u20$usize$GT$11checked_add17h096d975beb745572E_77_, 1925
_ZN4core4iter6traits8iterator8Iterator4fold17had50487807a5fe23E_78_, 1926
_ZN56_$LT$i16$u20$as$u20$checked_int_cast..CheckedIntCast$GT$16as_usize_checked17hf8c27e538d0e444fE_79_, 1927
_ZN5alloc5alloc6Global10alloc_impl17h1f328160f76f12cfE_80_, 1928
_ZN4core6option15Option$LT$T$GT$3map17h1a47d23c8837b815E_81_, 1929
_ZN5alloc7raw_vec19RawVec$LT$T$C$A$GT$11allocate_in17h29fe1f804abc0cc2E_82_, 1930
_ZN5alloc7raw_vec19RawVec$LT$T$C$A$GT$11allocate_in17h29fe1f804abc0cc2E_83_, 1931
_ZN80_$LT$core..option..Option$LT$T$GT$$u20$as$u20$qrcode..cast..ExpectOrOverflow$GT$18expect_or_overflow17h0299d77236c2d7f5E_84_, 1932
_ZN56_$LT$usize$u20$as$u20$core..iter..traits..accum..Sum$GT$3sum28_$u7b$$u7b$closure$u7d$$u7d$17h54dbf9b2464cbac5E_85_, 1933
_ZN4core6option15Option$LT$T$GT$3map17h1a47d23c8837b815E_86_, 1934
_ZN4core4iter6traits8iterator8Iterator4fold17had50487807a5fe23E_87_, 1935
_ZN56_$LT$i16$u20$as$u20$checked_int_cast..CheckedIntCast$GT$16as_usize_checked17hf8c27e538d0e444fE_88_, 1936
_ZN6qrcode6canvas6Canvas15coords_to_index17h392521962941e573E_89_, 1937
_ZN4core4iter6traits8iterator8Iterator4fold17had50487807a5fe23E_90_, 1938
_ZN4core3num23_$LT$impl$u20$usize$GT$11checked_add17h096d975beb745572E_91_, 1939
_ZN56_$LT$i16$u20$as$u20$checked_int_cast..CheckedIntCast$GT$16as_usize_checked17hf8c27e538d0e444fE_92_, 1940
_ZN47_$LT$u32$u20$as$u20$core..iter..range..Step$GT$17forward_unchecked17h0db0511b979a7ca8E_93_, 1941
_ZN5alloc7raw_vec19RawVec$LT$T$C$A$GT$11allocate_in17h29fe1f804abc0cc2E_94_, 1942
_ZN4core6option15Option$LT$T$GT$3map17h1a47d23c8837b815E_95_, 1943
_ZN6qrcode6canvas6Canvas15coords_to_index17h392521962941e573E_96_, 1944
_ZN4core6option15Option$LT$T$GT$3map17h1a47d23c8837b815E_97_, 1945
_ZN6qrcode6canvas6Canvas15coords_to_index17h392521962941e573E_98_, 1946
_ZN6qrcode5types7Version8is_micro17hdb4237c14d4fb839E_99_, 1947
_ZN5alloc5alloc6Global10alloc_impl17h1f328160f76f12cfE_100_, 1948
_ZN77_$LT$alloc..raw_vec..RawVec$LT$T$C$A$GT$$u20$as$u20$core..ops..drop..Drop$GT$4drop17h7425ee577f6364a4E_101_, 1949
_ZN5alloc5alloc6Global10alloc_impl17h1f328160f76f12cfE_102_, 1950
_ZN5alloc5alloc6Global10alloc_impl17h1f328160f76f12cfE_103_, 1951
_ZN56_$LT$i16$u20$as$u20$checked_int_cast..CheckedIntCast$GT$16as_usize_checked17hf8c27e538d0e444fE_104_, 1952
_ZN4core6option15Option$LT$T$GT$3map17h1a47d23c8837b815E_105_, 1953
_ZN4core3ptr41drop_in_place$LT$std..io..error..Repr$GT$17haedb15029a9f36edE_106_, 1954
_ZN4core4iter6traits8iterator8Iterator4fold17had50487807a5fe23E_107_, 1955
_ZN6qrcode6canvas14mask_functions16horizontal_lines17h0c5de493f21ce1a3E_108_, 1956
_ZN56_$LT$i16$u20$as$u20$checked_int_cast..CheckedIntCast$GT$16as_usize_checked17hf8c27e538d0e444fE_109_, 1957
_ZN6qrcode6canvas6Canvas15coords_to_index17h392521962941e573E_110_, 1958
_ZN5alloc7raw_vec19RawVec$LT$T$C$A$GT$11allocate_in17h29fe1f804abc0cc2E_111_, 1959
_ZN5alloc7raw_vec19RawVec$LT$T$C$A$GT$11allocate_in17h29fe1f804abc0cc2E_112_, 1960
_ZN75_$LT$core..option..Option$LT$T$GT$$u20$as$u20$core..ops..try_trait..Try$GT$6branch17h00056140ba3de476E_113_, 1961
_ZN6qrcode6canvas6Canvas15coords_to_index17h392521962941e573E_114_, 1962
_ZN4core6option15Option$LT$T$GT$3map17h1a47d23c8837b815E_115_, 1963
_ZN56_$LT$i16$u20$as$u20$checked_int_cast..CheckedIntCast$GT$16as_usize_checked17hf8c27e538d0e444fE_116_, 1964
_ZN4core4iter6traits8iterator8Iterator4fold17had50487807a5fe23E_117_, 1965
_ZN6qrcode6canvas6Canvas15coords_to_index17h392521962941e573E_118_, 1966
_ZN3std2io5error5Error12raw_os_error17h18499eac9d8bea1cE_119_, 1967
_ZN56_$LT$i16$u20$as$u20$checked_int_cast..CheckedIntCast$GT$16as_usize_checked17hf8c27e538d0e444fE_120_, 1968
_ZN6qrcode6canvas6Canvas15coords_to_index17h392521962941e573E_121_, 1969
_ZN56_$LT$i16$u20$as$u20$checked_int_cast..CheckedIntCast$GT$16as_usize_checked17hf8c27e538d0e444fE_122_, 1970
_ZN56_$LT$i16$u20$as$u20$checked_int_cast..CheckedIntCast$GT$16as_usize_checked17hf8c27e538d0e444fE_123_, 1971
_ZN6qrcode6canvas14mask_functions16horizontal_lines17h0c5de493f21ce1a3E_124_, 1972
_ZN80_$LT$core..option..Option$LT$T$GT$$u20$as$u20$qrcode..cast..ExpectOrOverflow$GT$18expect_or_overflow17hcc565ad86b0a8398E_125_, 1973
_ZN77_$LT$alloc..raw_vec..RawVec$LT$T$C$A$GT$$u20$as$u20$core..ops..drop..Drop$GT$4drop17h7425ee577f6364a4E_126_, 1974
_ZN4core6option15Option$LT$T$GT$3map17h1a47d23c8837b815E_127_, 1975
_ZN4core6option15Option$LT$T$GT$3map17h1a47d23c8837b815E_128_, 1976
_ZN56_$LT$i16$u20$as$u20$checked_int_cast..CheckedIntCast$GT$16as_usize_checked17hf8c27e538d0e444fE_129_, 1977
_ZN4core4iter6traits8iterator8Iterator4fold17had50487807a5fe23E_130_, 1978
_ZN6qrcode6canvas6Canvas15coords_to_index17h392521962941e573E_131_, 1979
_ZN47_$LT$u32$u20$as$u20$core..iter..range..Step$GT$17forward_unchecked17h0db0511b979a7ca8E_132_, 1980
_ZN6qrcode6canvas14mask_functions16horizontal_lines17h0c5de493f21ce1a3E_133_, 1981
_ZN4core6option15Option$LT$T$GT$3map17h1a47d23c8837b815E_134_, 1982
_ZN5alloc5alloc6Global10alloc_impl17h1f328160f76f12cfE_135_, 1983
_ZN5alloc5alloc6Global10alloc_impl17h1f328160f76f12cfE_136_, 1984
_ZN4core4iter6traits8iterator8Iterator4fold17had50487807a5fe23E_137_, 1985
_ZN5alloc7raw_vec19RawVec$LT$T$C$A$GT$11allocate_in17h29fe1f804abc0cc2E_138_, 1986
_ZN6qrcode6canvas14mask_functions16horizontal_lines17h0c5de493f21ce1a3E_139_, 1987
_ZN4core4iter6traits8iterator8Iterator4fold17had50487807a5fe23E_140_, 1988
_ZN4core3num23_$LT$impl$u20$usize$GT$11checked_add17h096d975beb745572E_141_, 1989
_ZN5alloc5alloc6Global10alloc_impl17h1f328160f76f12cfE_142_, 1990
_ZN47_$LT$u32$u20$as$u20$core..iter..range..Step$GT$17forward_unchecked17h0db0511b979a7ca8E_143_, 1991
_ZN80_$LT$core..option..Option$LT$T$GT$$u20$as$u20$qrcode..cast..ExpectOrOverflow$GT$18expect_or_overflow17h0299d77236c2d7f5E_144_, 1992
_ZN56_$LT$i16$u20$as$u20$checked_int_cast..CheckedIntCast$GT$16as_usize_checked17hf8c27e538d0e444fE_145_, 1993
_ZN6qrcode6canvas6Canvas20draw_finder_patterns17hdd8f6522c27cb362E_146_, 1994
_ZN6qrcode6canvas14mask_functions16horizontal_lines17h0c5de493f21ce1a3E_147_, 1995
_ZN5alloc5alloc6Global10alloc_impl17h1f328160f76f12cfE_148_, 1996
_ZN4core3num23_$LT$impl$u20$usize$GT$11checked_add17h096d975beb745572E_149_, 1997
_ZN5alloc5alloc6Global10alloc_impl17h1f328160f76f12cfE_150_, 1998
_ZN75_$LT$core..option..Option$LT$T$GT$$u20$as$u20$core..ops..try_trait..Try$GT$6branch17h00056140ba3de476E_151_, 1999
_ZN4core6option15Option$LT$T$GT$3map17h1a47d23c8837b815E_152_, 2000
_ZN56_$LT$i16$u20$as$u20$checked_int_cast..CheckedIntCast$GT$16as_usize_checked17hf8c27e538d0e444fE_153_, 2001
_ZN47_$LT$u32$u20$as$u20$core..iter..range..Step$GT$17forward_unchecked17h0db0511b979a7ca8E_154_, 2002
_ZN4core6option15Option$LT$T$GT$3map17h1a47d23c8837b815E_155_, 2003
_ZN6qrcode6canvas14mask_functions16horizontal_lines17h0c5de493f21ce1a3E_156_, 2004
_ZN80_$LT$core..option..Option$LT$T$GT$$u20$as$u20$qrcode..cast..ExpectOrOverflow$GT$18expect_or_overflow17hcc565ad86b0a8398E_157_, 2005
_ZN4core4iter6traits8iterator8Iterator4fold17had50487807a5fe23E_158_, 2006
_ZN4core6option15Option$LT$T$GT$3map17h1a47d23c8837b815E_159_, 2007
_ZN5alloc7raw_vec19RawVec$LT$T$C$A$GT$11allocate_in17h29fe1f804abc0cc2E_160_, 2008
_ZN4core3num23_$LT$impl$u20$usize$GT$11checked_add17h096d975beb745572E_161_, 2009
_ZN4core6option15Option$LT$T$GT$3map17h1a47d23c8837b815E_162_, 2010
_ZN5alloc7raw_vec19RawVec$LT$T$C$A$GT$11allocate_in17h29fe1f804abc0cc2E_163_, 2011
_ZN6qrcode6canvas14mask_functions16horizontal_lines17h0c5de493f21ce1a3E_164_, 2012
_ZN4core6option15Option$LT$T$GT$3map17h1a47d23c8837b815E_165_, 2013
_ZN56_$LT$i16$u20$as$u20$checked_int_cast..CheckedIntCast$GT$16as_usize_checked17hf8c27e538d0e444fE_166_, 2014
_ZN5alloc7raw_vec19RawVec$LT$T$C$A$GT$11allocate_in17h29fe1f804abc0cc2E_167_, 2015
_ZN56_$LT$char$u20$as$u20$qrcode..render..string..Element$GT$13default_color17hc33573a548f8f261E_168_, 2016
_ZN6qrcode6canvas6Canvas20draw_finder_patterns17hdd8f6522c27cb362E_169_, 2017
_ZN60_$LT$qrcode..types..Mode$u20$as$u20$core..cmp..PartialEq$GT$2eq17ha263fa5e4af74859E_170_, 2018
_ZN6qrcode6canvas6Canvas15coords_to_index17h392521962941e573E_171_, 2019
_ZN6qrcode6canvas14mask_functions16horizontal_lines17h0c5de493f21ce1a3E_172_, 2020
_ZN102_$LT$core..iter..adapters..cycle..Cycle$LT$I$GT$$u20$as$u20$core..iter..traits..iterator..Iterator$GT$9size_hint17hb562490e751a5104E_173_, 2021
_ZN102_$LT$core..iter..adapters..map..Map$LT$I$C$F$GT$$u20$as$u20$core..iter..traits..iterator..Iterator$GT$24__iterator_get_unchecked17h30a37547f1a288f3E_173_, 2022
_ZN5alloc5alloc6Global10alloc_impl17h1f328160f76f12cfE_174_, 2023
_ZN56_$LT$usize$u20$as$u20$core..iter..traits..accum..Sum$GT$3sum28_$u7b$$u7b$closure$u7d$$u7d$17h54dbf9b2464cbac5E_175_, 2024
_ZN56_$LT$i16$u20$as$u20$checked_int_cast..CheckedIntCast$GT$16as_usize_checked17hf8c27e538d0e444fE_176_, 2025
_ZN4core4iter6traits8iterator8Iterator4fold17had50487807a5fe23E_177_, 2026
_ZN56_$LT$i16$u20$as$u20$checked_int_cast..CheckedIntCast$GT$16as_usize_checked17hf8c27e538d0e444fE_178_, 2027
_ZN5alloc7raw_vec19RawVec$LT$T$C$A$GT$11allocate_in17h344cc4811a228da3E_179_, 2028
_ZN5alloc7raw_vec19RawVec$LT$T$C$A$GT$11allocate_in17h29fe1f804abc0cc2E_180_, 2029
_ZN5alloc5alloc6Global10alloc_impl17h1f328160f76f12cfE_181_, 2030
_ZN6qrcode5types7Version8is_micro17hdb4237c14d4fb839E_182_, 2031
_ZN6qrcode6canvas14mask_functions16horizontal_lines17h0c5de493f21ce1a3E_183_, 2032
_ZN5alloc7raw_vec19RawVec$LT$T$C$A$GT$11allocate_in17h29fe1f804abc0cc2E_184_, 2033
_ZN4core6option15Option$LT$T$GT$3map17h1a47d23c8837b815E_185_, 2034
_ZN47_$LT$u32$u20$as$u20$core..iter..range..Step$GT$17forward_unchecked17h0db0511b979a7ca8E_186_, 2035
_ZN47_$LT$u32$u20$as$u20$core..iter..range..Step$GT$17forward_unchecked17h0db0511b979a7ca8E_187_, 2036
_ZN4core6option15Option$LT$T$GT$3map17h1a47d23c8837b815E_188_, 2037
_ZN6qrcode6canvas14mask_functions16horizontal_lines17h0c5de493f21ce1a3E_189_, 2038
_ZN6qrcode6canvas14mask_functions16horizontal_lines17h0c5de493f21ce1a3E_190_, 2039
_ZN4core6option15Option$LT$T$GT$3map17h1a47d23c8837b815E_191_, 2040
_ZN5alloc7raw_vec19RawVec$LT$T$C$A$GT$11allocate_in17h29fe1f804abc0cc2E_192_, 2041
_ZN4core4iter6traits8iterator8Iterator4fold17had50487807a5fe23E_193_, 2042
_ZN4core4iter6traits8iterator8Iterator4fold17had50487807a5fe23E_194_, 2043
_ZN4core4iter6traits8iterator8Iterator4fold17had50487807a5fe23E_195_, 2044
_ZN6qrcode6canvas14mask_functions16horizontal_lines17h0c5de493f21ce1a3E_196_, 2045
_ZN4core6option15Option$LT$T$GT$3map17h1a47d23c8837b815E_197_, 2046
_ZN4core4iter6traits8iterator8Iterator4fold17had50487807a5fe23E_198_, 2047
_ZN6qrcode6canvas6Canvas15coords_to_index17h392521962941e573E_199_, 2048
_ZN56_$LT$i16$u20$as$u20$checked_int_cast..CheckedIntCast$GT$16as_usize_checked17hf8c27e538d0e444fE_200_, 2049
_ZN56_$LT$i16$u20$as$u20$checked_int_cast..CheckedIntCast$GT$16as_usize_checked17hf8c27e538d0e444fE_201_, 2050
_ZN60_$LT$qrcode..types..Mode$u20$as$u20$core..cmp..PartialEq$GT$2eq17ha263fa5e4af74859E_202_, 2051
_ZN56_$LT$i16$u20$as$u20$checked_int_cast..CheckedIntCast$GT$16as_usize_checked17hf8c27e538d0e444fE_203_, 2052
_ZN6qrcode5types7Version8is_micro17hdb4237c14d4fb839E_204_, 2053
_ZN4core6option15Option$LT$T$GT$3map17h1a47d23c8837b815E_205_, 2054
_ZN47_$LT$u32$u20$as$u20$core..iter..range..Step$GT$17forward_unchecked17h0db0511b979a7ca8E_206_, 2055
_ZN6qrcode6canvas14mask_functions16horizontal_lines17h0c5de493f21ce1a3E_207_, 2056
_ZN5alloc7raw_vec19RawVec$LT$T$C$A$GT$11allocate_in17h29fe1f804abc0cc2E_208_, 2057
_ZN6qrcode6canvas14mask_functions16horizontal_lines17h0c5de493f21ce1a3E_209_, 2058
_ZN4core6option15Option$LT$T$GT$3map17h1a47d23c8837b815E_210_, 2059
_ZN47_$LT$u32$u20$as$u20$core..iter..range..Step$GT$17forward_unchecked17h0db0511b979a7ca8E_211_, 2060
_ZN6qrcode6canvas14mask_functions16horizontal_lines17h0c5de493f21ce1a3E_212_, 2061
_ZN4core6option15Option$LT$T$GT$3map17h1a47d23c8837b815E_213_, 2062
_ZN4core6option15Option$LT$T$GT$3map17h1a47d23c8837b815E_214_, 2063
_ZN56_$LT$usize$u20$as$u20$core..iter..traits..accum..Sum$GT$3sum28_$u7b$$u7b$closure$u7d$$u7d$17h54dbf9b2464cbac5E_215_, 2064
_ZN4core4iter6traits8iterator8Iterator4fold17had50487807a5fe23E_216_, 2065
_ZN4core6option15Option$LT$T$GT$3map17h1a47d23c8837b815E_217_, 2066
_ZN56_$LT$i16$u20$as$u20$checked_int_cast..CheckedIntCast$GT$16as_usize_checked17hf8c27e538d0e444fE_218_, 2067
_ZN80_$LT$core..option..Option$LT$T$GT$$u20$as$u20$qrcode..cast..ExpectOrOverflow$GT$18expect_or_overflow17hcc565ad86b0a8398E_219_, 2068
_ZN77_$LT$alloc..raw_vec..RawVec$LT$T$C$A$GT$$u20$as$u20$core..ops..drop..Drop$GT$4drop17h7425ee577f6364a4E_220_, 2069
_ZN56_$LT$i16$u20$as$u20$checked_int_cast..CheckedIntCast$GT$16as_usize_checked17hf8c27e538d0e444fE_221_, 2070
_ZN4core6option15Option$LT$T$GT$3map17h1a47d23c8837b815E_222_, 2071
_ZN4core4iter6traits8iterator8Iterator4fold17had50487807a5fe23E_223_, 2072
_ZN56_$LT$i16$u20$as$u20$checked_int_cast..CheckedIntCast$GT$16as_usize_checked17hf8c27e538d0e444fE_224_, 2073
_ZN5alloc5alloc6Global10alloc_impl17h1f328160f76f12cfE_225_, 2074
_ZN6qrcode6canvas6Canvas15coords_to_index17h392521962941e573E_226_, 2075
_ZN5alloc7raw_vec19RawVec$LT$T$C$A$GT$11allocate_in17h29fe1f804abc0cc2E_227_, 2076
_ZN4core3num23_$LT$impl$u20$usize$GT$11checked_add17h096d975beb745572E_228_, 2077
_ZN4core6option15Option$LT$T$GT$3map17h1a47d23c8837b815E_229_, 2078
_ZN56_$LT$i16$u20$as$u20$checked_int_cast..CheckedIntCast$GT$16as_usize_checked17hf8c27e538d0e444fE_230_, 2079
_ZN56_$LT$i16$u20$as$u20$checked_int_cast..CheckedIntCast$GT$16as_usize_checked17hf8c27e538d0e444fE_231_, 2080
_ZN4core3num23_$LT$impl$u20$usize$GT$11checked_add17h096d975beb745572E_232_, 2081
_ZN6qrcode6canvas6Canvas15coords_to_index17h392521962941e573E_233_, 2082
_ZN4core3num23_$LT$impl$u20$usize$GT$11checked_add17h096d975beb745572E_234_, 2083
_ZN56_$LT$char$u20$as$u20$qrcode..render..string..Element$GT$13default_color17hc33573a548f8f261E_235_, 2084
_ZN47_$LT$u32$u20$as$u20$core..iter..range..Step$GT$17forward_unchecked17h0db0511b979a7ca8E_236_, 2085
_ZN4core4iter6traits8iterator8Iterator4fold17had50487807a5fe23E_237_, 2086
_ZN75_$LT$core..option..Option$LT$T$GT$$u20$as$u20$core..ops..try_trait..Try$GT$6branch17h00056140ba3de476E_238_, 2087
_ZN6qrcode6canvas14mask_functions16horizontal_lines17h0c5de493f21ce1a3E_239_, 2088
_ZN5alloc5alloc6Global10alloc_impl17h1f328160f76f12cfE_240_, 2089
_ZN80_$LT$core..option..Option$LT$T$GT$$u20$as$u20$qrcode..cast..ExpectOrOverflow$GT$18expect_or_overflow17hcc565ad86b0a8398E_241_, 2090
_ZN5alloc7raw_vec19RawVec$LT$T$C$A$GT$11allocate_in17h29fe1f804abc0cc2E_242_, 2091
_ZN56_$LT$i16$u20$as$u20$checked_int_cast..CheckedIntCast$GT$16as_usize_checked17hf8c27e538d0e444fE_243_, 2092
_ZN4core6option15Option$LT$T$GT$3map17h1a47d23c8837b815E_244_, 2093
_ZN4core6option15Option$LT$T$GT$3map17h1a47d23c8837b815E_245_, 2094
_ZN6qrcode6canvas14mask_functions16horizontal_lines17h0c5de493f21ce1a3E_246_, 2095
_ZN4core4iter6traits8iterator8Iterator4fold17had50487807a5fe23E_247_, 2096
_ZN4core3ptr9const_ptr33_$LT$impl$u20$$BP$const$u20$T$GT$11offset_from17h02b19100594bd202E_248_, 2097
_ZN6qrcode6canvas6Canvas15coords_to_index17h392521962941e573E_249_, 2098
_ZN4core4iter6traits8iterator8Iterator4fold17had50487807a5fe23E_250_, 2099
_ZN5alloc7raw_vec19RawVec$LT$T$C$A$GT$11allocate_in17h29fe1f804abc0cc2E_251_, 2100
_ZN4core6option15Option$LT$T$GT$3map17h1a47d23c8837b815E_252_, 2101
_ZN6qrcode6canvas6Canvas15coords_to_index17h392521962941e573E_253_, 2102
_ZN3std2io5error5Error12raw_os_error17h18499eac9d8bea1cE_254_, 2103
_ZN6qrcode6canvas6Canvas15coords_to_index17h392521962941e573E_255_, 2104
_ZN5alloc7raw_vec19RawVec$LT$T$C$A$GT$11allocate_in17h29fe1f804abc0cc2E_256_, 2105
_ZN6qrcode6canvas6Canvas15coords_to_index17h392521962941e573E_257_, 2106
_ZN5alloc7raw_vec19RawVec$LT$T$C$A$GT$11allocate_in17h29fe1f804abc0cc2E_258_, 2107
_ZN4core6option15Option$LT$T$GT$3map17h1a47d23c8837b815E_259_, 2108
_ZN4core4iter6traits8iterator8Iterator4fold17had50487807a5fe23E_260_, 2109
_ZN4core4iter6traits8iterator8Iterator4fold17had50487807a5fe23E_261_, 2110
_ZN6qrcode6canvas14mask_functions16horizontal_lines17h0c5de493f21ce1a3E_262_, 2111
_ZN4core3ptr41drop_in_place$LT$std..io..error..Repr$GT$17haedb15029a9f36edE_263_, 2112
_ZN56_$LT$usize$u20$as$u20$core..iter..traits..accum..Sum$GT$3sum28_$u7b$$u7b$closure$u7d$$u7d$17h54dbf9b2464cbac5E_264_, 2113
_ZN56_$LT$i16$u20$as$u20$checked_int_cast..CheckedIntCast$GT$16as_usize_checked17hf8c27e538d0e444fE_265_, 2114
_ZN56_$LT$usize$u20$as$u20$core..iter..traits..accum..Sum$GT$3sum28_$u7b$$u7b$closure$u7d$$u7d$17h54dbf9b2464cbac5E_266_, 2115
_ZN6qrcode6canvas14mask_functions16horizontal_lines17h0c5de493f21ce1a3E_267_, 2116
_ZN6qrcode6canvas6Canvas15coords_to_index17h392521962941e573E_268_, 2117
_ZN4core3num23_$LT$impl$u20$usize$GT$11checked_add17h096d975beb745572E_269_, 2118
_ZN56_$LT$usize$u20$as$u20$core..iter..traits..accum..Sum$GT$3sum28_$u7b$$u7b$closure$u7d$$u7d$17h54dbf9b2464cbac5E_270_, 2119
_ZN80_$LT$core..option..Option$LT$T$GT$$u20$as$u20$qrcode..cast..ExpectOrOverflow$GT$18expect_or_overflow17h0299d77236c2d7f5E_271_, 2120
_ZN5alloc7raw_vec19RawVec$LT$T$C$A$GT$11allocate_in17h29fe1f804abc0cc2E_272_, 2121
_ZN6qrcode6canvas6Canvas15coords_to_index17h392521962941e573E_273_, 2122
_ZN6qrcode6canvas6Canvas15coords_to_index17h392521962941e573E_274_, 2123
_ZN6qrcode6canvas14mask_functions16horizontal_lines17h0c5de493f21ce1a3E_275_, 2124
_ZN5alloc7raw_vec19RawVec$LT$T$C$A$GT$11allocate_in17h29fe1f804abc0cc2E_276_, 2125
_ZN6qrcode6canvas6Canvas15coords_to_index17h392521962941e573E_277_, 2126
_ZN5alloc5alloc6Global10alloc_impl17h1f328160f76f12cfE_278_, 2127
_ZN5alloc5alloc6Global10alloc_impl17h1f328160f76f12cfE_279_, 2128
_ZN6qrcode6canvas6Canvas15coords_to_index17h392521962941e573E_280_, 2129
_ZN6qrcode6canvas6Canvas15coords_to_index17h392521962941e573E_281_, 2130
_ZN3std2io5error5Error12raw_os_error17hff19ab5eadf4189dE_282_, 2131
_ZN5alloc7raw_vec19RawVec$LT$T$C$A$GT$11allocate_in17h29fe1f804abc0cc2E_283_, 2132
_ZN47_$LT$u32$u20$as$u20$core..iter..range..Step$GT$17forward_unchecked17h0db0511b979a7ca8E_284_, 2133
_ZN6qrcode6canvas14mask_functions16horizontal_lines17h0c5de493f21ce1a3E_285_, 2134
_ZN75_$LT$core..option..Option$LT$T$GT$$u20$as$u20$core..ops..try_trait..Try$GT$6branch17h00056140ba3de476E_286_, 2135
_ZN5alloc5alloc6Global10alloc_impl17h1f328160f76f12cfE_287_, 2136
_ZN47_$LT$u32$u20$as$u20$core..iter..range..Step$GT$17forward_unchecked17h0db0511b979a7ca8E_288_, 2137
_ZN4core4iter6traits8iterator8Iterator4fold17had50487807a5fe23E_289_, 2138
_ZN56_$LT$i16$u20$as$u20$checked_int_cast..CheckedIntCast$GT$16as_usize_checked17hf8c27e538d0e444fE_290_, 2139
_ZN6qrcode6canvas6Canvas15coords_to_index17h392521962941e573E_291_, 2140
_ZN5alloc7raw_vec19RawVec$LT$T$C$A$GT$11allocate_in17h344cc4811a228da3E_292_, 2141
_ZN6qrcode6canvas6Canvas15coords_to_index17h392521962941e573E_293_, 2142
_ZN6qrcode6canvas6Canvas20draw_finder_patterns17hdd8f6522c27cb362E_294_, 2143
_ZN56_$LT$i16$u20$as$u20$checked_int_cast..CheckedIntCast$GT$16as_usize_checked17hf8c27e538d0e444fE_295_, 2144
_ZN4core3num23_$LT$impl$u20$usize$GT$11checked_add17h096d975beb745572E_296_, 2145
_ZN102_$LT$core..iter..adapters..cycle..Cycle$LT$I$GT$$u20$as$u20$core..iter..traits..iterator..Iterator$GT$9size_hint17hb562490e751a5104E_297_, 2146
_ZN4core4iter6traits8iterator8Iterator4fold17had50487807a5fe23E_298_, 2147
_ZN6qrcode6canvas14mask_functions16horizontal_lines17h0c5de493f21ce1a3E_299_, 2148
_ZN5alloc7raw_vec19RawVec$LT$T$C$A$GT$11allocate_in17h29fe1f804abc0cc2E_300_, 2149
_ZN77_$LT$alloc..raw_vec..RawVec$LT$T$C$A$GT$$u20$as$u20$core..ops..drop..Drop$GT$4drop17h7425ee577f6364a4E_301_, 2150
_ZN4core6option15Option$LT$T$GT$3map17h1a47d23c8837b815E_302_, 2151
_ZN4core3num23_$LT$impl$u20$usize$GT$11checked_add17h096d975beb745572E_303_, 2152
_ZN75_$LT$core..option..Option$LT$T$GT$$u20$as$u20$core..ops..try_trait..Try$GT$6branch17h00056140ba3de476E_304_, 2153
_ZN56_$LT$usize$u20$as$u20$core..iter..traits..accum..Sum$GT$3sum28_$u7b$$u7b$closure$u7d$$u7d$17h54dbf9b2464cbac5E_305_, 2154
_ZN6qrcode6canvas6Canvas15coords_to_index17h392521962941e573E_306_, 2155
_ZN56_$LT$i16$u20$as$u20$checked_int_cast..CheckedIntCast$GT$16as_usize_checked17hf8c27e538d0e444fE_307_, 2156
_ZN47_$LT$u32$u20$as$u20$core..iter..range..Step$GT$17forward_unchecked17h0db0511b979a7ca8E_308_, 2157
_ZN5alloc5alloc6Global10alloc_impl17h1f328160f76f12cfE_309_, 2158
_ZN3std2io5error5Error12raw_os_error17h18499eac9d8bea1cE_310_, 2159
_ZN5alloc5alloc6Global10alloc_impl17h1f328160f76f12cfE_311_, 2160
_ZN6qrcode6canvas6Canvas15coords_to_index17h392521962941e573E_312_, 2161
_ZN4core3num23_$LT$impl$u20$usize$GT$11checked_add17h096d975beb745572E_313_, 2162
_ZN56_$LT$i16$u20$as$u20$checked_int_cast..CheckedIntCast$GT$16as_usize_checked17hf8c27e538d0e444fE_314_, 2163
_ZN4core4iter6traits8iterator8Iterator4fold17had50487807a5fe23E_315_, 2164
_ZN4core6option15Option$LT$T$GT$3map17h1a47d23c8837b815E_316_, 2165
_ZN6qrcode6canvas14mask_functions16horizontal_lines17h0c5de493f21ce1a3E_317_, 2166
_ZN47_$LT$u32$u20$as$u20$core..iter..range..Step$GT$17forward_unchecked17h0db0511b979a7ca8E_318_, 2167
_ZN56_$LT$i16$u20$as$u20$checked_int_cast..CheckedIntCast$GT$16as_usize_checked17hf8c27e538d0e444fE_319_, 2168
_ZN6qrcode6canvas14mask_functions16horizontal_lines17h0c5de493f21ce1a3E_320_, 2169
_ZN5alloc5alloc6Global10alloc_impl17h1f328160f76f12cfE_321_, 2170
_ZN56_$LT$i16$u20$as$u20$checked_int_cast..CheckedIntCast$GT$16as_usize_checked17hf8c27e538d0e444fE_322_, 2171
_ZN5alloc5alloc6Global10alloc_impl17h1f328160f76f12cfE_323_, 2172
_ZN5alloc7raw_vec19RawVec$LT$T$C$A$GT$11allocate_in17h29fe1f804abc0cc2E_324_, 2173
_ZN5alloc5alloc6Global10alloc_impl17h1f328160f76f12cfE_325_, 2174
_ZN60_$LT$dyn$u20$rand_core..RngCore$u20$as$u20$std..io..Read$GT$4read17h91adfdc68e7ce606E_326_, 2175
_ZN5alloc5alloc6Global10alloc_impl17h1f328160f76f12cfE_327_, 2176
_ZN6qrcode6canvas14mask_functions16horizontal_lines17h0c5de493f21ce1a3E_328_, 2177
_ZN5alloc7raw_vec19RawVec$LT$T$C$A$GT$11allocate_in17h29fe1f804abc0cc2E_329_, 2178
_ZN4core4iter6traits8iterator8Iterator4fold17had50487807a5fe23E_330_, 2179
_ZN4core6option15Option$LT$T$GT$3map17h1a47d23c8837b815E_331_, 2180
_ZN6qrcode5types7Version8is_micro17hdb4237c14d4fb839E_332_, 2181
_ZN6qrcode6canvas6Canvas15coords_to_index17h392521962941e573E_333_, 2182
_ZN56_$LT$i16$u20$as$u20$checked_int_cast..CheckedIntCast$GT$16as_usize_checked17hf8c27e538d0e444fE_334_, 2183
_ZN56_$LT$i16$u20$as$u20$checked_int_cast..CheckedIntCast$GT$16as_usize_checked17hf8c27e538d0e444fE_335_, 2184
_ZN56_$LT$i16$u20$as$u20$checked_int_cast..CheckedIntCast$GT$16as_usize_checked17hf8c27e538d0e444fE_336_, 2185
_ZN4core3num23_$LT$impl$u20$usize$GT$11checked_add17h096d975beb745572E_337_, 2186
_ZN4core4iter6traits8iterator8Iterator4fold17had50487807a5fe23E_338_, 2187
_ZN5alloc5alloc6Global10alloc_impl17h1f328160f76f12cfE_339_, 2188
_ZN4core4iter6traits8iterator8Iterator4fold17had50487807a5fe23E_340_, 2189
_ZN56_$LT$i16$u20$as$u20$checked_int_cast..CheckedIntCast$GT$16as_usize_checked17hf8c27e538d0e444fE_341_, 2190
_ZN4core6option15Option$LT$T$GT$3map17h1a47d23c8837b815E_342_, 2191
_ZN4core3num23_$LT$impl$u20$usize$GT$11checked_add17h096d975beb745572E_343_, 2192
_ZN4core6option15Option$LT$T$GT$3map17h1a47d23c8837b815E_344_, 2193
_ZN56_$LT$i16$u20$as$u20$checked_int_cast..CheckedIntCast$GT$16as_usize_checked17hf8c27e538d0e444fE_345_, 2194
_ZN4core6option15Option$LT$T$GT$3map17h1a47d23c8837b815E_346_, 2195
_ZN5alloc7raw_vec19RawVec$LT$T$C$A$GT$14current_memory17hf63ae283156fbceeE_347_, 2196
_ZN5alloc7raw_vec19RawVec$LT$T$C$A$GT$11allocate_in17h29fe1f804abc0cc2E_348_, 2197
_ZN6qrcode6canvas14mask_functions16horizontal_lines17h0c5de493f21ce1a3E_349_, 2198
_ZN56_$LT$i16$u20$as$u20$checked_int_cast..CheckedIntCast$GT$16as_usize_checked17hf8c27e538d0e444fE_350_, 2199
_ZN4core4iter6traits8iterator8Iterator4fold17had50487807a5fe23E_351_, 2200
_ZN6qrcode6canvas6Canvas20draw_finder_patterns17hdd8f6522c27cb362E_352_, 2201
_ZN5alloc7raw_vec19RawVec$LT$T$C$A$GT$11allocate_in17h29fe1f804abc0cc2E_353_, 2202
_ZN56_$LT$i16$u20$as$u20$checked_int_cast..CheckedIntCast$GT$16as_usize_checked17hf8c27e538d0e444fE_354_, 2203
_ZN6qrcode6canvas6Canvas15coords_to_index17h392521962941e573E_355_, 2204
_ZN6qrcode6canvas14mask_functions16horizontal_lines17h0c5de493f21ce1a3E_356_, 2205
_ZN47_$LT$u32$u20$as$u20$core..iter..range..Step$GT$17forward_unchecked17h0db0511b979a7ca8E_357_, 2206
_ZN6qrcode6canvas6Canvas15coords_to_index17h392521962941e573E_358_, 2207
_ZN56_$LT$i16$u20$as$u20$checked_int_cast..CheckedIntCast$GT$16as_usize_checked17hf8c27e538d0e444fE_359_, 2208
_ZN5alloc5alloc6Global10alloc_impl17h1f328160f76f12cfE_360_, 2209
_ZN80_$LT$core..option..Option$LT$T$GT$$u20$as$u20$qrcode..cast..ExpectOrOverflow$GT$18expect_or_overflow17h0299d77236c2d7f5E_361_, 2210
_ZN56_$LT$i16$u20$as$u20$checked_int_cast..CheckedIntCast$GT$16as_usize_checked17hf8c27e538d0e444fE_362_, 2211
_ZN6qrcode6canvas14mask_functions16horizontal_lines17h0c5de493f21ce1a3E_363_, 2212
_ZN4core6option15Option$LT$T$GT$3map17h1a47d23c8837b815E_364_, 2213
_ZN6qrcode6canvas6Canvas15coords_to_index17h392521962941e573E_365_, 2214
_ZN6qrcode6canvas6Canvas15coords_to_index17h392521962941e573E_366_, 2215
_ZN80_$LT$core..option..Option$LT$T$GT$$u20$as$u20$qrcode..cast..ExpectOrOverflow$GT$18expect_or_overflow17h0299d77236c2d7f5E_367_, 2216
_ZN6qrcode6canvas6Canvas15coords_to_index17h392521962941e573E_368_, 2217
_ZN56_$LT$i16$u20$as$u20$checked_int_cast..CheckedIntCast$GT$16as_usize_checked17hf8c27e538d0e444fE_369_, 2218
_ZN5alloc7raw_vec19RawVec$LT$T$C$A$GT$11allocate_in17h29fe1f804abc0cc2E_370_, 2219
_ZN6qrcode6canvas6Canvas20draw_finder_patterns17hdd8f6522c27cb362E_371_, 2220
_ZN6qrcode6canvas6Canvas15coords_to_index17h392521962941e573E_372_, 2221
_ZN5alloc7raw_vec19RawVec$LT$T$C$A$GT$11allocate_in17h29fe1f804abc0cc2E_373_, 2222
_ZN6qrcode6canvas6Canvas15coords_to_index17h392521962941e573E_374_, 2223
_ZN47_$LT$u32$u20$as$u20$core..iter..range..Step$GT$17forward_unchecked17h0db0511b979a7ca8E_375_, 2224
_ZN5alloc5alloc6Global10alloc_impl17h1f328160f76f12cfE_376_, 2225
_ZN56_$LT$i16$u20$as$u20$checked_int_cast..CheckedIntCast$GT$16as_usize_checked17hf8c27e538d0e444fE_377_, 2226
_ZN6qrcode6canvas14mask_functions16horizontal_lines17h0c5de493f21ce1a3E_378_, 2227
_ZN4core6option15Option$LT$T$GT$3map17h1a47d23c8837b815E_379_, 2228
_ZN4core4iter6traits8iterator8Iterator4fold17had50487807a5fe23E_380_, 2229
_ZN4core3num23_$LT$impl$u20$usize$GT$11checked_add17h096d975beb745572E_381_, 2230
_ZN4core3num23_$LT$impl$u20$usize$GT$11checked_add17h096d975beb745572E_382_, 2231
_ZN47_$LT$u32$u20$as$u20$core..iter..range..Step$GT$17forward_unchecked17h0db0511b979a7ca8E_383_, 2232
_ZN4core4iter6traits8iterator8Iterator4fold17had50487807a5fe23E_384_, 2233
_ZN4core6option15Option$LT$T$GT$3map17h1a47d23c8837b815E_385_, 2234
_ZN5alloc5alloc6Global10alloc_impl17h1f328160f76f12cfE_386_, 2235
_ZN56_$LT$i16$u20$as$u20$checked_int_cast..CheckedIntCast$GT$16as_usize_checked17hf8c27e538d0e444fE_387_, 2236
_ZN4core6option15Option$LT$T$GT$3map17h1a47d23c8837b815E_388_, 2237
_ZN6qrcode6canvas14mask_functions16horizontal_lines17h0c5de493f21ce1a3E_389_, 2238
_ZN5alloc5alloc6Global10alloc_impl17h1f328160f76f12cfE_390_, 2239
_ZN5alloc7raw_vec19RawVec$LT$T$C$A$GT$11allocate_in17h29fe1f804abc0cc2E_391_, 2240
_ZN6qrcode6canvas6Canvas15coords_to_index17h392521962941e573E_392_, 2241
_ZN80_$LT$core..option..Option$LT$T$GT$$u20$as$u20$qrcode..cast..ExpectOrOverflow$GT$18expect_or_overflow17hcc565ad86b0a8398E_393_, 2242
_ZN4core6option15Option$LT$T$GT$3map17h1a47d23c8837b815E_394_, 2243
_ZN56_$LT$usize$u20$as$u20$core..iter..traits..accum..Sum$GT$3sum28_$u7b$$u7b$closure$u7d$$u7d$17h54dbf9b2464cbac5E_395_, 2244
_ZN4core4iter6traits8iterator8Iterator4fold17had50487807a5fe23E_396_, 2245
_ZN56_$LT$i16$u20$as$u20$checked_int_cast..CheckedIntCast$GT$16as_usize_checked17hf8c27e538d0e444fE_397_, 2246
_ZN56_$LT$i16$u20$as$u20$checked_int_cast..CheckedIntCast$GT$16as_usize_checked17hf8c27e538d0e444fE_398_, 2247
_ZN56_$LT$usize$u20$as$u20$core..iter..traits..accum..Sum$GT$3sum28_$u7b$$u7b$closure$u7d$$u7d$17h54dbf9b2464cbac5E_399_, 2248
_ZN56_$LT$i16$u20$as$u20$checked_int_cast..CheckedIntCast$GT$16as_usize_checked17hf8c27e538d0e444fE_400_, 2249
_ZN5alloc5alloc6Global10alloc_impl17h1f328160f76f12cfE_401_, 2250
_ZN6qrcode6canvas14mask_functions16horizontal_lines17h0c5de493f21ce1a3E_402_, 2251
_ZN4core4iter6traits8iterator8Iterator4fold17had50487807a5fe23E_403_, 2252
_ZN6qrcode6canvas6Canvas15coords_to_index17h392521962941e573E_404_, 2253
_ZN4core6option15Option$LT$T$GT$3map17h1a47d23c8837b815E_405_, 2254
_ZN5alloc5alloc6Global10alloc_impl17h1f328160f76f12cfE_406_, 2255
_ZN6qrcode6canvas6Canvas15coords_to_index17h392521962941e573E_407_, 2256
_ZN56_$LT$i16$u20$as$u20$checked_int_cast..CheckedIntCast$GT$16as_usize_checked17hf8c27e538d0e444fE_408_, 2257
_ZN56_$LT$i16$u20$as$u20$checked_int_cast..CheckedIntCast$GT$16as_usize_checked17hf8c27e538d0e444fE_409_, 2258
_ZN4core6option15Option$LT$T$GT$3map17h1a47d23c8837b815E_410_, 2259
_ZN6qrcode6canvas14mask_functions16horizontal_lines17h0c5de493f21ce1a3E_411_, 2260
_ZN56_$LT$i16$u20$as$u20$checked_int_cast..CheckedIntCast$GT$16as_usize_checked17hf8c27e538d0e444fE_412_, 2261
_ZN5alloc5alloc6Global10alloc_impl17h1f328160f76f12cfE_413_, 2262
_ZN47_$LT$u32$u20$as$u20$core..iter..range..Step$GT$17forward_unchecked17h0db0511b979a7ca8E_414_, 2263
_ZN6qrcode6canvas6Canvas15coords_to_index17h392521962941e573E_415_, 2264
_ZN4core6option15Option$LT$T$GT$3map17h1a47d23c8837b815E_416_, 2265
_ZN5alloc5alloc6Global10alloc_impl17h1f328160f76f12cfE_417_, 2266
_ZN56_$LT$i16$u20$as$u20$checked_int_cast..CheckedIntCast$GT$16as_usize_checked17hf8c27e538d0e444fE_418_, 2267
_ZN5alloc5alloc6Global10alloc_impl17h1f328160f76f12cfE_419_, 2268
_ZN5alloc5alloc6Global10alloc_impl17h1f328160f76f12cfE_420_, 2269
_ZN56_$LT$i16$u20$as$u20$checked_int_cast..CheckedIntCast$GT$16as_usize_checked17hf8c27e538d0e444fE_421_, 2270
_ZN6qrcode6canvas6Canvas15coords_to_index17h392521962941e573E_422_, 2271
_ZN4core6option15Option$LT$T$GT$3map17h1a47d23c8837b815E_423_, 2272
_ZN3std2io5error5Error12raw_os_error17hff19ab5eadf4189dE_424_, 2273
_ZN6qrcode6canvas6Canvas15coords_to_index17h392521962941e573E_425_, 2274
_ZN6qrcode6canvas6Canvas15coords_to_index17h392521962941e573E_426_, 2275
_ZN102_$LT$core..iter..adapters..cycle..Cycle$LT$I$GT$$u20$as$u20$core..iter..traits..iterator..Iterator$GT$9size_hint17hb562490e751a5104E_427_, 2276
_ZN6qrcode6canvas6Canvas15coords_to_index17h392521962941e573E_428_, 2277
_ZN5alloc7raw_vec19RawVec$LT$T$C$A$GT$11allocate_in17h29fe1f804abc0cc2E_429_, 2278
_ZN5alloc5alloc6Global10alloc_impl17h1f328160f76f12cfE_430_, 2279
_ZN4core6option15Option$LT$T$GT$3map17h1a47d23c8837b815E_431_, 2280
_ZN6qrcode6canvas6Canvas15coords_to_index17h392521962941e573E_432_, 2281
_ZN5alloc7raw_vec19RawVec$LT$T$C$A$GT$11allocate_in17h29fe1f804abc0cc2E_433_, 2282
_ZN47_$LT$u32$u20$as$u20$core..iter..range..Step$GT$17forward_unchecked17h0db0511b979a7ca8E_434_, 2283
_ZN4core6option15Option$LT$T$GT$3map17h1a47d23c8837b815E_435_, 2284
_ZN6qrcode6canvas6Canvas15coords_to_index17h392521962941e573E_436_, 2285
_ZN4core4iter6traits8iterator8Iterator4fold17had50487807a5fe23E_437_, 2286
_ZN4core4iter6traits8iterator8Iterator4fold17had50487807a5fe23E_438_, 2287
_ZN6qrcode6canvas14mask_functions16horizontal_lines17h0c5de493f21ce1a3E_439_, 2288
_ZN6qrcode6canvas14mask_functions16horizontal_lines17h0c5de493f21ce1a3E_440_, 2289
_ZN56_$LT$usize$u20$as$u20$core..iter..traits..accum..Sum$GT$3sum28_$u7b$$u7b$closure$u7d$$u7d$17h54dbf9b2464cbac5E_441_, 2290
_ZN6qrcode6canvas14mask_functions16horizontal_lines17h0c5de493f21ce1a3E_442_, 2291
_ZN6qrcode6canvas6Canvas15coords_to_index17h392521962941e573E_443_, 2292
_ZN6qrcode6canvas6Canvas15coords_to_index17h392521962941e573E_444_, 2293
_ZN5alloc7raw_vec19RawVec$LT$T$C$A$GT$11allocate_in17h29fe1f804abc0cc2E_445_, 2294
_ZN5alloc5alloc6Global10alloc_impl17h1f328160f76f12cfE_446_, 2295
_ZN5alloc7raw_vec19RawVec$LT$T$C$A$GT$11allocate_in17h29fe1f804abc0cc2E_447_, 2296
_ZN4core3num23_$LT$impl$u20$usize$GT$11checked_add17h096d975beb745572E_448_, 2297
_ZN4core4iter6traits8iterator8Iterator4fold17had50487807a5fe23E_449_, 2298
_ZN6qrcode6canvas6Canvas15coords_to_index17h392521962941e573E_450_, 2299
_ZN3std2io5error5Error12raw_os_error17h18499eac9d8bea1cE_451_, 2300
_ZN6qrcode6canvas14mask_functions16horizontal_lines17h0c5de493f21ce1a3E_452_, 2301
_ZN56_$LT$i16$u20$as$u20$checked_int_cast..CheckedIntCast$GT$16as_usize_checked17hf8c27e538d0e444fE_453_, 2302
_ZN6qrcode6canvas14mask_functions16horizontal_lines17h0c5de493f21ce1a3E_454_, 2303
_ZN75_$LT$core..option..Option$LT$T$GT$$u20$as$u20$core..ops..try_trait..Try$GT$6branch17h00056140ba3de476E_455_, 2304
_ZN56_$LT$i16$u20$as$u20$checked_int_cast..CheckedIntCast$GT$16as_usize_checked17hf8c27e538d0e444fE_456_, 2305
_ZN56_$LT$i16$u20$as$u20$checked_int_cast..CheckedIntCast$GT$16as_usize_checked17hf8c27e538d0e444fE_457_, 2306
_ZN5alloc7raw_vec19RawVec$LT$T$C$A$GT$11allocate_in17h344cc4811a228da3E_458_, 2307
_ZN5alloc7raw_vec19RawVec$LT$T$C$A$GT$11allocate_in17h29fe1f804abc0cc2E_459_, 2308
_ZN4core4iter6traits8iterator8Iterator4fold17had50487807a5fe23E_460_, 2309
_ZN5alloc5alloc6Global10alloc_impl17h1f328160f76f12cfE_461_, 2310
_ZN6qrcode6canvas14mask_functions16horizontal_lines17h0c5de493f21ce1a3E_462_, 2311
_ZN4core6option15Option$LT$T$GT$3map17h1a47d23c8837b815E_463_, 2312
_ZN56_$LT$i16$u20$as$u20$checked_int_cast..CheckedIntCast$GT$16as_usize_checked17hf8c27e538d0e444fE_464_, 2313
_ZN4core6option15Option$LT$T$GT$3map17h1a47d23c8837b815E_465_, 2314
_ZN5alloc7raw_vec19RawVec$LT$T$C$A$GT$11allocate_in17h29fe1f804abc0cc2E_466_, 2315
_ZN6qrcode6canvas6Canvas15coords_to_index17h392521962941e573E_467_, 2316
_ZN6qrcode6canvas6Canvas15coords_to_index17h392521962941e573E_468_, 2317
_ZN56_$LT$usize$u20$as$u20$core..iter..traits..accum..Sum$GT$3sum28_$u7b$$u7b$closure$u7d$$u7d$17h54dbf9b2464cbac5E_469_, 2318
_ZN5alloc7raw_vec19RawVec$LT$T$C$A$GT$11allocate_in17h29fe1f804abc0cc2E_470_, 2319
_ZN56_$LT$i16$u20$as$u20$checked_int_cast..CheckedIntCast$GT$16as_usize_checked17hf8c27e538d0e444fE_471_, 2320
_ZN4core6option15Option$LT$T$GT$3map17h1a47d23c8837b815E_472_, 2321
_ZN4core6option15Option$LT$T$GT$3map17h1a47d23c8837b815E_473_, 2322
_ZN4core6option15Option$LT$T$GT$3map17h1a47d23c8837b815E_474_, 2323
_ZN4core4iter6traits8iterator8Iterator4fold17had50487807a5fe23E_475_, 2324
_ZN80_$LT$core..option..Option$LT$T$GT$$u20$as$u20$qrcode..cast..ExpectOrOverflow$GT$18expect_or_overflow17hcc565ad86b0a8398E_476_, 2325
_ZN56_$LT$i16$u20$as$u20$checked_int_cast..CheckedIntCast$GT$16as_usize_checked17hf8c27e538d0e444fE_477_, 2326
_ZN80_$LT$core..option..Option$LT$T$GT$$u20$as$u20$qrcode..cast..ExpectOrOverflow$GT$18expect_or_overflow17h0299d77236c2d7f5E_478_, 2327
_ZN4core4iter6traits8iterator8Iterator4fold17had50487807a5fe23E_479_, 2328
_ZN4core6option15Option$LT$T$GT$3map17h1a47d23c8837b815E_480_, 2329
_ZN75_$LT$core..option..Option$LT$T$GT$$u20$as$u20$core..ops..try_trait..Try$GT$6branch17h00056140ba3de476E_481_, 2330
_ZN56_$LT$i16$u20$as$u20$checked_int_cast..CheckedIntCast$GT$16as_usize_checked17hf8c27e538d0e444fE_482_, 2331
_ZN6qrcode6canvas6Canvas15coords_to_index17h392521962941e573E_483_, 2332
_ZN5alloc5alloc6Global10alloc_impl17h1f328160f76f12cfE_484_, 2333
_ZN6qrcode6canvas6Canvas15coords_to_index17h392521962941e573E_485_, 2334
_ZN77_$LT$alloc..raw_vec..RawVec$LT$T$C$A$GT$$u20$as$u20$core..ops..drop..Drop$GT$4drop17h7425ee577f6364a4E_486_, 2335
_ZN6qrcode6canvas6Canvas15coords_to_index17h392521962941e573E_487_, 2336
_ZN6qrcode6canvas6Canvas15coords_to_index17h392521962941e573E_488_, 2337
_ZN5alloc7raw_vec19RawVec$LT$T$C$A$GT$11allocate_in17h29fe1f804abc0cc2E_489_, 2338
_ZN6qrcode6canvas14mask_functions16horizontal_lines17h0c5de493f21ce1a3E_490_, 2339
_ZN6qrcode6canvas6Canvas15coords_to_index17h392521962941e573E_491_, 2340
_ZN6qrcode6canvas6Canvas15coords_to_index17h392521962941e573E_492_, 2341
_ZN6qrcode6canvas6Canvas15coords_to_index17h392521962941e573E_493_, 2342
_ZN4core3num23_$LT$impl$u20$usize$GT$11checked_add17h096d975beb745572E_494_, 2343
_ZN6qrcode6canvas6Canvas20draw_finder_patterns17hdd8f6522c27cb362E_495_, 2344
_ZN5alloc7raw_vec19RawVec$LT$T$C$A$GT$11allocate_in17h29fe1f804abc0cc2E_496_, 2345
_ZN56_$LT$i16$u20$as$u20$checked_int_cast..CheckedIntCast$GT$16as_usize_checked17hf8c27e538d0e444fE_497_, 2346
_ZN4core6option15Option$LT$T$GT$3map17h1a47d23c8837b815E_498_, 2347
_ZN56_$LT$i16$u20$as$u20$checked_int_cast..CheckedIntCast$GT$16as_usize_checked17hf8c27e538d0e444fE_499_, 2348
_ZN56_$LT$usize$u20$as$u20$core..iter..traits..accum..Sum$GT$3sum28_$u7b$$u7b$closure$u7d$$u7d$17h54dbf9b2464cbac5E_500_, 2349
_ZN5alloc5alloc6Global10alloc_impl17h1f328160f76f12cfE_501_, 2350
_ZN5alloc7raw_vec19RawVec$LT$T$C$A$GT$11allocate_in17h29fe1f804abc0cc2E_502_, 2351
_ZN56_$LT$i16$u20$as$u20$checked_int_cast..CheckedIntCast$GT$16as_usize_checked17hf8c27e538d0e444fE_503_, 2352
_ZN6qrcode6canvas6Canvas15coords_to_index17h392521962941e573E_504_, 2353
_ZN4core4iter6traits8iterator8Iterator4fold17had50487807a5fe23E_505_, 2354
_ZN6qrcode6canvas6Canvas20draw_finder_patterns17hdd8f6522c27cb362E_506_, 2355
_ZN5alloc7raw_vec19RawVec$LT$T$C$A$GT$11allocate_in17h344cc4811a228da3E_507_, 2356
_ZN6qrcode6canvas14mask_functions16horizontal_lines17h0c5de493f21ce1a3E_508_, 2357
_ZN5alloc5alloc6Global10alloc_impl17h1f328160f76f12cfE_509_, 2358
_ZN4core6option15Option$LT$T$GT$3map17h1a47d23c8837b815E_510_, 2359
_ZN6qrcode6canvas14mask_functions16horizontal_lines17h0c5de493f21ce1a3E_511_, 2360
_ZN4core6option15Option$LT$T$GT$3map17h1a47d23c8837b815E_512_, 2361
_ZN6qrcode6canvas14mask_functions16horizontal_lines17h0c5de493f21ce1a3E_513_, 2362
_ZN4core10intrinsics19copy_nonoverlapping17hd9866c2fcb327602E_514_, 2363
_ZN56_$LT$i16$u20$as$u20$checked_int_cast..CheckedIntCast$GT$16as_usize_checked17hf8c27e538d0e444fE_515_, 2364
_ZN5alloc7raw_vec19RawVec$LT$T$C$A$GT$11allocate_in17h29fe1f804abc0cc2E_516_, 2365
_ZN6qrcode6canvas6Canvas15coords_to_index17h392521962941e573E_517_, 2366
_ZN6qrcode6canvas14mask_functions16horizontal_lines17h0c5de493f21ce1a3E_518_, 2367
_ZN56_$LT$i16$u20$as$u20$checked_int_cast..CheckedIntCast$GT$16as_usize_checked17hf8c27e538d0e444fE_519_, 2368
_ZN77_$LT$alloc..raw_vec..RawVec$LT$T$C$A$GT$$u20$as$u20$core..ops..drop..Drop$GT$4drop17h2653c8de238d7e6bE_520_, 2369
_ZN4core3num23_$LT$impl$u20$usize$GT$11checked_add17h096d975beb745572E_521_, 2370
_ZN6qrcode6canvas14mask_functions16horizontal_lines17h0c5de493f21ce1a3E_522_, 2371
_ZN6qrcode6canvas6Canvas20draw_finder_patterns17hdd8f6522c27cb362E_523_, 2372
_ZN80_$LT$core..option..Option$LT$T$GT$$u20$as$u20$qrcode..cast..ExpectOrOverflow$GT$18expect_or_overflow17hcc565ad86b0a8398E_524_, 2373
_ZN4core3num23_$LT$impl$u20$usize$GT$11checked_add17h096d975beb745572E_525_, 2374
_ZN60_$LT$dyn$u20$rand_core..RngCore$u20$as$u20$std..io..Read$GT$4read17h91adfdc68e7ce606E_526_, 2375
_ZN4core3num23_$LT$impl$u20$usize$GT$11checked_add17h096d975beb745572E_527_, 2376
_ZN4core6option15Option$LT$T$GT$3map17h1a47d23c8837b815E_528_, 2377
_ZN4core4iter6traits8iterator8Iterator4fold17had50487807a5fe23E_529_, 2378
_ZN6qrcode6canvas14mask_functions16horizontal_lines17h0c5de493f21ce1a3E_530_, 2379
_ZN56_$LT$usize$u20$as$u20$core..iter..traits..accum..Sum$GT$3sum28_$u7b$$u7b$closure$u7d$$u7d$17h54dbf9b2464cbac5E_531_, 2380
_ZN5alloc7raw_vec19RawVec$LT$T$C$A$GT$11allocate_in17h29fe1f804abc0cc2E_532_, 2381
_ZN5alloc7raw_vec19RawVec$LT$T$C$A$GT$11allocate_in17h29fe1f804abc0cc2E_533_, 2382
_ZN6qrcode5types7Version8is_micro17hdb4237c14d4fb839E_534_, 2383
_ZN6qrcode6canvas6Canvas15coords_to_index17h392521962941e573E_535_, 2384
_ZN6qrcode6canvas14mask_functions16horizontal_lines17h0c5de493f21ce1a3E_536_, 2385
_ZN6qrcode6canvas14mask_functions16horizontal_lines17h0c5de493f21ce1a3E_537_, 2386
_ZN6qrcode6canvas6Canvas15coords_to_index17h392521962941e573E_538_, 2387
_ZN56_$LT$i16$u20$as$u20$checked_int_cast..CheckedIntCast$GT$16as_usize_checked17hf8c27e538d0e444fE_539_, 2388
_ZN5alloc5alloc6Global10alloc_impl17h1f328160f76f12cfE_540_, 2389
_ZN4core4iter6traits8iterator8Iterator4fold17had50487807a5fe23E_541_, 2390
_ZN6qrcode6canvas6Canvas15coords_to_index17h392521962941e573E_542_, 2391
_ZN60_$LT$dyn$u20$rand_core..RngCore$u20$as$u20$std..io..Read$GT$4read17h91adfdc68e7ce606E_543_, 2392
_ZN6qrcode6canvas6Canvas15coords_to_index17h392521962941e573E_544_, 2393
_ZN5alloc7raw_vec19RawVec$LT$T$C$A$GT$11allocate_in17h29fe1f804abc0cc2E_545_, 2394
_ZN4core6option15Option$LT$T$GT$3map17h1a47d23c8837b815E_546_, 2395
_ZN4core6option15Option$LT$T$GT$3map17h1a47d23c8837b815E_547_, 2396
_ZN56_$LT$i16$u20$as$u20$checked_int_cast..CheckedIntCast$GT$16as_usize_checked17hf8c27e538d0e444fE_548_, 2397
_ZN4core4iter6traits8iterator8Iterator4fold17had50487807a5fe23E_549_, 2398
_ZN6qrcode6canvas6Canvas15coords_to_index17h392521962941e573E_550_, 2399
_ZN5alloc7raw_vec19RawVec$LT$T$C$A$GT$11allocate_in17h29fe1f804abc0cc2E_551_, 2400
_ZN6qrcode6canvas6Canvas15coords_to_index17h392521962941e573E_552_, 2401
_ZN6qrcode6canvas14mask_functions16horizontal_lines17h0c5de493f21ce1a3E_553_, 2402
_ZN56_$LT$char$u20$as$u20$qrcode..render..string..Element$GT$13default_color17hc33573a548f8f261E_554_, 2403
_ZN6qrcode6canvas6Canvas15coords_to_index17h392521962941e573E_555_, 2404
_ZN6qrcode6canvas14mask_functions16horizontal_lines17h0c5de493f21ce1a3E_556_, 2405
_ZN6qrcode6canvas14mask_functions16horizontal_lines17h0c5de493f21ce1a3E_557_, 2406
_ZN6qrcode6canvas6Canvas20draw_finder_patterns17hdd8f6522c27cb362E_558_, 2407
_ZN80_$LT$core..option..Option$LT$T$GT$$u20$as$u20$qrcode..cast..ExpectOrOverflow$GT$18expect_or_overflow17h0299d77236c2d7f5E_559_, 2408
_ZN5alloc7raw_vec19RawVec$LT$T$C$A$GT$11allocate_in17h29fe1f804abc0cc2E_560_, 2409
_ZN6qrcode6canvas6Canvas15coords_to_index17h392521962941e573E_561_, 2410
_ZN4core6option15Option$LT$T$GT$3map17h1a47d23c8837b815E_562_, 2411
_ZN4core6option15Option$LT$T$GT$3map17h1a47d23c8837b815E_563_, 2412
_ZN6qrcode6canvas14mask_functions16horizontal_lines17h0c5de493f21ce1a3E_564_, 2413
_ZN6qrcode6canvas6Canvas20draw_finder_patterns17hdd8f6522c27cb362E_565_, 2414
_ZN6qrcode6canvas6Canvas15coords_to_index17h392521962941e573E_566_, 2415
_ZN6qrcode6canvas6Canvas15coords_to_index17h392521962941e573E_567_, 2416
_ZN4core6option15Option$LT$T$GT$3map17h1a47d23c8837b815E_568_, 2417
_ZN56_$LT$i16$u20$as$u20$checked_int_cast..CheckedIntCast$GT$16as_usize_checked17hf8c27e538d0e444fE_569_, 2418
_ZN56_$LT$i16$u20$as$u20$checked_int_cast..CheckedIntCast$GT$16as_usize_checked17hf8c27e538d0e444fE_570_, 2419
_ZN4core4iter6traits8iterator8Iterator4fold17had50487807a5fe23E_571_, 2420
_ZN6qrcode6canvas6Canvas15coords_to_index17h392521962941e573E_572_, 2421
_ZN4core3num23_$LT$impl$u20$usize$GT$11checked_add17h096d975beb745572E_573_, 2422
_ZN56_$LT$i16$u20$as$u20$checked_int_cast..CheckedIntCast$GT$16as_usize_checked17hf8c27e538d0e444fE_574_, 2423
_ZN5alloc5alloc6Global10alloc_impl17h1f328160f76f12cfE_575_, 2424
_ZN6qrcode6canvas6Canvas15coords_to_index17h392521962941e573E_576_, 2425
_ZN4core3num23_$LT$impl$u20$usize$GT$11checked_add17h096d975beb745572E_577_, 2426
_ZN4core6option15Option$LT$T$GT$3map17h1a47d23c8837b815E_578_, 2427
_ZN5alloc7raw_vec19RawVec$LT$T$C$A$GT$11allocate_in17h29fe1f804abc0cc2E_579_, 2428
_ZN56_$LT$i16$u20$as$u20$checked_int_cast..CheckedIntCast$GT$16as_usize_checked17hf8c27e538d0e444fE_580_, 2429
_ZN6qrcode6canvas6Canvas15coords_to_index17h392521962941e573E_581_, 2430
_ZN4core6option15Option$LT$T$GT$3map17h1a47d23c8837b815E_582_, 2431
_ZN4core4iter6traits8iterator8Iterator4fold17had50487807a5fe23E_583_, 2432
_ZN5alloc5alloc6Global10alloc_impl17h1f328160f76f12cfE_584_, 2433
_ZN56_$LT$i16$u20$as$u20$checked_int_cast..CheckedIntCast$GT$16as_usize_checked17hf8c27e538d0e444fE_585_, 2434
_ZN5alloc7raw_vec19RawVec$LT$T$C$A$GT$11allocate_in17h29fe1f804abc0cc2E_586_, 2435
_ZN6qrcode6canvas6Canvas15coords_to_index17h392521962941e573E_587_, 2436
_ZN6qrcode6canvas6Canvas15coords_to_index17h392521962941e573E_588_, 2437
_ZN4core6option15Option$LT$T$GT$3map17h1a47d23c8837b815E_589_, 2438
_ZN56_$LT$i16$u20$as$u20$checked_int_cast..CheckedIntCast$GT$16as_usize_checked17hf8c27e538d0e444fE_590_, 2439
_ZN6qrcode6canvas14mask_functions16horizontal_lines17h0c5de493f21ce1a3E_591_, 2440
_ZN4core6option15Option$LT$T$GT$3map17h1a47d23c8837b815E_592_, 2441
_ZN56_$LT$i16$u20$as$u20$checked_int_cast..CheckedIntCast$GT$16as_usize_checked17hf8c27e538d0e444fE_593_, 2442
_ZN6qrcode6canvas14mask_functions16horizontal_lines17h0c5de493f21ce1a3E_594_, 2443
_ZN6qrcode6canvas14mask_functions16horizontal_lines17h0c5de493f21ce1a3E_595_, 2444
_ZN4core10intrinsics19copy_nonoverlapping17hd9866c2fcb327602E_596_, 2445
_ZN5alloc7raw_vec19RawVec$LT$T$C$A$GT$11allocate_in17h29fe1f804abc0cc2E_597_, 2446
_ZN6qrcode6canvas14mask_functions16horizontal_lines17h0c5de493f21ce1a3E_598_, 2447
_ZN60_$LT$dyn$u20$rand_core..RngCore$u20$as$u20$std..io..Read$GT$4read17h91adfdc68e7ce606E_599_, 2448
_ZN6qrcode6canvas14mask_functions16horizontal_lines17h0c5de493f21ce1a3E_600_, 2449
_ZN4core4iter6traits8iterator8Iterator4fold17had50487807a5fe23E_601_, 2450
_ZN5alloc7raw_vec19RawVec$LT$T$C$A$GT$11allocate_in17h29fe1f804abc0cc2E_602_, 2451
_ZN4core4iter6traits8iterator8Iterator4fold17had50487807a5fe23E_603_, 2452
_ZN4core6option15Option$LT$T$GT$3map17h1a47d23c8837b815E_604_, 2453
_ZN5alloc7raw_vec19RawVec$LT$T$C$A$GT$11allocate_in17h29fe1f804abc0cc2E_605_, 2454
_ZN6qrcode6canvas6Canvas15coords_to_index17h392521962941e573E_606_, 2455
_ZN6qrcode6canvas14mask_functions16horizontal_lines17h0c5de493f21ce1a3E_607_, 2456
_ZN56_$LT$i16$u20$as$u20$checked_int_cast..CheckedIntCast$GT$16as_usize_checked17hf8c27e538d0e444fE_608_, 2457
_ZN6qrcode6canvas6Canvas15coords_to_index17h392521962941e573E_609_, 2458
_ZN56_$LT$usize$u20$as$u20$core..iter..traits..accum..Sum$GT$3sum28_$u7b$$u7b$closure$u7d$$u7d$17h54dbf9b2464cbac5E_610_, 2459
_ZN5alloc7raw_vec19RawVec$LT$T$C$A$GT$11allocate_in17h29fe1f804abc0cc2E_611_, 2460
_ZN4core4iter6traits8iterator8Iterator4fold17had50487807a5fe23E_612_, 2461
_ZN4core6option15Option$LT$T$GT$3map17h1a47d23c8837b815E_613_, 2462
_ZN4core6option15Option$LT$T$GT$3map17h1a47d23c8837b815E_614_, 2463
_ZN47_$LT$u32$u20$as$u20$core..iter..range..Step$GT$17forward_unchecked17h0db0511b979a7ca8E_615_, 2464
_ZN6qrcode6canvas14mask_functions16horizontal_lines17h0c5de493f21ce1a3E_616_, 2465
_ZN6qrcode5types7Version8is_micro17hdb4237c14d4fb839E_617_, 2466
_ZN56_$LT$i16$u20$as$u20$checked_int_cast..CheckedIntCast$GT$16as_usize_checked17hf8c27e538d0e444fE_618_, 2467
_ZN5alloc7raw_vec19RawVec$LT$T$C$A$GT$11allocate_in17h29fe1f804abc0cc2E_619_, 2468
_ZN56_$LT$i16$u20$as$u20$checked_int_cast..CheckedIntCast$GT$16as_usize_checked17hf8c27e538d0e444fE_620_, 2469
_ZN5alloc7raw_vec19RawVec$LT$T$C$A$GT$11allocate_in17h29fe1f804abc0cc2E_621_, 2470
_ZN6qrcode6canvas14mask_functions16horizontal_lines17h0c5de493f21ce1a3E_622_, 2471
_ZN6qrcode6canvas6Canvas15coords_to_index17h392521962941e573E_623_, 2472
_ZN5alloc5alloc6Global10alloc_impl17h1f328160f76f12cfE_624_, 2473
_ZN4core4iter6traits8iterator8Iterator4fold17had50487807a5fe23E_625_, 2474
_ZN5alloc5alloc6Global10alloc_impl17h1f328160f76f12cfE_626_, 2475
_ZN6qrcode6canvas14mask_functions16horizontal_lines17h0c5de493f21ce1a3E_627_, 2476
_ZN5alloc7raw_vec19RawVec$LT$T$C$A$GT$11allocate_in17h29fe1f804abc0cc2E_628_, 2477
_ZN6qrcode6canvas14mask_functions16horizontal_lines17h0c5de493f21ce1a3E_629_, 2478
_ZN6qrcode6canvas14mask_functions16horizontal_lines17h0c5de493f21ce1a3E_630_, 2479
_ZN6qrcode6canvas14mask_functions16horizontal_lines17h0c5de493f21ce1a3E_631_, 2480
_ZN56_$LT$i16$u20$as$u20$checked_int_cast..CheckedIntCast$GT$16as_usize_checked17hf8c27e538d0e444fE_632_, 2481
_ZN6qrcode6canvas14mask_functions16horizontal_lines17h0c5de493f21ce1a3E_633_, 2482
_ZN4core6option15Option$LT$T$GT$3map17h1a47d23c8837b815E_634_, 2483
_ZN4core4iter6traits8iterator8Iterator4fold17had50487807a5fe23E_635_, 2484
_ZN56_$LT$i16$u20$as$u20$checked_int_cast..CheckedIntCast$GT$16as_usize_checked17hf8c27e538d0e444fE_636_, 2485
_ZN56_$LT$i16$u20$as$u20$checked_int_cast..CheckedIntCast$GT$16as_usize_checked17hf8c27e538d0e444fE_637_, 2486
_ZN106_$LT$core..ops..range..Range$LT$usize$GT$$u20$as$u20$core..slice..index..SliceIndex$LT$$u5b$T$u5d$$GT$$GT$9index_mut17h9c4f94c3b03aa397E_638_, 2487
_ZN4core3num23_$LT$impl$u20$usize$GT$11checked_add17h096d975beb745572E_639_, 2488
_ZN56_$LT$usize$u20$as$u20$core..iter..traits..accum..Sum$GT$3sum28_$u7b$$u7b$closure$u7d$$u7d$17h54dbf9b2464cbac5E_640_, 2489
_ZN4core4iter6traits8iterator8Iterator4fold17had50487807a5fe23E_641_, 2490
_ZN4core6option15Option$LT$T$GT$3map17h1a47d23c8837b815E_642_, 2491
_ZN6qrcode6canvas6Canvas20draw_finder_patterns17hdd8f6522c27cb362E_643_, 2492
_ZN56_$LT$i16$u20$as$u20$checked_int_cast..CheckedIntCast$GT$16as_usize_checked17hf8c27e538d0e444fE_644_, 2493
_ZN6qrcode6canvas14mask_functions16horizontal_lines17h0c5de493f21ce1a3E_645_, 2494
_ZN6qrcode6canvas6Canvas15coords_to_index17h392521962941e573E_646_, 2495
_ZN56_$LT$i16$u20$as$u20$checked_int_cast..CheckedIntCast$GT$16as_usize_checked17hf8c27e538d0e444fE_647_, 2496
_ZN4core3num23_$LT$impl$u20$usize$GT$11checked_add17h096d975beb745572E_648_, 2497
_ZN4core6option15Option$LT$T$GT$3map17h1a47d23c8837b815E_649_, 2498
_ZN80_$LT$core..option..Option$LT$T$GT$$u20$as$u20$qrcode..cast..ExpectOrOverflow$GT$18expect_or_overflow17h0299d77236c2d7f5E_650_, 2499
_ZN6qrcode6canvas6Canvas15coords_to_index17h392521962941e573E_651_, 2500
_ZN6qrcode6canvas6Canvas15coords_to_index17h392521962941e573E_652_, 2501
_ZN56_$LT$i16$u20$as$u20$checked_int_cast..CheckedIntCast$GT$16as_usize_checked17hf8c27e538d0e444fE_653_, 2502
_ZN5alloc5alloc6Global10alloc_impl17h1f328160f76f12cfE_654_, 2503
_ZN75_$LT$core..option..Option$LT$T$GT$$u20$as$u20$core..ops..try_trait..Try$GT$6branch17h00056140ba3de476E_655_, 2504
_ZN4core4iter6traits8iterator8Iterator4fold17had50487807a5fe23E_656_, 2505
_ZN4core6option15Option$LT$T$GT$3map17h1a47d23c8837b815E_657_, 2506
_ZN4core6option15Option$LT$T$GT$3map17h1a47d23c8837b815E_658_, 2507
_ZN5alloc5alloc6Global10alloc_impl17h1f328160f76f12cfE_659_, 2508
_ZN60_$LT$qrcode..types..Mode$u20$as$u20$core..cmp..PartialEq$GT$2eq17ha263fa5e4af74859E_660_, 2509
_ZN4core3ptr41drop_in_place$LT$std..io..error..Repr$GT$17haedb15029a9f36edE_661_, 2510
_ZN4core6option15Option$LT$T$GT$3map17h1a47d23c8837b815E_662_, 2511
_ZN4core6option15Option$LT$T$GT$3map17h1a47d23c8837b815E_663_, 2512
_ZN5alloc7raw_vec19RawVec$LT$T$C$A$GT$11allocate_in17h29fe1f804abc0cc2E_664_, 2513
_ZN80_$LT$core..option..Option$LT$T$GT$$u20$as$u20$qrcode..cast..ExpectOrOverflow$GT$18expect_or_overflow17hcc565ad86b0a8398E_665_, 2514
_ZN56_$LT$char$u20$as$u20$qrcode..render..string..Element$GT$13default_color17hc33573a548f8f261E_666_, 2515
_ZN3std2io5error5Error12raw_os_error17hff19ab5eadf4189dE_667_, 2516
_ZN60_$LT$dyn$u20$rand_core..RngCore$u20$as$u20$std..io..Read$GT$4read17h91adfdc68e7ce606E_668_, 2517
_ZN56_$LT$char$u20$as$u20$qrcode..render..string..Element$GT$13default_color17hc33573a548f8f261E_669_, 2518
_ZN4core4iter6traits8iterator8Iterator4fold17had50487807a5fe23E_670_, 2519
_ZN47_$LT$u32$u20$as$u20$core..iter..range..Step$GT$17forward_unchecked17h0db0511b979a7ca8E_671_, 2520
_ZN5alloc5alloc6Global10alloc_impl17h1f328160f76f12cfE_672_, 2521
_ZN6qrcode6canvas6Canvas15coords_to_index17h392521962941e573E_673_, 2522
_ZN56_$LT$i16$u20$as$u20$checked_int_cast..CheckedIntCast$GT$16as_usize_checked17hf8c27e538d0e444fE_674_, 2523
_ZN6qrcode6canvas6Canvas15coords_to_index17h392521962941e573E_675_, 2524
_ZN5alloc5alloc6Global10alloc_impl17h1f328160f76f12cfE_676_, 2525
_ZN56_$LT$i16$u20$as$u20$checked_int_cast..CheckedIntCast$GT$16as_usize_checked17hf8c27e538d0e444fE_677_, 2526
_ZN56_$LT$i16$u20$as$u20$checked_int_cast..CheckedIntCast$GT$16as_usize_checked17hf8c27e538d0e444fE_678_, 2527
_ZN4core3num23_$LT$impl$u20$usize$GT$11checked_add17h096d975beb745572E_679_, 2528
_ZN56_$LT$char$u20$as$u20$qrcode..render..string..Element$GT$13default_color17hc33573a548f8f261E_680_, 2529
_ZN6qrcode6canvas14mask_functions16horizontal_lines17h0c5de493f21ce1a3E_681_, 2530
_ZN6qrcode6canvas6Canvas15coords_to_index17h392521962941e573E_682_, 2531
_ZN47_$LT$u32$u20$as$u20$core..iter..range..Step$GT$17forward_unchecked17h0db0511b979a7ca8E_683_, 2532
_ZN4core6option15Option$LT$T$GT$3map17h1a47d23c8837b815E_684_, 2533
_ZN56_$LT$usize$u20$as$u20$core..iter..traits..accum..Sum$GT$3sum28_$u7b$$u7b$closure$u7d$$u7d$17h54dbf9b2464cbac5E_685_, 2534
_ZN5alloc5alloc6Global10alloc_impl17h1f328160f76f12cfE_686_, 2535
_ZN47_$LT$u32$u20$as$u20$core..iter..range..Step$GT$17forward_unchecked17h0db0511b979a7ca8E_687_, 2536
_ZN6qrcode6canvas14mask_functions16horizontal_lines17h0c5de493f21ce1a3E_688_, 2537
_ZN6qrcode6canvas6Canvas15coords_to_index17h392521962941e573E_689_, 2538
_ZN4core4iter6traits8iterator8Iterator4fold17had50487807a5fe23E_690_, 2539
_ZN4core6option15Option$LT$T$GT$3map17h1a47d23c8837b815E_691_, 2540
_ZN6qrcode6canvas6Canvas15coords_to_index17h392521962941e573E_692_, 2541
_ZN47_$LT$u32$u20$as$u20$core..iter..range..Step$GT$17forward_unchecked17h0db0511b979a7ca8E_693_, 2542
_ZN4core4iter6traits8iterator8Iterator4fold17had50487807a5fe23E_694_, 2543
_ZN75_$LT$core..option..Option$LT$T$GT$$u20$as$u20$core..ops..try_trait..Try$GT$6branch17h00056140ba3de476E_695_, 2544
_ZN6qrcode6canvas14mask_functions16horizontal_lines17h0c5de493f21ce1a3E_696_, 2545
_ZN6qrcode6canvas14mask_functions16horizontal_lines17h0c5de493f21ce1a3E_697_, 2546
_ZN5alloc7raw_vec19RawVec$LT$T$C$A$GT$11allocate_in17h344cc4811a228da3E_698_, 2547
_ZN4core4iter6traits8iterator8Iterator4fold17had50487807a5fe23E_699_, 2548
_ZN6qrcode6canvas14mask_functions16horizontal_lines17h0c5de493f21ce1a3E_700_, 2549
_ZN56_$LT$usize$u20$as$u20$core..iter..traits..accum..Sum$GT$3sum28_$u7b$$u7b$closure$u7d$$u7d$17h54dbf9b2464cbac5E_701_, 2550
_ZN4core6option15Option$LT$T$GT$3map17h1a47d23c8837b815E_702_, 2551
_ZN5alloc5alloc6Global10alloc_impl17h1f328160f76f12cfE_703_, 2552
_ZN5alloc7raw_vec19RawVec$LT$T$C$A$GT$11allocate_in17h29fe1f804abc0cc2E_704_, 2553
_ZN6qrcode6canvas6Canvas15coords_to_index17h392521962941e573E_705_, 2554
_ZN6qrcode6canvas14mask_functions16horizontal_lines17h0c5de493f21ce1a3E_706_, 2555
_ZN5alloc5alloc6Global10alloc_impl17h1f328160f76f12cfE_707_, 2556
_ZN4core6option15Option$LT$T$GT$3map17h1a47d23c8837b815E_708_, 2557
_ZN60_$LT$dyn$u20$rand_core..RngCore$u20$as$u20$std..io..Read$GT$4read17h91adfdc68e7ce606E_709_, 2558
_ZN56_$LT$i16$u20$as$u20$checked_int_cast..CheckedIntCast$GT$16as_usize_checked17hf8c27e538d0e444fE_710_, 2559
_ZN5alloc7raw_vec19RawVec$LT$T$C$A$GT$11allocate_in17h29fe1f804abc0cc2E_711_, 2560
_ZN5alloc7raw_vec19RawVec$LT$T$C$A$GT$11allocate_in17h29fe1f804abc0cc2E_712_, 2561
_ZN75_$LT$core..option..Option$LT$T$GT$$u20$as$u20$core..ops..try_trait..Try$GT$6branch17h00056140ba3de476E_713_, 2562
_ZN77_$LT$alloc..raw_vec..RawVec$LT$T$C$A$GT$$u20$as$u20$core..ops..drop..Drop$GT$4drop17h2653c8de238d7e6bE_714_, 2563
_ZN4core3ptr41drop_in_place$LT$std..io..error..Repr$GT$17haedb15029a9f36edE_715_, 2564
_ZN6qrcode6canvas14mask_functions16horizontal_lines17h0c5de493f21ce1a3E_716_, 2565
_ZN6qrcode6canvas14mask_functions16horizontal_lines17h0c5de493f21ce1a3E_717_, 2566
_ZN3std2io5error5Error12raw_os_error17hff19ab5eadf4189dE_718_, 2567
_ZN47_$LT$u32$u20$as$u20$core..iter..range..Step$GT$17forward_unchecked17h0db0511b979a7ca8E_719_, 2568
_ZN80_$LT$core..option..Option$LT$T$GT$$u20$as$u20$qrcode..cast..ExpectOrOverflow$GT$18expect_or_overflow17h0299d77236c2d7f5E_720_, 2569
_ZN6qrcode6canvas6Canvas20draw_finder_patterns17hdd8f6522c27cb362E_721_, 2570
_ZN56_$LT$char$u20$as$u20$qrcode..render..string..Element$GT$13default_color17hc33573a548f8f261E_722_, 2571
_ZN56_$LT$i16$u20$as$u20$checked_int_cast..CheckedIntCast$GT$16as_usize_checked17hf8c27e538d0e444fE_723_, 2572
_ZN6qrcode6canvas14mask_functions16horizontal_lines17h0c5de493f21ce1a3E_724_, 2573
_ZN4core4iter6traits8iterator8Iterator4fold17had50487807a5fe23E_725_, 2574
_ZN56_$LT$i16$u20$as$u20$checked_int_cast..CheckedIntCast$GT$16as_usize_checked17hf8c27e538d0e444fE_726_, 2575
_ZN47_$LT$u32$u20$as$u20$core..iter..range..Step$GT$17forward_unchecked17h0db0511b979a7ca8E_727_, 2576
_ZN3std2io5error5Error12raw_os_error17h18499eac9d8bea1cE_728_, 2577
_ZN5alloc5alloc6Global10alloc_impl17h1f328160f76f12cfE_729_, 2578
_ZN4core6option15Option$LT$T$GT$3map17h1a47d23c8837b815E_730_, 2579
_ZN77_$LT$alloc..raw_vec..RawVec$LT$T$C$A$GT$$u20$as$u20$core..ops..drop..Drop$GT$4drop17h2653c8de238d7e6bE_731_, 2580
_ZN5alloc7raw_vec19RawVec$LT$T$C$A$GT$11allocate_in17h29fe1f804abc0cc2E_732_, 2581
_ZN4core4iter6traits8iterator8Iterator4fold17had50487807a5fe23E_733_, 2582
_ZN3std2io5error5Error12raw_os_error17hff19ab5eadf4189dE_734_, 2583
_ZN102_$LT$core..iter..adapters..cycle..Cycle$LT$I$GT$$u20$as$u20$core..iter..traits..iterator..Iterator$GT$9size_hint17hb562490e751a5104E_735_, 2584
_ZN6qrcode6canvas6Canvas15coords_to_index17h392521962941e573E_736_, 2585
_ZN80_$LT$core..option..Option$LT$T$GT$$u20$as$u20$qrcode..cast..ExpectOrOverflow$GT$18expect_or_overflow17h0299d77236c2d7f5E_737_, 2586
_ZN102_$LT$core..iter..adapters..cycle..Cycle$LT$I$GT$$u20$as$u20$core..iter..traits..iterator..Iterator$GT$9size_hint17hb562490e751a5104E_738_, 2587
_ZN56_$LT$usize$u20$as$u20$core..iter..traits..accum..Sum$GT$3sum28_$u7b$$u7b$closure$u7d$$u7d$17h54dbf9b2464cbac5E_739_, 2588
_ZN56_$LT$i16$u20$as$u20$checked_int_cast..CheckedIntCast$GT$16as_usize_checked17hf8c27e538d0e444fE_740_, 2589
_ZN56_$LT$i16$u20$as$u20$checked_int_cast..CheckedIntCast$GT$16as_usize_checked17hf8c27e538d0e444fE_741_, 2590
_ZN5alloc7raw_vec19RawVec$LT$T$C$A$GT$11allocate_in17h29fe1f804abc0cc2E_742_, 2591
_ZN56_$LT$i16$u20$as$u20$checked_int_cast..CheckedIntCast$GT$16as_usize_checked17hf8c27e538d0e444fE_743_, 2592
_ZN4core3num23_$LT$impl$u20$usize$GT$11checked_add17h096d975beb745572E_744_, 2593
_ZN4core3ptr41drop_in_place$LT$std..io..error..Repr$GT$17haedb15029a9f36edE_745_, 2594
_ZN6qrcode6canvas6Canvas15coords_to_index17h392521962941e573E_746_, 2595
_ZN56_$LT$i16$u20$as$u20$checked_int_cast..CheckedIntCast$GT$16as_usize_checked17hf8c27e538d0e444fE_747_, 2596
_ZN5alloc5alloc6Global10alloc_impl17h1f328160f76f12cfE_748_, 2597
_ZN56_$LT$i16$u20$as$u20$checked_int_cast..CheckedIntCast$GT$16as_usize_checked17hf8c27e538d0e444fE_749_, 2598
_ZN5alloc7raw_vec19RawVec$LT$T$C$A$GT$11allocate_in17h29fe1f804abc0cc2E_750_, 2599
_ZN56_$LT$i16$u20$as$u20$checked_int_cast..CheckedIntCast$GT$16as_usize_checked17hf8c27e538d0e444fE_751_, 2600
_ZN56_$LT$i16$u20$as$u20$checked_int_cast..CheckedIntCast$GT$16as_usize_checked17hf8c27e538d0e444fE_752_, 2601
_ZN47_$LT$u32$u20$as$u20$core..iter..range..Step$GT$17forward_unchecked17h0db0511b979a7ca8E_753_, 2602
_ZN6qrcode6canvas6Canvas15coords_to_index17h392521962941e573E_754_, 2603
_ZN4core4iter6traits8iterator8Iterator4fold17had50487807a5fe23E_755_, 2604
_ZN4core4iter6traits8iterator8Iterator4fold17had50487807a5fe23E_756_, 2605
_ZN6qrcode6canvas6Canvas15coords_to_index17h392521962941e573E_757_, 2606
_ZN56_$LT$i16$u20$as$u20$checked_int_cast..CheckedIntCast$GT$16as_usize_checked17hf8c27e538d0e444fE_758_, 2607
_ZN5alloc5alloc6Global10alloc_impl17h1f328160f76f12cfE_759_, 2608
_ZN4core4iter6traits8iterator8Iterator4fold17had50487807a5fe23E_760_, 2609
_ZN4core6option15Option$LT$T$GT$3map17h1a47d23c8837b815E_761_, 2610
_ZN5alloc7raw_vec19RawVec$LT$T$C$A$GT$11allocate_in17h29fe1f804abc0cc2E_762_, 2611
_ZN6qrcode6canvas14mask_functions16horizontal_lines17h0c5de493f21ce1a3E_763_, 2612
_ZN6qrcode5types7Version8is_micro17hdb4237c14d4fb839E_764_, 2613
_ZN4core4iter6traits8iterator8Iterator4fold17had50487807a5fe23E_765_, 2614
_ZN6qrcode6canvas6Canvas15coords_to_index17h392521962941e573E_766_, 2615
_ZN4core6option15Option$LT$T$GT$3map17h1a47d23c8837b815E_767_, 2616
_ZN80_$LT$core..option..Option$LT$T$GT$$u20$as$u20$qrcode..cast..ExpectOrOverflow$GT$18expect_or_overflow17h0299d77236c2d7f5E_768_, 2617
_ZN6qrcode6canvas14mask_functions16horizontal_lines17h0c5de493f21ce1a3E_769_, 2618
_ZN6qrcode6canvas6Canvas15coords_to_index17h392521962941e573E_770_, 2619
_ZN56_$LT$i16$u20$as$u20$checked_int_cast..CheckedIntCast$GT$16as_usize_checked17hf8c27e538d0e444fE_771_, 2620
_ZN4core6option15Option$LT$T$GT$3map17h1a47d23c8837b815E_772_, 2621
_ZN5alloc7raw_vec19RawVec$LT$T$C$A$GT$11allocate_in17h29fe1f804abc0cc2E_773_, 2622
_ZN4core4iter6traits8iterator8Iterator4fold17had50487807a5fe23E_774_, 2623
_ZN56_$LT$char$u20$as$u20$qrcode..render..string..Element$GT$13default_color17hc33573a548f8f261E_775_, 2624
_ZN4core4iter6traits8iterator8Iterator4fold17had50487807a5fe23E_776_, 2625
_ZN56_$LT$i16$u20$as$u20$checked_int_cast..CheckedIntCast$GT$16as_usize_checked17hf8c27e538d0e444fE_777_, 2626
_ZN4core4iter6traits8iterator8Iterator4fold17had50487807a5fe23E_778_, 2627
_ZN102_$LT$core..iter..adapters..cycle..Cycle$LT$I$GT$$u20$as$u20$core..iter..traits..iterator..Iterator$GT$9size_hint17hb562490e751a5104E_779_, 2628
_ZN4core4iter6traits8iterator8Iterator4fold17had50487807a5fe23E_780_, 2629
_ZN47_$LT$u32$u20$as$u20$core..iter..range..Step$GT$17forward_unchecked17h0db0511b979a7ca8E_781_, 2630
_ZN5alloc5alloc6Global10alloc_impl17h1f328160f76f12cfE_782_, 2631
_ZN6qrcode6canvas14mask_functions16horizontal_lines17h0c5de493f21ce1a3E_783_, 2632
_ZN6qrcode6canvas14mask_functions16horizontal_lines17h0c5de493f21ce1a3E_784_, 2633
_ZN5alloc5alloc6Global10alloc_impl17h1f328160f76f12cfE_785_, 2634
_ZN4core6option15Option$LT$T$GT$3map17h1a47d23c8837b815E_786_, 2635
_ZN6qrcode6canvas6Canvas15coords_to_index17h392521962941e573E_787_, 2636
_ZN56_$LT$i16$u20$as$u20$checked_int_cast..CheckedIntCast$GT$16as_usize_checked17hf8c27e538d0e444fE_788_, 2637
_ZN5alloc7raw_vec19RawVec$LT$T$C$A$GT$11allocate_in17h29fe1f804abc0cc2E_789_, 2638
_ZN56_$LT$char$u20$as$u20$qrcode..render..string..Element$GT$13default_color17hc33573a548f8f261E_790_, 2639
_ZN6qrcode6canvas14mask_functions16horizontal_lines17h0c5de493f21ce1a3E_791_, 2640
_ZN4core6option15Option$LT$T$GT$3map17h1a47d23c8837b815E_792_, 2641
_ZN4core6option15Option$LT$T$GT$3map17h1a47d23c8837b815E_793_, 2642
_ZN4core6option15Option$LT$T$GT$3map17h1a47d23c8837b815E_794_, 2643
_ZN4core4iter6traits8iterator8Iterator4fold17had50487807a5fe23E_795_, 2644
_ZN5alloc5alloc6Global10alloc_impl17h1f328160f76f12cfE_796_, 2645
_ZN6qrcode6canvas6Canvas15coords_to_index17h392521962941e573E_797_, 2646
_ZN4core6option15Option$LT$T$GT$3map17h1a47d23c8837b815E_798_, 2647
_ZN80_$LT$core..option..Option$LT$T$GT$$u20$as$u20$qrcode..cast..ExpectOrOverflow$GT$18expect_or_overflow17h0299d77236c2d7f5E_799_, 2648
_ZN4core3num23_$LT$impl$u20$usize$GT$11checked_add17h096d975beb745572E_800_, 2649
_ZN56_$LT$usize$u20$as$u20$core..iter..traits..accum..Sum$GT$3sum28_$u7b$$u7b$closure$u7d$$u7d$17h54dbf9b2464cbac5E_801_, 2650
_ZN56_$LT$i16$u20$as$u20$checked_int_cast..CheckedIntCast$GT$16as_usize_checked17hf8c27e538d0e444fE_802_, 2651
_ZN5alloc7raw_vec19RawVec$LT$T$C$A$GT$11allocate_in17h344cc4811a228da3E_803_, 2652
_ZN4core6option15Option$LT$T$GT$3map17h1a47d23c8837b815E_804_, 2653
_ZN56_$LT$usize$u20$as$u20$core..iter..traits..accum..Sum$GT$3sum28_$u7b$$u7b$closure$u7d$$u7d$17h54dbf9b2464cbac5E_805_, 2654
_ZN5alloc7raw_vec19RawVec$LT$T$C$A$GT$11allocate_in17h29fe1f804abc0cc2E_806_, 2655
_ZN47_$LT$u32$u20$as$u20$core..iter..range..Step$GT$17forward_unchecked17h0db0511b979a7ca8E_807_, 2656
_ZN56_$LT$i16$u20$as$u20$checked_int_cast..CheckedIntCast$GT$16as_usize_checked17hf8c27e538d0e444fE_808_, 2657
_ZN4core6option15Option$LT$T$GT$3map17h1a47d23c8837b815E_809_, 2658
_ZN4core4iter6traits8iterator8Iterator4fold17had50487807a5fe23E_810_, 2659
_ZN5alloc7raw_vec19RawVec$LT$T$C$A$GT$11allocate_in17h29fe1f804abc0cc2E_811_, 2660
_ZN5alloc5alloc6Global10alloc_impl17h1f328160f76f12cfE_812_, 2661
_ZN56_$LT$usize$u20$as$u20$core..iter..traits..accum..Sum$GT$3sum28_$u7b$$u7b$closure$u7d$$u7d$17h54dbf9b2464cbac5E_813_, 2662
_ZN4core3ptr41drop_in_place$LT$std..io..error..Repr$GT$17haedb15029a9f36edE_814_, 2663
_ZN56_$LT$i16$u20$as$u20$checked_int_cast..CheckedIntCast$GT$16as_usize_checked17hf8c27e538d0e444fE_815_, 2664
_ZN4core3num23_$LT$impl$u20$usize$GT$11checked_add17h096d975beb745572E_816_, 2665
_ZN75_$LT$core..option..Option$LT$T$GT$$u20$as$u20$core..ops..try_trait..Try$GT$6branch17h00056140ba3de476E_817_, 2666
_ZN4core6option15Option$LT$T$GT$3map17h1a47d23c8837b815E_818_, 2667
_ZN6qrcode6canvas14mask_functions16horizontal_lines17h0c5de493f21ce1a3E_819_, 2668
_ZN6qrcode6canvas6Canvas15coords_to_index17h392521962941e573E_820_, 2669
_ZN5alloc5alloc6Global10alloc_impl17h1f328160f76f12cfE_821_, 2670
_ZN5alloc7raw_vec19RawVec$LT$T$C$A$GT$11allocate_in17h29fe1f804abc0cc2E_822_, 2671
_ZN6qrcode6canvas14mask_functions16horizontal_lines17h0c5de493f21ce1a3E_823_, 2672
_ZN6qrcode6canvas6Canvas15coords_to_index17h392521962941e573E_824_, 2673
_ZN47_$LT$u32$u20$as$u20$core..iter..range..Step$GT$17forward_unchecked17h0db0511b979a7ca8E_825_, 2674
_ZN56_$LT$i16$u20$as$u20$checked_int_cast..CheckedIntCast$GT$16as_usize_checked17hf8c27e538d0e444fE_826_, 2675
_ZN6qrcode6canvas6Canvas15coords_to_index17h392521962941e573E_827_, 2676
_ZN5alloc7raw_vec19RawVec$LT$T$C$A$GT$11allocate_in17h29fe1f804abc0cc2E_828_, 2677
_ZN56_$LT$usize$u20$as$u20$core..iter..traits..accum..Sum$GT$3sum28_$u7b$$u7b$closure$u7d$$u7d$17h54dbf9b2464cbac5E_829_, 2678
_ZN6qrcode6canvas6Canvas15coords_to_index17h392521962941e573E_830_, 2679
_ZN5alloc5alloc6Global10alloc_impl17h1f328160f76f12cfE_831_, 2680
_ZN5alloc5alloc6Global10alloc_impl17h1f328160f76f12cfE_832_, 2681
_ZN6qrcode6canvas6Canvas15coords_to_index17h392521962941e573E_833_, 2682
_ZN6qrcode6canvas14mask_functions16horizontal_lines17h0c5de493f21ce1a3E_834_, 2683
_ZN4core6option15Option$LT$T$GT$3map17h1a47d23c8837b815E_835_, 2684
_ZN4core4iter6traits8iterator8Iterator4fold17had50487807a5fe23E_836_, 2685
_ZN5alloc7raw_vec19RawVec$LT$T$C$A$GT$11allocate_in17h29fe1f804abc0cc2E_837_, 2686
_ZN4core4iter6traits8iterator8Iterator4fold17had50487807a5fe23E_838_, 2687
_ZN6qrcode5types7Version8is_micro17hdb4237c14d4fb839E_839_, 2688
_ZN6qrcode6canvas14mask_functions16horizontal_lines17h0c5de493f21ce1a3E_840_, 2689
_ZN56_$LT$i16$u20$as$u20$checked_int_cast..CheckedIntCast$GT$16as_usize_checked17hf8c27e538d0e444fE_841_, 2690
_ZN6qrcode6canvas6Canvas15coords_to_index17h392521962941e573E_842_, 2691
_ZN56_$LT$i16$u20$as$u20$checked_int_cast..CheckedIntCast$GT$16as_usize_checked17hf8c27e538d0e444fE_843_, 2692
_ZN4core4iter6traits8iterator8Iterator4fold17had50487807a5fe23E_844_, 2693
_ZN56_$LT$i16$u20$as$u20$checked_int_cast..CheckedIntCast$GT$16as_usize_checked17hf8c27e538d0e444fE_845_, 2694
_ZN6qrcode6canvas6Canvas15coords_to_index17h392521962941e573E_846_, 2695
_ZN6qrcode6canvas14mask_functions16horizontal_lines17h0c5de493f21ce1a3E_847_, 2696
_ZN4core6option15Option$LT$T$GT$3map17h1a47d23c8837b815E_848_, 2697
_ZN4core4iter6traits8iterator8Iterator4fold17had50487807a5fe23E_849_, 2698
_ZN102_$LT$core..iter..adapters..cycle..Cycle$LT$I$GT$$u20$as$u20$core..iter..traits..iterator..Iterator$GT$9size_hint17hb562490e751a5104E_850_, 2699
_ZN56_$LT$i16$u20$as$u20$checked_int_cast..CheckedIntCast$GT$16as_usize_checked17hf8c27e538d0e444fE_851_, 2700
_ZN6qrcode6canvas6Canvas15coords_to_index17h392521962941e573E_852_, 2701
_ZN56_$LT$i16$u20$as$u20$checked_int_cast..CheckedIntCast$GT$16as_usize_checked17hf8c27e538d0e444fE_853_, 2702
_ZN6qrcode6canvas14mask_functions16horizontal_lines17h0c5de493f21ce1a3E_854_, 2703
_ZN5alloc5alloc6Global10alloc_impl17h1f328160f76f12cfE_855_, 2704
_ZN56_$LT$i16$u20$as$u20$checked_int_cast..CheckedIntCast$GT$16as_usize_checked17hf8c27e538d0e444fE_856_, 2705
_ZN5alloc7raw_vec19RawVec$LT$T$C$A$GT$11allocate_in17h29fe1f804abc0cc2E_857_, 2706
_ZN60_$LT$qrcode..types..Mode$u20$as$u20$core..cmp..PartialEq$GT$2eq17ha263fa5e4af74859E_858_, 2707
_ZN56_$LT$i16$u20$as$u20$checked_int_cast..CheckedIntCast$GT$16as_usize_checked17hf8c27e538d0e444fE_859_, 2708
_ZN60_$LT$qrcode..types..Mode$u20$as$u20$core..cmp..PartialEq$GT$2eq17ha263fa5e4af74859E_860_, 2709
_ZN5alloc7raw_vec19RawVec$LT$T$C$A$GT$11allocate_in17h29fe1f804abc0cc2E_861_, 2710
_ZN80_$LT$core..option..Option$LT$T$GT$$u20$as$u20$qrcode..cast..ExpectOrOverflow$GT$18expect_or_overflow17hcc565ad86b0a8398E_862_, 2711
_ZN6qrcode6canvas14mask_functions16horizontal_lines17h0c5de493f21ce1a3E_863_, 2712
_ZN6qrcode6canvas14mask_functions16horizontal_lines17h0c5de493f21ce1a3E_864_, 2713
_ZN56_$LT$i16$u20$as$u20$checked_int_cast..CheckedIntCast$GT$16as_usize_checked17hf8c27e538d0e444fE_865_, 2714
_ZN4core4iter6traits8iterator8Iterator4fold17had50487807a5fe23E_866_, 2715
_ZN6qrcode6canvas6Canvas15coords_to_index17h392521962941e573E_867_, 2716
_ZN5alloc7raw_vec19RawVec$LT$T$C$A$GT$11allocate_in17h29fe1f804abc0cc2E_868_, 2717
_ZN6qrcode6canvas14mask_functions16horizontal_lines17h0c5de493f21ce1a3E_869_, 2718
_ZN4core3num23_$LT$impl$u20$usize$GT$11checked_add17h096d975beb745572E_870_, 2719
_ZN56_$LT$i16$u20$as$u20$checked_int_cast..CheckedIntCast$GT$16as_usize_checked17hf8c27e538d0e444fE_871_, 2720
_ZN5alloc7raw_vec19RawVec$LT$T$C$A$GT$11allocate_in17h29fe1f804abc0cc2E_872_, 2721
_ZN5alloc5alloc6Global10alloc_impl17h1f328160f76f12cfE_873_, 2722
_ZN6qrcode6canvas6Canvas15coords_to_index17h392521962941e573E_874_, 2723
_ZN4core6option15Option$LT$T$GT$3map17h1a47d23c8837b815E_875_, 2724
_ZN6qrcode6canvas6Canvas15coords_to_index17h392521962941e573E_876_, 2725
_ZN6qrcode6canvas6Canvas15coords_to_index17h392521962941e573E_877_, 2726
_ZN4core6option15Option$LT$T$GT$3map17h1a47d23c8837b815E_878_, 2727
_ZN4core3num23_$LT$impl$u20$usize$GT$11checked_add17h096d975beb745572E_879_, 2728
_ZN5alloc7raw_vec19RawVec$LT$T$C$A$GT$11allocate_in17h29fe1f804abc0cc2E_880_, 2729
_ZN4core6option15Option$LT$T$GT$3map17h1a47d23c8837b815E_881_, 2730
_ZN4core3ptr41drop_in_place$LT$std..io..error..Repr$GT$17haedb15029a9f36edE_882_, 2731
_ZN5alloc7raw_vec19RawVec$LT$T$C$A$GT$11allocate_in17h29fe1f804abc0cc2E_883_, 2732
_ZN56_$LT$char$u20$as$u20$qrcode..render..string..Element$GT$13default_color17hc33573a548f8f261E_884_, 2733
_ZN4core6option15Option$LT$T$GT$3map17h1a47d23c8837b815E_885_, 2734
_ZN6qrcode6canvas14mask_functions16horizontal_lines17h0c5de493f21ce1a3E_886_, 2735
_ZN5alloc5alloc6Global10alloc_impl17h1f328160f76f12cfE_887_, 2736
_ZN75_$LT$core..option..Option$LT$T$GT$$u20$as$u20$core..ops..try_trait..Try$GT$6branch17h00056140ba3de476E_888_, 2737
_ZN56_$LT$i16$u20$as$u20$checked_int_cast..CheckedIntCast$GT$16as_usize_checked17hf8c27e538d0e444fE_889_, 2738
_ZN56_$LT$i16$u20$as$u20$checked_int_cast..CheckedIntCast$GT$16as_usize_checked17hf8c27e538d0e444fE_890_, 2739
_ZN80_$LT$core..option..Option$LT$T$GT$$u20$as$u20$qrcode..cast..ExpectOrOverflow$GT$18expect_or_overflow17h0299d77236c2d7f5E_891_, 2740
_ZN5alloc5alloc6Global10alloc_impl17h1f328160f76f12cfE_892_, 2741
_ZN4core4iter6traits8iterator8Iterator4fold17had50487807a5fe23E_893_, 2742
_ZN6qrcode6canvas6Canvas15coords_to_index17h392521962941e573E_894_, 2743
_ZN4core6option15Option$LT$T$GT$3map17h1a47d23c8837b815E_895_, 2744
_ZN6qrcode6canvas6Canvas15coords_to_index17h392521962941e573E_896_, 2745
_ZN56_$LT$i16$u20$as$u20$checked_int_cast..CheckedIntCast$GT$16as_usize_checked17hf8c27e538d0e444fE_897_, 2746
_ZN6qrcode6canvas14mask_functions16horizontal_lines17h0c5de493f21ce1a3E_898_, 2747
_ZN5alloc5alloc6Global10alloc_impl17h1f328160f76f12cfE_899_, 2748
_ZN5alloc7raw_vec19RawVec$LT$T$C$A$GT$11allocate_in17h344cc4811a228da3E_900_, 2749
_ZN56_$LT$i16$u20$as$u20$checked_int_cast..CheckedIntCast$GT$16as_usize_checked17hf8c27e538d0e444fE_901_, 2750
_ZN3std2io5error5Error12raw_os_error17hff19ab5eadf4189dE_902_, 2751
_ZN4core4iter6traits8iterator8Iterator4fold17had50487807a5fe23E_903_, 2752
_ZN6qrcode6canvas14mask_functions16horizontal_lines17h0c5de493f21ce1a3E_904_, 2753
_ZN5alloc7raw_vec19RawVec$LT$T$C$A$GT$11allocate_in17h344cc4811a228da3E_905_, 2754
_ZN47_$LT$u32$u20$as$u20$core..iter..range..Step$GT$17forward_unchecked17h0db0511b979a7ca8E_906_, 2755
_ZN5alloc5alloc6Global10alloc_impl17h1f328160f76f12cfE_907_, 2756
_ZN6qrcode6canvas6Canvas15coords_to_index17h392521962941e573E_908_, 2757
_ZN56_$LT$i16$u20$as$u20$checked_int_cast..CheckedIntCast$GT$16as_usize_checked17hf8c27e538d0e444fE_909_, 2758
_ZN56_$LT$char$u20$as$u20$qrcode..render..string..Element$GT$13default_color17hc33573a548f8f261E_910_, 2759
_ZN5alloc7raw_vec19RawVec$LT$T$C$A$GT$11allocate_in17h29fe1f804abc0cc2E_911_, 2760
_ZN6qrcode6canvas6Canvas15coords_to_index17h392521962941e573E_912_, 2761
_ZN6qrcode6canvas6Canvas15coords_to_index17h392521962941e573E_913_, 2762
_ZN4core6option15Option$LT$T$GT$3map17h1a47d23c8837b815E_914_, 2763
_ZN4core6option15Option$LT$T$GT$3map17h1a47d23c8837b815E_915_, 2764
_ZN56_$LT$char$u20$as$u20$qrcode..render..string..Element$GT$13default_color17hc33573a548f8f261E_916_, 2765
_ZN5alloc7raw_vec19RawVec$LT$T$C$A$GT$11allocate_in17h29fe1f804abc0cc2E_917_, 2766
_ZN56_$LT$i16$u20$as$u20$checked_int_cast..CheckedIntCast$GT$16as_usize_checked17hf8c27e538d0e444fE_918_, 2767
_ZN5alloc5alloc6Global10alloc_impl17h1f328160f76f12cfE_919_, 2768
_ZN47_$LT$u32$u20$as$u20$core..iter..range..Step$GT$17forward_unchecked17h0db0511b979a7ca8E_920_, 2769
_ZN56_$LT$i16$u20$as$u20$checked_int_cast..CheckedIntCast$GT$16as_usize_checked17hf8c27e538d0e444fE_921_, 2770
_ZN6qrcode6canvas14mask_functions16horizontal_lines17h0c5de493f21ce1a3E_922_, 2771
_ZN5alloc5alloc6Global10alloc_impl17h1f328160f76f12cfE_923_, 2772
_ZN6qrcode6canvas14mask_functions16horizontal_lines17h0c5de493f21ce1a3E_924_, 2773
_ZN6qrcode6canvas14mask_functions16horizontal_lines17h0c5de493f21ce1a3E_925_, 2774
_ZN6qrcode6canvas14mask_functions16horizontal_lines17h0c5de493f21ce1a3E_926_, 2775
_ZN6qrcode6canvas14mask_functions16horizontal_lines17h0c5de493f21ce1a3E_927_, 2776
_ZN6qrcode6canvas6Canvas15coords_to_index17h392521962941e573E_928_, 2777
_ZN6qrcode6canvas14mask_functions16horizontal_lines17h0c5de493f21ce1a3E_929_, 2778
_ZN56_$LT$i16$u20$as$u20$checked_int_cast..CheckedIntCast$GT$16as_usize_checked17hf8c27e538d0e444fE_930_, 2779
_ZN4core4iter6traits8iterator8Iterator4fold17had50487807a5fe23E_931_, 2780
_ZN6qrcode6canvas14mask_functions16horizontal_lines17h0c5de493f21ce1a3E_932_, 2781
_ZN4core6option15Option$LT$T$GT$3map17h1a47d23c8837b815E_933_, 2782
_ZN6qrcode6canvas14mask_functions16horizontal_lines17h0c5de493f21ce1a3E_934_, 2783
_ZN4core6option15Option$LT$T$GT$3map17h1a47d23c8837b815E_935_, 2784
_ZN4core3num23_$LT$impl$u20$usize$GT$11checked_add17h096d975beb745572E_936_, 2785
_ZN4core3ptr41drop_in_place$LT$std..io..error..Repr$GT$17haedb15029a9f36edE_937_, 2786
_ZN6qrcode6canvas6Canvas15coords_to_index17h392521962941e573E_938_, 2787
_ZN60_$LT$dyn$u20$rand_core..RngCore$u20$as$u20$std..io..Read$GT$4read17h91adfdc68e7ce606E_939_, 2788
_ZN5alloc5alloc6Global10alloc_impl17h1f328160f76f12cfE_940_, 2789
_ZN4core4iter6traits8iterator8Iterator4fold17had50487807a5fe23E_941_, 2790
_ZN80_$LT$core..option..Option$LT$T$GT$$u20$as$u20$qrcode..cast..ExpectOrOverflow$GT$18expect_or_overflow17h0299d77236c2d7f5E_942_, 2791
_ZN5alloc7raw_vec19RawVec$LT$T$C$A$GT$11allocate_in17h29fe1f804abc0cc2E_943_, 2792
_ZN5alloc7raw_vec19RawVec$LT$T$C$A$GT$11allocate_in17h29fe1f804abc0cc2E_944_, 2793
_ZN56_$LT$usize$u20$as$u20$core..iter..traits..accum..Sum$GT$3sum28_$u7b$$u7b$closure$u7d$$u7d$17h54dbf9b2464cbac5E_945_, 2794
_ZN6qrcode6canvas6Canvas15coords_to_index17h392521962941e573E_946_, 2795
_ZN56_$LT$i16$u20$as$u20$checked_int_cast..CheckedIntCast$GT$16as_usize_checked17hf8c27e538d0e444fE_947_, 2796
_ZN4core4iter6traits8iterator8Iterator4fold17had50487807a5fe23E_948_, 2797
_ZN4core4iter6traits8iterator8Iterator4fold17had50487807a5fe23E_949_, 2798
_ZN47_$LT$u32$u20$as$u20$core..iter..range..Step$GT$17forward_unchecked17h0db0511b979a7ca8E_950_, 2799
_ZN4core4iter6traits8iterator8Iterator4fold17had50487807a5fe23E_951_, 2800
_ZN3std2io5error5Error12raw_os_error17hff19ab5eadf4189dE_952_, 2801
_ZN5alloc5alloc6Global10alloc_impl17h1f328160f76f12cfE_953_, 2802
_ZN56_$LT$usize$u20$as$u20$core..iter..traits..accum..Sum$GT$3sum28_$u7b$$u7b$closure$u7d$$u7d$17h54dbf9b2464cbac5E_954_, 2803
_ZN6qrcode6canvas14mask_functions16horizontal_lines17h0c5de493f21ce1a3E_955_, 2804
_ZN4core10intrinsics19copy_nonoverlapping17hd9866c2fcb327602E_956_, 2805
_ZN56_$LT$i16$u20$as$u20$checked_int_cast..CheckedIntCast$GT$16as_usize_checked17hf8c27e538d0e444fE_957_, 2806
_ZN6qrcode6canvas14mask_functions16horizontal_lines17h0c5de493f21ce1a3E_958_, 2807
_ZN6qrcode6canvas6Canvas15coords_to_index17h392521962941e573E_959_, 2808
_ZN4core6option15Option$LT$T$GT$3map17h1a47d23c8837b815E_960_, 2809
_ZN4core3num23_$LT$impl$u20$usize$GT$11checked_add17h096d975beb745572E_961_, 2810
_ZN5alloc7raw_vec19RawVec$LT$T$C$A$GT$11allocate_in17h29fe1f804abc0cc2E_962_, 2811
_ZN6qrcode6canvas6Canvas15coords_to_index17h392521962941e573E_963_, 2812
_ZN4core3num23_$LT$impl$u20$usize$GT$11checked_add17h096d975beb745572E_964_, 2813
_ZN56_$LT$usize$u20$as$u20$core..iter..traits..accum..Sum$GT$3sum28_$u7b$$u7b$closure$u7d$$u7d$17h54dbf9b2464cbac5E_965_, 2814
_ZN6qrcode6canvas6Canvas15coords_to_index17h392521962941e573E_966_, 2815
_ZN6qrcode6canvas14mask_functions16horizontal_lines17h0c5de493f21ce1a3E_967_, 2816
_ZN56_$LT$i16$u20$as$u20$checked_int_cast..CheckedIntCast$GT$16as_usize_checked17hf8c27e538d0e444fE_968_, 2817
_ZN6qrcode6canvas6Canvas15coords_to_index17h392521962941e573E_969_, 2818
_ZN6qrcode6canvas6Canvas15coords_to_index17h392521962941e573E_970_, 2819
_ZN6qrcode6canvas6Canvas15coords_to_index17h392521962941e573E_971_, 2820
_ZN56_$LT$i16$u20$as$u20$checked_int_cast..CheckedIntCast$GT$16as_usize_checked17hf8c27e538d0e444fE_972_, 2821
_ZN6qrcode6canvas6Canvas20draw_finder_patterns17hdd8f6522c27cb362E_973_, 2822
_ZN4core4iter6traits8iterator8Iterator4fold17had50487807a5fe23E_974_, 2823
_ZN6qrcode6canvas14mask_functions16horizontal_lines17h0c5de493f21ce1a3E_975_, 2824
_ZN6qrcode6canvas6Canvas15coords_to_index17h392521962941e573E_976_, 2825
_ZN47_$LT$u32$u20$as$u20$core..iter..range..Step$GT$17forward_unchecked17h0db0511b979a7ca8E_977_, 2826
_ZN6qrcode6canvas6Canvas15coords_to_index17h392521962941e573E_978_, 2827
_ZN4core4iter6traits8iterator8Iterator4fold17had50487807a5fe23E_979_, 2828
_ZN5alloc5alloc6Global10alloc_impl17h1f328160f76f12cfE_980_, 2829
_ZN4core6option15Option$LT$T$GT$3map17h1a47d23c8837b815E_981_, 2830
_ZN5alloc7raw_vec19RawVec$LT$T$C$A$GT$11allocate_in17h344cc4811a228da3E_982_, 2831
_ZN5alloc5alloc6Global10alloc_impl17h1f328160f76f12cfE_983_, 2832
_ZN56_$LT$i16$u20$as$u20$checked_int_cast..CheckedIntCast$GT$16as_usize_checked17hf8c27e538d0e444fE_984_, 2833
_ZN56_$LT$i16$u20$as$u20$checked_int_cast..CheckedIntCast$GT$16as_usize_checked17hf8c27e538d0e444fE_985_, 2834
_ZN6qrcode6canvas6Canvas15coords_to_index17h392521962941e573E_986_, 2835
_ZN6qrcode6canvas6Canvas20draw_finder_patterns17hdd8f6522c27cb362E_987_, 2836
_ZN80_$LT$core..option..Option$LT$T$GT$$u20$as$u20$qrcode..cast..ExpectOrOverflow$GT$18expect_or_overflow17hcc565ad86b0a8398E_988_, 2837
_ZN4core4iter6traits8iterator8Iterator4fold17had50487807a5fe23E_989_, 2838
_ZN4core6option15Option$LT$T$GT$3map17h1a47d23c8837b815E_990_, 2839
_ZN5alloc5alloc6Global10alloc_impl17h1f328160f76f12cfE_991_, 2840
_ZN4core4iter6traits8iterator8Iterator4fold17had50487807a5fe23E_992_, 2841
_ZN6qrcode6canvas14mask_functions16horizontal_lines17h0c5de493f21ce1a3E_993_, 2842
_ZN5alloc7raw_vec19RawVec$LT$T$C$A$GT$11allocate_in17h344cc4811a228da3E_994_, 2843
_ZN56_$LT$char$u20$as$u20$qrcode..render..string..Element$GT$13default_color17hc33573a548f8f261E_995_, 2844
_ZN6qrcode6canvas6Canvas15coords_to_index17h392521962941e573E_996_, 2845
_ZN4core4iter6traits8iterator8Iterator4fold17had50487807a5fe23E_997_, 2846
_ZN5alloc5alloc6Global10alloc_impl17h1f328160f76f12cfE_998_, 2847
_ZN6qrcode6canvas6Canvas15coords_to_index17h392521962941e573E_999_, 2848
_ZN6qrcode6canvas14mask_functions16horizontal_lines17h0c5de493f21ce1a3E_1000_, 2849
_ZN6qrcode6canvas6Canvas15coords_to_index17h392521962941e573E_1001_, 2850
_ZN6qrcode6canvas6Canvas15coords_to_index17h392521962941e573E_1002_, 2851
_ZN56_$LT$i16$u20$as$u20$checked_int_cast..CheckedIntCast$GT$16as_usize_checked17hf8c27e538d0e444fE_1003_, 2852
_ZN4core6option15Option$LT$T$GT$3map17h1a47d23c8837b815E_1004_, 2853
_ZN4core4iter6traits8iterator8Iterator4fold17had50487807a5fe23E_1005_, 2854
_ZN56_$LT$char$u20$as$u20$qrcode..render..string..Element$GT$13default_color17hc33573a548f8f261E_1006_, 2855
_ZN4core4iter6traits8iterator8Iterator4fold17had50487807a5fe23E_1007_, 2856
_ZN6qrcode6canvas6Canvas15coords_to_index17h392521962941e573E_1008_, 2857
_ZN5alloc7raw_vec19RawVec$LT$T$C$A$GT$11allocate_in17h29fe1f804abc0cc2E_1009_, 2858
_ZN6qrcode6canvas6Canvas15coords_to_index17h392521962941e573E_1010_, 2859
_ZN4core6option15Option$LT$T$GT$3map17h1a47d23c8837b815E_1011_, 2860
_ZN6qrcode6canvas6Canvas15coords_to_index17h392521962941e573E_1012_, 2861
_ZN56_$LT$i16$u20$as$u20$checked_int_cast..CheckedIntCast$GT$16as_usize_checked17hf8c27e538d0e444fE_1013_, 2862
_ZN4core4iter6traits8iterator8Iterator4fold17had50487807a5fe23E_1014_, 2863
_ZN56_$LT$i16$u20$as$u20$checked_int_cast..CheckedIntCast$GT$16as_usize_checked17hf8c27e538d0e444fE_1015_, 2864
_ZN6qrcode6canvas6Canvas15coords_to_index17h392521962941e573E_1016_, 2865
_ZN5alloc5alloc6Global10alloc_impl17h1f328160f76f12cfE_1017_, 2866
_ZN4core4iter6traits8iterator8Iterator4fold17had50487807a5fe23E_1018_, 2867
_ZN47_$LT$u32$u20$as$u20$core..iter..range..Step$GT$17forward_unchecked17h0db0511b979a7ca8E_1019_, 2868
_ZN4core3ptr41drop_in_place$LT$std..io..error..Repr$GT$17haedb15029a9f36edE_1020_, 2869
_ZN56_$LT$i16$u20$as$u20$checked_int_cast..CheckedIntCast$GT$16as_usize_checked17hf8c27e538d0e444fE_1021_, 2870
_ZN4core4iter6traits8iterator8Iterator4fold17had50487807a5fe23E_1022_, 2871
_ZN4core4iter6traits8iterator8Iterator4fold17had50487807a5fe23E_1023_, 2872
_ZN47_$LT$u32$u20$as$u20$core..iter..range..Step$GT$17forward_unchecked17h0db0511b979a7ca8E_1024_, 2873
_ZN5alloc5alloc6Global10alloc_impl17h1f328160f76f12cfE_1025_, 2874
_ZN5alloc5alloc6Global10alloc_impl17h1f328160f76f12cfE_1026_, 2875
_ZN6qrcode6canvas6Canvas15coords_to_index17h392521962941e573E_1027_, 2876
_ZN6qrcode6canvas14mask_functions16horizontal_lines17h0c5de493f21ce1a3E_1028_, 2877
_ZN6qrcode6canvas14mask_functions16horizontal_lines17h0c5de493f21ce1a3E_1029_, 2878
_ZN5alloc5alloc6Global10alloc_impl17h1f328160f76f12cfE_1030_, 2879
_ZN80_$LT$core..option..Option$LT$T$GT$$u20$as$u20$qrcode..cast..ExpectOrOverflow$GT$18expect_or_overflow17h0299d77236c2d7f5E_1031_, 2880
_ZN5alloc7raw_vec19RawVec$LT$T$C$A$GT$11allocate_in17h29fe1f804abc0cc2E_1032_, 2881
_ZN47_$LT$u32$u20$as$u20$core..iter..range..Step$GT$17forward_unchecked17h0db0511b979a7ca8E_1033_, 2882
_ZN4core4iter6traits8iterator8Iterator4fold17had50487807a5fe23E_1034_, 2883
_ZN4core4iter6traits8iterator8Iterator4fold17had50487807a5fe23E_1035_, 2884
_ZN60_$LT$qrcode..types..Mode$u20$as$u20$core..cmp..PartialEq$GT$2eq17ha263fa5e4af74859E_1036_, 2885
_ZN6qrcode6canvas14mask_functions16horizontal_lines17h0c5de493f21ce1a3E_1037_, 2886
_ZN5alloc7raw_vec19RawVec$LT$T$C$A$GT$11allocate_in17h29fe1f804abc0cc2E_1038_, 2887
_ZN56_$LT$i16$u20$as$u20$checked_int_cast..CheckedIntCast$GT$16as_usize_checked17hf8c27e538d0e444fE_1039_, 2888
_ZN56_$LT$usize$u20$as$u20$core..iter..traits..accum..Sum$GT$3sum28_$u7b$$u7b$closure$u7d$$u7d$17h54dbf9b2464cbac5E_1040_, 2889
_ZN6qrcode6canvas6Canvas15coords_to_index17h392521962941e573E_1041_, 2890
_ZN4core4iter6traits8iterator8Iterator4fold17had50487807a5fe23E_1042_, 2891
_ZN6qrcode6canvas14mask_functions16horizontal_lines17h0c5de493f21ce1a3E_1043_, 2892
_ZN6qrcode6canvas14mask_functions16horizontal_lines17h0c5de493f21ce1a3E_1044_, 2893
_ZN56_$LT$usize$u20$as$u20$core..iter..traits..accum..Sum$GT$3sum28_$u7b$$u7b$closure$u7d$$u7d$17h54dbf9b2464cbac5E_1045_, 2894
_ZN4core6option15Option$LT$T$GT$3map17h1a47d23c8837b815E_1046_, 2895
_ZN6qrcode6canvas6Canvas15coords_to_index17h392521962941e573E_1047_, 2896
_ZN56_$LT$i16$u20$as$u20$checked_int_cast..CheckedIntCast$GT$16as_usize_checked17hf8c27e538d0e444fE_1048_, 2897
_ZN4core3ptr41drop_in_place$LT$std..io..error..Repr$GT$17haedb15029a9f36edE_1049_, 2898
_ZN56_$LT$i16$u20$as$u20$checked_int_cast..CheckedIntCast$GT$16as_usize_checked17hf8c27e538d0e444fE_1050_, 2899
_ZN56_$LT$i16$u20$as$u20$checked_int_cast..CheckedIntCast$GT$16as_usize_checked17hf8c27e538d0e444fE_1051_, 2900
_ZN80_$LT$core..option..Option$LT$T$GT$$u20$as$u20$qrcode..cast..ExpectOrOverflow$GT$18expect_or_overflow17h0299d77236c2d7f5E_1052_, 2901
_ZN56_$LT$i16$u20$as$u20$checked_int_cast..CheckedIntCast$GT$16as_usize_checked17hf8c27e538d0e444fE_1053_, 2902
_ZN6qrcode6canvas6Canvas15coords_to_index17h392521962941e573E_1054_, 2903
_ZN4core3num23_$LT$impl$u20$usize$GT$11checked_add17h096d975beb745572E_1055_, 2904
_ZN47_$LT$u32$u20$as$u20$core..iter..range..Step$GT$17forward_unchecked17h0db0511b979a7ca8E_1056_, 2905
_ZN6qrcode6canvas6Canvas15coords_to_index17h392521962941e573E_1057_, 2906
_ZN56_$LT$i16$u20$as$u20$checked_int_cast..CheckedIntCast$GT$16as_usize_checked17hf8c27e538d0e444fE_1058_, 2907
_ZN4core4iter6traits8iterator8Iterator4fold17had50487807a5fe23E_1059_, 2908
_ZN4core6option15Option$LT$T$GT$3map17h1a47d23c8837b815E_1060_, 2909
_ZN56_$LT$i16$u20$as$u20$checked_int_cast..CheckedIntCast$GT$16as_usize_checked17hf8c27e538d0e444fE_1061_, 2910
_ZN47_$LT$u32$u20$as$u20$core..iter..range..Step$GT$17forward_unchecked17h0db0511b979a7ca8E_1062_, 2911
_ZN5alloc7raw_vec19RawVec$LT$T$C$A$GT$11allocate_in17h29fe1f804abc0cc2E_1063_, 2912
_ZN56_$LT$i16$u20$as$u20$checked_int_cast..CheckedIntCast$GT$16as_usize_checked17hf8c27e538d0e444fE_1064_, 2913
_ZN4core4iter6traits8iterator8Iterator4fold17had50487807a5fe23E_1065_, 2914
_ZN56_$LT$i16$u20$as$u20$checked_int_cast..CheckedIntCast$GT$16as_usize_checked17hf8c27e538d0e444fE_1066_, 2915
_ZN4core4iter6traits8iterator8Iterator4fold17had50487807a5fe23E_1067_, 2916
_ZN6qrcode6canvas14mask_functions16horizontal_lines17h0c5de493f21ce1a3E_1068_, 2917
_ZN5alloc5alloc6Global10alloc_impl17h1f328160f76f12cfE_1069_, 2918
_ZN6qrcode6canvas6Canvas15coords_to_index17h392521962941e573E_1070_, 2919
_ZN6qrcode6canvas6Canvas15coords_to_index17h392521962941e573E_1071_, 2920
_ZN4core6option15Option$LT$T$GT$3map17h1a47d23c8837b815E_1072_, 2921
_ZN60_$LT$qrcode..types..Mode$u20$as$u20$core..cmp..PartialEq$GT$2eq17ha263fa5e4af74859E_1073_, 2922
_ZN5alloc7raw_vec19RawVec$LT$T$C$A$GT$11allocate_in17h29fe1f804abc0cc2E_1074_, 2923
_ZN4core4iter6traits8iterator8Iterator4fold17had50487807a5fe23E_1075_, 2924
_ZN4core6option15Option$LT$T$GT$3map17h1a47d23c8837b815E_1076_, 2925
_ZN6qrcode6canvas14mask_functions16horizontal_lines17h0c5de493f21ce1a3E_1077_, 2926
_ZN56_$LT$usize$u20$as$u20$core..iter..traits..accum..Sum$GT$3sum28_$u7b$$u7b$closure$u7d$$u7d$17h54dbf9b2464cbac5E_1078_, 2927
_ZN6qrcode6canvas14mask_functions16horizontal_lines17h0c5de493f21ce1a3E_1079_, 2928
_ZN6qrcode6canvas6Canvas15coords_to_index17h392521962941e573E_1080_, 2929
_ZN5alloc7raw_vec19RawVec$LT$T$C$A$GT$11allocate_in17h29fe1f804abc0cc2E_1081_, 2930
_ZN4core6option15Option$LT$T$GT$3map17h1a47d23c8837b815E_1082_, 2931
_ZN80_$LT$core..option..Option$LT$T$GT$$u20$as$u20$qrcode..cast..ExpectOrOverflow$GT$18expect_or_overflow17h0299d77236c2d7f5E_1083_, 2932
_ZN3std2io5error5Error12raw_os_error17hff19ab5eadf4189dE_1084_, 2933
_ZN56_$LT$i16$u20$as$u20$checked_int_cast..CheckedIntCast$GT$16as_usize_checked17hf8c27e538d0e444fE_1085_, 2934
_ZN56_$LT$i16$u20$as$u20$checked_int_cast..CheckedIntCast$GT$16as_usize_checked17hf8c27e538d0e444fE_1086_, 2935
_ZN5alloc5alloc6Global10alloc_impl17h1f328160f76f12cfE_1087_, 2936
_ZN4core4iter6traits8iterator8Iterator4fold17had50487807a5fe23E_1088_, 2937
_ZN56_$LT$i16$u20$as$u20$checked_int_cast..CheckedIntCast$GT$16as_usize_checked17hf8c27e538d0e444fE_1089_, 2938
_ZN6qrcode6canvas6Canvas15coords_to_index17h392521962941e573E_1090_, 2939
_ZN5alloc7raw_vec19RawVec$LT$T$C$A$GT$11allocate_in17h29fe1f804abc0cc2E_1091_, 2940
_ZN6qrcode6canvas14mask_functions16horizontal_lines17h0c5de493f21ce1a3E_1092_, 2941
_ZN4core3num23_$LT$impl$u20$usize$GT$11checked_add17h096d975beb745572E_1093_, 2942
_ZN4core6option15Option$LT$T$GT$3map17h1a47d23c8837b815E_1094_, 2943
_ZN56_$LT$i16$u20$as$u20$checked_int_cast..CheckedIntCast$GT$16as_usize_checked17hf8c27e538d0e444fE_1095_, 2944
_ZN6qrcode6canvas6Canvas20draw_finder_patterns17hdd8f6522c27cb362E_1096_, 2945
_ZN4core4iter6traits8iterator8Iterator4fold17had50487807a5fe23E_1097_, 2946
_ZN56_$LT$i16$u20$as$u20$checked_int_cast..CheckedIntCast$GT$16as_usize_checked17hf8c27e538d0e444fE_1098_, 2947
_ZN77_$LT$alloc..raw_vec..RawVec$LT$T$C$A$GT$$u20$as$u20$core..ops..drop..Drop$GT$4drop17h7425ee577f6364a4E_1099_, 2948
_ZN5alloc5alloc6Global10alloc_impl17h1f328160f76f12cfE_1100_, 2949
_ZN4core4iter6traits8iterator8Iterator4fold17had50487807a5fe23E_1101_, 2950
_ZN47_$LT$u32$u20$as$u20$core..iter..range..Step$GT$17forward_unchecked17h0db0511b979a7ca8E_1102_, 2951
_ZN6qrcode6canvas14mask_functions16horizontal_lines17h0c5de493f21ce1a3E_1103_, 2952
_ZN4core6option15Option$LT$T$GT$3map17h1a47d23c8837b815E_1104_, 2953
_ZN6qrcode6canvas14mask_functions16horizontal_lines17h0c5de493f21ce1a3E_1105_, 2954
_ZN4core4iter6traits8iterator8Iterator4fold17had50487807a5fe23E_1106_, 2955
_ZN80_$LT$core..option..Option$LT$T$GT$$u20$as$u20$qrcode..cast..ExpectOrOverflow$GT$18expect_or_overflow17h0299d77236c2d7f5E_1107_, 2956
_ZN4core6option15Option$LT$T$GT$3map17h1a47d23c8837b815E_1108_, 2957
_ZN47_$LT$u32$u20$as$u20$core..iter..range..Step$GT$17forward_unchecked17h0db0511b979a7ca8E_1109_, 2958
_ZN56_$LT$i16$u20$as$u20$checked_int_cast..CheckedIntCast$GT$16as_usize_checked17hf8c27e538d0e444fE_1110_, 2959
_ZN5alloc7raw_vec19RawVec$LT$T$C$A$GT$11allocate_in17h29fe1f804abc0cc2E_1111_, 2960
_ZN6qrcode6canvas14mask_functions16horizontal_lines17h0c5de493f21ce1a3E_1112_, 2961
_ZN4core4iter6traits8iterator8Iterator4fold17had50487807a5fe23E_1113_, 2962
_ZN80_$LT$core..option..Option$LT$T$GT$$u20$as$u20$qrcode..cast..ExpectOrOverflow$GT$18expect_or_overflow17h0299d77236c2d7f5E_1114_, 2963
_ZN5alloc7raw_vec19RawVec$LT$T$C$A$GT$11allocate_in17h344cc4811a228da3E_1115_, 2964
_ZN4core4iter6traits8iterator8Iterator4fold17had50487807a5fe23E_1116_, 2965
_ZN6qrcode6canvas6Canvas15coords_to_index17h392521962941e573E_1117_, 2966
_ZN56_$LT$i16$u20$as$u20$checked_int_cast..CheckedIntCast$GT$16as_usize_checked17hf8c27e538d0e444fE_1118_, 2967
_ZN56_$LT$i16$u20$as$u20$checked_int_cast..CheckedIntCast$GT$16as_usize_checked17hf8c27e538d0e444fE_1119_, 2968
_ZN4core6option15Option$LT$T$GT$3map17h1a47d23c8837b815E_1120_, 2969
_ZN6qrcode6canvas6Canvas15coords_to_index17h392521962941e573E_1121_, 2970
_ZN4core4iter6traits8iterator8Iterator4fold17had50487807a5fe23E_1122_, 2971
_ZN6qrcode6canvas14mask_functions16horizontal_lines17h0c5de493f21ce1a3E_1123_, 2972
_ZN6qrcode5types7Version8is_micro17hdb4237c14d4fb839E_1124_, 2973
_ZN4core4iter6traits8iterator8Iterator4fold17had50487807a5fe23E_1125_, 2974
_ZN6qrcode6canvas6Canvas15coords_to_index17h392521962941e573E_1126_, 2975
_ZN4core4iter6traits8iterator8Iterator4fold17had50487807a5fe23E_1127_, 2976
_ZN102_$LT$core..iter..adapters..cycle..Cycle$LT$I$GT$$u20$as$u20$core..iter..traits..iterator..Iterator$GT$9size_hint17hb562490e751a5104E_1128_, 2977
_ZN6qrcode6canvas6Canvas15coords_to_index17h392521962941e573E_1129_, 2978
_ZN4core4iter6traits8iterator8Iterator4fold17had50487807a5fe23E_1130_, 2979
_ZN6qrcode6canvas14mask_functions16horizontal_lines17h0c5de493f21ce1a3E_1131_, 2980
_ZN4core6option15Option$LT$T$GT$3map17h1a47d23c8837b815E_1132_, 2981
_ZN6qrcode6canvas6Canvas15coords_to_index17h392521962941e573E_1133_, 2982
_ZN5alloc5alloc6Global10alloc_impl17h1f328160f76f12cfE_1134_, 2983
_ZN6qrcode6canvas6Canvas15coords_to_index17h392521962941e573E_1135_, 2984
_ZN77_$LT$alloc..raw_vec..RawVec$LT$T$C$A$GT$$u20$as$u20$core..ops..drop..Drop$GT$4drop17h7425ee577f6364a4E_1136_, 2985
_ZN4core6option15Option$LT$T$GT$3map17h1a47d23c8837b815E_1137_, 2986
_ZN6qrcode6canvas6Canvas20draw_finder_patterns17hdd8f6522c27cb362E_1138_, 2987
_ZN4core6option15Option$LT$T$GT$3map17h1a47d23c8837b815E_1139_, 2988
_ZN6qrcode6canvas6Canvas15coords_to_index17h392521962941e573E_1140_, 2989
_ZN4core4iter6traits8iterator8Iterator4fold17had50487807a5fe23E_1141_, 2990
_ZN6qrcode6canvas6Canvas15coords_to_index17h392521962941e573E_1142_, 2991
_ZN4core4iter6traits8iterator8Iterator4fold17had50487807a5fe23E_1143_, 2992
_ZN5alloc7raw_vec19RawVec$LT$T$C$A$GT$11allocate_in17h29fe1f804abc0cc2E_1144_, 2993
_ZN6qrcode6canvas14mask_functions16horizontal_lines17h0c5de493f21ce1a3E_1145_, 2994
_ZN6qrcode6canvas6Canvas15coords_to_index17h392521962941e573E_1146_, 2995
_ZN56_$LT$i16$u20$as$u20$checked_int_cast..CheckedIntCast$GT$16as_usize_checked17hf8c27e538d0e444fE_1147_, 2996
_ZN4core3num23_$LT$impl$u20$usize$GT$11checked_add17h096d975beb745572E_1148_, 2997
_ZN6qrcode6canvas6Canvas15coords_to_index17h392521962941e573E_1149_, 2998
_ZN6qrcode6canvas14mask_functions16horizontal_lines17h0c5de493f21ce1a3E_1150_, 2999
_ZN4core4iter6traits8iterator8Iterator4fold17had50487807a5fe23E_1151_, 3000
_ZN6qrcode6canvas6Canvas15coords_to_index17h392521962941e573E_1152_, 3001
_ZN6qrcode6canvas14mask_functions16horizontal_lines17h0c5de493f21ce1a3E_1153_, 3002
_ZN6qrcode6canvas6Canvas15coords_to_index17h392521962941e573E_1154_, 3003
_ZN6qrcode6canvas14mask_functions16horizontal_lines17h0c5de493f21ce1a3E_1155_, 3004
_ZN56_$LT$i16$u20$as$u20$checked_int_cast..CheckedIntCast$GT$16as_usize_checked17hf8c27e538d0e444fE_1156_, 3005
_ZN4core6option15Option$LT$T$GT$3map17h1a47d23c8837b815E_1157_, 3006
_ZN4core6option15Option$LT$T$GT$3map17h1a47d23c8837b815E_1158_, 3007
_ZN4core6option15Option$LT$T$GT$3map17h1a47d23c8837b815E_1159_, 3008
_ZN56_$LT$i16$u20$as$u20$checked_int_cast..CheckedIntCast$GT$16as_usize_checked17hf8c27e538d0e444fE_1160_, 3009
_ZN4core6option15Option$LT$T$GT$3map17h1a47d23c8837b815E_1161_, 3010
_ZN5alloc5alloc6Global10alloc_impl17h1f328160f76f12cfE_1162_, 3011
_ZN6qrcode6canvas6Canvas15coords_to_index17h392521962941e573E_1163_, 3012
_ZN6qrcode6canvas14mask_functions16horizontal_lines17h0c5de493f21ce1a3E_1164_, 3013
_ZN4core4iter6traits8iterator8Iterator4fold17had50487807a5fe23E_1165_, 3014
_ZN4core6option15Option$LT$T$GT$3map17h1a47d23c8837b815E_1166_, 3015
_ZN4core6option15Option$LT$T$GT$3map17h1a47d23c8837b815E_1167_, 3016
_ZN56_$LT$i16$u20$as$u20$checked_int_cast..CheckedIntCast$GT$16as_usize_checked17hf8c27e538d0e444fE_1168_, 3017
_ZN6qrcode6canvas6Canvas15coords_to_index17h392521962941e573E_1169_, 3018
_ZN4core6option15Option$LT$T$GT$3map17h1a47d23c8837b815E_1170_, 3019
_ZN6qrcode6canvas6Canvas15coords_to_index17h392521962941e573E_1171_, 3020
_ZN6qrcode6canvas14mask_functions16horizontal_lines17h0c5de493f21ce1a3E_1172_, 3021
_ZN5alloc7raw_vec19RawVec$LT$T$C$A$GT$11allocate_in17h29fe1f804abc0cc2E_1173_, 3022
_ZN56_$LT$i16$u20$as$u20$checked_int_cast..CheckedIntCast$GT$16as_usize_checked17hf8c27e538d0e444fE_1174_, 3023
_ZN4core4iter6traits8iterator8Iterator4fold17had50487807a5fe23E_1175_, 3024
_ZN4core6option15Option$LT$T$GT$3map17h1a47d23c8837b815E_1176_, 3025
_ZN5alloc5alloc6Global10alloc_impl17h1f328160f76f12cfE_1177_, 3026
_ZN5alloc7raw_vec19RawVec$LT$T$C$A$GT$11allocate_in17h344cc4811a228da3E_1178_, 3027
_ZN4core3ptr41drop_in_place$LT$std..io..error..Repr$GT$17haedb15029a9f36edE_1179_, 3028
_ZN5alloc5alloc6Global10alloc_impl17h1f328160f76f12cfE_1180_, 3029
_ZN6qrcode6canvas6Canvas15coords_to_index17h392521962941e573E_1181_, 3030
_ZN4core3num23_$LT$impl$u20$usize$GT$11checked_add17h096d975beb745572E_1182_, 3031
_ZN47_$LT$u32$u20$as$u20$core..iter..range..Step$GT$17forward_unchecked17h0db0511b979a7ca8E_1183_, 3032
_ZN4core4iter6traits8iterator8Iterator4fold17had50487807a5fe23E_1184_, 3033
_ZN6qrcode6canvas6Canvas15coords_to_index17h392521962941e573E_1185_, 3034
_ZN6qrcode6canvas6Canvas15coords_to_index17h392521962941e573E_1186_, 3035
_ZN56_$LT$i16$u20$as$u20$checked_int_cast..CheckedIntCast$GT$16as_usize_checked17hf8c27e538d0e444fE_1187_, 3036
_ZN56_$LT$i16$u20$as$u20$checked_int_cast..CheckedIntCast$GT$16as_usize_checked17hf8c27e538d0e444fE_1188_, 3037
_ZN3std2io5error5Error12raw_os_error17hff19ab5eadf4189dE_1189_, 3038
_ZN4core3num23_$LT$impl$u20$usize$GT$11checked_add17h096d975beb745572E_1190_, 3039
_ZN6qrcode6canvas6Canvas15coords_to_index17h392521962941e573E_1191_, 3040
_ZN47_$LT$u32$u20$as$u20$core..iter..range..Step$GT$17forward_unchecked17h0db0511b979a7ca8E_1192_, 3041
_ZN4core6option15Option$LT$T$GT$3map17h1a47d23c8837b815E_1193_, 3042
_ZN6qrcode6canvas14mask_functions16horizontal_lines17h0c5de493f21ce1a3E_1194_, 3043
_ZN56_$LT$i16$u20$as$u20$checked_int_cast..CheckedIntCast$GT$16as_usize_checked17hf8c27e538d0e444fE_1195_, 3044
_ZN3std2io5error5Error12raw_os_error17h18499eac9d8bea1cE_1196_, 3045
_ZN80_$LT$core..option..Option$LT$T$GT$$u20$as$u20$qrcode..cast..ExpectOrOverflow$GT$18expect_or_overflow17hcc565ad86b0a8398E_1197_, 3046
_ZN6qrcode6canvas6Canvas15coords_to_index17h392521962941e573E_1198_, 3047
_ZN6qrcode6canvas14mask_functions16horizontal_lines17h0c5de493f21ce1a3E_1199_, 3048
_ZN4core6option15Option$LT$T$GT$3map17h1a47d23c8837b815E_1200_, 3049
_ZN56_$LT$i16$u20$as$u20$checked_int_cast..CheckedIntCast$GT$16as_usize_checked17hf8c27e538d0e444fE_1201_, 3050
_ZN4core4iter6traits8iterator8Iterator4fold17had50487807a5fe23E_1202_, 3051
_ZN77_$LT$alloc..raw_vec..RawVec$LT$T$C$A$GT$$u20$as$u20$core..ops..drop..Drop$GT$4drop17h2653c8de238d7e6bE_1203_, 3052
_ZN56_$LT$usize$u20$as$u20$core..iter..traits..accum..Sum$GT$3sum28_$u7b$$u7b$closure$u7d$$u7d$17h54dbf9b2464cbac5E_1204_, 3053
_ZN4core4iter6traits8iterator8Iterator4fold17had50487807a5fe23E_1205_, 3054
_ZN6qrcode6canvas14mask_functions16horizontal_lines17h0c5de493f21ce1a3E_1206_, 3055
_ZN75_$LT$core..option..Option$LT$T$GT$$u20$as$u20$core..ops..try_trait..Try$GT$6branch17h00056140ba3de476E_1207_, 3056
_ZN4core6option15Option$LT$T$GT$3map17h1a47d23c8837b815E_1208_, 3057
_ZN6qrcode6canvas14mask_functions16horizontal_lines17h0c5de493f21ce1a3E_1209_, 3058
_ZN56_$LT$i16$u20$as$u20$checked_int_cast..CheckedIntCast$GT$16as_usize_checked17hf8c27e538d0e444fE_1210_, 3059
_ZN56_$LT$usize$u20$as$u20$core..iter..traits..accum..Sum$GT$3sum28_$u7b$$u7b$closure$u7d$$u7d$17h54dbf9b2464cbac5E_1211_, 3060
_ZN56_$LT$i16$u20$as$u20$checked_int_cast..CheckedIntCast$GT$16as_usize_checked17hf8c27e538d0e444fE_1212_, 3061
_ZN56_$LT$i16$u20$as$u20$checked_int_cast..CheckedIntCast$GT$16as_usize_checked17hf8c27e538d0e444fE_1213_, 3062
_ZN56_$LT$char$u20$as$u20$qrcode..render..string..Element$GT$13default_color17hc33573a548f8f261E_1214_, 3063
_ZN80_$LT$core..option..Option$LT$T$GT$$u20$as$u20$qrcode..cast..ExpectOrOverflow$GT$18expect_or_overflow17h0299d77236c2d7f5E_1215_, 3064
_ZN6qrcode6canvas6Canvas20draw_finder_patterns17hdd8f6522c27cb362E_1216_, 3065
_ZN56_$LT$i16$u20$as$u20$checked_int_cast..CheckedIntCast$GT$16as_usize_checked17hf8c27e538d0e444fE_1217_, 3066
_ZN6qrcode6canvas6Canvas15coords_to_index17h392521962941e573E_1218_, 3067
_ZN5alloc7raw_vec19RawVec$LT$T$C$A$GT$11allocate_in17h29fe1f804abc0cc2E_1219_, 3068
_ZN6qrcode6canvas14mask_functions16horizontal_lines17h0c5de493f21ce1a3E_1220_, 3069
_ZN4core4iter6traits8iterator8Iterator4fold17had50487807a5fe23E_1221_, 3070
_ZN4core3num23_$LT$impl$u20$usize$GT$11checked_add17h096d975beb745572E_1222_, 3071
_ZN6qrcode6canvas14mask_functions16horizontal_lines17h0c5de493f21ce1a3E_1223_, 3072
_ZN3std2io5error5Error12raw_os_error17h18499eac9d8bea1cE_1224_, 3073
_ZN6qrcode6canvas14mask_functions16horizontal_lines17h0c5de493f21ce1a3E_1225_, 3074
_ZN4core6option15Option$LT$T$GT$3map17h1a47d23c8837b815E_1226_, 3075
_ZN4core3num23_$LT$impl$u20$usize$GT$11checked_add17h096d975beb745572E_1227_, 3076
_ZN6qrcode6canvas6Canvas15coords_to_index17h392521962941e573E_1228_, 3077
_ZN56_$LT$usize$u20$as$u20$core..iter..traits..accum..Sum$GT$3sum28_$u7b$$u7b$closure$u7d$$u7d$17h54dbf9b2464cbac5E_1229_, 3078
_ZN6qrcode6canvas14mask_functions16horizontal_lines17h0c5de493f21ce1a3E_1230_, 3079
_ZN4core6option15Option$LT$T$GT$3map17h1a47d23c8837b815E_1231_, 3080
_ZN6qrcode6canvas6Canvas15coords_to_index17h392521962941e573E_1232_, 3081
_ZN4core4iter6traits8iterator8Iterator4fold17had50487807a5fe23E_1233_, 3082
_ZN6qrcode6canvas14mask_functions16horizontal_lines17h0c5de493f21ce1a3E_1234_, 3083
_ZN60_$LT$dyn$u20$rand_core..RngCore$u20$as$u20$std..io..Read$GT$4read17h91adfdc68e7ce606E_1235_, 3084
_ZN102_$LT$core..iter..adapters..cycle..Cycle$LT$I$GT$$u20$as$u20$core..iter..traits..iterator..Iterator$GT$9size_hint17hb562490e751a5104E_1236_, 3085
_ZN56_$LT$i16$u20$as$u20$checked_int_cast..CheckedIntCast$GT$16as_usize_checked17hf8c27e538d0e444fE_1237_, 3086
_ZN56_$LT$i16$u20$as$u20$checked_int_cast..CheckedIntCast$GT$16as_usize_checked17hf8c27e538d0e444fE_1238_, 3087
_ZN6qrcode6canvas6Canvas15coords_to_index17h392521962941e573E_1239_, 3088
_ZN6qrcode6canvas14mask_functions16horizontal_lines17h0c5de493f21ce1a3E_1240_, 3089
_ZN6qrcode6canvas14mask_functions16horizontal_lines17h0c5de493f21ce1a3E_1241_, 3090
_ZN4core6option15Option$LT$T$GT$3map17h1a47d23c8837b815E_1242_, 3091
_ZN6qrcode6canvas14mask_functions16horizontal_lines17h0c5de493f21ce1a3E_1243_, 3092
_ZN4core3num23_$LT$impl$u20$usize$GT$11checked_add17h096d975beb745572E_1244_, 3093
_ZN56_$LT$i16$u20$as$u20$checked_int_cast..CheckedIntCast$GT$16as_usize_checked17hf8c27e538d0e444fE_1245_, 3094
_ZN47_$LT$u32$u20$as$u20$core..iter..range..Step$GT$17forward_unchecked17h0db0511b979a7ca8E_1246_, 3095
_ZN56_$LT$i16$u20$as$u20$checked_int_cast..CheckedIntCast$GT$16as_usize_checked17hf8c27e538d0e444fE_1247_, 3096
_ZN102_$LT$core..iter..adapters..cycle..Cycle$LT$I$GT$$u20$as$u20$core..iter..traits..iterator..Iterator$GT$9size_hint17hb562490e751a5104E_1248_, 3097
_ZN5alloc7raw_vec19RawVec$LT$T$C$A$GT$11allocate_in17h29fe1f804abc0cc2E_1249_, 3098
_ZN80_$LT$core..option..Option$LT$T$GT$$u20$as$u20$qrcode..cast..ExpectOrOverflow$GT$18expect_or_overflow17hcc565ad86b0a8398E_1250_, 3099
_ZN56_$LT$i16$u20$as$u20$checked_int_cast..CheckedIntCast$GT$16as_usize_checked17hf8c27e538d0e444fE_1251_, 3100
_ZN56_$LT$i16$u20$as$u20$checked_int_cast..CheckedIntCast$GT$16as_usize_checked17hf8c27e538d0e444fE_1252_, 3101
_ZN6qrcode6canvas6Canvas15coords_to_index17h392521962941e573E_1253_, 3102
_ZN102_$LT$core..iter..adapters..cycle..Cycle$LT$I$GT$$u20$as$u20$core..iter..traits..iterator..Iterator$GT$9size_hint17hb562490e751a5104E_1254_, 3103
_ZN4core6option15Option$LT$T$GT$3map17h1a47d23c8837b815E_1255_, 3104
_ZN56_$LT$i16$u20$as$u20$checked_int_cast..CheckedIntCast$GT$16as_usize_checked17hf8c27e538d0e444fE_1256_, 3105
_ZN56_$LT$i16$u20$as$u20$checked_int_cast..CheckedIntCast$GT$16as_usize_checked17hf8c27e538d0e444fE_1257_, 3106
_ZN6qrcode6canvas14mask_functions16horizontal_lines17h0c5de493f21ce1a3E_1258_, 3107
_ZN6qrcode6canvas14mask_functions16horizontal_lines17h0c5de493f21ce1a3E_1259_, 3108
_ZN6qrcode6canvas14mask_functions16horizontal_lines17h0c5de493f21ce1a3E_1260_, 3109
_ZN4core6option15Option$LT$T$GT$3map17h1a47d23c8837b815E_1261_, 3110
_ZN5alloc7raw_vec19RawVec$LT$T$C$A$GT$11allocate_in17h29fe1f804abc0cc2E_1262_, 3111
_ZN5alloc7raw_vec19RawVec$LT$T$C$A$GT$11allocate_in17h29fe1f804abc0cc2E_1263_, 3112
_ZN56_$LT$usize$u20$as$u20$core..iter..traits..accum..Sum$GT$3sum28_$u7b$$u7b$closure$u7d$$u7d$17h54dbf9b2464cbac5E_1264_, 3113
_ZN4core3num23_$LT$impl$u20$usize$GT$11checked_add17h096d975beb745572E_1265_, 3114
_ZN5alloc7raw_vec19RawVec$LT$T$C$A$GT$11allocate_in17h29fe1f804abc0cc2E_1266_, 3115
_ZN6qrcode6canvas14mask_functions16horizontal_lines17h0c5de493f21ce1a3E_1267_, 3116
_ZN6qrcode6canvas6Canvas15coords_to_index17h392521962941e573E_1268_, 3117
_ZN6qrcode6canvas14mask_functions16horizontal_lines17h0c5de493f21ce1a3E_1269_, 3118
_ZN56_$LT$i16$u20$as$u20$checked_int_cast..CheckedIntCast$GT$16as_usize_checked17hf8c27e538d0e444fE_1270_, 3119
_ZN6qrcode6canvas6Canvas15coords_to_index17h392521962941e573E_1271_, 3120
_ZN5alloc7raw_vec19RawVec$LT$T$C$A$GT$11allocate_in17h29fe1f804abc0cc2E_1272_, 3121
_ZN4core4iter6traits8iterator8Iterator4fold17had50487807a5fe23E_1273_, 3122
_ZN4core3num23_$LT$impl$u20$usize$GT$11checked_add17h096d975beb745572E_1274_, 3123
_ZN47_$LT$u32$u20$as$u20$core..iter..range..Step$GT$17forward_unchecked17h0db0511b979a7ca8E_1275_, 3124
_ZN4core6option15Option$LT$T$GT$3map17h1a47d23c8837b815E_1276_, 3125
_ZN4core6option15Option$LT$T$GT$3map17h1a47d23c8837b815E_1277_, 3126
_ZN6qrcode6canvas14mask_functions16horizontal_lines17h0c5de493f21ce1a3E_1278_, 3127
_ZN56_$LT$i16$u20$as$u20$checked_int_cast..CheckedIntCast$GT$16as_usize_checked17hf8c27e538d0e444fE_1279_, 3128
_ZN6qrcode6canvas6Canvas15coords_to_index17h392521962941e573E_1280_, 3129
_ZN6qrcode6canvas6Canvas15coords_to_index17h392521962941e573E_1281_, 3130
_ZN6qrcode6canvas14mask_functions16horizontal_lines17h0c5de493f21ce1a3E_1282_, 3131
_ZN6qrcode6canvas6Canvas15coords_to_index17h392521962941e573E_1283_, 3132
_ZN6qrcode6canvas6Canvas15coords_to_index17h392521962941e573E_1284_, 3133
_ZN4core6option15Option$LT$T$GT$3map17h1a47d23c8837b815E_1285_, 3134
_ZN56_$LT$i16$u20$as$u20$checked_int_cast..CheckedIntCast$GT$16as_usize_checked17hf8c27e538d0e444fE_1286_, 3135
_ZN6qrcode6canvas14mask_functions16horizontal_lines17h0c5de493f21ce1a3E_1287_, 3136
_ZN5alloc5alloc6Global10alloc_impl17h1f328160f76f12cfE_1288_, 3137
_ZN56_$LT$i16$u20$as$u20$checked_int_cast..CheckedIntCast$GT$16as_usize_checked17hf8c27e538d0e444fE_1289_, 3138
_ZN5alloc7raw_vec19RawVec$LT$T$C$A$GT$11allocate_in17h29fe1f804abc0cc2E_1290_, 3139
_ZN4core6option15Option$LT$T$GT$3map17h1a47d23c8837b815E_1291_, 3140
_ZN4core4iter6traits8iterator8Iterator4fold17had50487807a5fe23E_1292_, 3141
_ZN56_$LT$i16$u20$as$u20$checked_int_cast..CheckedIntCast$GT$16as_usize_checked17hf8c27e538d0e444fE_1293_, 3142
_ZN4core6option15Option$LT$T$GT$3map17h1a47d23c8837b815E_1294_, 3143
_ZN4core3num23_$LT$impl$u20$usize$GT$11checked_add17h096d975beb745572E_1295_, 3144
_ZN4core6option15Option$LT$T$GT$3map17h1a47d23c8837b815E_1296_, 3145
_ZN56_$LT$i16$u20$as$u20$checked_int_cast..CheckedIntCast$GT$16as_usize_checked17hf8c27e538d0e444fE_1297_, 3146
_ZN6qrcode6canvas14mask_functions16horizontal_lines17h0c5de493f21ce1a3E_1298_, 3147
_ZN5alloc5alloc6Global10alloc_impl17h1f328160f76f12cfE_1299_, 3148
_ZN6qrcode6canvas14mask_functions16horizontal_lines17h0c5de493f21ce1a3E_1300_, 3149
_ZN4core3num23_$LT$impl$u20$usize$GT$11checked_add17h096d975beb745572E_1301_, 3150
_ZN4core4iter6traits8iterator8Iterator4fold17had50487807a5fe23E_1302_, 3151
_ZN56_$LT$i16$u20$as$u20$checked_int_cast..CheckedIntCast$GT$16as_usize_checked17hf8c27e538d0e444fE_1303_, 3152
_ZN56_$LT$usize$u20$as$u20$core..iter..traits..accum..Sum$GT$3sum28_$u7b$$u7b$closure$u7d$$u7d$17h54dbf9b2464cbac5E_1304_, 3153
_ZN6qrcode6canvas6Canvas20draw_finder_patterns17hdd8f6522c27cb362E_1305_, 3154
_ZN5alloc5alloc6Global10alloc_impl17h1f328160f76f12cfE_1306_, 3155
_ZN5alloc5alloc6Global10alloc_impl17h1f328160f76f12cfE_1307_, 3156
_ZN56_$LT$i16$u20$as$u20$checked_int_cast..CheckedIntCast$GT$16as_usize_checked17hf8c27e538d0e444fE_1308_, 3157
_ZN6qrcode6canvas6Canvas15coords_to_index17h392521962941e573E_1309_, 3158
_ZN6qrcode6canvas6Canvas15coords_to_index17h392521962941e573E_1310_, 3159
_ZN56_$LT$i16$u20$as$u20$checked_int_cast..CheckedIntCast$GT$16as_usize_checked17hf8c27e538d0e444fE_1311_, 3160
_ZN4core4iter6traits8iterator8Iterator4fold17had50487807a5fe23E_1312_, 3161
_ZN56_$LT$i16$u20$as$u20$checked_int_cast..CheckedIntCast$GT$16as_usize_checked17hf8c27e538d0e444fE_1313_, 3162
_ZN4core4iter6traits8iterator8Iterator4fold17had50487807a5fe23E_1314_, 3163
_ZN75_$LT$core..option..Option$LT$T$GT$$u20$as$u20$core..ops..try_trait..Try$GT$6branch17h00056140ba3de476E_1315_, 3164
_ZN6qrcode6canvas14mask_functions16horizontal_lines17h0c5de493f21ce1a3E_1316_, 3165
_ZN5alloc7raw_vec19RawVec$LT$T$C$A$GT$11allocate_in17h29fe1f804abc0cc2E_1317_, 3166
_ZN4core3num23_$LT$impl$u20$usize$GT$11checked_add17h096d975beb745572E_1318_, 3167
_ZN5alloc5alloc6Global10alloc_impl17h1f328160f76f12cfE_1319_, 3168
_ZN5alloc7raw_vec19RawVec$LT$T$C$A$GT$11allocate_in17h29fe1f804abc0cc2E_1320_, 3169
_ZN5alloc5alloc6Global10alloc_impl17h1f328160f76f12cfE_1321_, 3170
_ZN5alloc7raw_vec19RawVec$LT$T$C$A$GT$14grow_amortized17h14d11f244aa212b0E_1322_, 3171
_ZN4core10intrinsics19copy_nonoverlapping17hd9866c2fcb327602E_1323_, 3172
_ZN5alloc5alloc6Global10alloc_impl17h1f328160f76f12cfE_1324_, 3173
_ZN3std2io5error5Error12raw_os_error17h18499eac9d8bea1cE_1325_, 3174
_ZN5alloc5alloc6Global10alloc_impl17h1f328160f76f12cfE_1326_, 3175
_ZN4core4iter6traits8iterator8Iterator4fold17had50487807a5fe23E_1327_, 3176
_ZN4core4iter6traits8iterator8Iterator4fold17had50487807a5fe23E_1328_, 3177
_ZN4core4iter6traits8iterator8Iterator4fold17had50487807a5fe23E_1329_, 3178
_ZN4core3ptr41drop_in_place$LT$std..io..error..Repr$GT$17haedb15029a9f36edE_1330_, 3179
_ZN6qrcode6canvas6Canvas15coords_to_index17h392521962941e573E_1331_, 3180
_ZN4core4iter6traits8iterator8Iterator4fold17had50487807a5fe23E_1332_, 3181
_ZN4core6option15Option$LT$T$GT$3map17h1a47d23c8837b815E_1333_, 3182
_ZN56_$LT$i16$u20$as$u20$checked_int_cast..CheckedIntCast$GT$16as_usize_checked17hf8c27e538d0e444fE_1334_, 3183
_ZN56_$LT$i16$u20$as$u20$checked_int_cast..CheckedIntCast$GT$16as_usize_checked17hf8c27e538d0e444fE_1335_, 3184
_ZN4core4iter6traits8iterator8Iterator4fold17had50487807a5fe23E_1336_, 3185
_ZN4core3num23_$LT$impl$u20$usize$GT$11checked_add17h096d975beb745572E_1337_, 3186
_ZN4core6option15Option$LT$T$GT$3map17h1a47d23c8837b815E_1338_, 3187
_ZN56_$LT$i16$u20$as$u20$checked_int_cast..CheckedIntCast$GT$16as_usize_checked17hf8c27e538d0e444fE_1339_, 3188
_ZN6qrcode6canvas6Canvas15coords_to_index17h392521962941e573E_1340_, 3189
_ZN6qrcode6canvas6Canvas15coords_to_index17h392521962941e573E_1341_, 3190
_ZN56_$LT$usize$u20$as$u20$core..iter..traits..accum..Sum$GT$3sum28_$u7b$$u7b$closure$u7d$$u7d$17h54dbf9b2464cbac5E_1342_, 3191
_ZN56_$LT$i16$u20$as$u20$checked_int_cast..CheckedIntCast$GT$16as_usize_checked17hf8c27e538d0e444fE_1343_, 3192
_ZN4core6option15Option$LT$T$GT$3map17h1a47d23c8837b815E_1344_, 3193
_ZN6qrcode6canvas14mask_functions16horizontal_lines17h0c5de493f21ce1a3E_1345_, 3194
_ZN3std2io5error5Error12raw_os_error17hff19ab5eadf4189dE_1346_, 3195
_ZN56_$LT$char$u20$as$u20$qrcode..render..string..Element$GT$13default_color17hc33573a548f8f261E_1347_, 3196
_ZN6qrcode6canvas14mask_functions16horizontal_lines17h0c5de493f21ce1a3E_1348_, 3197
_ZN56_$LT$i16$u20$as$u20$checked_int_cast..CheckedIntCast$GT$16as_usize_checked17hf8c27e538d0e444fE_1349_, 3198
_ZN47_$LT$u32$u20$as$u20$core..iter..range..Step$GT$17forward_unchecked17h0db0511b979a7ca8E_1350_, 3199
_ZN5alloc7raw_vec19RawVec$LT$T$C$A$GT$11allocate_in17h29fe1f804abc0cc2E_1351_, 3200
_ZN6qrcode6canvas6Canvas15coords_to_index17h392521962941e573E_1352_, 3201
_ZN56_$LT$i16$u20$as$u20$checked_int_cast..CheckedIntCast$GT$16as_usize_checked17hf8c27e538d0e444fE_1353_, 3202
_ZN6qrcode6canvas14mask_functions16horizontal_lines17h0c5de493f21ce1a3E_1354_, 3203
_ZN5alloc5alloc6Global10alloc_impl17h1f328160f76f12cfE_1355_, 3204
_ZN60_$LT$qrcode..types..Mode$u20$as$u20$core..cmp..PartialEq$GT$2eq17ha263fa5e4af74859E_1356_, 3205
_ZN4core4iter6traits8iterator8Iterator4fold17had50487807a5fe23E_1357_, 3206
_ZN6qrcode6canvas14mask_functions16horizontal_lines17h0c5de493f21ce1a3E_1358_, 3207
_ZN4core4iter6traits8iterator8Iterator4fold17had50487807a5fe23E_1359_, 3208
_ZN56_$LT$usize$u20$as$u20$core..iter..traits..accum..Sum$GT$3sum28_$u7b$$u7b$closure$u7d$$u7d$17h54dbf9b2464cbac5E_1360_, 3209
_ZN6qrcode6canvas6Canvas15coords_to_index17h392521962941e573E_1361_, 3210
_ZN56_$LT$i16$u20$as$u20$checked_int_cast..CheckedIntCast$GT$16as_usize_checked17hf8c27e538d0e444fE_1362_, 3211
_ZN6qrcode6canvas14mask_functions16horizontal_lines17h0c5de493f21ce1a3E_1363_, 3212
_ZN6qrcode6canvas6Canvas15coords_to_index17h392521962941e573E_1364_, 3213
_ZN6qrcode6canvas14mask_functions16horizontal_lines17h0c5de493f21ce1a3E_1365_, 3214
_ZN6qrcode6canvas14mask_functions16horizontal_lines17h0c5de493f21ce1a3E_1366_, 3215
_ZN6qrcode6canvas6Canvas15coords_to_index17h392521962941e573E_1367_, 3216
_ZN5alloc5alloc6Global10alloc_impl17h1f328160f76f12cfE_1368_, 3217
_ZN6qrcode6canvas14mask_functions16horizontal_lines17h0c5de493f21ce1a3E_1369_, 3218
_ZN4core6option15Option$LT$T$GT$3map17h1a47d23c8837b815E_1370_, 3219
_ZN5alloc5alloc6Global10alloc_impl17h1f328160f76f12cfE_1371_, 3220
_ZN4core6option15Option$LT$T$GT$3map17h1a47d23c8837b815E_1372_, 3221
_ZN4core6option15Option$LT$T$GT$3map17h1a47d23c8837b815E_1373_, 3222
_ZN6qrcode6canvas6Canvas15coords_to_index17h392521962941e573E_1374_, 3223
_ZN5alloc7raw_vec19RawVec$LT$T$C$A$GT$11allocate_in17h29fe1f804abc0cc2E_1375_, 3224
_ZN4core3num23_$LT$impl$u20$usize$GT$11checked_add17h096d975beb745572E_1376_, 3225
_ZN56_$LT$i16$u20$as$u20$checked_int_cast..CheckedIntCast$GT$16as_usize_checked17hf8c27e538d0e444fE_1377_, 3226
_ZN4core6option15Option$LT$T$GT$3map17h1a47d23c8837b815E_1378_, 3227
_ZN4core6option15Option$LT$T$GT$3map17h1a47d23c8837b815E_1379_, 3228
_ZN4core4iter6traits8iterator8Iterator4fold17had50487807a5fe23E_1380_, 3229
_ZN6qrcode6canvas6Canvas15coords_to_index17h392521962941e573E_1381_, 3230
_ZN102_$LT$core..iter..adapters..cycle..Cycle$LT$I$GT$$u20$as$u20$core..iter..traits..iterator..Iterator$GT$9size_hint17hb562490e751a5104E_1382_, 3231
_ZN6qrcode6canvas6Canvas15coords_to_index17h392521962941e573E_1383_, 3232
_ZN56_$LT$i16$u20$as$u20$checked_int_cast..CheckedIntCast$GT$16as_usize_checked17hf8c27e538d0e444fE_1384_, 3233
_ZN5alloc7raw_vec19RawVec$LT$T$C$A$GT$11allocate_in17h29fe1f804abc0cc2E_1385_, 3234
_ZN60_$LT$dyn$u20$rand_core..RngCore$u20$as$u20$std..io..Read$GT$4read17h91adfdc68e7ce606E_1386_, 3235
_ZN4core6option15Option$LT$T$GT$3map17h1a47d23c8837b815E_1387_, 3236
_ZN6qrcode6canvas6Canvas15coords_to_index17h392521962941e573E_1388_, 3237
_ZN5alloc7raw_vec19RawVec$LT$T$C$A$GT$11allocate_in17h29fe1f804abc0cc2E_1389_, 3238
_ZN80_$LT$core..option..Option$LT$T$GT$$u20$as$u20$qrcode..cast..ExpectOrOverflow$GT$18expect_or_overflow17hcc565ad86b0a8398E_1390_, 3239
_ZN4core4iter6traits8iterator8Iterator4fold17had50487807a5fe23E_1391_, 3240
_ZN4core6option15Option$LT$T$GT$3map17h1a47d23c8837b815E_1392_, 3241
_ZN47_$LT$u32$u20$as$u20$core..iter..range..Step$GT$17forward_unchecked17h0db0511b979a7ca8E_1393_, 3242
_ZN6qrcode6canvas6Canvas15coords_to_index17h392521962941e573E_1394_, 3243
_ZN3std2io5error5Error12raw_os_error17h18499eac9d8bea1cE_1395_, 3244
_ZN4core4iter6traits8iterator8Iterator4fold17had50487807a5fe23E_1396_, 3245
_ZN47_$LT$u32$u20$as$u20$core..iter..range..Step$GT$17forward_unchecked17h0db0511b979a7ca8E_1397_, 3246
_ZN3std2io5error5Error12raw_os_error17h18499eac9d8bea1cE_1398_, 3247
_ZN56_$LT$i16$u20$as$u20$checked_int_cast..CheckedIntCast$GT$16as_usize_checked17hf8c27e538d0e444fE_1399_, 3248
_ZN4core6option15Option$LT$T$GT$3map17h1a47d23c8837b815E_1400_, 3249
_ZN47_$LT$u32$u20$as$u20$core..iter..range..Step$GT$17forward_unchecked17h0db0511b979a7ca8E_1401_, 3250
_ZN56_$LT$i16$u20$as$u20$checked_int_cast..CheckedIntCast$GT$16as_usize_checked17hf8c27e538d0e444fE_1402_, 3251
_ZN56_$LT$i16$u20$as$u20$checked_int_cast..CheckedIntCast$GT$16as_usize_checked17hf8c27e538d0e444fE_1403_, 3252
_ZN56_$LT$i16$u20$as$u20$checked_int_cast..CheckedIntCast$GT$16as_usize_checked17hf8c27e538d0e444fE_1404_, 3253
_ZN6qrcode6canvas6Canvas20draw_finder_patterns17hdd8f6522c27cb362E_1405_, 3254
_ZN5alloc5alloc6Global10alloc_impl17h1f328160f76f12cfE_1406_, 3255
_ZN47_$LT$u32$u20$as$u20$core..iter..range..Step$GT$17forward_unchecked17h0db0511b979a7ca8E_1407_, 3256
_ZN6qrcode5types7Version8is_micro17hdb4237c14d4fb839E_1408_, 3257
_ZN5alloc5alloc6Global10alloc_impl17h1f328160f76f12cfE_1409_, 3258
_ZN4core6option15Option$LT$T$GT$3map17h1a47d23c8837b815E_1410_, 3259
_ZN6qrcode6canvas14mask_functions16horizontal_lines17h0c5de493f21ce1a3E_1411_, 3260
_ZN47_$LT$u32$u20$as$u20$core..iter..range..Step$GT$17forward_unchecked17h0db0511b979a7ca8E_1412_, 3261
_ZN56_$LT$i16$u20$as$u20$checked_int_cast..CheckedIntCast$GT$16as_usize_checked17hf8c27e538d0e444fE_1413_, 3262
_ZN6qrcode6canvas6Canvas15coords_to_index17h392521962941e573E_1414_, 3263
_ZN4core6option15Option$LT$T$GT$3map17h1a47d23c8837b815E_1415_, 3264
_ZN5alloc7raw_vec19RawVec$LT$T$C$A$GT$11allocate_in17h29fe1f804abc0cc2E_1416_, 3265
_ZN75_$LT$core..option..Option$LT$T$GT$$u20$as$u20$core..ops..try_trait..Try$GT$6branch17h00056140ba3de476E_1417_, 3266
_ZN4core3num23_$LT$impl$u20$usize$GT$11checked_add17h096d975beb745572E_1418_, 3267
_ZN4core6option15Option$LT$T$GT$3map17h1a47d23c8837b815E_1419_, 3268
_ZN6qrcode6canvas6Canvas15coords_to_index17h392521962941e573E_1420_, 3269
_ZN6qrcode6canvas14mask_functions16horizontal_lines17h0c5de493f21ce1a3E_1421_, 3270
_ZN56_$LT$i16$u20$as$u20$checked_int_cast..CheckedIntCast$GT$16as_usize_checked17hf8c27e538d0e444fE_1422_, 3271
_ZN3std2io5error5Error12raw_os_error17hff19ab5eadf4189dE_1423_, 3272
_ZN56_$LT$i16$u20$as$u20$checked_int_cast..CheckedIntCast$GT$16as_usize_checked17hf8c27e538d0e444fE_1424_, 3273
_ZN6qrcode6canvas6Canvas15coords_to_index17h392521962941e573E_1425_, 3274
_ZN56_$LT$usize$u20$as$u20$core..iter..traits..accum..Sum$GT$3sum28_$u7b$$u7b$closure$u7d$$u7d$17h54dbf9b2464cbac5E_1426_, 3275
_ZN4core6option15Option$LT$T$GT$3map17h1a47d23c8837b815E_1427_, 3276
_ZN6qrcode6canvas14mask_functions16horizontal_lines17h0c5de493f21ce1a3E_1428_, 3277
_ZN4core3num23_$LT$impl$u20$usize$GT$11checked_add17h096d975beb745572E_1429_, 3278
_ZN56_$LT$i16$u20$as$u20$checked_int_cast..CheckedIntCast$GT$16as_usize_checked17hf8c27e538d0e444fE_1430_, 3279
_ZN4core4iter6traits8iterator8Iterator4fold17had50487807a5fe23E_1431_, 3280
_ZN4core3num23_$LT$impl$u20$usize$GT$11checked_add17h096d975beb745572E_1432_, 3281
_ZN6qrcode6canvas6Canvas15coords_to_index17h392521962941e573E_1433_, 3282
_ZN4core4iter6traits8iterator8Iterator4fold17had50487807a5fe23E_1434_, 3283
_ZN6qrcode6canvas6Canvas15coords_to_index17h392521962941e573E_1435_, 3284
_ZN56_$LT$i16$u20$as$u20$checked_int_cast..CheckedIntCast$GT$16as_usize_checked17hf8c27e538d0e444fE_1436_, 3285
_ZN56_$LT$i16$u20$as$u20$checked_int_cast..CheckedIntCast$GT$16as_usize_checked17hf8c27e538d0e444fE_1437_, 3286
_ZN4core6option15Option$LT$T$GT$3map17h1a47d23c8837b815E_1438_, 3287
_ZN5alloc7raw_vec19RawVec$LT$T$C$A$GT$11allocate_in17h29fe1f804abc0cc2E_1439_, 3288
_ZN56_$LT$usize$u20$as$u20$core..iter..traits..accum..Sum$GT$3sum28_$u7b$$u7b$closure$u7d$$u7d$17h54dbf9b2464cbac5E_1440_, 3289
_ZN80_$LT$core..option..Option$LT$T$GT$$u20$as$u20$qrcode..cast..ExpectOrOverflow$GT$18expect_or_overflow17h0299d77236c2d7f5E_1441_, 3290
_ZN4core6option15Option$LT$T$GT$3map17h1a47d23c8837b815E_1442_, 3291
_ZN5alloc5alloc6Global10alloc_impl17h1f328160f76f12cfE_1443_, 3292
_ZN60_$LT$qrcode..types..Mode$u20$as$u20$core..cmp..PartialEq$GT$2eq17ha263fa5e4af74859E_1444_, 3293
_ZN4core6option15Option$LT$T$GT$3map17h1a47d23c8837b815E_1445_, 3294
_ZN4core6option15Option$LT$T$GT$3map17h1a47d23c8837b815E_1446_, 3295
_ZN56_$LT$i16$u20$as$u20$checked_int_cast..CheckedIntCast$GT$16as_usize_checked17hf8c27e538d0e444fE_1447_, 3296
_ZN75_$LT$core..option..Option$LT$T$GT$$u20$as$u20$core..ops..try_trait..Try$GT$6branch17h00056140ba3de476E_1448_, 3297
_ZN77_$LT$alloc..raw_vec..RawVec$LT$T$C$A$GT$$u20$as$u20$core..ops..drop..Drop$GT$4drop17h2653c8de238d7e6bE_1449_, 3298
_ZN56_$LT$i16$u20$as$u20$checked_int_cast..CheckedIntCast$GT$16as_usize_checked17hf8c27e538d0e444fE_1450_, 3299
_ZN56_$LT$i16$u20$as$u20$checked_int_cast..CheckedIntCast$GT$16as_usize_checked17hf8c27e538d0e444fE_1451_, 3300
_ZN4core4iter6traits8iterator8Iterator4fold17had50487807a5fe23E_1452_, 3301
_ZN4core6option15Option$LT$T$GT$3map17h1a47d23c8837b815E_1453_, 3302
_ZN5alloc5alloc6Global10alloc_impl17h1f328160f76f12cfE_1454_, 3303
_ZN56_$LT$i16$u20$as$u20$checked_int_cast..CheckedIntCast$GT$16as_usize_checked17hf8c27e538d0e444fE_1455_, 3304
_ZN4core4iter6traits8iterator8Iterator4fold17had50487807a5fe23E_1456_, 3305
_ZN60_$LT$dyn$u20$rand_core..RngCore$u20$as$u20$std..io..Read$GT$4read17h91adfdc68e7ce606E_1457_, 3306
_ZN4core6option15Option$LT$T$GT$3map17h1a47d23c8837b815E_1458_, 3307
_ZN4core4iter6traits8iterator8Iterator4fold17had50487807a5fe23E_1459_, 3308
_ZN4core4iter6traits8iterator8Iterator4fold17had50487807a5fe23E_1460_, 3309
_ZN80_$LT$core..option..Option$LT$T$GT$$u20$as$u20$qrcode..cast..ExpectOrOverflow$GT$18expect_or_overflow17h0299d77236c2d7f5E_1461_, 3310
_ZN4core4iter6traits8iterator8Iterator4fold17had50487807a5fe23E_1462_, 3311
_ZN6qrcode6canvas14mask_functions16horizontal_lines17h0c5de493f21ce1a3E_1463_, 3312
_ZN47_$LT$u32$u20$as$u20$core..iter..range..Step$GT$17forward_unchecked17h0db0511b979a7ca8E_1464_, 3313
_ZN56_$LT$i16$u20$as$u20$checked_int_cast..CheckedIntCast$GT$16as_usize_checked17hf8c27e538d0e444fE_1465_, 3314
_ZN56_$LT$char$u20$as$u20$qrcode..render..string..Element$GT$13default_color17hc33573a548f8f261E_1466_, 3315
_ZN6qrcode6canvas6Canvas15coords_to_index17h392521962941e573E_1467_, 3316
_ZN56_$LT$i16$u20$as$u20$checked_int_cast..CheckedIntCast$GT$16as_usize_checked17hf8c27e538d0e444fE_1468_, 3317
_ZN6qrcode6canvas14mask_functions16horizontal_lines17h0c5de493f21ce1a3E_1469_, 3318
_ZN56_$LT$i16$u20$as$u20$checked_int_cast..CheckedIntCast$GT$16as_usize_checked17hf8c27e538d0e444fE_1470_, 3319
_ZN6qrcode6canvas14mask_functions16horizontal_lines17h0c5de493f21ce1a3E_1471_, 3320
_ZN6qrcode6canvas14mask_functions16horizontal_lines17h0c5de493f21ce1a3E_1472_, 3321
_ZN6qrcode6canvas14mask_functions16horizontal_lines17h0c5de493f21ce1a3E_1473_, 3322
_ZN6qrcode6canvas6Canvas15coords_to_index17h392521962941e573E_1474_, 3323
_ZN5alloc7raw_vec19RawVec$LT$T$C$A$GT$11allocate_in17h29fe1f804abc0cc2E_1475_, 3324
_ZN6qrcode6canvas6Canvas15coords_to_index17h392521962941e573E_1476_, 3325
_ZN4core6option15Option$LT$T$GT$3map17h1a47d23c8837b815E_1477_, 3326
_ZN4core6option15Option$LT$T$GT$3map17h1a47d23c8837b815E_1478_, 3327
_ZN47_$LT$u32$u20$as$u20$core..iter..range..Step$GT$17forward_unchecked17h0db0511b979a7ca8E_1479_, 3328
_ZN56_$LT$i16$u20$as$u20$checked_int_cast..CheckedIntCast$GT$16as_usize_checked17hf8c27e538d0e444fE_1480_, 3329
_ZN80_$LT$core..option..Option$LT$T$GT$$u20$as$u20$qrcode..cast..ExpectOrOverflow$GT$18expect_or_overflow17hcc565ad86b0a8398E_1481_, 3330
_ZN56_$LT$usize$u20$as$u20$core..iter..traits..accum..Sum$GT$3sum28_$u7b$$u7b$closure$u7d$$u7d$17h54dbf9b2464cbac5E_1482_, 3331
_ZN56_$LT$i16$u20$as$u20$checked_int_cast..CheckedIntCast$GT$16as_usize_checked17hf8c27e538d0e444fE_1483_, 3332
_ZN6qrcode6canvas6Canvas15coords_to_index17h392521962941e573E_1484_, 3333
_ZN5alloc7raw_vec19RawVec$LT$T$C$A$GT$11allocate_in17h344cc4811a228da3E_1485_, 3334
_ZN6qrcode6canvas6Canvas15coords_to_index17h392521962941e573E_1486_, 3335
_ZN60_$LT$dyn$u20$rand_core..RngCore$u20$as$u20$std..io..Read$GT$4read17h91adfdc68e7ce606E_1487_, 3336
_ZN4core6option15Option$LT$T$GT$3map17h1a47d23c8837b815E_1488_, 3337
_ZN56_$LT$i16$u20$as$u20$checked_int_cast..CheckedIntCast$GT$16as_usize_checked17hf8c27e538d0e444fE_1489_, 3338
_ZN6qrcode6canvas6Canvas20draw_finder_patterns17hdd8f6522c27cb362E_1490_, 3339
_ZN5alloc7raw_vec19RawVec$LT$T$C$A$GT$11allocate_in17h29fe1f804abc0cc2E_1491_, 3340
_ZN4core4iter6traits8iterator8Iterator4fold17had50487807a5fe23E_1492_, 3341
_ZN6qrcode6canvas6Canvas15coords_to_index17h392521962941e573E_1493_, 3342
_ZN3std2io5error5Error12raw_os_error17hff19ab5eadf4189dE_1494_, 3343
_ZN47_$LT$u32$u20$as$u20$core..iter..range..Step$GT$17forward_unchecked17h0db0511b979a7ca8E_1495_, 3344
_ZN4core4iter6traits8iterator8Iterator4fold17had50487807a5fe23E_1496_, 3345
_ZN4core4iter6traits8iterator8Iterator4fold17had50487807a5fe23E_1497_, 3346
_ZN4core6option15Option$LT$T$GT$3map17h1a47d23c8837b815E_1498_, 3347
_ZN5alloc5alloc6Global10alloc_impl17h1f328160f76f12cfE_1499_, 3348
_ZN56_$LT$i16$u20$as$u20$checked_int_cast..CheckedIntCast$GT$16as_usize_checked17hf8c27e538d0e444fE_1500_, 3349
_ZN3std2io5error5Error12raw_os_error17hff19ab5eadf4189dE_1501_, 3350
_ZN5alloc5alloc6Global10alloc_impl17h1f328160f76f12cfE_1502_, 3351
_ZN4core6option15Option$LT$T$GT$3map17h1a47d23c8837b815E_1503_, 3352
_ZN5alloc5alloc6Global10alloc_impl17h1f328160f76f12cfE_1504_, 3353
_ZN4core6option15Option$LT$T$GT$3map17h1a47d23c8837b815E_1505_, 3354
_ZN3std2io5error5Error12raw_os_error17h18499eac9d8bea1cE_1506_, 3355
_ZN56_$LT$usize$u20$as$u20$core..iter..traits..accum..Sum$GT$3sum28_$u7b$$u7b$closure$u7d$$u7d$17h54dbf9b2464cbac5E_1507_, 3356
_ZN6qrcode5types7Version8is_micro17hdb4237c14d4fb839E_1508_, 3357
_ZN6qrcode6canvas6Canvas15coords_to_index17h392521962941e573E_1509_, 3358
_ZN4core6option15Option$LT$T$GT$3map17h1a47d23c8837b815E_1510_, 3359
_ZN6qrcode6canvas6Canvas15coords_to_index17h392521962941e573E_1511_, 3360
_ZN6qrcode6canvas14mask_functions16horizontal_lines17h0c5de493f21ce1a3E_1512_, 3361
_ZN4core4iter6traits8iterator8Iterator4fold17had50487807a5fe23E_1513_, 3362
_ZN6qrcode6canvas6Canvas15coords_to_index17h392521962941e573E_1514_, 3363
_ZN4core6option15Option$LT$T$GT$3map17h1a47d23c8837b815E_1515_, 3364
_ZN5alloc7raw_vec19RawVec$LT$T$C$A$GT$11allocate_in17h29fe1f804abc0cc2E_1516_, 3365
_ZN102_$LT$core..iter..adapters..cycle..Cycle$LT$I$GT$$u20$as$u20$core..iter..traits..iterator..Iterator$GT$9size_hint17hb562490e751a5104E_1517_, 3366
_ZN5alloc5alloc6Global10alloc_impl17h1f328160f76f12cfE_1518_, 3367
_ZN56_$LT$i16$u20$as$u20$checked_int_cast..CheckedIntCast$GT$16as_usize_checked17hf8c27e538d0e444fE_1519_, 3368
_ZN56_$LT$i16$u20$as$u20$checked_int_cast..CheckedIntCast$GT$16as_usize_checked17hf8c27e538d0e444fE_1520_, 3369
_ZN4core4iter6traits8iterator8Iterator4fold17had50487807a5fe23E_1521_, 3370
_ZN6qrcode6canvas6Canvas15coords_to_index17h392521962941e573E_1522_, 3371
_ZN6qrcode6canvas14mask_functions16horizontal_lines17h0c5de493f21ce1a3E_1523_, 3372
_ZN4core6option15Option$LT$T$GT$3map17h1a47d23c8837b815E_1524_, 3373
_ZN4core6option15Option$LT$T$GT$3map17h1a47d23c8837b815E_1525_, 3374
_ZN6qrcode6canvas6Canvas15coords_to_index17h392521962941e573E_1526_, 3375
_ZN47_$LT$u32$u20$as$u20$core..iter..range..Step$GT$17forward_unchecked17h0db0511b979a7ca8E_1527_, 3376
_ZN6qrcode6canvas14mask_functions16horizontal_lines17h0c5de493f21ce1a3E_1528_, 3377
_ZN6qrcode6canvas14mask_functions16horizontal_lines17h0c5de493f21ce1a3E_1529_, 3378
_ZN4core6option15Option$LT$T$GT$3map17h1a47d23c8837b815E_1530_, 3379
_ZN4core4iter6traits8iterator8Iterator4fold17had50487807a5fe23E_1531_, 3380
_ZN6qrcode6canvas6Canvas15coords_to_index17h392521962941e573E_1532_, 3381
_ZN5alloc5alloc6Global10alloc_impl17h1f328160f76f12cfE_1533_, 3382
_ZN6qrcode6canvas6Canvas15coords_to_index17h392521962941e573E_1534_, 3383
_ZN47_$LT$u32$u20$as$u20$core..iter..range..Step$GT$17forward_unchecked17h0db0511b979a7ca8E_1535_, 3384
_ZN4core4iter6traits8iterator8Iterator4fold17had50487807a5fe23E_1536_, 3385
_ZN6qrcode6canvas14mask_functions16horizontal_lines17h0c5de493f21ce1a3E_1537_, 3386
_ZN4core6option15Option$LT$T$GT$3map17h1a47d23c8837b815E_1538_, 3387
_ZN75_$LT$core..option..Option$LT$T$GT$$u20$as$u20$core..ops..try_trait..Try$GT$6branch17h00056140ba3de476E_1539_, 3388
_ZN56_$LT$i16$u20$as$u20$checked_int_cast..CheckedIntCast$GT$16as_usize_checked17hf8c27e538d0e444fE_1540_, 3389
_ZN4core4iter6traits8iterator8Iterator4fold17had50487807a5fe23E_1541_, 3390
_ZN6qrcode6canvas14mask_functions16horizontal_lines17h0c5de493f21ce1a3E_1542_, 3391
_ZN56_$LT$i16$u20$as$u20$checked_int_cast..CheckedIntCast$GT$16as_usize_checked17hf8c27e538d0e444fE_1543_, 3392
_ZN4core4iter6traits8iterator8Iterator4fold17had50487807a5fe23E_1544_, 3393
_ZN4core4iter6traits8iterator8Iterator4fold17had50487807a5fe23E_1545_, 3394
_ZN4core4iter6traits8iterator8Iterator4fold17had50487807a5fe23E_1546_, 3395
_ZN6qrcode6canvas6Canvas15coords_to_index17h392521962941e573E_1547_, 3396
_ZN47_$LT$u32$u20$as$u20$core..iter..range..Step$GT$17forward_unchecked17h0db0511b979a7ca8E_1548_, 3397
_ZN6qrcode6canvas6Canvas15coords_to_index17h392521962941e573E_1549_, 3398
_ZN56_$LT$i16$u20$as$u20$checked_int_cast..CheckedIntCast$GT$16as_usize_checked17hf8c27e538d0e444fE_1550_, 3399
_ZN6qrcode6canvas14mask_functions16horizontal_lines17h0c5de493f21ce1a3E_1551_, 3400
_ZN6qrcode6canvas6Canvas15coords_to_index17h392521962941e573E_1552_, 3401
_ZN6qrcode6canvas14mask_functions16horizontal_lines17h0c5de493f21ce1a3E_1553_, 3402
_ZN80_$LT$core..option..Option$LT$T$GT$$u20$as$u20$qrcode..cast..ExpectOrOverflow$GT$18expect_or_overflow17h0299d77236c2d7f5E_1554_, 3403
_ZN6qrcode6canvas14mask_functions16horizontal_lines17h0c5de493f21ce1a3E_1555_, 3404
_ZN6qrcode6canvas6Canvas15coords_to_index17h392521962941e573E_1556_, 3405
_ZN77_$LT$alloc..raw_vec..RawVec$LT$T$C$A$GT$$u20$as$u20$core..ops..drop..Drop$GT$4drop17h2653c8de238d7e6bE_1557_, 3406
_ZN6qrcode6canvas14mask_functions16horizontal_lines17h0c5de493f21ce1a3E_1558_, 3407
_ZN6qrcode6canvas6Canvas15coords_to_index17h392521962941e573E_1559_, 3408
_ZN6qrcode6canvas6Canvas15coords_to_index17h392521962941e573E_1560_, 3409
_ZN56_$LT$i16$u20$as$u20$checked_int_cast..CheckedIntCast$GT$16as_usize_checked17hf8c27e538d0e444fE_1561_, 3410
_ZN6qrcode6canvas6Canvas15coords_to_index17h392521962941e573E_1562_, 3411
_ZN4core4iter6traits8iterator8Iterator4fold17had50487807a5fe23E_1563_, 3412
_ZN6qrcode6canvas14mask_functions16horizontal_lines17h0c5de493f21ce1a3E_1564_, 3413
_ZN5alloc7raw_vec19RawVec$LT$T$C$A$GT$11allocate_in17h29fe1f804abc0cc2E_1565_, 3414
_ZN6qrcode6canvas6Canvas15coords_to_index17h392521962941e573E_1566_, 3415
_ZN6qrcode6canvas6Canvas15coords_to_index17h392521962941e573E_1567_, 3416
_ZN56_$LT$char$u20$as$u20$qrcode..render..string..Element$GT$13default_color17hc33573a548f8f261E_1568_, 3417
_ZN60_$LT$qrcode..types..Mode$u20$as$u20$core..cmp..PartialEq$GT$2eq17ha263fa5e4af74859E_1569_, 3418
_ZN102_$LT$core..iter..adapters..cycle..Cycle$LT$I$GT$$u20$as$u20$core..iter..traits..iterator..Iterator$GT$9size_hint17hb562490e751a5104E_1570_, 3419
_ZN56_$LT$usize$u20$as$u20$core..iter..traits..accum..Sum$GT$3sum28_$u7b$$u7b$closure$u7d$$u7d$17h54dbf9b2464cbac5E_1571_, 3420
_ZN5alloc7raw_vec19RawVec$LT$T$C$A$GT$11allocate_in17h29fe1f804abc0cc2E_1572_, 3421
_ZN4core6option15Option$LT$T$GT$3map17h1a47d23c8837b815E_1573_, 3422
_ZN4core6option15Option$LT$T$GT$3map17h1a47d23c8837b815E_1574_, 3423
_ZN6qrcode6canvas14mask_functions16horizontal_lines17h0c5de493f21ce1a3E_1575_, 3424
_ZN56_$LT$i16$u20$as$u20$checked_int_cast..CheckedIntCast$GT$16as_usize_checked17hf8c27e538d0e444fE_1576_, 3425
_ZN6qrcode6canvas6Canvas15coords_to_index17h392521962941e573E_1577_, 3426
_ZN6qrcode6canvas6Canvas15coords_to_index17h392521962941e573E_1578_, 3427
_ZN56_$LT$i16$u20$as$u20$checked_int_cast..CheckedIntCast$GT$16as_usize_checked17hf8c27e538d0e444fE_1579_, 3428
_ZN6qrcode6canvas6Canvas15coords_to_index17h392521962941e573E_1580_, 3429
_ZN56_$LT$i16$u20$as$u20$checked_int_cast..CheckedIntCast$GT$16as_usize_checked17hf8c27e538d0e444fE_1581_, 3430
_ZN4core6option15Option$LT$T$GT$3map17h1a47d23c8837b815E_1582_, 3431
_ZN4core6option15Option$LT$T$GT$3map17h1a47d23c8837b815E_1583_, 3432
_ZN4core3num23_$LT$impl$u20$usize$GT$11checked_add17h096d975beb745572E_1584_, 3433
_ZN56_$LT$usize$u20$as$u20$core..iter..traits..accum..Sum$GT$3sum28_$u7b$$u7b$closure$u7d$$u7d$17h54dbf9b2464cbac5E_1585_, 3434
_ZN6qrcode6canvas14mask_functions16horizontal_lines17h0c5de493f21ce1a3E_1586_, 3435
_ZN56_$LT$i16$u20$as$u20$checked_int_cast..CheckedIntCast$GT$16as_usize_checked17hf8c27e538d0e444fE_1587_, 3436
_ZN5alloc5alloc6Global10alloc_impl17h1f328160f76f12cfE_1588_, 3437
_ZN5alloc7raw_vec19RawVec$LT$T$C$A$GT$11allocate_in17h29fe1f804abc0cc2E_1589_, 3438
_ZN4core4iter6traits8iterator8Iterator4fold17had50487807a5fe23E_1590_, 3439
_ZN6qrcode6canvas6Canvas15coords_to_index17h392521962941e573E_1591_, 3440
_ZN56_$LT$i16$u20$as$u20$checked_int_cast..CheckedIntCast$GT$16as_usize_checked17hf8c27e538d0e444fE_1592_, 3441
_ZN6qrcode6canvas14mask_functions16horizontal_lines17h0c5de493f21ce1a3E_1593_, 3442
_ZN5alloc7raw_vec19RawVec$LT$T$C$A$GT$11allocate_in17h29fe1f804abc0cc2E_1594_, 3443
_ZN6qrcode6canvas14mask_functions16horizontal_lines17h0c5de493f21ce1a3E_1595_, 3444
_ZN4core6option15Option$LT$T$GT$3map17h1a47d23c8837b815E_1596_, 3445
_ZN4core4iter6traits8iterator8Iterator4fold17had50487807a5fe23E_1597_, 3446
_ZN4core3ptr41drop_in_place$LT$std..io..error..Repr$GT$17haedb15029a9f36edE_1598_, 3447
_ZN5alloc7raw_vec19RawVec$LT$T$C$A$GT$11allocate_in17h29fe1f804abc0cc2E_1599_, 3448
_ZN4core4iter6traits8iterator8Iterator4fold17had50487807a5fe23E_1600_, 3449
_ZN4core6option15Option$LT$T$GT$3map17h1a47d23c8837b815E_1601_, 3450
_ZN80_$LT$core..option..Option$LT$T$GT$$u20$as$u20$qrcode..cast..ExpectOrOverflow$GT$18expect_or_overflow17hcc565ad86b0a8398E_1602_, 3451
_ZN6qrcode6canvas6Canvas15coords_to_index17h392521962941e573E_1603_, 3452
_ZN4core6option15Option$LT$T$GT$3map17h1a47d23c8837b815E_1604_, 3453
_ZN6qrcode6canvas6Canvas20draw_finder_patterns17hdd8f6522c27cb362E_1605_, 3454
_ZN56_$LT$i16$u20$as$u20$checked_int_cast..CheckedIntCast$GT$16as_usize_checked17hf8c27e538d0e444fE_1606_, 3455
_ZN5alloc5alloc6Global10alloc_impl17h1f328160f76f12cfE_1607_, 3456
_ZN56_$LT$usize$u20$as$u20$core..iter..traits..accum..Sum$GT$3sum28_$u7b$$u7b$closure$u7d$$u7d$17h54dbf9b2464cbac5E_1608_, 3457
_ZN6qrcode6canvas6Canvas15coords_to_index17h392521962941e573E_1609_, 3458
_ZN6qrcode6canvas14mask_functions16horizontal_lines17h0c5de493f21ce1a3E_1610_, 3459
_ZN6qrcode6canvas6Canvas15coords_to_index17h392521962941e573E_1611_, 3460
_ZN56_$LT$i16$u20$as$u20$checked_int_cast..CheckedIntCast$GT$16as_usize_checked17hf8c27e538d0e444fE_1612_, 3461
_ZN6qrcode6canvas6Canvas15coords_to_index17h392521962941e573E_1613_, 3462
_ZN4core4iter6traits8iterator8Iterator4fold17had50487807a5fe23E_1614_, 3463
_ZN6qrcode6canvas14mask_functions16horizontal_lines17h0c5de493f21ce1a3E_1615_, 3464
_ZN4core4iter6traits8iterator8Iterator4fold17had50487807a5fe23E_1616_, 3465
_ZN4core4iter6traits8iterator8Iterator4fold17had50487807a5fe23E_1617_, 3466
_ZN6qrcode6canvas6Canvas15coords_to_index17h392521962941e573E_1618_, 3467
_ZN6qrcode6canvas6Canvas15coords_to_index17h392521962941e573E_1619_, 3468
_ZN5alloc7raw_vec19RawVec$LT$T$C$A$GT$11allocate_in17h29fe1f804abc0cc2E_1620_, 3469
_ZN56_$LT$i16$u20$as$u20$checked_int_cast..CheckedIntCast$GT$16as_usize_checked17hf8c27e538d0e444fE_1621_, 3470
_ZN47_$LT$u32$u20$as$u20$core..iter..range..Step$GT$17forward_unchecked17h0db0511b979a7ca8E_1622_, 3471
_ZN5alloc5alloc6Global10alloc_impl17h1f328160f76f12cfE_1623_, 3472
_ZN4core6option15Option$LT$T$GT$3map17h1a47d23c8837b815E_1624_, 3473
_ZN102_$LT$core..iter..adapters..cycle..Cycle$LT$I$GT$$u20$as$u20$core..iter..traits..iterator..Iterator$GT$9size_hint17hb562490e751a5104E_1625_, 3474
_ZN5alloc5alloc6Global10alloc_impl17h1f328160f76f12cfE_1626_, 3475
_ZN6qrcode6canvas6Canvas15coords_to_index17h392521962941e573E_1627_, 3476
_ZN6qrcode6canvas6Canvas15coords_to_index17h392521962941e573E_1628_, 3477
_ZN56_$LT$i16$u20$as$u20$checked_int_cast..CheckedIntCast$GT$16as_usize_checked17hf8c27e538d0e444fE_1629_, 3478
_ZN5alloc5alloc6Global10alloc_impl17h1f328160f76f12cfE_1630_, 3479
_ZN56_$LT$i16$u20$as$u20$checked_int_cast..CheckedIntCast$GT$16as_usize_checked17hf8c27e538d0e444fE_1631_, 3480
_ZN4core6option15Option$LT$T$GT$3map17h1a47d23c8837b815E_1632_, 3481
_ZN4core6option15Option$LT$T$GT$3map17h1a47d23c8837b815E_1633_, 3482
_ZN60_$LT$dyn$u20$rand_core..RngCore$u20$as$u20$std..io..Read$GT$4read17h91adfdc68e7ce606E_1634_, 3483
_ZN56_$LT$usize$u20$as$u20$core..iter..traits..accum..Sum$GT$3sum28_$u7b$$u7b$closure$u7d$$u7d$17h54dbf9b2464cbac5E_1635_, 3484
_ZN6qrcode6canvas6Canvas15coords_to_index17h392521962941e573E_1636_, 3485
_ZN56_$LT$i16$u20$as$u20$checked_int_cast..CheckedIntCast$GT$16as_usize_checked17hf8c27e538d0e444fE_1637_, 3486
_ZN56_$LT$char$u20$as$u20$qrcode..render..string..Element$GT$13default_color17hc33573a548f8f261E_1638_, 3487
_ZN6qrcode6canvas6Canvas15coords_to_index17h392521962941e573E_1639_, 3488
_ZN56_$LT$i16$u20$as$u20$checked_int_cast..CheckedIntCast$GT$16as_usize_checked17hf8c27e538d0e444fE_1640_, 3489
_ZN4core3num23_$LT$impl$u20$usize$GT$11checked_add17h096d975beb745572E_1641_, 3490
_ZN56_$LT$usize$u20$as$u20$core..iter..traits..accum..Sum$GT$3sum28_$u7b$$u7b$closure$u7d$$u7d$17h54dbf9b2464cbac5E_1642_, 3491
_ZN5alloc7raw_vec19RawVec$LT$T$C$A$GT$11allocate_in17h29fe1f804abc0cc2E_1643_, 3492
_ZN6qrcode6canvas6Canvas15coords_to_index17h392521962941e573E_1644_, 3493
_ZN4core6option15Option$LT$T$GT$3map17h1a47d23c8837b815E_1645_, 3494
_ZN5alloc7raw_vec19RawVec$LT$T$C$A$GT$11allocate_in17h29fe1f804abc0cc2E_1646_, 3495
_ZN56_$LT$i16$u20$as$u20$checked_int_cast..CheckedIntCast$GT$16as_usize_checked17hf8c27e538d0e444fE_1647_, 3496
_ZN4core3ptr41drop_in_place$LT$std..io..error..Repr$GT$17haedb15029a9f36edE_1648_, 3497
_ZN6qrcode6canvas6Canvas20draw_finder_patterns17hdd8f6522c27cb362E_1649_, 3498
_ZN75_$LT$core..option..Option$LT$T$GT$$u20$as$u20$core..ops..try_trait..Try$GT$6branch17h00056140ba3de476E_1650_, 3499
_ZN4core4iter6traits8iterator8Iterator4fold17had50487807a5fe23E_1651_, 3500
_ZN77_$LT$alloc..raw_vec..RawVec$LT$T$C$A$GT$$u20$as$u20$core..ops..drop..Drop$GT$4drop17h2653c8de238d7e6bE_1652_, 3501
_ZN4core4iter6traits8iterator8Iterator4fold17had50487807a5fe23E_1653_, 3502
_ZN4core4iter6traits8iterator8Iterator4fold17had50487807a5fe23E_1654_, 3503
_ZN6qrcode6canvas6Canvas15coords_to_index17h392521962941e573E_1655_, 3504
_ZN6qrcode6canvas6Canvas15coords_to_index17h392521962941e573E_1656_, 3505
_ZN4core4iter6traits8iterator8Iterator4fold17had50487807a5fe23E_1657_, 3506
_ZN4core6option15Option$LT$T$GT$3map17h1a47d23c8837b815E_1658_, 3507
_ZN4core3num23_$LT$impl$u20$usize$GT$11checked_add17h096d975beb745572E_1659_, 3508
_ZN47_$LT$u32$u20$as$u20$core..iter..range..Step$GT$17forward_unchecked17h0db0511b979a7ca8E_1660_, 3509
_ZN6qrcode6canvas6Canvas15coords_to_index17h392521962941e573E_1661_, 3510
_ZN56_$LT$i16$u20$as$u20$checked_int_cast..CheckedIntCast$GT$16as_usize_checked17hf8c27e538d0e444fE_1662_, 3511
_ZN56_$LT$i16$u20$as$u20$checked_int_cast..CheckedIntCast$GT$16as_usize_checked17hf8c27e538d0e444fE_1663_, 3512
_ZN47_$LT$u32$u20$as$u20$core..iter..range..Step$GT$17forward_unchecked17h0db0511b979a7ca8E_1664_, 3513
_ZN56_$LT$i16$u20$as$u20$checked_int_cast..CheckedIntCast$GT$16as_usize_checked17hf8c27e538d0e444fE_1665_, 3514
_ZN6qrcode6canvas6Canvas15coords_to_index17h392521962941e573E_1666_, 3515
_ZN4core6option15Option$LT$T$GT$3map17h1a47d23c8837b815E_1667_, 3516
_ZN6qrcode6canvas6Canvas15coords_to_index17h392521962941e573E_1668_, 3517
_ZN56_$LT$i16$u20$as$u20$checked_int_cast..CheckedIntCast$GT$16as_usize_checked17hf8c27e538d0e444fE_1669_, 3518
_ZN4core4iter6traits8iterator8Iterator4fold17had50487807a5fe23E_1670_, 3519
_ZN6qrcode6canvas6Canvas15coords_to_index17h392521962941e573E_1671_, 3520
_ZN6qrcode6canvas6Canvas20draw_finder_patterns17hdd8f6522c27cb362E_1672_, 3521
_ZN6qrcode6canvas14mask_functions16horizontal_lines17h0c5de493f21ce1a3E_1673_, 3522
_ZN5alloc7raw_vec19RawVec$LT$T$C$A$GT$11allocate_in17h29fe1f804abc0cc2E_1674_, 3523
_ZN4core3ptr41drop_in_place$LT$std..io..error..Repr$GT$17haedb15029a9f36edE_1675_, 3524
_ZN5alloc7raw_vec19RawVec$LT$T$C$A$GT$11allocate_in17h29fe1f804abc0cc2E_1676_, 3525
_ZN56_$LT$i16$u20$as$u20$checked_int_cast..CheckedIntCast$GT$16as_usize_checked17hf8c27e538d0e444fE_1677_, 3526
_ZN56_$LT$i16$u20$as$u20$checked_int_cast..CheckedIntCast$GT$16as_usize_checked17hf8c27e538d0e444fE_1678_, 3527
_ZN56_$LT$i16$u20$as$u20$checked_int_cast..CheckedIntCast$GT$16as_usize_checked17hf8c27e538d0e444fE_1679_, 3528
_ZN5alloc7raw_vec19RawVec$LT$T$C$A$GT$11allocate_in17h29fe1f804abc0cc2E_1680_, 3529
_ZN4core3num23_$LT$impl$u20$usize$GT$11checked_add17h096d975beb745572E_1681_, 3530
_ZN4core4iter6traits8iterator8Iterator4fold17had50487807a5fe23E_1682_, 3531
_ZN6qrcode6canvas14mask_functions16horizontal_lines17h0c5de493f21ce1a3E_1683_, 3532
_ZN56_$LT$i16$u20$as$u20$checked_int_cast..CheckedIntCast$GT$16as_usize_checked17hf8c27e538d0e444fE_1684_, 3533
_ZN56_$LT$i16$u20$as$u20$checked_int_cast..CheckedIntCast$GT$16as_usize_checked17hf8c27e538d0e444fE_1685_, 3534
_ZN4core6option15Option$LT$T$GT$3map17h1a47d23c8837b815E_1686_, 3535
_ZN75_$LT$core..option..Option$LT$T$GT$$u20$as$u20$core..ops..try_trait..Try$GT$6branch17h00056140ba3de476E_1687_, 3536
_ZN6qrcode6canvas6Canvas15coords_to_index17h392521962941e573E_1688_, 3537
_ZN4core4iter6traits8iterator8Iterator4fold17had50487807a5fe23E_1689_, 3538
_ZN4core4iter6traits8iterator8Iterator4fold17had50487807a5fe23E_1690_, 3539
_ZN6qrcode6canvas14mask_functions16horizontal_lines17h0c5de493f21ce1a3E_1691_, 3540
_ZN5alloc7raw_vec19RawVec$LT$T$C$A$GT$11allocate_in17h29fe1f804abc0cc2E_1692_, 3541
_ZN5alloc7raw_vec19RawVec$LT$T$C$A$GT$11allocate_in17h29fe1f804abc0cc2E_1693_, 3542
_ZN4core4iter6traits8iterator8Iterator4fold17had50487807a5fe23E_1694_, 3543
_ZN6qrcode6canvas14mask_functions16horizontal_lines17h0c5de493f21ce1a3E_1695_, 3544
_ZN4core6option15Option$LT$T$GT$3map17h1a47d23c8837b815E_1696_, 3545
_ZN75_$LT$core..option..Option$LT$T$GT$$u20$as$u20$core..ops..try_trait..Try$GT$6branch17h00056140ba3de476E_1697_, 3546
_ZN6qrcode6canvas14mask_functions16horizontal_lines17h0c5de493f21ce1a3E_1698_, 3547
_ZN5alloc7raw_vec19RawVec$LT$T$C$A$GT$11allocate_in17h29fe1f804abc0cc2E_1699_, 3548
_ZN4core6option15Option$LT$T$GT$3map17h1a47d23c8837b815E_1700_, 3549
_ZN47_$LT$u32$u20$as$u20$core..iter..range..Step$GT$17forward_unchecked17h0db0511b979a7ca8E_1701_, 3550
_ZN6qrcode6canvas14mask_functions16horizontal_lines17h0c5de493f21ce1a3E_1702_, 3551
_ZN5alloc7raw_vec19RawVec$LT$T$C$A$GT$11allocate_in17h29fe1f804abc0cc2E_1703_, 3552
_ZN4core4iter6traits8iterator8Iterator4fold17had50487807a5fe23E_1704_, 3553
_ZN5alloc7raw_vec19RawVec$LT$T$C$A$GT$11allocate_in17h29fe1f804abc0cc2E_1705_, 3554
_ZN56_$LT$usize$u20$as$u20$core..iter..traits..accum..Sum$GT$3sum28_$u7b$$u7b$closure$u7d$$u7d$17h54dbf9b2464cbac5E_1706_, 3555
_ZN3std2io5error5Error12raw_os_error17h18499eac9d8bea1cE_1707_, 3556
_ZN4core6option15Option$LT$T$GT$3map17h1a47d23c8837b815E_1708_, 3557
_ZN56_$LT$i16$u20$as$u20$checked_int_cast..CheckedIntCast$GT$16as_usize_checked17hf8c27e538d0e444fE_1709_, 3558
_ZN4core4iter6traits8iterator8Iterator4fold17had50487807a5fe23E_1710_, 3559
_ZN4core3num23_$LT$impl$u20$usize$GT$11checked_add17h096d975beb745572E_1711_, 3560
_ZN80_$LT$core..option..Option$LT$T$GT$$u20$as$u20$qrcode..cast..ExpectOrOverflow$GT$18expect_or_overflow17hcc565ad86b0a8398E_1712_, 3561
_ZN4core6option15Option$LT$T$GT$3map17h1a47d23c8837b815E_1713_, 3562
_ZN5alloc5alloc6Global10alloc_impl17h1f328160f76f12cfE_1714_, 3563
_ZN6qrcode6canvas6Canvas15coords_to_index17h392521962941e573E_1715_, 3564
_ZN80_$LT$core..option..Option$LT$T$GT$$u20$as$u20$qrcode..cast..ExpectOrOverflow$GT$18expect_or_overflow17hcc565ad86b0a8398E_1716_, 3565
_ZN6qrcode6canvas14mask_functions16horizontal_lines17h0c5de493f21ce1a3E_1717_, 3566
_ZN4core4iter6traits8iterator8Iterator4fold17had50487807a5fe23E_1718_, 3567
_ZN4core6option15Option$LT$T$GT$3map17h1a47d23c8837b815E_1719_, 3568
_ZN80_$LT$core..option..Option$LT$T$GT$$u20$as$u20$qrcode..cast..ExpectOrOverflow$GT$18expect_or_overflow17hcc565ad86b0a8398E_1720_, 3569
_ZN6qrcode6canvas6Canvas15coords_to_index17h392521962941e573E_1721_, 3570
_ZN6qrcode6canvas14mask_functions16horizontal_lines17h0c5de493f21ce1a3E_1722_, 3571
_ZN6qrcode6canvas6Canvas15coords_to_index17h392521962941e573E_1723_, 3572
_ZN6qrcode6canvas14mask_functions16horizontal_lines17h0c5de493f21ce1a3E_1724_, 3573
_ZN4core3num23_$LT$impl$u20$usize$GT$11checked_add17h096d975beb745572E_1725_, 3574
_ZN5alloc5alloc6Global10alloc_impl17h1f328160f76f12cfE_1726_, 3575
_ZN4core6option15Option$LT$T$GT$3map17h1a47d23c8837b815E_1727_, 3576
_ZN6qrcode6canvas14mask_functions16horizontal_lines17h0c5de493f21ce1a3E_1728_, 3577
_ZN4core6option15Option$LT$T$GT$3map17h1a47d23c8837b815E_1729_, 3578
_ZN5alloc7raw_vec19RawVec$LT$T$C$A$GT$11allocate_in17h29fe1f804abc0cc2E_1730_, 3579
_ZN56_$LT$i16$u20$as$u20$checked_int_cast..CheckedIntCast$GT$16as_usize_checked17hf8c27e538d0e444fE_1731_, 3580
_ZN6qrcode6canvas14mask_functions16horizontal_lines17h0c5de493f21ce1a3E_1732_, 3581
_ZN6qrcode6canvas6Canvas15coords_to_index17h392521962941e573E_1733_, 3582
_ZN56_$LT$i16$u20$as$u20$checked_int_cast..CheckedIntCast$GT$16as_usize_checked17hf8c27e538d0e444fE_1734_, 3583
_ZN6qrcode6canvas14mask_functions16horizontal_lines17h0c5de493f21ce1a3E_1735_, 3584
_ZN77_$LT$alloc..raw_vec..RawVec$LT$T$C$A$GT$$u20$as$u20$core..ops..drop..Drop$GT$4drop17h7425ee577f6364a4E_1736_, 3585
_ZN56_$LT$usize$u20$as$u20$core..iter..traits..accum..Sum$GT$3sum28_$u7b$$u7b$closure$u7d$$u7d$17h54dbf9b2464cbac5E_1737_, 3586
_ZN56_$LT$i16$u20$as$u20$checked_int_cast..CheckedIntCast$GT$16as_usize_checked17hf8c27e538d0e444fE_1738_, 3587
_ZN4core6option15Option$LT$T$GT$3map17h1a47d23c8837b815E_1739_, 3588
_ZN6qrcode6canvas14mask_functions16horizontal_lines17h0c5de493f21ce1a3E_1740_, 3589
_ZN6qrcode6canvas14mask_functions16horizontal_lines17h0c5de493f21ce1a3E_1741_, 3590
_ZN56_$LT$i16$u20$as$u20$checked_int_cast..CheckedIntCast$GT$16as_usize_checked17hf8c27e538d0e444fE_1742_, 3591
_ZN6qrcode6canvas6Canvas15coords_to_index17h392521962941e573E_1743_, 3592
_ZN56_$LT$i16$u20$as$u20$checked_int_cast..CheckedIntCast$GT$16as_usize_checked17hf8c27e538d0e444fE_1744_, 3593
_ZN5alloc5alloc6Global10alloc_impl17h1f328160f76f12cfE_1745_, 3594
_ZN4core3num23_$LT$impl$u20$usize$GT$11checked_add17h096d975beb745572E_1746_, 3595
_ZN4core6option15Option$LT$T$GT$3map17h1a47d23c8837b815E_1747_, 3596
_ZN4core3num23_$LT$impl$u20$usize$GT$11checked_add17h096d975beb745572E_1748_, 3597
_ZN6qrcode6canvas14mask_functions16horizontal_lines17h0c5de493f21ce1a3E_1749_, 3598
_ZN56_$LT$usize$u20$as$u20$core..iter..traits..accum..Sum$GT$3sum28_$u7b$$u7b$closure$u7d$$u7d$17h54dbf9b2464cbac5E_1750_, 3599
_ZN6qrcode6canvas14mask_functions16horizontal_lines17h0c5de493f21ce1a3E_1751_, 3600
_ZN102_$LT$core..iter..adapters..cycle..Cycle$LT$I$GT$$u20$as$u20$core..iter..traits..iterator..Iterator$GT$9size_hint17hb562490e751a5104E_1752_, 3601
_ZN6qrcode6canvas6Canvas15coords_to_index17h392521962941e573E_1753_, 3602
_ZN4core6option15Option$LT$T$GT$3map17h1a47d23c8837b815E_1754_, 3603
_ZN6qrcode6canvas14mask_functions16horizontal_lines17h0c5de493f21ce1a3E_1755_, 3604
_ZN6qrcode6canvas6Canvas15coords_to_index17h392521962941e573E_1756_, 3605
_ZN4core4iter6traits8iterator8Iterator4fold17had50487807a5fe23E_1757_, 3606
_ZN4core4iter6traits8iterator8Iterator4fold17had50487807a5fe23E_1758_, 3607
_ZN6qrcode6canvas6Canvas20draw_finder_patterns17hdd8f6522c27cb362E_1759_, 3608
_ZN5alloc7raw_vec19RawVec$LT$T$C$A$GT$11allocate_in17h29fe1f804abc0cc2E_1760_, 3609
_ZN6qrcode6canvas6Canvas15coords_to_index17h392521962941e573E_1761_, 3610
_ZN56_$LT$i16$u20$as$u20$checked_int_cast..CheckedIntCast$GT$16as_usize_checked17hf8c27e538d0e444fE_1762_, 3611
_ZN6qrcode6canvas14mask_functions16horizontal_lines17h0c5de493f21ce1a3E_1763_, 3612
_ZN47_$LT$u32$u20$as$u20$core..iter..range..Step$GT$17forward_unchecked17h0db0511b979a7ca8E_1764_, 3613
_ZN77_$LT$alloc..raw_vec..RawVec$LT$T$C$A$GT$$u20$as$u20$core..ops..drop..Drop$GT$4drop17h2653c8de238d7e6bE_1765_, 3614
_ZN4core6option15Option$LT$T$GT$3map17h1a47d23c8837b815E_1766_, 3615
_ZN6qrcode6canvas6Canvas15coords_to_index17h392521962941e573E_1767_, 3616
_ZN4core6option15Option$LT$T$GT$3map17h1a47d23c8837b815E_1768_, 3617
_ZN6qrcode5types7Version8is_micro17hdb4237c14d4fb839E_1769_, 3618
_ZN5alloc5alloc6Global10alloc_impl17h1f328160f76f12cfE_1770_, 3619
_ZN6qrcode6canvas14mask_functions16horizontal_lines17h0c5de493f21ce1a3E_1771_, 3620
_ZN5alloc5alloc6Global10alloc_impl17h1f328160f76f12cfE_1772_, 3621
_ZN4core4iter6traits8iterator8Iterator4fold17had50487807a5fe23E_1773_, 3622
_ZN5alloc5alloc6Global10alloc_impl17h1f328160f76f12cfE_1774_, 3623
_ZN6qrcode6canvas6Canvas15coords_to_index17h392521962941e573E_1775_, 3624
_ZN47_$LT$u32$u20$as$u20$core..iter..range..Step$GT$17forward_unchecked17h0db0511b979a7ca8E_1776_, 3625
_ZN56_$LT$i16$u20$as$u20$checked_int_cast..CheckedIntCast$GT$16as_usize_checked17hf8c27e538d0e444fE_1777_, 3626
_ZN6qrcode6canvas6Canvas15coords_to_index17h392521962941e573E_1778_, 3627
_ZN4core6option15Option$LT$T$GT$3map17h1a47d23c8837b815E_1779_, 3628
_ZN6qrcode6canvas6Canvas15coords_to_index17h392521962941e573E_1780_, 3629
_ZN6qrcode6canvas6Canvas15coords_to_index17h392521962941e573E_1781_, 3630
_ZN6qrcode6canvas14mask_functions16horizontal_lines17h0c5de493f21ce1a3E_1782_, 3631
_ZN56_$LT$i16$u20$as$u20$checked_int_cast..CheckedIntCast$GT$16as_usize_checked17hf8c27e538d0e444fE_1783_, 3632
_ZN56_$LT$usize$u20$as$u20$core..iter..traits..accum..Sum$GT$3sum28_$u7b$$u7b$closure$u7d$$u7d$17h54dbf9b2464cbac5E_1784_, 3633
_ZN56_$LT$i16$u20$as$u20$checked_int_cast..CheckedIntCast$GT$16as_usize_checked17hf8c27e538d0e444fE_1785_, 3634
_ZN3std2io5error5Error12raw_os_error17h18499eac9d8bea1cE_1786_, 3635
_ZN4core4iter6traits8iterator8Iterator4fold17had50487807a5fe23E_1787_, 3636
_ZN4core3ptr41drop_in_place$LT$std..io..error..Repr$GT$17haedb15029a9f36edE_1788_, 3637
_ZN6qrcode6canvas6Canvas15coords_to_index17h392521962941e573E_1789_, 3638
_ZN4core4iter6traits8iterator8Iterator4fold17had50487807a5fe23E_1790_, 3639
_ZN60_$LT$dyn$u20$rand_core..RngCore$u20$as$u20$std..io..Read$GT$4read17h91adfdc68e7ce606E_1791_, 3640
_ZN6qrcode6canvas6Canvas15coords_to_index17h392521962941e573E_1792_, 3641
_ZN56_$LT$i16$u20$as$u20$checked_int_cast..CheckedIntCast$GT$16as_usize_checked17hf8c27e538d0e444fE_1793_, 3642
_ZN6qrcode6canvas14mask_functions16horizontal_lines17h0c5de493f21ce1a3E_1794_, 3643
_ZN56_$LT$i16$u20$as$u20$checked_int_cast..CheckedIntCast$GT$16as_usize_checked17hf8c27e538d0e444fE_1795_, 3644
_ZN6qrcode6canvas14mask_functions16horizontal_lines17h0c5de493f21ce1a3E_1796_, 3645
_ZN56_$LT$i16$u20$as$u20$checked_int_cast..CheckedIntCast$GT$16as_usize_checked17hf8c27e538d0e444fE_1797_, 3646
_ZN6qrcode6canvas6Canvas15coords_to_index17h392521962941e573E_1798_, 3647
_ZN6qrcode6canvas6Canvas15coords_to_index17h392521962941e573E_1799_, 3648
_ZN6qrcode6canvas14mask_functions16horizontal_lines17h0c5de493f21ce1a3E_1800_, 3649
_ZN4core4iter6traits8iterator8Iterator4fold17had50487807a5fe23E_1801_, 3650
_ZN47_$LT$u32$u20$as$u20$core..iter..range..Step$GT$17forward_unchecked17h0db0511b979a7ca8E_1802_, 3651
_ZN47_$LT$u32$u20$as$u20$core..iter..range..Step$GT$17forward_unchecked17h0db0511b979a7ca8E_1803_, 3652
_ZN5alloc7raw_vec19RawVec$LT$T$C$A$GT$11allocate_in17h29fe1f804abc0cc2E_1804_, 3653
_ZN6qrcode6canvas6Canvas15coords_to_index17h392521962941e573E_1805_, 3654
_ZN4core3ptr41drop_in_place$LT$std..io..error..Repr$GT$17haedb15029a9f36edE_1806_, 3655
_ZN56_$LT$i16$u20$as$u20$checked_int_cast..CheckedIntCast$GT$16as_usize_checked17hf8c27e538d0e444fE_1807_, 3656
_ZN6qrcode6canvas6Canvas15coords_to_index17h392521962941e573E_1808_, 3657
_ZN47_$LT$u32$u20$as$u20$core..iter..range..Step$GT$17forward_unchecked17h0db0511b979a7ca8E_1809_, 3658
_ZN4core4iter6traits8iterator8Iterator4fold17had50487807a5fe23E_1810_, 3659
_ZN102_$LT$core..iter..adapters..cycle..Cycle$LT$I$GT$$u20$as$u20$core..iter..traits..iterator..Iterator$GT$9size_hint17hb562490e751a5104E_1811_, 3660
_ZN47_$LT$u32$u20$as$u20$core..iter..range..Step$GT$17forward_unchecked17h0db0511b979a7ca8E_1812_, 3661
_ZN4core4iter6traits8iterator8Iterator4fold17had50487807a5fe23E_1813_, 3662
_ZN5alloc5alloc6Global10alloc_impl17h1f328160f76f12cfE_1814_, 3663
_ZN6qrcode6canvas14mask_functions16horizontal_lines17h0c5de493f21ce1a3E_1815_, 3664
_ZN5alloc5alloc6Global10alloc_impl17h1f328160f76f12cfE_1816_, 3665
_ZN6qrcode6canvas14mask_functions16horizontal_lines17h0c5de493f21ce1a3E_1817_, 3666
_ZN6qrcode5types7Version8is_micro17hdb4237c14d4fb839E_1818_, 3667
_ZN4core4iter6traits8iterator8Iterator4fold17had50487807a5fe23E_1819_, 3668
_ZN6qrcode6canvas6Canvas15coords_to_index17h392521962941e573E_1820_, 3669
_ZN56_$LT$i16$u20$as$u20$checked_int_cast..CheckedIntCast$GT$16as_usize_checked17hf8c27e538d0e444fE_1821_, 3670
_ZN4core6option15Option$LT$T$GT$3map17h1a47d23c8837b815E_1822_, 3671
_ZN56_$LT$i16$u20$as$u20$checked_int_cast..CheckedIntCast$GT$16as_usize_checked17hf8c27e538d0e444fE_1823_, 3672
_ZN4core4iter6traits8iterator8Iterator4fold17had50487807a5fe23E_1824_, 3673
_ZN6qrcode6canvas6Canvas15coords_to_index17h392521962941e573E_1825_, 3674
_ZN4core4iter6traits8iterator8Iterator4fold17had50487807a5fe23E_1826_, 3675
_ZN6qrcode6canvas6Canvas20draw_finder_patterns17hdd8f6522c27cb362E_1827_, 3676
_ZN60_$LT$dyn$u20$rand_core..RngCore$u20$as$u20$std..io..Read$GT$4read17h91adfdc68e7ce606E_1828_, 3677
_ZN6qrcode6canvas14mask_functions16horizontal_lines17h0c5de493f21ce1a3E_1829_, 3678
_ZN56_$LT$i16$u20$as$u20$checked_int_cast..CheckedIntCast$GT$16as_usize_checked17hf8c27e538d0e444fE_1830_, 3679
_ZN5alloc7raw_vec19RawVec$LT$T$C$A$GT$11allocate_in17h29fe1f804abc0cc2E_1831_, 3680
_ZN6qrcode6canvas14mask_functions16horizontal_lines17h0c5de493f21ce1a3E_1832_, 3681
_ZN56_$LT$i16$u20$as$u20$checked_int_cast..CheckedIntCast$GT$16as_usize_checked17hf8c27e538d0e444fE_1833_, 3682
_ZN6qrcode6canvas6Canvas15coords_to_index17h392521962941e573E_1834_, 3683
_ZN6qrcode6canvas14mask_functions16horizontal_lines17h0c5de493f21ce1a3E_1835_, 3684
_ZN6qrcode6canvas6Canvas15coords_to_index17h392521962941e573E_1836_, 3685
_ZN5alloc7raw_vec19RawVec$LT$T$C$A$GT$11allocate_in17h29fe1f804abc0cc2E_1837_, 3686
_ZN4core4iter6traits8iterator8Iterator4fold17had50487807a5fe23E_1838_, 3687
_ZN6qrcode6canvas6Canvas20draw_finder_patterns17hdd8f6522c27cb362E_1839_, 3688
_ZN4core4iter6traits8iterator8Iterator4fold17had50487807a5fe23E_1840_, 3689
_ZN5alloc7raw_vec19RawVec$LT$T$C$A$GT$11allocate_in17h29fe1f804abc0cc2E_1841_, 3690
_ZN5alloc7raw_vec19RawVec$LT$T$C$A$GT$11allocate_in17h29fe1f804abc0cc2E_1842_, 3691
_ZN56_$LT$i16$u20$as$u20$checked_int_cast..CheckedIntCast$GT$16as_usize_checked17hf8c27e538d0e444fE_1843_, 3692
_ZN6qrcode6canvas6Canvas15coords_to_index17h392521962941e573E_1844_, 3693
_ZN4core3num23_$LT$impl$u20$usize$GT$11checked_add17h096d975beb745572E_1845_, 3694
_ZN80_$LT$core..option..Option$LT$T$GT$$u20$as$u20$qrcode..cast..ExpectOrOverflow$GT$18expect_or_overflow17hcc565ad86b0a8398E_1846_, 3695
_ZN56_$LT$i16$u20$as$u20$checked_int_cast..CheckedIntCast$GT$16as_usize_checked17hf8c27e538d0e444fE_1847_, 3696
_ZN56_$LT$i16$u20$as$u20$checked_int_cast..CheckedIntCast$GT$16as_usize_checked17hf8c27e538d0e444fE_1848_, 3697
_ZN6qrcode6canvas14mask_functions16horizontal_lines17h0c5de493f21ce1a3E_1849_, 3698
_ZN56_$LT$i16$u20$as$u20$checked_int_cast..CheckedIntCast$GT$16as_usize_checked17hf8c27e538d0e444fE_1850_, 3699
_ZN4core3ptr41drop_in_place$LT$std..io..error..Repr$GT$17haedb15029a9f36edE_1851_, 3700
_ZN4core4iter6traits8iterator8Iterator4fold17had50487807a5fe23E_1852_, 3701
_ZN4core6option15Option$LT$T$GT$3map17h1a47d23c8837b815E_1853_, 3702
_ZN4core3num23_$LT$impl$u20$usize$GT$11checked_add17h096d975beb745572E_1854_, 3703
_ZN6qrcode6canvas6Canvas15coords_to_index17h392521962941e573E_1855_, 3704
_ZN5alloc7raw_vec19RawVec$LT$T$C$A$GT$11allocate_in17h29fe1f804abc0cc2E_1856_, 3705
_ZN5alloc7raw_vec19RawVec$LT$T$C$A$GT$16with_capacity_in17hc167591bf67cc4c3E_1857_, 3706
_ZN56_$LT$i16$u20$as$u20$checked_int_cast..CheckedIntCast$GT$16as_usize_checked17hf8c27e538d0e444fE_1858_, 3707
_ZN5alloc5alloc6Global10alloc_impl17h1f328160f76f12cfE_1859_, 3708
_ZN56_$LT$i16$u20$as$u20$checked_int_cast..CheckedIntCast$GT$16as_usize_checked17hf8c27e538d0e444fE_1860_, 3709
_ZN4core6option15Option$LT$T$GT$3map17h1a47d23c8837b815E_1861_, 3710
_ZN56_$LT$i16$u20$as$u20$checked_int_cast..CheckedIntCast$GT$16as_usize_checked17hf8c27e538d0e444fE_1862_, 3711
_ZN56_$LT$i16$u20$as$u20$checked_int_cast..CheckedIntCast$GT$16as_usize_checked17hf8c27e538d0e444fE_1863_, 3712
_ZN56_$LT$i16$u20$as$u20$checked_int_cast..CheckedIntCast$GT$16as_usize_checked17hf8c27e538d0e444fE_1864_, 3713
_ZN56_$LT$i16$u20$as$u20$checked_int_cast..CheckedIntCast$GT$16as_usize_checked17hf8c27e538d0e444fE_1865_, 3714
_ZN4core6option15Option$LT$T$GT$3map17h1a47d23c8837b815E_1866_, 3715
_ZN5alloc7raw_vec19RawVec$LT$T$C$A$GT$11allocate_in17h29fe1f804abc0cc2E_1867_, 3716
_ZN4core6option15Option$LT$T$GT$3map17h1a47d23c8837b815E_1868_, 3717
_ZN5alloc7raw_vec19RawVec$LT$T$C$A$GT$11allocate_in17h29fe1f804abc0cc2E_1869_, 3718
_ZN80_$LT$core..option..Option$LT$T$GT$$u20$as$u20$qrcode..cast..ExpectOrOverflow$GT$18expect_or_overflow17hcc565ad86b0a8398E_1870_, 3719
_ZN5alloc5alloc6Global10alloc_impl17h1f328160f76f12cfE_1871_, 3720
_ZN80_$LT$core..option..Option$LT$T$GT$$u20$as$u20$qrcode..cast..ExpectOrOverflow$GT$18expect_or_overflow17h0299d77236c2d7f5E_1872_, 3721
_ZN5alloc7raw_vec19RawVec$LT$T$C$A$GT$11allocate_in17h29fe1f804abc0cc2E_1873_, 3722
_ZN6qrcode6canvas14mask_functions16horizontal_lines17h0c5de493f21ce1a3E_1874_, 3723
_ZN4core4iter6traits8iterator8Iterator4fold17had50487807a5fe23E_1875_, 3724
_ZN6qrcode6canvas14mask_functions16horizontal_lines17h0c5de493f21ce1a3E_1876_, 3725
_ZN56_$LT$i16$u20$as$u20$checked_int_cast..CheckedIntCast$GT$16as_usize_checked17hf8c27e538d0e444fE_1877_, 3726
_ZN56_$LT$i16$u20$as$u20$checked_int_cast..CheckedIntCast$GT$16as_usize_checked17hf8c27e538d0e444fE_1878_, 3727
_ZN47_$LT$u32$u20$as$u20$core..iter..range..Step$GT$17forward_unchecked17h0db0511b979a7ca8E_1879_, 3728
_ZN4core4iter6traits8iterator8Iterator4fold17had50487807a5fe23E_1880_, 3729
_ZN56_$LT$i16$u20$as$u20$checked_int_cast..CheckedIntCast$GT$16as_usize_checked17hf8c27e538d0e444fE_1881_, 3730
_ZN6qrcode6canvas14mask_functions16horizontal_lines17h0c5de493f21ce1a3E_1882_, 3731
_ZN6qrcode5types7Version8is_micro17hdb4237c14d4fb839E_1883_, 3732
_ZN5alloc7raw_vec19RawVec$LT$T$C$A$GT$11allocate_in17h29fe1f804abc0cc2E_1884_, 3733
_ZN5alloc5alloc6Global10alloc_impl17h1f328160f76f12cfE_1885_, 3734
_ZN4core4iter6traits8iterator8Iterator4fold17had50487807a5fe23E_1886_, 3735
_ZN6qrcode6canvas14mask_functions16horizontal_lines17h0c5de493f21ce1a3E_1887_, 3736
_ZN6qrcode6canvas14mask_functions16horizontal_lines17h0c5de493f21ce1a3E_1888_, 3737
_ZN56_$LT$char$u20$as$u20$qrcode..render..string..Element$GT$13default_color17hc33573a548f8f261E_1889_, 3738
_ZN6qrcode6canvas6Canvas15coords_to_index17h392521962941e573E_1890_, 3739
_ZN80_$LT$core..option..Option$LT$T$GT$$u20$as$u20$qrcode..cast..ExpectOrOverflow$GT$18expect_or_overflow17hcc565ad86b0a8398E_1891_, 3740
_ZN56_$LT$i16$u20$as$u20$checked_int_cast..CheckedIntCast$GT$16as_usize_checked17hf8c27e538d0e444fE_1892_, 3741
_ZN5alloc7raw_vec19RawVec$LT$T$C$A$GT$11allocate_in17h29fe1f804abc0cc2E_1893_, 3742
_ZN4core6option15Option$LT$T$GT$3map17h1a47d23c8837b815E_1894_, 3743
_ZN47_$LT$u32$u20$as$u20$core..iter..range..Step$GT$17forward_unchecked17h0db0511b979a7ca8E_1895_, 3744
_ZN75_$LT$core..option..Option$LT$T$GT$$u20$as$u20$core..ops..try_trait..Try$GT$6branch17h00056140ba3de476E_1896_, 3745
_ZN4core6option15Option$LT$T$GT$3map17h1a47d23c8837b815E_1897_, 3746
_ZN6qrcode6canvas6Canvas15coords_to_index17h392521962941e573E_1898_, 3747
_ZN80_$LT$core..option..Option$LT$T$GT$$u20$as$u20$qrcode..cast..ExpectOrOverflow$GT$18expect_or_overflow17hcc565ad86b0a8398E_1899_, 3748
_ZN6qrcode6canvas6Canvas20draw_finder_patterns17hdd8f6522c27cb362E_1900_, 3749
_ZN4core4iter6traits8iterator8Iterator4fold17had50487807a5fe23E_1901_, 3750
_ZN4core3num23_$LT$impl$u20$usize$GT$11checked_add17h096d975beb745572E_1902_, 3751
_ZN5alloc5alloc6Global10alloc_impl17h1f328160f76f12cfE_1903_, 3752
_ZN5alloc5alloc6Global10alloc_impl17h1f328160f76f12cfE_1904_, 3753
_ZN4core4iter6traits8iterator8Iterator4fold17had50487807a5fe23E_1905_, 3754
_ZN5alloc5alloc6Global10alloc_impl17h1f328160f76f12cfE_1906_, 3755
_ZN47_$LT$u32$u20$as$u20$core..iter..range..Step$GT$17forward_unchecked17h0db0511b979a7ca8E_1907_, 3756
_ZN4core6option15Option$LT$T$GT$3map17h1a47d23c8837b815E_1908_, 3757
_ZN5alloc7raw_vec19RawVec$LT$T$C$A$GT$11allocate_in17h29fe1f804abc0cc2E_1909_, 3758
_ZN4core3num23_$LT$impl$u20$usize$GT$11checked_add17h096d975beb745572E_1910_, 3759
_ZN5alloc7raw_vec19RawVec$LT$T$C$A$GT$11allocate_in17h29fe1f804abc0cc2E_1911_, 3760
_ZN6qrcode6canvas14mask_functions16horizontal_lines17h0c5de493f21ce1a3E_1912_, 3761
_ZN4core4iter6traits8iterator8Iterator4fold17had50487807a5fe23E_1913_, 3762
_ZN6qrcode6canvas14mask_functions16horizontal_lines17h0c5de493f21ce1a3E_1914_, 3763
_ZN4core4iter6traits8iterator8Iterator4fold17had50487807a5fe23E_1915_, 3764
_ZN56_$LT$i16$u20$as$u20$checked_int_cast..CheckedIntCast$GT$16as_usize_checked17hf8c27e538d0e444fE_1916_, 3765
_ZN56_$LT$i16$u20$as$u20$checked_int_cast..CheckedIntCast$GT$16as_usize_checked17hf8c27e538d0e444fE_1917_, 3766
_ZN6qrcode6canvas6Canvas15coords_to_index17h392521962941e573E_1918_, 3767
_ZN4core4iter6traits8iterator8Iterator4fold17had50487807a5fe23E_1919_, 3768
_ZN6qrcode6canvas6Canvas15coords_to_index17h392521962941e573E_1920_, 3769
_ZN6qrcode6canvas6Canvas15coords_to_index17h392521962941e573E_1921_, 3770
_ZN5alloc5alloc6Global10alloc_impl17h1f328160f76f12cfE_1922_, 3771
_ZN5alloc7raw_vec19RawVec$LT$T$C$A$GT$11allocate_in17h29fe1f804abc0cc2E_1923_, 3772
_ZN5alloc5alloc6Global10alloc_impl17h1f328160f76f12cfE_1924_, 3773
_ZN56_$LT$i16$u20$as$u20$checked_int_cast..CheckedIntCast$GT$16as_usize_checked17hf8c27e538d0e444fE_1925_, 3774
_ZN6qrcode6canvas6Canvas15coords_to_index17h392521962941e573E_1926_, 3775
_ZN47_$LT$u32$u20$as$u20$core..iter..range..Step$GT$17forward_unchecked17h0db0511b979a7ca8E_1927_, 3776
_ZN5alloc7raw_vec19RawVec$LT$T$C$A$GT$11allocate_in17h29fe1f804abc0cc2E_1928_, 3777
_ZN6qrcode6canvas6Canvas20draw_finder_patterns17hdd8f6522c27cb362E_1929_, 3778
_ZN56_$LT$usize$u20$as$u20$core..iter..traits..accum..Sum$GT$3sum28_$u7b$$u7b$closure$u7d$$u7d$17h54dbf9b2464cbac5E_1930_, 3779
_ZN5alloc5alloc6Global10alloc_impl17h1f328160f76f12cfE_1931_, 3780
_ZN5alloc7raw_vec19RawVec$LT$T$C$A$GT$11allocate_in17h29fe1f804abc0cc2E_1932_, 3781
_ZN4core6option15Option$LT$T$GT$3map17h1a47d23c8837b815E_1933_, 3782
_ZN6qrcode6canvas6Canvas15coords_to_index17h392521962941e573E_1934_, 3783
_ZN102_$LT$core..iter..adapters..cycle..Cycle$LT$I$GT$$u20$as$u20$core..iter..traits..iterator..Iterator$GT$9size_hint17hb562490e751a5104E_1935_, 3784
_ZN56_$LT$usize$u20$as$u20$core..iter..traits..accum..Sum$GT$3sum28_$u7b$$u7b$closure$u7d$$u7d$17h54dbf9b2464cbac5E_1936_, 3785
_ZN4core4iter6traits8iterator8Iterator4fold17had50487807a5fe23E_1937_, 3786
_ZN4core6option15Option$LT$T$GT$3map17h1a47d23c8837b815E_1938_, 3787
_ZN6qrcode5types7Version8is_micro17hdb4237c14d4fb839E_1939_, 3788
_ZN4core4iter6traits8iterator8Iterator4fold17had50487807a5fe23E_1940_, 3789
_ZN56_$LT$i16$u20$as$u20$checked_int_cast..CheckedIntCast$GT$16as_usize_checked17hf8c27e538d0e444fE_1941_, 3790
_ZN6qrcode6canvas6Canvas15coords_to_index17h392521962941e573E_1942_, 3791
_ZN6qrcode6canvas6Canvas15coords_to_index17h392521962941e573E_1943_, 3792
_ZN56_$LT$i16$u20$as$u20$checked_int_cast..CheckedIntCast$GT$16as_usize_checked17hf8c27e538d0e444fE_1944_, 3793
_ZN75_$LT$core..option..Option$LT$T$GT$$u20$as$u20$core..ops..try_trait..Try$GT$6branch17h00056140ba3de476E_1945_, 3794
_ZN5alloc5alloc6Global10alloc_impl17h1f328160f76f12cfE_1946_, 3795
_ZN5alloc7raw_vec19RawVec$LT$T$C$A$GT$11allocate_in17h29fe1f804abc0cc2E_1947_, 3796
_ZN80_$LT$core..option..Option$LT$T$GT$$u20$as$u20$qrcode..cast..ExpectOrOverflow$GT$18expect_or_overflow17hcc565ad86b0a8398E_1948_, 3797
_ZN56_$LT$usize$u20$as$u20$core..iter..traits..accum..Sum$GT$3sum28_$u7b$$u7b$closure$u7d$$u7d$17h54dbf9b2464cbac5E_1949_, 3798
_ZN6qrcode6canvas6Canvas15coords_to_index17h392521962941e573E_1950_, 3799
_ZN47_$LT$u32$u20$as$u20$core..iter..range..Step$GT$17forward_unchecked17h0db0511b979a7ca8E_1951_, 3800
_ZN6qrcode6canvas14mask_functions16horizontal_lines17h0c5de493f21ce1a3E_1952_, 3801
_ZN5alloc7raw_vec19RawVec$LT$T$C$A$GT$11allocate_in17h29fe1f804abc0cc2E_1953_, 3802
_ZN6qrcode6canvas14mask_functions16horizontal_lines17h0c5de493f21ce1a3E_1954_, 3803
_ZN56_$LT$i16$u20$as$u20$checked_int_cast..CheckedIntCast$GT$16as_usize_checked17hf8c27e538d0e444fE_1955_, 3804
_ZN6qrcode6canvas6Canvas15coords_to_index17h392521962941e573E_1956_, 3805
_ZN47_$LT$u32$u20$as$u20$core..iter..range..Step$GT$17forward_unchecked17h0db0511b979a7ca8E_1957_, 3806
_ZN5alloc5alloc6Global10alloc_impl17h1f328160f76f12cfE_1958_, 3807
_ZN60_$LT$qrcode..types..Mode$u20$as$u20$core..cmp..PartialEq$GT$2eq17ha263fa5e4af74859E_1959_, 3808
_ZN4core3num23_$LT$impl$u20$usize$GT$11checked_add17h096d975beb745572E_1960_, 3809
_ZN56_$LT$i16$u20$as$u20$checked_int_cast..CheckedIntCast$GT$16as_usize_checked17hf8c27e538d0e444fE_1961_, 3810
_ZN56_$LT$i16$u20$as$u20$checked_int_cast..CheckedIntCast$GT$16as_usize_checked17hf8c27e538d0e444fE_1962_, 3811
_ZN56_$LT$i16$u20$as$u20$checked_int_cast..CheckedIntCast$GT$16as_usize_checked17hf8c27e538d0e444fE_1963_, 3812
_ZN5alloc7raw_vec19RawVec$LT$T$C$A$GT$11allocate_in17h29fe1f804abc0cc2E_1964_, 3813
_ZN4core6option15Option$LT$T$GT$3map17h1a47d23c8837b815E_1965_, 3814
_ZN56_$LT$i16$u20$as$u20$checked_int_cast..CheckedIntCast$GT$16as_usize_checked17hf8c27e538d0e444fE_1966_, 3815
_ZN6qrcode6canvas14mask_functions16horizontal_lines17h0c5de493f21ce1a3E_1967_, 3816
_ZN4core6option15Option$LT$T$GT$3map17h1a47d23c8837b815E_1968_, 3817
_ZN56_$LT$i16$u20$as$u20$checked_int_cast..CheckedIntCast$GT$16as_usize_checked17hf8c27e538d0e444fE_1969_, 3818
_ZN56_$LT$char$u20$as$u20$qrcode..render..string..Element$GT$13default_color17hc33573a548f8f261E_1970_, 3819
_ZN6qrcode6canvas6Canvas15coords_to_index17h392521962941e573E_1971_, 3820
_ZN5alloc7raw_vec19RawVec$LT$T$C$A$GT$11allocate_in17h29fe1f804abc0cc2E_1972_, 3821
_ZN6qrcode6canvas6Canvas15coords_to_index17h392521962941e573E_1973_, 3822
_ZN56_$LT$i16$u20$as$u20$checked_int_cast..CheckedIntCast$GT$16as_usize_checked17hf8c27e538d0e444fE_1974_, 3823
_ZN6qrcode6canvas14mask_functions16horizontal_lines17h0c5de493f21ce1a3E_1975_, 3824
_ZN6qrcode6canvas14mask_functions16horizontal_lines17h0c5de493f21ce1a3E_1976_, 3825
_ZN4core6option15Option$LT$T$GT$3map17h1a47d23c8837b815E_1977_, 3826
_ZN5alloc5alloc6Global10alloc_impl17h1f328160f76f12cfE_1978_, 3827
_ZN5alloc7raw_vec19RawVec$LT$T$C$A$GT$11allocate_in17h29fe1f804abc0cc2E_1979_, 3828
_ZN6qrcode6canvas6Canvas15coords_to_index17h392521962941e573E_1980_, 3829
_ZN5alloc7raw_vec19RawVec$LT$T$C$A$GT$11allocate_in17h29fe1f804abc0cc2E_1981_, 3830
_ZN6qrcode6canvas6Canvas15coords_to_index17h392521962941e573E_1982_, 3831
_ZN6qrcode6canvas6Canvas20draw_finder_patterns17hdd8f6522c27cb362E_1983_, 3832
_ZN6qrcode6canvas14mask_functions16horizontal_lines17h0c5de493f21ce1a3E_1984_, 3833
_ZN5alloc7raw_vec19RawVec$LT$T$C$A$GT$11allocate_in17h29fe1f804abc0cc2E_1985_, 3834
_ZN5alloc5alloc6Global10alloc_impl17h1f328160f76f12cfE_1986_, 3835
_ZN56_$LT$i16$u20$as$u20$checked_int_cast..CheckedIntCast$GT$16as_usize_checked17hf8c27e538d0e444fE_1987_, 3836
_ZN56_$LT$i16$u20$as$u20$checked_int_cast..CheckedIntCast$GT$16as_usize_checked17hf8c27e538d0e444fE_1988_, 3837
_ZN6qrcode6canvas14mask_functions16horizontal_lines17h0c5de493f21ce1a3E_1989_, 3838
_ZN6qrcode6canvas6Canvas15coords_to_index17h392521962941e573E_1990_, 3839
_ZN4core4iter6traits8iterator8Iterator4fold17had50487807a5fe23E_1991_, 3840
_ZN6qrcode6canvas6Canvas15coords_to_index17h392521962941e573E_1992_, 3841
_ZN6qrcode6canvas14mask_functions16horizontal_lines17h0c5de493f21ce1a3E_1993_, 3842
_ZN5alloc7raw_vec19RawVec$LT$T$C$A$GT$11allocate_in17h29fe1f804abc0cc2E_1994_, 3843
_ZN4core3ptr41drop_in_place$LT$std..io..error..Repr$GT$17haedb15029a9f36edE_1995_, 3844
_ZN5alloc7raw_vec19RawVec$LT$T$C$A$GT$11allocate_in17h29fe1f804abc0cc2E_1996_, 3845
_ZN56_$LT$i16$u20$as$u20$checked_int_cast..CheckedIntCast$GT$16as_usize_checked17hf8c27e538d0e444fE_1997_, 3846
_ZN4core4iter6traits8iterator8Iterator4fold17had50487807a5fe23E_1998_, 3847
_ZN56_$LT$i16$u20$as$u20$checked_int_cast..CheckedIntCast$GT$16as_usize_checked17hf8c27e538d0e444fE_1999_, 3848
_ZN4core6option15Option$LT$T$GT$3map17h1a47d23c8837b815E_2000_, 3849
_ZN4core4iter6traits8iterator8Iterator4fold17had50487807a5fe23E_2001_, 3850
_ZN6qrcode6canvas14mask_functions16horizontal_lines17h0c5de493f21ce1a3E_2002_, 3851
_ZN4core3num23_$LT$impl$u20$usize$GT$11checked_add17h096d975beb745572E_2003_, 3852
_ZN80_$LT$core..option..Option$LT$T$GT$$u20$as$u20$qrcode..cast..ExpectOrOverflow$GT$18expect_or_overflow17hcc565ad86b0a8398E_2004_, 3853
_ZN6qrcode6canvas6Canvas15coords_to_index17h392521962941e573E_2005_, 3854
_ZN56_$LT$i16$u20$as$u20$checked_int_cast..CheckedIntCast$GT$16as_usize_checked17hf8c27e538d0e444fE_2006_, 3855
_ZN56_$LT$i16$u20$as$u20$checked_int_cast..CheckedIntCast$GT$16as_usize_checked17hf8c27e538d0e444fE_2007_, 3856
_ZN5alloc5alloc6Global10alloc_impl17h1f328160f76f12cfE_2008_, 3857
_ZN4core4iter6traits8iterator8Iterator4fold17had50487807a5fe23E_2009_, 3858
_ZN4core6option15Option$LT$T$GT$3map17h1a47d23c8837b815E_2010_, 3859
_ZN56_$LT$char$u20$as$u20$qrcode..render..string..Element$GT$13default_color17hc33573a548f8f261E_2011_, 3860
_ZN60_$LT$qrcode..types..Mode$u20$as$u20$core..cmp..PartialEq$GT$2eq17ha263fa5e4af74859E_2012_, 3861
_ZN5alloc7raw_vec19RawVec$LT$T$C$A$GT$11allocate_in17h29fe1f804abc0cc2E_2013_, 3862
_ZN80_$LT$core..option..Option$LT$T$GT$$u20$as$u20$qrcode..cast..ExpectOrOverflow$GT$18expect_or_overflow17hcc565ad86b0a8398E_2014_, 3863
_ZN6qrcode6canvas14mask_functions16horizontal_lines17h0c5de493f21ce1a3E_2015_, 3864
_ZN6qrcode6canvas6Canvas15coords_to_index17h392521962941e573E_2016_, 3865
_ZN4core6option15Option$LT$T$GT$3map17h1a47d23c8837b815E_2017_, 3866
_ZN4core4iter6traits8iterator8Iterator4fold17had50487807a5fe23E_2018_, 3867
_ZN6qrcode6canvas6Canvas15coords_to_index17h392521962941e573E_2019_, 3868
_ZN4core4iter6traits8iterator8Iterator4fold17had50487807a5fe23E_2020_, 3869
_ZN4core3num23_$LT$impl$u20$usize$GT$11checked_add17h096d975beb745572E_2021_, 3870
_ZN4core4iter6traits8iterator8Iterator4fold17had50487807a5fe23E_2022_, 3871
_ZN56_$LT$char$u20$as$u20$qrcode..render..string..Element$GT$13default_color17hc33573a548f8f261E_2023_, 3872
_ZN60_$LT$dyn$u20$rand_core..RngCore$u20$as$u20$std..io..Read$GT$4read17h91adfdc68e7ce606E_2024_, 3873
_ZN56_$LT$usize$u20$as$u20$core..iter..traits..accum..Sum$GT$3sum28_$u7b$$u7b$closure$u7d$$u7d$17h54dbf9b2464cbac5E_2025_, 3874
_ZN60_$LT$dyn$u20$rand_core..RngCore$u20$as$u20$std..io..Read$GT$4read17h91adfdc68e7ce606E_2026_, 3875
_ZN4core3num23_$LT$impl$u20$usize$GT$11checked_add17h096d975beb745572E_2027_, 3876
_ZN5alloc5alloc6Global10alloc_impl17h1f328160f76f12cfE_2028_, 3877
_ZN6qrcode6canvas6Canvas15coords_to_index17h392521962941e573E_2029_, 3878
_ZN56_$LT$i16$u20$as$u20$checked_int_cast..CheckedIntCast$GT$16as_usize_checked17hf8c27e538d0e444fE_2030_, 3879
_ZN5alloc5alloc6Global10alloc_impl17h1f328160f76f12cfE_2031_, 3880
_ZN56_$LT$i16$u20$as$u20$checked_int_cast..CheckedIntCast$GT$16as_usize_checked17hf8c27e538d0e444fE_2032_, 3881
_ZN4core6option15Option$LT$T$GT$3map17h1a47d23c8837b815E_2033_, 3882
_ZN5alloc5alloc6Global10alloc_impl17h1f328160f76f12cfE_2034_, 3883
_ZN56_$LT$i16$u20$as$u20$checked_int_cast..CheckedIntCast$GT$16as_usize_checked17hf8c27e538d0e444fE_2035_, 3884
_ZN6qrcode6canvas6Canvas20draw_finder_patterns17hdd8f6522c27cb362E_2036_, 3885
_ZN4core6option15Option$LT$T$GT$3map17h1a47d23c8837b815E_2037_, 3886
_ZN6qrcode6canvas6Canvas15coords_to_index17h392521962941e573E_2038_, 3887
_ZN56_$LT$i16$u20$as$u20$checked_int_cast..CheckedIntCast$GT$16as_usize_checked17hf8c27e538d0e444fE_2039_, 3888
_ZN6qrcode6canvas14mask_functions16horizontal_lines17h0c5de493f21ce1a3E_2040_, 3889
_ZN6qrcode6canvas14mask_functions16horizontal_lines17h0c5de493f21ce1a3E_2041_, 3890
_ZN4core4iter6traits8iterator8Iterator4fold17had50487807a5fe23E_2042_, 3891
_ZN4core3num23_$LT$impl$u20$usize$GT$11checked_add17h096d975beb745572E_2043_, 3892
_ZN6qrcode6canvas14mask_functions16horizontal_lines17h0c5de493f21ce1a3E_2044_, 3893
_ZN6qrcode6canvas14mask_functions16horizontal_lines17h0c5de493f21ce1a3E_2045_, 3894
_ZN4core6option15Option$LT$T$GT$3map17h1a47d23c8837b815E_2046_, 3895
_ZN5alloc7raw_vec19RawVec$LT$T$C$A$GT$11allocate_in17h29fe1f804abc0cc2E_2047_, 3896
_ZN60_$LT$qrcode..types..Mode$u20$as$u20$core..cmp..PartialEq$GT$2eq17ha263fa5e4af74859E_2048_, 3897
_ZN4core4iter6traits8iterator8Iterator4fold17had50487807a5fe23E_2049_, 3898
_ZN56_$LT$usize$u20$as$u20$core..iter..traits..accum..Sum$GT$3sum28_$u7b$$u7b$closure$u7d$$u7d$17h54dbf9b2464cbac5E_2050_, 3899
_ZN4core4iter6traits8iterator8Iterator4fold17had50487807a5fe23E_2051_, 3900
_ZN6qrcode6canvas6Canvas15coords_to_index17h392521962941e573E_2052_, 3901
_ZN6qrcode6canvas14mask_functions16horizontal_lines17h0c5de493f21ce1a3E_2053_, 3902
_ZN5alloc7raw_vec19RawVec$LT$T$C$A$GT$11allocate_in17h29fe1f804abc0cc2E_2054_, 3903
_ZN6qrcode6canvas6Canvas15coords_to_index17h392521962941e573E_2055_, 3904
_ZN6qrcode6canvas6Canvas15coords_to_index17h392521962941e573E_2056_, 3905
_ZN6qrcode6canvas6Canvas15coords_to_index17h392521962941e573E_2057_, 3906
_ZN4core3num23_$LT$impl$u20$usize$GT$11checked_add17h096d975beb745572E_2058_, 3907
_ZN4core6option15Option$LT$T$GT$3map17h1a47d23c8837b815E_2059_, 3908
_ZN56_$LT$i16$u20$as$u20$checked_int_cast..CheckedIntCast$GT$16as_usize_checked17hf8c27e538d0e444fE_2060_, 3909
_ZN6qrcode6canvas14mask_functions16horizontal_lines17h0c5de493f21ce1a3E_2061_, 3910
_ZN60_$LT$dyn$u20$rand_core..RngCore$u20$as$u20$std..io..Read$GT$4read17h91adfdc68e7ce606E_2062_, 3911
_ZN4core3num23_$LT$impl$u20$usize$GT$11checked_add17h096d975beb745572E_2063_, 3912
_ZN5alloc7raw_vec19RawVec$LT$T$C$A$GT$11allocate_in17h29fe1f804abc0cc2E_2064_, 3913
_ZN6qrcode6canvas6Canvas15coords_to_index17h392521962941e573E_2065_, 3914
_ZN80_$LT$core..option..Option$LT$T$GT$$u20$as$u20$qrcode..cast..ExpectOrOverflow$GT$18expect_or_overflow17h0299d77236c2d7f5E_2066_, 3915
_ZN56_$LT$i16$u20$as$u20$checked_int_cast..CheckedIntCast$GT$16as_usize_checked17hf8c27e538d0e444fE_2067_, 3916
_ZN6qrcode6canvas6Canvas20draw_finder_patterns17hdd8f6522c27cb362E_2068_, 3917
_ZN6qrcode6canvas14mask_functions16horizontal_lines17h0c5de493f21ce1a3E_2069_, 3918
_ZN6qrcode6canvas14mask_functions16horizontal_lines17h0c5de493f21ce1a3E_2070_, 3919
_ZN6qrcode6canvas14mask_functions16horizontal_lines17h0c5de493f21ce1a3E_2071_, 3920
_ZN6qrcode6canvas14mask_functions16horizontal_lines17h0c5de493f21ce1a3E_2072_, 3921
_ZN6qrcode6canvas6Canvas15coords_to_index17h392521962941e573E_2073_, 3922
_ZN56_$LT$char$u20$as$u20$qrcode..render..string..Element$GT$13default_color17hc33573a548f8f261E_2074_, 3923
_ZN56_$LT$i16$u20$as$u20$checked_int_cast..CheckedIntCast$GT$16as_usize_checked17hf8c27e538d0e444fE_2075_, 3924
_ZN4core6option15Option$LT$T$GT$3map17h1a47d23c8837b815E_2076_, 3925
_ZN60_$LT$qrcode..types..Mode$u20$as$u20$core..cmp..PartialEq$GT$2eq17ha263fa5e4af74859E_2077_, 3926
_ZN4core6option15Option$LT$T$GT$3map17h1a47d23c8837b815E_2078_, 3927
_ZN4core3num23_$LT$impl$u20$usize$GT$11checked_add17h096d975beb745572E_2079_, 3928
_ZN4core4iter6traits8iterator8Iterator4fold17had50487807a5fe23E_2080_, 3929
_ZN56_$LT$i16$u20$as$u20$checked_int_cast..CheckedIntCast$GT$16as_usize_checked17hf8c27e538d0e444fE_2081_, 3930
_ZN6qrcode6canvas14mask_functions16horizontal_lines17h0c5de493f21ce1a3E_2082_, 3931
_ZN56_$LT$usize$u20$as$u20$core..iter..traits..accum..Sum$GT$3sum28_$u7b$$u7b$closure$u7d$$u7d$17h54dbf9b2464cbac5E_2083_, 3932
_ZN4core4iter6traits8iterator8Iterator4fold17had50487807a5fe23E_2084_, 3933
_ZN4core4iter6traits8iterator8Iterator4fold17had50487807a5fe23E_2085_, 3934
_ZN47_$LT$u32$u20$as$u20$core..iter..range..Step$GT$17forward_unchecked17h0db0511b979a7ca8E_2086_, 3935
_ZN47_$LT$u32$u20$as$u20$core..iter..range..Step$GT$17forward_unchecked17h0db0511b979a7ca8E_2087_, 3936
_ZN56_$LT$i16$u20$as$u20$checked_int_cast..CheckedIntCast$GT$16as_usize_checked17hf8c27e538d0e444fE_2088_, 3937
_ZN4core4iter6traits8iterator8Iterator4fold17had50487807a5fe23E_2089_, 3938
_ZN5alloc7raw_vec19RawVec$LT$T$C$A$GT$11allocate_in17h29fe1f804abc0cc2E_2090_, 3939
_ZN4core3num23_$LT$impl$u20$usize$GT$11checked_add17h096d975beb745572E_2091_, 3940
_ZN6qrcode6canvas14mask_functions16horizontal_lines17h0c5de493f21ce1a3E_2092_, 3941
_ZN56_$LT$i16$u20$as$u20$checked_int_cast..CheckedIntCast$GT$16as_usize_checked17hf8c27e538d0e444fE_2093_, 3942
_ZN4core6option15Option$LT$T$GT$3map17h1a47d23c8837b815E_2094_, 3943
_ZN4core4iter6traits8iterator8Iterator4fold17had50487807a5fe23E_2095_, 3944
_ZN56_$LT$i16$u20$as$u20$checked_int_cast..CheckedIntCast$GT$16as_usize_checked17hf8c27e538d0e444fE_2096_, 3945
_ZN4core4iter6traits8iterator8Iterator4fold17had50487807a5fe23E_2097_, 3946
_ZN6qrcode6canvas6Canvas15coords_to_index17h392521962941e573E_2098_, 3947
_ZN56_$LT$i16$u20$as$u20$checked_int_cast..CheckedIntCast$GT$16as_usize_checked17hf8c27e538d0e444fE_2099_, 3948
_ZN4core4iter6traits8iterator8Iterator4fold17had50487807a5fe23E_2100_, 3949
_ZN6qrcode6canvas6Canvas20draw_finder_patterns17hdd8f6522c27cb362E_2101_, 3950
_ZN5alloc7raw_vec19RawVec$LT$T$C$A$GT$11allocate_in17h29fe1f804abc0cc2E_2102_, 3951
_ZN56_$LT$i16$u20$as$u20$checked_int_cast..CheckedIntCast$GT$16as_usize_checked17hf8c27e538d0e444fE_2103_, 3952
_ZN6qrcode6canvas6Canvas15coords_to_index17h392521962941e573E_2104_, 3953
_ZN6qrcode6canvas14mask_functions16horizontal_lines17h0c5de493f21ce1a3E_2105_, 3954
_ZN56_$LT$i16$u20$as$u20$checked_int_cast..CheckedIntCast$GT$16as_usize_checked17hf8c27e538d0e444fE_2106_, 3955
_ZN4core10intrinsics19copy_nonoverlapping17hd9866c2fcb327602E_2107_, 3956
_ZN4core4iter6traits8iterator8Iterator4fold17had50487807a5fe23E_2108_, 3957
_ZN6qrcode6canvas14mask_functions16horizontal_lines17h0c5de493f21ce1a3E_2109_, 3958
_ZN47_$LT$u32$u20$as$u20$core..iter..range..Step$GT$17forward_unchecked17h0db0511b979a7ca8E_2110_, 3959
_ZN60_$LT$dyn$u20$rand_core..RngCore$u20$as$u20$std..io..Read$GT$4read17h91adfdc68e7ce606E_2111_, 3960
_ZN77_$LT$alloc..raw_vec..RawVec$LT$T$C$A$GT$$u20$as$u20$core..ops..drop..Drop$GT$4drop17h2653c8de238d7e6bE_2112_, 3961
_ZN4core4iter6traits8iterator8Iterator4fold17had50487807a5fe23E_2113_, 3962
_ZN5alloc5alloc6Global10alloc_impl17h1f328160f76f12cfE_2114_, 3963
_ZN6qrcode6canvas6Canvas15coords_to_index17h392521962941e573E_2115_, 3964
_ZN5alloc5alloc6Global10alloc_impl17h1f328160f76f12cfE_2116_, 3965
_ZN3std2io5error5Error12raw_os_error17h18499eac9d8bea1cE_2117_, 3966
_ZN56_$LT$usize$u20$as$u20$core..iter..traits..accum..Sum$GT$3sum28_$u7b$$u7b$closure$u7d$$u7d$17h54dbf9b2464cbac5E_2118_, 3967
_ZN56_$LT$usize$u20$as$u20$core..iter..traits..accum..Sum$GT$3sum28_$u7b$$u7b$closure$u7d$$u7d$17h54dbf9b2464cbac5E_2119_, 3968
_ZN4core4iter6traits8iterator8Iterator4fold17had50487807a5fe23E_2120_, 3969
_ZN4core6option15Option$LT$T$GT$3map17h1a47d23c8837b815E_2121_, 3970
_ZN56_$LT$i16$u20$as$u20$checked_int_cast..CheckedIntCast$GT$16as_usize_checked17hf8c27e538d0e444fE_2122_, 3971
_ZN4core3num23_$LT$impl$u20$usize$GT$11checked_add17h096d975beb745572E_2123_, 3972
_ZN4core6option15Option$LT$T$GT$3map17h1a47d23c8837b815E_2124_, 3973
_ZN6qrcode6canvas6Canvas15coords_to_index17h392521962941e573E_2125_, 3974
_ZN6qrcode6canvas14mask_functions16horizontal_lines17h0c5de493f21ce1a3E_2126_, 3975
_ZN4core6option15Option$LT$T$GT$3map17h1a47d23c8837b815E_2127_, 3976
_ZN56_$LT$usize$u20$as$u20$core..iter..traits..accum..Sum$GT$3sum28_$u7b$$u7b$closure$u7d$$u7d$17h54dbf9b2464cbac5E_2128_, 3977
_ZN4core4iter6traits8iterator8Iterator4fold17had50487807a5fe23E_2129_, 3978
_ZN56_$LT$i16$u20$as$u20$checked_int_cast..CheckedIntCast$GT$16as_usize_checked17hf8c27e538d0e444fE_2130_, 3979
_ZN6qrcode6canvas14mask_functions16horizontal_lines17h0c5de493f21ce1a3E_2131_, 3980
_ZN56_$LT$i16$u20$as$u20$checked_int_cast..CheckedIntCast$GT$16as_usize_checked17hf8c27e538d0e444fE_2132_, 3981
_ZN6qrcode6canvas14mask_functions16horizontal_lines17h0c5de493f21ce1a3E_2133_, 3982
_ZN6qrcode6canvas6Canvas15coords_to_index17h392521962941e573E_2134_, 3983
_ZN4core6option15Option$LT$T$GT$3map17h1a47d23c8837b815E_2135_, 3984
_ZN56_$LT$char$u20$as$u20$qrcode..render..string..Element$GT$13default_color17hc33573a548f8f261E_2136_, 3985
_ZN56_$LT$i16$u20$as$u20$checked_int_cast..CheckedIntCast$GT$16as_usize_checked17hf8c27e538d0e444fE_2137_, 3986
_ZN6qrcode6canvas14mask_functions16horizontal_lines17h0c5de493f21ce1a3E_2138_, 3987
_ZN4core6option15Option$LT$T$GT$3map17h1a47d23c8837b815E_2139_, 3988
_ZN6qrcode6canvas6Canvas15coords_to_index17h392521962941e573E_2140_, 3989
_ZN5alloc7raw_vec19RawVec$LT$T$C$A$GT$11allocate_in17h29fe1f804abc0cc2E_2141_, 3990
_ZN56_$LT$i16$u20$as$u20$checked_int_cast..CheckedIntCast$GT$16as_usize_checked17hf8c27e538d0e444fE_2142_, 3991
_ZN56_$LT$i16$u20$as$u20$checked_int_cast..CheckedIntCast$GT$16as_usize_checked17hf8c27e538d0e444fE_2143_, 3992
_ZN6qrcode6canvas6Canvas15coords_to_index17h392521962941e573E_2144_, 3993
_ZN5alloc7raw_vec19RawVec$LT$T$C$A$GT$11allocate_in17h29fe1f804abc0cc2E_2145_, 3994
_ZN5alloc7raw_vec19RawVec$LT$T$C$A$GT$11allocate_in17h29fe1f804abc0cc2E_2146_, 3995
_ZN6qrcode6canvas14mask_functions16horizontal_lines17h0c5de493f21ce1a3E_2147_, 3996
_ZN5alloc5alloc6Global10alloc_impl17h1f328160f76f12cfE_2148_, 3997
_ZN80_$LT$core..option..Option$LT$T$GT$$u20$as$u20$qrcode..cast..ExpectOrOverflow$GT$18expect_or_overflow17h0299d77236c2d7f5E_2149_, 3998
_ZN56_$LT$i16$u20$as$u20$checked_int_cast..CheckedIntCast$GT$16as_usize_checked17hf8c27e538d0e444fE_2150_, 3999
_ZN56_$LT$i16$u20$as$u20$checked_int_cast..CheckedIntCast$GT$16as_usize_checked17hf8c27e538d0e444fE_2151_, 4000
_ZN5alloc7raw_vec19RawVec$LT$T$C$A$GT$11allocate_in17h29fe1f804abc0cc2E_2152_, 4001
_ZN4core4iter6traits8iterator8Iterator4fold17had50487807a5fe23E_2153_, 4002
_ZN5alloc7raw_vec19RawVec$LT$T$C$A$GT$11allocate_in17h29fe1f804abc0cc2E_2154_, 4003
_ZN56_$LT$i16$u20$as$u20$checked_int_cast..CheckedIntCast$GT$16as_usize_checked17hf8c27e538d0e444fE_2155_, 4004
_ZN6qrcode6canvas6Canvas15coords_to_index17h392521962941e573E_2156_, 4005
_ZN6qrcode6canvas14mask_functions16horizontal_lines17h0c5de493f21ce1a3E_2157_, 4006
_ZN80_$LT$core..option..Option$LT$T$GT$$u20$as$u20$qrcode..cast..ExpectOrOverflow$GT$18expect_or_overflow17hcc565ad86b0a8398E_2158_, 4007
_ZN56_$LT$i16$u20$as$u20$checked_int_cast..CheckedIntCast$GT$16as_usize_checked17hf8c27e538d0e444fE_2159_, 4008
_ZN102_$LT$core..iter..adapters..cycle..Cycle$LT$I$GT$$u20$as$u20$core..iter..traits..iterator..Iterator$GT$9size_hint17hb562490e751a5104E_2160_, 4009
_ZN4core3ptr41drop_in_place$LT$std..io..error..Repr$GT$17haedb15029a9f36edE_2161_, 4010
_ZN4core6option15Option$LT$T$GT$3map17h1a47d23c8837b815E_2162_, 4011
_ZN80_$LT$core..option..Option$LT$T$GT$$u20$as$u20$qrcode..cast..ExpectOrOverflow$GT$18expect_or_overflow17h0299d77236c2d7f5E_2163_, 4012
_ZN56_$LT$i16$u20$as$u20$checked_int_cast..CheckedIntCast$GT$16as_usize_checked17hf8c27e538d0e444fE_2164_, 4013
_ZN56_$LT$char$u20$as$u20$qrcode..render..string..Element$GT$13default_color17hc33573a548f8f261E_2165_, 4014
_ZN6qrcode6canvas6Canvas15coords_to_index17h392521962941e573E_2166_, 4015
_ZN4core4iter6traits8iterator8Iterator4fold17had50487807a5fe23E_2167_, 4016
_ZN6qrcode6canvas14mask_functions16horizontal_lines17h0c5de493f21ce1a3E_2168_, 4017
_ZN4core4iter6traits8iterator8Iterator4fold17had50487807a5fe23E_2169_, 4018
_ZN6qrcode6canvas14mask_functions16horizontal_lines17h0c5de493f21ce1a3E_2170_, 4019
_ZN4core3num23_$LT$impl$u20$usize$GT$11checked_add17h096d975beb745572E_2171_, 4020
_ZN80_$LT$core..option..Option$LT$T$GT$$u20$as$u20$qrcode..cast..ExpectOrOverflow$GT$18expect_or_overflow17h0299d77236c2d7f5E_2172_, 4021
_ZN5alloc7raw_vec19RawVec$LT$T$C$A$GT$11allocate_in17h29fe1f804abc0cc2E_2173_, 4022
_ZN4core6option15Option$LT$T$GT$3map17h1a47d23c8837b815E_2174_, 4023
_ZN77_$LT$alloc..raw_vec..RawVec$LT$T$C$A$GT$$u20$as$u20$core..ops..drop..Drop$GT$4drop17h7425ee577f6364a4E_2175_, 4024
_ZN80_$LT$core..option..Option$LT$T$GT$$u20$as$u20$qrcode..cast..ExpectOrOverflow$GT$18expect_or_overflow17hcc565ad86b0a8398E_2176_, 4025
_ZN5alloc5alloc6Global10alloc_impl17h1f328160f76f12cfE_2177_, 4026
_ZN90_$LT$alloc..vec..Vec$LT$T$C$A$GT$$u20$as$u20$core..iter..traits..collect..IntoIterator$GT$9into_iter17h22749a8b022aa6ebE_2178_, 4027
_ZN102_$LT$core..iter..adapters..cycle..Cycle$LT$I$GT$$u20$as$u20$core..iter..traits..iterator..Iterator$GT$9size_hint17hb562490e751a5104E_2179_, 4028
_ZN5alloc7raw_vec19RawVec$LT$T$C$A$GT$11allocate_in17h29fe1f804abc0cc2E_2180_, 4029
_ZN6qrcode6canvas14mask_functions16horizontal_lines17h0c5de493f21ce1a3E_2181_, 4030
_ZN4core4iter6traits8iterator8Iterator4fold17had50487807a5fe23E_2182_, 4031
_ZN4core4iter6traits8iterator8Iterator4fold17had50487807a5fe23E_2183_, 4032
_ZN6qrcode6canvas6Canvas20draw_finder_patterns17hdd8f6522c27cb362E_2184_, 4033
_ZN102_$LT$core..iter..adapters..cycle..Cycle$LT$I$GT$$u20$as$u20$core..iter..traits..iterator..Iterator$GT$9size_hint17hb562490e751a5104E_2185_, 4034
_ZN4core4iter6traits8iterator8Iterator4fold17had50487807a5fe23E_2186_, 4035
_ZN6qrcode6canvas6Canvas15coords_to_index17h392521962941e573E_2187_, 4036
_ZN4core6option15Option$LT$T$GT$3map17h1a47d23c8837b815E_2188_, 4037
_ZN4core4iter6traits8iterator8Iterator4fold17had50487807a5fe23E_2189_, 4038
_ZN5alloc7raw_vec19RawVec$LT$T$C$A$GT$11allocate_in17h29fe1f804abc0cc2E_2190_, 4039
_ZN6qrcode6canvas6Canvas15coords_to_index17h392521962941e573E_2191_, 4040
_ZN58_$LT$usize$u20$as$u20$checked_int_cast..CheckedIntCast$GT$14as_u16_checked17h8c652c149b1ec8f1E_2192_, 4041
_ZN56_$LT$i16$u20$as$u20$checked_int_cast..CheckedIntCast$GT$16as_usize_checked17hf8c27e538d0e444fE_2193_, 4042
_ZN4core4iter6traits8iterator8Iterator4fold17had50487807a5fe23E_2194_, 4043
_ZN56_$LT$char$u20$as$u20$qrcode..render..string..Element$GT$13default_color17hc33573a548f8f261E_2195_, 4044
_ZN6qrcode5types7Version8is_micro17hdb4237c14d4fb839E_2196_, 4045
_ZN56_$LT$i16$u20$as$u20$checked_int_cast..CheckedIntCast$GT$16as_usize_checked17hf8c27e538d0e444fE_2197_, 4046
_ZN4core4iter6traits8iterator8Iterator4fold17had50487807a5fe23E_2198_, 4047
_ZN60_$LT$qrcode..types..Mode$u20$as$u20$core..cmp..PartialEq$GT$2eq17ha263fa5e4af74859E_2199_, 4048
_ZN5alloc7raw_vec19RawVec$LT$T$C$A$GT$11allocate_in17h29fe1f804abc0cc2E_2200_, 4049
_ZN5alloc7raw_vec19RawVec$LT$T$C$A$GT$11allocate_in17h29fe1f804abc0cc2E_2201_, 4050
_ZN80_$LT$core..option..Option$LT$T$GT$$u20$as$u20$qrcode..cast..ExpectOrOverflow$GT$18expect_or_overflow17hcc565ad86b0a8398E_2202_, 4051
_ZN4core6option15Option$LT$T$GT$3map17h1a47d23c8837b815E_2203_, 4052
_ZN6qrcode6canvas6Canvas15coords_to_index17h392521962941e573E_2204_, 4053
_ZN4core4iter6traits8iterator8Iterator4fold17had50487807a5fe23E_2205_, 4054
_ZN4core6option15Option$LT$T$GT$3map17h1a47d23c8837b815E_2206_, 4055
_ZN6qrcode6canvas6Canvas15coords_to_index17h392521962941e573E_2207_, 4056
_ZN6qrcode6canvas14mask_functions16horizontal_lines17h0c5de493f21ce1a3E_2208_, 4057
_ZN5alloc7raw_vec19RawVec$LT$T$C$A$GT$11allocate_in17h29fe1f804abc0cc2E_2209_, 4058
_ZN6qrcode6canvas6Canvas15coords_to_index17h392521962941e573E_2210_, 4059
_ZN56_$LT$i16$u20$as$u20$checked_int_cast..CheckedIntCast$GT$16as_usize_checked17hf8c27e538d0e444fE_2211_, 4060
_ZN56_$LT$usize$u20$as$u20$core..iter..traits..accum..Sum$GT$3sum28_$u7b$$u7b$closure$u7d$$u7d$17h54dbf9b2464cbac5E_2212_, 4061
_ZN56_$LT$i16$u20$as$u20$checked_int_cast..CheckedIntCast$GT$16as_usize_checked17hf8c27e538d0e444fE_2213_, 4062
_ZN3std2io5error5Error12raw_os_error17h18499eac9d8bea1cE_2214_, 4063
_ZN5alloc5alloc6Global10alloc_impl17h1f328160f76f12cfE_2215_, 4064
_ZN4core6option15Option$LT$T$GT$3map17h1a47d23c8837b815E_2216_, 4065
_ZN4core4iter6traits8iterator8Iterator4fold17had50487807a5fe23E_2217_, 4066
_ZN47_$LT$u32$u20$as$u20$core..iter..range..Step$GT$17forward_unchecked17h0db0511b979a7ca8E_2218_, 4067
_ZN5alloc7raw_vec19RawVec$LT$T$C$A$GT$11allocate_in17h29fe1f804abc0cc2E_2219_, 4068
_ZN5alloc7raw_vec19RawVec$LT$T$C$A$GT$14grow_amortized17h6f899ca47fc55f93E_2220_, 4069
_ZN4core4iter6traits8iterator8Iterator4fold17had50487807a5fe23E_2221_, 4070
_ZN56_$LT$i16$u20$as$u20$checked_int_cast..CheckedIntCast$GT$16as_usize_checked17hf8c27e538d0e444fE_2222_, 4071
_ZN6qrcode6canvas14mask_functions16horizontal_lines17h0c5de493f21ce1a3E_2223_, 4072
_ZN4core4iter6traits8iterator8Iterator4fold17had50487807a5fe23E_2224_, 4073
_ZN4core6option15Option$LT$T$GT$3map17h1a47d23c8837b815E_2225_, 4074
_ZN56_$LT$usize$u20$as$u20$core..iter..traits..accum..Sum$GT$3sum28_$u7b$$u7b$closure$u7d$$u7d$17h54dbf9b2464cbac5E_2226_, 4075
_ZN5alloc7raw_vec19RawVec$LT$T$C$A$GT$11allocate_in17h29fe1f804abc0cc2E_2227_, 4076
_ZN3std2io5error5Error12raw_os_error17h18499eac9d8bea1cE_2228_, 4077
_ZN6qrcode6canvas14mask_functions16horizontal_lines17h0c5de493f21ce1a3E_2229_, 4078
_ZN56_$LT$i16$u20$as$u20$checked_int_cast..CheckedIntCast$GT$16as_usize_checked17hf8c27e538d0e444fE_2230_, 4079
_ZN56_$LT$i16$u20$as$u20$checked_int_cast..CheckedIntCast$GT$16as_usize_checked17hf8c27e538d0e444fE_2231_, 4080
_ZN56_$LT$i16$u20$as$u20$checked_int_cast..CheckedIntCast$GT$16as_usize_checked17hf8c27e538d0e444fE_2232_, 4081
_ZN80_$LT$core..option..Option$LT$T$GT$$u20$as$u20$qrcode..cast..ExpectOrOverflow$GT$18expect_or_overflow17hcc565ad86b0a8398E_2233_, 4082
_ZN5alloc5alloc6Global10alloc_impl17h1f328160f76f12cfE_2234_, 4083
_ZN56_$LT$i16$u20$as$u20$checked_int_cast..CheckedIntCast$GT$16as_usize_checked17hf8c27e538d0e444fE_2235_, 4084
_ZN56_$LT$i16$u20$as$u20$checked_int_cast..CheckedIntCast$GT$16as_usize_checked17hf8c27e538d0e444fE_2236_, 4085
_ZN56_$LT$i16$u20$as$u20$checked_int_cast..CheckedIntCast$GT$16as_usize_checked17hf8c27e538d0e444fE_2237_, 4086
_ZN5alloc5alloc6Global10alloc_impl17h1f328160f76f12cfE_2238_, 4087
_ZN5alloc5alloc6Global10alloc_impl17h1f328160f76f12cfE_2239_, 4088
_ZN6qrcode6canvas6Canvas15coords_to_index17h392521962941e573E_2240_, 4089
_ZN4core4iter6traits8iterator8Iterator4fold17had50487807a5fe23E_2241_, 4090
_ZN56_$LT$i16$u20$as$u20$checked_int_cast..CheckedIntCast$GT$16as_usize_checked17hf8c27e538d0e444fE_2242_, 4091
_ZN4core6option15Option$LT$T$GT$3map17h1a47d23c8837b815E_2243_, 4092
_ZN4core4iter6traits8iterator8Iterator4fold17had50487807a5fe23E_2244_, 4093
_ZN5alloc5alloc6Global10alloc_impl17h1f328160f76f12cfE_2245_, 4094
_ZN6qrcode6canvas14mask_functions16horizontal_lines17h0c5de493f21ce1a3E_2246_, 4095
_ZN4core4iter6traits8iterator8Iterator4fold17had50487807a5fe23E_2247_, 4096
_ZN56_$LT$i16$u20$as$u20$checked_int_cast..CheckedIntCast$GT$16as_usize_checked17hf8c27e538d0e444fE_2248_, 4097
_ZN6qrcode6canvas14mask_functions16horizontal_lines17h0c5de493f21ce1a3E_2249_, 4098
_ZN60_$LT$dyn$u20$rand_core..RngCore$u20$as$u20$std..io..Read$GT$4read17h91adfdc68e7ce606E_2250_, 4099
_ZN47_$LT$u32$u20$as$u20$core..iter..range..Step$GT$17forward_unchecked17h0db0511b979a7ca8E_2251_, 4100
_ZN56_$LT$i16$u20$as$u20$checked_int_cast..CheckedIntCast$GT$16as_usize_checked17hf8c27e538d0e444fE_2252_, 4101
_ZN6qrcode6canvas14mask_functions16horizontal_lines17h0c5de493f21ce1a3E_2253_, 4102
_ZN6qrcode6canvas6Canvas15coords_to_index17h392521962941e573E_2254_, 4103
_ZN6qrcode6canvas6Canvas15coords_to_index17h392521962941e573E_2255_, 4104
_ZN4core4iter6traits8iterator8Iterator4fold17had50487807a5fe23E_2256_, 4105
_ZN6qrcode6canvas6Canvas15coords_to_index17h392521962941e573E_2257_, 4106
_ZN6qrcode6canvas14mask_functions16horizontal_lines17h0c5de493f21ce1a3E_2258_, 4107
_ZN5alloc5alloc6Global10alloc_impl17h1f328160f76f12cfE_2259_, 4108
_ZN6qrcode6canvas6Canvas15coords_to_index17h392521962941e573E_2260_, 4109
_ZN6qrcode6canvas14mask_functions16horizontal_lines17h0c5de493f21ce1a3E_2261_, 4110
_ZN4core4iter6traits8iterator8Iterator4fold17had50487807a5fe23E_2262_, 4111
_ZN4core4iter6traits8iterator8Iterator4fold17had50487807a5fe23E_2263_, 4112
_ZN6qrcode6canvas6Canvas15coords_to_index17h392521962941e573E_2264_, 4113
_ZN4core4iter6traits8iterator8Iterator4fold17had50487807a5fe23E_2265_, 4114
_ZN6qrcode6canvas6Canvas15coords_to_index17h392521962941e573E_2266_, 4115
_ZN6qrcode6canvas14mask_functions16horizontal_lines17h0c5de493f21ce1a3E_2267_, 4116
_ZN4core3num23_$LT$impl$u20$usize$GT$11checked_add17h096d975beb745572E_2268_, 4117
_ZN56_$LT$char$u20$as$u20$qrcode..render..string..Element$GT$13default_color17hc33573a548f8f261E_2269_, 4118
_ZN4core4iter6traits8iterator8Iterator4fold17had50487807a5fe23E_2270_, 4119
_ZN56_$LT$i16$u20$as$u20$checked_int_cast..CheckedIntCast$GT$16as_usize_checked17hf8c27e538d0e444fE_2271_, 4120
_ZN4core4iter6traits8iterator8Iterator4fold17had50487807a5fe23E_2272_, 4121
_ZN5alloc7raw_vec19RawVec$LT$T$C$A$GT$11allocate_in17h29fe1f804abc0cc2E_2273_, 4122
_ZN56_$LT$usize$u20$as$u20$core..iter..traits..accum..Sum$GT$3sum28_$u7b$$u7b$closure$u7d$$u7d$17h54dbf9b2464cbac5E_2274_, 4123
_ZN80_$LT$core..option..Option$LT$T$GT$$u20$as$u20$qrcode..cast..ExpectOrOverflow$GT$18expect_or_overflow17h0299d77236c2d7f5E_2275_, 4124
_ZN5alloc5alloc6Global10alloc_impl17h1f328160f76f12cfE_2276_, 4125
_ZN3std2io5error5Error12raw_os_error17h18499eac9d8bea1cE_2277_, 4126
_ZN103_$LT$alloc..vec..into_iter..IntoIter$LT$T$C$A$GT$$u20$as$u20$core..iter..traits..iterator..Iterator$GT$24__iterator_get_unchecked17h0fc81070bbe0d704E_2278_, 4127
_ZN80_$LT$core..option..Option$LT$T$GT$$u20$as$u20$qrcode..cast..ExpectOrOverflow$GT$18expect_or_overflow17h0299d77236c2d7f5E_2279_, 4128
_ZN4core6option15Option$LT$T$GT$3map17h1a47d23c8837b815E_2280_, 4129
_ZN103_$LT$alloc..vec..into_iter..IntoIter$LT$T$C$A$GT$$u20$as$u20$core..iter..traits..iterator..Iterator$GT$9size_hint17h88f56e8c40f880afE_2281_, 4130
_ZN59_$LT$qrcode..types..EcLevel$u20$as$u20$core..fmt..Debug$GT$3fmt17ha948e4d029cdc453E_2281_, 4131
_ZN6qrcode6canvas6Canvas15coords_to_index17h392521962941e573E_2282_, 4132
_ZN6qrcode6canvas14mask_functions16horizontal_lines17h0c5de493f21ce1a3E_2283_, 4133
_ZN56_$LT$i16$u20$as$u20$checked_int_cast..CheckedIntCast$GT$16as_usize_checked17hf8c27e538d0e444fE_2284_, 4134
_ZN56_$LT$i16$u20$as$u20$checked_int_cast..CheckedIntCast$GT$16as_usize_checked17hf8c27e538d0e444fE_2285_, 4135
_ZN4core6option15Option$LT$T$GT$3map17h1a47d23c8837b815E_2286_, 4136
_ZN6qrcode6canvas14mask_functions16horizontal_lines17h0c5de493f21ce1a3E_2287_, 4137
_ZN5alloc5alloc6Global10alloc_impl17h1f328160f76f12cfE_2288_, 4138
_ZN6qrcode6canvas6Canvas20draw_finder_patterns17hdd8f6522c27cb362E_2289_, 4139
_ZN56_$LT$i16$u20$as$u20$checked_int_cast..CheckedIntCast$GT$16as_usize_checked17hf8c27e538d0e444fE_2290_, 4140
_ZN5alloc5alloc6Global10alloc_impl17h1f328160f76f12cfE_2291_, 4141
_ZN6qrcode6canvas6Canvas15coords_to_index17h392521962941e573E_2292_, 4142
_ZN80_$LT$core..option..Option$LT$T$GT$$u20$as$u20$qrcode..cast..ExpectOrOverflow$GT$18expect_or_overflow17hcc565ad86b0a8398E_2293_, 4143
_ZN56_$LT$i16$u20$as$u20$checked_int_cast..CheckedIntCast$GT$16as_usize_checked17hf8c27e538d0e444fE_2294_, 4144
_ZN56_$LT$i16$u20$as$u20$checked_int_cast..CheckedIntCast$GT$16as_usize_checked17hf8c27e538d0e444fE_2295_, 4145
_ZN56_$LT$i16$u20$as$u20$checked_int_cast..CheckedIntCast$GT$16as_usize_checked17hf8c27e538d0e444fE_2296_, 4146
_ZN6qrcode6canvas6Canvas15coords_to_index17h392521962941e573E_2297_, 4147
_ZN4core6option15Option$LT$T$GT$3map17h1a47d23c8837b815E_2298_, 4148
_ZN56_$LT$i16$u20$as$u20$checked_int_cast..CheckedIntCast$GT$16as_usize_checked17hf8c27e538d0e444fE_2299_, 4149
_ZN5alloc5alloc6Global10alloc_impl17h1f328160f76f12cfE_2300_, 4150
_ZN5alloc7raw_vec19RawVec$LT$T$C$A$GT$11allocate_in17h29fe1f804abc0cc2E_2301_, 4151
_ZN80_$LT$core..option..Option$LT$T$GT$$u20$as$u20$qrcode..cast..ExpectOrOverflow$GT$18expect_or_overflow17hcc565ad86b0a8398E_2302_, 4152
_ZN56_$LT$i16$u20$as$u20$checked_int_cast..CheckedIntCast$GT$16as_usize_checked17hf8c27e538d0e444fE_2303_, 4153
_ZN56_$LT$i16$u20$as$u20$checked_int_cast..CheckedIntCast$GT$16as_usize_checked17hf8c27e538d0e444fE_2304_, 4154
_ZN56_$LT$i16$u20$as$u20$checked_int_cast..CheckedIntCast$GT$16as_usize_checked17hf8c27e538d0e444fE_2305_, 4155
_ZN4core6option15Option$LT$T$GT$3map17h1a47d23c8837b815E_2306_, 4156
_ZN6qrcode6canvas14mask_functions16horizontal_lines17h0c5de493f21ce1a3E_2307_, 4157
_ZN4core4iter6traits8iterator8Iterator4fold17had50487807a5fe23E_2308_, 4158
_ZN4core6option15Option$LT$T$GT$3map17h1a47d23c8837b815E_2309_, 4159
_ZN56_$LT$char$u20$as$u20$qrcode..render..string..Element$GT$13default_color17hc33573a548f8f261E_2310_, 4160
_ZN5alloc5alloc6Global10alloc_impl17h1f328160f76f12cfE_2311_, 4161
_ZN6qrcode6canvas6Canvas15coords_to_index17h392521962941e573E_2312_, 4162
_ZN56_$LT$i16$u20$as$u20$checked_int_cast..CheckedIntCast$GT$16as_usize_checked17hf8c27e538d0e444fE_2313_, 4163
_ZN6qrcode6canvas6Canvas15coords_to_index17h392521962941e573E_2314_, 4164
_ZN5alloc7raw_vec19RawVec$LT$T$C$A$GT$11allocate_in17h29fe1f804abc0cc2E_2315_, 4165
_ZN60_$LT$qrcode..types..Mode$u20$as$u20$core..cmp..PartialEq$GT$2eq17ha263fa5e4af74859E_2316_, 4166
_ZN56_$LT$i16$u20$as$u20$checked_int_cast..CheckedIntCast$GT$16as_usize_checked17hf8c27e538d0e444fE_2317_, 4167
_ZN102_$LT$core..iter..adapters..cycle..Cycle$LT$I$GT$$u20$as$u20$core..iter..traits..iterator..Iterator$GT$9size_hint17hb562490e751a5104E_2318_, 4168
_ZN80_$LT$core..option..Option$LT$T$GT$$u20$as$u20$qrcode..cast..ExpectOrOverflow$GT$18expect_or_overflow17hcc565ad86b0a8398E_2319_, 4169
_ZN4core6option15Option$LT$T$GT$3map17h1a47d23c8837b815E_2320_, 4170
_ZN4core4iter6traits8iterator8Iterator4fold17had50487807a5fe23E_2321_, 4171
_ZN5alloc7raw_vec19RawVec$LT$T$C$A$GT$11allocate_in17h29fe1f804abc0cc2E_2322_, 4172
_ZN4core3num23_$LT$impl$u20$usize$GT$11checked_add17h096d975beb745572E_2323_, 4173
_ZN6qrcode6canvas14mask_functions16horizontal_lines17h0c5de493f21ce1a3E_2324_, 4174
_ZN56_$LT$i16$u20$as$u20$checked_int_cast..CheckedIntCast$GT$16as_usize_checked17hf8c27e538d0e444fE_2325_, 4175
_ZN6qrcode6canvas6Canvas15coords_to_index17h392521962941e573E_2326_, 4176
_ZN56_$LT$char$u20$as$u20$qrcode..render..string..Element$GT$13default_color17hc33573a548f8f261E_2327_, 4177
_ZN6qrcode6canvas6Canvas15coords_to_index17h392521962941e573E_2328_, 4178
_ZN47_$LT$u32$u20$as$u20$core..iter..range..Step$GT$17forward_unchecked17h0db0511b979a7ca8E_2329_, 4179
_ZN4core6option15Option$LT$T$GT$3map17h1a47d23c8837b815E_2330_, 4180
_ZN56_$LT$i16$u20$as$u20$checked_int_cast..CheckedIntCast$GT$16as_usize_checked17hf8c27e538d0e444fE_2331_, 4181
_ZN5alloc7raw_vec19RawVec$LT$T$C$A$GT$11allocate_in17h344cc4811a228da3E_2332_, 4182
_ZN6qrcode6canvas14mask_functions16horizontal_lines17h0c5de493f21ce1a3E_2333_, 4183
_ZN56_$LT$i16$u20$as$u20$checked_int_cast..CheckedIntCast$GT$16as_usize_checked17hf8c27e538d0e444fE_2334_, 4184
_ZN4core6option15Option$LT$T$GT$3map17h1a47d23c8837b815E_2335_, 4185
_ZN4core4iter6traits8iterator8Iterator4fold17had50487807a5fe23E_2336_, 4186
_ZN4core6option15Option$LT$T$GT$3map17h1a47d23c8837b815E_2337_, 4187
_ZN6qrcode6canvas6Canvas15coords_to_index17h392521962941e573E_2338_, 4188
_ZN6qrcode6canvas6Canvas15coords_to_index17h392521962941e573E_2339_, 4189
_ZN6qrcode6canvas6Canvas15coords_to_index17h392521962941e573E_2340_, 4190
_ZN5alloc7raw_vec19RawVec$LT$T$C$A$GT$11allocate_in17h29fe1f804abc0cc2E_2341_, 4191
_ZN56_$LT$i16$u20$as$u20$checked_int_cast..CheckedIntCast$GT$16as_usize_checked17hf8c27e538d0e444fE_2342_, 4192
_ZN6qrcode6canvas6Canvas15coords_to_index17h392521962941e573E_2343_, 4193
_ZN4core4iter6traits8iterator8Iterator4fold17had50487807a5fe23E_2344_, 4194
_ZN5alloc7raw_vec19RawVec$LT$T$C$A$GT$11allocate_in17h29fe1f804abc0cc2E_2345_, 4195
_ZN102_$LT$core..iter..adapters..cycle..Cycle$LT$I$GT$$u20$as$u20$core..iter..traits..iterator..Iterator$GT$9size_hint17hb562490e751a5104E_2346_, 4196
_ZN6qrcode6canvas6Canvas15coords_to_index17h392521962941e573E_2347_, 4197
_ZN56_$LT$i16$u20$as$u20$checked_int_cast..CheckedIntCast$GT$16as_usize_checked17hf8c27e538d0e444fE_2348_, 4198
_ZN6qrcode6canvas6Canvas15coords_to_index17h392521962941e573E_2349_, 4199
_ZN6qrcode6canvas14mask_functions16horizontal_lines17h0c5de493f21ce1a3E_2350_, 4200
_ZN5alloc7raw_vec19RawVec$LT$T$C$A$GT$11allocate_in17h29fe1f804abc0cc2E_2351_, 4201
_ZN56_$LT$i16$u20$as$u20$checked_int_cast..CheckedIntCast$GT$16as_usize_checked17hf8c27e538d0e444fE_2352_, 4202
_ZN6qrcode6canvas14mask_functions16horizontal_lines17h0c5de493f21ce1a3E_2353_, 4203
_ZN4core6option15Option$LT$T$GT$3map17h1a47d23c8837b815E_2354_, 4204
_ZN4core4iter6traits8iterator8Iterator4fold17had50487807a5fe23E_2355_, 4205
_ZN56_$LT$i16$u20$as$u20$checked_int_cast..CheckedIntCast$GT$16as_usize_checked17hf8c27e538d0e444fE_2356_, 4206
_ZN56_$LT$i16$u20$as$u20$checked_int_cast..CheckedIntCast$GT$16as_usize_checked17hf8c27e538d0e444fE_2357_, 4207
_ZN5alloc7raw_vec19RawVec$LT$T$C$A$GT$11allocate_in17h29fe1f804abc0cc2E_2358_, 4208
_ZN56_$LT$i16$u20$as$u20$checked_int_cast..CheckedIntCast$GT$16as_usize_checked17hf8c27e538d0e444fE_2359_, 4209
_ZN56_$LT$char$u20$as$u20$qrcode..render..string..Element$GT$13default_color17hc33573a548f8f261E_2360_, 4210
_ZN56_$LT$usize$u20$as$u20$core..iter..traits..accum..Sum$GT$3sum28_$u7b$$u7b$closure$u7d$$u7d$17h54dbf9b2464cbac5E_2361_, 4211
_ZN6qrcode6canvas6Canvas15coords_to_index17h392521962941e573E_2362_, 4212
_ZN56_$LT$i16$u20$as$u20$checked_int_cast..CheckedIntCast$GT$16as_usize_checked17hf8c27e538d0e444fE_2363_, 4213
_ZN5alloc7raw_vec19RawVec$LT$T$C$A$GT$11allocate_in17h29fe1f804abc0cc2E_2364_, 4214
_ZN4core4iter6traits8iterator8Iterator4fold17had50487807a5fe23E_2365_, 4215
_ZN6qrcode6canvas14mask_functions16horizontal_lines17h0c5de493f21ce1a3E_2366_, 4216
_ZN47_$LT$u32$u20$as$u20$core..iter..range..Step$GT$17forward_unchecked17h0db0511b979a7ca8E_2367_, 4217
_ZN6qrcode6canvas6Canvas20draw_finder_patterns17hdd8f6522c27cb362E_2368_, 4218
_ZN56_$LT$i16$u20$as$u20$checked_int_cast..CheckedIntCast$GT$16as_usize_checked17hf8c27e538d0e444fE_2369_, 4219
_ZN56_$LT$i16$u20$as$u20$checked_int_cast..CheckedIntCast$GT$16as_usize_checked17hf8c27e538d0e444fE_2370_, 4220
_ZN6qrcode6canvas6Canvas15coords_to_index17h392521962941e573E_2371_, 4221
_ZN4core4iter6traits8iterator8Iterator4fold17had50487807a5fe23E_2372_, 4222
_ZN6qrcode6canvas6Canvas20draw_finder_patterns17hdd8f6522c27cb362E_2373_, 4223
_ZN4core4iter6traits8iterator8Iterator4fold17had50487807a5fe23E_2374_, 4224
_ZN6qrcode6canvas6Canvas15coords_to_index17h392521962941e573E_2375_, 4225
_ZN6qrcode6canvas6Canvas15coords_to_index17h392521962941e573E_2376_, 4226
_ZN6qrcode6canvas14mask_functions16horizontal_lines17h0c5de493f21ce1a3E_2377_, 4227
_ZN6qrcode6canvas14mask_functions16horizontal_lines17h0c5de493f21ce1a3E_2378_, 4228
_ZN4core6option15Option$LT$T$GT$3map17h1a47d23c8837b815E_2379_, 4229
_ZN4core6option15Option$LT$T$GT$3map17h1a47d23c8837b815E_2380_, 4230
_ZN56_$LT$usize$u20$as$u20$core..iter..traits..accum..Sum$GT$3sum28_$u7b$$u7b$closure$u7d$$u7d$17h54dbf9b2464cbac5E_2381_, 4231
_ZN4core4iter6traits8iterator8Iterator4fold17had50487807a5fe23E_2382_, 4232
_ZN80_$LT$core..option..Option$LT$T$GT$$u20$as$u20$qrcode..cast..ExpectOrOverflow$GT$18expect_or_overflow17hcc565ad86b0a8398E_2383_, 4233
_ZN4core6option15Option$LT$T$GT$3map17h1a47d23c8837b815E_2384_, 4234
_ZN6qrcode6canvas14mask_functions16horizontal_lines17h0c5de493f21ce1a3E_2385_, 4235
_ZN56_$LT$usize$u20$as$u20$core..iter..traits..accum..Sum$GT$3sum28_$u7b$$u7b$closure$u7d$$u7d$17h54dbf9b2464cbac5E_2386_, 4236
_ZN4core6option15Option$LT$T$GT$3map17h1a47d23c8837b815E_2387_, 4237
_ZN6qrcode6canvas14mask_functions16horizontal_lines17h0c5de493f21ce1a3E_2388_, 4238
_ZN5alloc7raw_vec19RawVec$LT$T$C$A$GT$16with_capacity_in17hc167591bf67cc4c3E_2389_, 4239
_ZN6qrcode6canvas6Canvas15coords_to_index17h392521962941e573E_2390_, 4240
_ZN6qrcode6canvas6Canvas15coords_to_index17h392521962941e573E_2391_, 4241
_ZN4core4iter6traits8iterator8Iterator4fold17had50487807a5fe23E_2392_, 4242
_ZN4core6option15Option$LT$T$GT$3map17h1a47d23c8837b815E_2393_, 4243
_ZN6qrcode6canvas14mask_functions16horizontal_lines17h0c5de493f21ce1a3E_2394_, 4244
_ZN5alloc7raw_vec19RawVec$LT$T$C$A$GT$11allocate_in17h29fe1f804abc0cc2E_2395_, 4245
_ZN56_$LT$i16$u20$as$u20$checked_int_cast..CheckedIntCast$GT$16as_usize_checked17hf8c27e538d0e444fE_2396_, 4246
_ZN5alloc7raw_vec19RawVec$LT$T$C$A$GT$11allocate_in17h29fe1f804abc0cc2E_2397_, 4247
_ZN5alloc5alloc6Global10alloc_impl17h1f328160f76f12cfE_2398_, 4248
_ZN6qrcode6canvas14mask_functions16horizontal_lines17h0c5de493f21ce1a3E_2399_, 4249
_ZN5alloc7raw_vec19RawVec$LT$T$C$A$GT$11allocate_in17h29fe1f804abc0cc2E_2400_, 4250
_ZN6qrcode6canvas6Canvas15coords_to_index17h392521962941e573E_2401_, 4251
_ZN56_$LT$i16$u20$as$u20$checked_int_cast..CheckedIntCast$GT$16as_usize_checked17hf8c27e538d0e444fE_2402_, 4252
_ZN6qrcode6canvas14mask_functions16horizontal_lines17h0c5de493f21ce1a3E_2403_, 4253
_ZN6qrcode6canvas14mask_functions16horizontal_lines17h0c5de493f21ce1a3E_2404_, 4254
_ZN4core6option15Option$LT$T$GT$3map17h1a47d23c8837b815E_2405_, 4255
_ZN6qrcode6canvas6Canvas15coords_to_index17h392521962941e573E_2406_, 4256
_ZN6qrcode6canvas14mask_functions16horizontal_lines17h0c5de493f21ce1a3E_2407_, 4257
_ZN56_$LT$i16$u20$as$u20$checked_int_cast..CheckedIntCast$GT$16as_usize_checked17hf8c27e538d0e444fE_2408_, 4258
_ZN6qrcode6canvas14mask_functions16horizontal_lines17h0c5de493f21ce1a3E_2409_, 4259
_ZN4core6option15Option$LT$T$GT$3map17h1a47d23c8837b815E_2410_, 4260
_ZN4core6option15Option$LT$T$GT$3map17h1a47d23c8837b815E_2411_, 4261
_ZN4core6option15Option$LT$T$GT$3map17h1a47d23c8837b815E_2412_, 4262
_ZN4core6option15Option$LT$T$GT$3map17h1a47d23c8837b815E_2413_, 4263
_ZN4core4iter6traits8iterator8Iterator4fold17had50487807a5fe23E_2414_, 4264
_ZN5alloc7raw_vec19RawVec$LT$T$C$A$GT$11allocate_in17h29fe1f804abc0cc2E_2415_, 4265
_ZN6qrcode6canvas6Canvas15coords_to_index17h392521962941e573E_2416_, 4266
_ZN56_$LT$i16$u20$as$u20$checked_int_cast..CheckedIntCast$GT$16as_usize_checked17hf8c27e538d0e444fE_2417_, 4267
_ZN56_$LT$i16$u20$as$u20$checked_int_cast..CheckedIntCast$GT$16as_usize_checked17hf8c27e538d0e444fE_2418_, 4268
_ZN4core3num23_$LT$impl$u20$usize$GT$11checked_add17h096d975beb745572E_2419_, 4269
_ZN6qrcode6canvas6Canvas15coords_to_index17h392521962941e573E_2420_, 4270
_ZN6qrcode6canvas6Canvas15coords_to_index17h392521962941e573E_2421_, 4271
_ZN6qrcode6canvas14mask_functions16horizontal_lines17h0c5de493f21ce1a3E_2422_, 4272
_ZN6qrcode6canvas14mask_functions16horizontal_lines17h0c5de493f21ce1a3E_2423_, 4273
_ZN56_$LT$i16$u20$as$u20$checked_int_cast..CheckedIntCast$GT$16as_usize_checked17hf8c27e538d0e444fE_2424_, 4274
_ZN5alloc5alloc6Global10alloc_impl17h1f328160f76f12cfE_2425_, 4275
_ZN6qrcode6canvas14mask_functions16horizontal_lines17h0c5de493f21ce1a3E_2426_, 4276
_ZN5alloc5alloc6Global10alloc_impl17h1f328160f76f12cfE_2427_, 4277
_ZN5alloc7raw_vec19RawVec$LT$T$C$A$GT$11allocate_in17h29fe1f804abc0cc2E_2428_, 4278
_ZN4core6option15Option$LT$T$GT$3map17h1a47d23c8837b815E_2429_, 4279
_ZN6qrcode6canvas6Canvas15coords_to_index17h392521962941e573E_2430_, 4280
_ZN6qrcode6canvas6Canvas15coords_to_index17h392521962941e573E_2431_, 4281
_ZN6qrcode6canvas14mask_functions16horizontal_lines17h0c5de493f21ce1a3E_2432_, 4282
_ZN56_$LT$i16$u20$as$u20$checked_int_cast..CheckedIntCast$GT$16as_usize_checked17hf8c27e538d0e444fE_2433_, 4283
_ZN4core6option15Option$LT$T$GT$3map17h1a47d23c8837b815E_2434_, 4284
_ZN5alloc7raw_vec19RawVec$LT$T$C$A$GT$11allocate_in17h29fe1f804abc0cc2E_2435_, 4285
_ZN4core6option15Option$LT$T$GT$3map17h1a47d23c8837b815E_2436_, 4286
_ZN6qrcode5types7Version8is_micro17hdb4237c14d4fb839E_2437_, 4287
_ZN4core6option15Option$LT$T$GT$3map17h1a47d23c8837b815E_2438_, 4288
_ZN6qrcode6canvas6Canvas15coords_to_index17h392521962941e573E_2439_, 4289
_ZN56_$LT$i16$u20$as$u20$checked_int_cast..CheckedIntCast$GT$16as_usize_checked17hf8c27e538d0e444fE_2440_, 4290
_ZN4core6option15Option$LT$T$GT$3map17h1a47d23c8837b815E_2441_, 4291
_ZN56_$LT$i16$u20$as$u20$checked_int_cast..CheckedIntCast$GT$16as_usize_checked17hf8c27e538d0e444fE_2442_, 4292
_ZN102_$LT$core..iter..adapters..cycle..Cycle$LT$I$GT$$u20$as$u20$core..iter..traits..iterator..Iterator$GT$9size_hint17hb562490e751a5104E_2443_, 4293
_ZN102_$LT$core..iter..adapters..map..Map$LT$I$C$F$GT$$u20$as$u20$core..iter..traits..iterator..Iterator$GT$24__iterator_get_unchecked17h30a37547f1a288f3E_original, 4294
_ZN6qrcode5types7Version8is_micro17hdb4237c14d4fb839E_2444_, 4295
_ZN4core6option15Option$LT$T$GT$3map17h1a47d23c8837b815E_2445_, 4296
_ZN3std2io5error5Error12raw_os_error17h18499eac9d8bea1cE_2446_, 4297
_ZN56_$LT$i16$u20$as$u20$checked_int_cast..CheckedIntCast$GT$16as_usize_checked17hf8c27e538d0e444fE_2447_, 4298
_ZN6qrcode6canvas6Canvas15coords_to_index17h392521962941e573E_2448_, 4299
_ZN6qrcode6canvas6Canvas15coords_to_index17h392521962941e573E_2449_, 4300
_ZN56_$LT$usize$u20$as$u20$core..iter..traits..accum..Sum$GT$3sum28_$u7b$$u7b$closure$u7d$$u7d$17h54dbf9b2464cbac5E_2450_, 4301
_ZN5alloc7raw_vec19RawVec$LT$T$C$A$GT$11allocate_in17h29fe1f804abc0cc2E_2451_, 4302
_ZN4core4iter6traits8iterator8Iterator4fold17had50487807a5fe23E_2452_, 4303
_ZN4core3num23_$LT$impl$u20$usize$GT$11checked_add17h096d975beb745572E_2453_, 4304
_ZN56_$LT$i16$u20$as$u20$checked_int_cast..CheckedIntCast$GT$16as_usize_checked17hf8c27e538d0e444fE_2454_, 4305
_ZN6qrcode6canvas6Canvas15coords_to_index17h392521962941e573E_2455_, 4306
_ZN80_$LT$core..option..Option$LT$T$GT$$u20$as$u20$qrcode..cast..ExpectOrOverflow$GT$18expect_or_overflow17hcc565ad86b0a8398E_2456_, 4307
_ZN56_$LT$i16$u20$as$u20$checked_int_cast..CheckedIntCast$GT$16as_usize_checked17hf8c27e538d0e444fE_2457_, 4308
_ZN4core3num23_$LT$impl$u20$usize$GT$11checked_add17h096d975beb745572E_2458_, 4309
_ZN4core4iter6traits8iterator8Iterator4fold17had50487807a5fe23E_2459_, 4310
_ZN6qrcode6canvas14mask_functions16horizontal_lines17h0c5de493f21ce1a3E_2460_, 4311
_ZN6qrcode6canvas14mask_functions16horizontal_lines17h0c5de493f21ce1a3E_2461_, 4312
_ZN3std2io5error5Error12raw_os_error17h18499eac9d8bea1cE_2462_, 4313
_ZN6qrcode6canvas6Canvas15coords_to_index17h392521962941e573E_2463_, 4314
_ZN56_$LT$i16$u20$as$u20$checked_int_cast..CheckedIntCast$GT$16as_usize_checked17hf8c27e538d0e444fE_2464_, 4315
_ZN4core4iter6traits8iterator8Iterator4fold17had50487807a5fe23E_2465_, 4316
_ZN3std2io5error5Error12raw_os_error17hff19ab5eadf4189dE_2466_, 4317
_ZN6qrcode6canvas14mask_functions16horizontal_lines17h0c5de493f21ce1a3E_2467_, 4318
_ZN6qrcode6canvas6Canvas20draw_finder_patterns17hdd8f6522c27cb362E_2468_, 4319
_ZN77_$LT$alloc..raw_vec..RawVec$LT$T$C$A$GT$$u20$as$u20$core..ops..drop..Drop$GT$4drop17h2653c8de238d7e6bE_2469_, 4320
_ZN4core4iter6traits8iterator8Iterator4fold17had50487807a5fe23E_2470_, 4321
_ZN6qrcode6canvas6Canvas20draw_finder_patterns17hdd8f6522c27cb362E_2471_, 4322
_ZN77_$LT$alloc..raw_vec..RawVec$LT$T$C$A$GT$$u20$as$u20$core..ops..drop..Drop$GT$4drop17h7425ee577f6364a4E_2472_, 4323
_ZN6qrcode6canvas6Canvas15coords_to_index17h392521962941e573E_2473_, 4324
_ZN4core6option15Option$LT$T$GT$3map17h1a47d23c8837b815E_2474_, 4325
_ZN90_$LT$alloc..vec..Vec$LT$T$C$A$GT$$u20$as$u20$core..iter..traits..collect..IntoIterator$GT$9into_iter17had3fcf2b000b78efE_2475_, 4326
_ZN56_$LT$i16$u20$as$u20$checked_int_cast..CheckedIntCast$GT$16as_usize_checked17hf8c27e538d0e444fE_2476_, 4327
_ZN5alloc7raw_vec19RawVec$LT$T$C$A$GT$11allocate_in17h29fe1f804abc0cc2E_2477_, 4328
_ZN56_$LT$i16$u20$as$u20$checked_int_cast..CheckedIntCast$GT$16as_usize_checked17hf8c27e538d0e444fE_2478_, 4329
_ZN5alloc5alloc6Global10alloc_impl17h1f328160f76f12cfE_2479_, 4330
_ZN5alloc7raw_vec19RawVec$LT$T$C$A$GT$11allocate_in17h344cc4811a228da3E_2480_, 4331
_ZN6qrcode6canvas14mask_functions16horizontal_lines17h0c5de493f21ce1a3E_2481_, 4332
_ZN56_$LT$usize$u20$as$u20$core..iter..traits..accum..Sum$GT$3sum28_$u7b$$u7b$closure$u7d$$u7d$17h54dbf9b2464cbac5E_2482_, 4333
_ZN56_$LT$i16$u20$as$u20$checked_int_cast..CheckedIntCast$GT$16as_usize_checked17hf8c27e538d0e444fE_2483_, 4334
_ZN5alloc7raw_vec19RawVec$LT$T$C$A$GT$11allocate_in17h29fe1f804abc0cc2E_2484_, 4335
_ZN56_$LT$i16$u20$as$u20$checked_int_cast..CheckedIntCast$GT$16as_usize_checked17hf8c27e538d0e444fE_2485_, 4336
_ZN6qrcode6canvas14mask_functions16horizontal_lines17h0c5de493f21ce1a3E_2486_, 4337
_ZN4core4iter6traits8iterator8Iterator4fold17had50487807a5fe23E_2487_, 4338
_ZN3std2io5error5Error12raw_os_error17h18499eac9d8bea1cE_2488_, 4339
_ZN56_$LT$i16$u20$as$u20$checked_int_cast..CheckedIntCast$GT$16as_usize_checked17hf8c27e538d0e444fE_2489_, 4340
_ZN4core6option15Option$LT$T$GT$3map17h1a47d23c8837b815E_2490_, 4341
_ZN5alloc5alloc6Global10alloc_impl17h1f328160f76f12cfE_2491_, 4342
_ZN6qrcode6canvas14mask_functions16horizontal_lines17h0c5de493f21ce1a3E_2492_, 4343
_ZN4core4iter6traits8iterator8Iterator4fold17had50487807a5fe23E_2493_, 4344
_ZN4core4iter6traits8iterator8Iterator4fold17had50487807a5fe23E_2494_, 4345
_ZN6qrcode6canvas14mask_functions16horizontal_lines17h0c5de493f21ce1a3E_2495_, 4346
_ZN5alloc5alloc6Global10alloc_impl17h1f328160f76f12cfE_2496_, 4347
_ZN4core4iter6traits8iterator8Iterator4fold17had50487807a5fe23E_2497_, 4348
_ZN6qrcode6canvas6Canvas15coords_to_index17h392521962941e573E_2498_, 4349
_ZN5alloc5alloc6Global10alloc_impl17h1f328160f76f12cfE_2499_, 4350
_ZN56_$LT$usize$u20$as$u20$core..iter..traits..accum..Sum$GT$3sum28_$u7b$$u7b$closure$u7d$$u7d$17h54dbf9b2464cbac5E_2500_, 4351
_ZN56_$LT$usize$u20$as$u20$core..iter..traits..accum..Sum$GT$3sum28_$u7b$$u7b$closure$u7d$$u7d$17h54dbf9b2464cbac5E_2501_, 4352
_ZN4core4iter6traits8iterator8Iterator4fold17had50487807a5fe23E_2502_, 4353
_ZN6qrcode6canvas6Canvas15coords_to_index17h392521962941e573E_2503_, 4354
_ZN6qrcode6canvas6Canvas15coords_to_index17h392521962941e573E_2504_, 4355
_ZN47_$LT$u32$u20$as$u20$core..iter..range..Step$GT$17forward_unchecked17h0db0511b979a7ca8E_2505_, 4356
_ZN5alloc7raw_vec19RawVec$LT$T$C$A$GT$11allocate_in17h29fe1f804abc0cc2E_2506_, 4357
_ZN6qrcode6canvas6Canvas15coords_to_index17h392521962941e573E_2507_, 4358
_ZN5alloc7raw_vec19RawVec$LT$T$C$A$GT$11allocate_in17h29fe1f804abc0cc2E_2508_, 4359
_ZN6qrcode6canvas6Canvas15coords_to_index17h392521962941e573E_2509_, 4360
_ZN4core3ptr41drop_in_place$LT$std..io..error..Repr$GT$17haedb15029a9f36edE_2510_, 4361
_ZN6qrcode6canvas14mask_functions16horizontal_lines17h0c5de493f21ce1a3E_2511_, 4362
_ZN4core4iter6traits8iterator8Iterator4fold17had50487807a5fe23E_2512_, 4363
_ZN6qrcode6canvas6Canvas15coords_to_index17h392521962941e573E_2513_, 4364
_ZN56_$LT$i16$u20$as$u20$checked_int_cast..CheckedIntCast$GT$16as_usize_checked17hf8c27e538d0e444fE_2514_, 4365
_ZN6qrcode6canvas6Canvas15coords_to_index17h392521962941e573E_2515_, 4366
_ZN6qrcode6canvas14mask_functions16horizontal_lines17h0c5de493f21ce1a3E_2516_, 4367
_ZN4core4iter6traits8iterator8Iterator4fold17had50487807a5fe23E_2517_, 4368
_ZN4core6option15Option$LT$T$GT$3map17h1a47d23c8837b815E_2518_, 4369
_ZN56_$LT$i16$u20$as$u20$checked_int_cast..CheckedIntCast$GT$16as_usize_checked17hf8c27e538d0e444fE_2519_, 4370
_ZN5alloc7raw_vec19RawVec$LT$T$C$A$GT$11allocate_in17h29fe1f804abc0cc2E_2520_, 4371
_ZN56_$LT$usize$u20$as$u20$core..iter..traits..accum..Sum$GT$3sum28_$u7b$$u7b$closure$u7d$$u7d$17h54dbf9b2464cbac5E_2521_, 4372
_ZN56_$LT$i16$u20$as$u20$checked_int_cast..CheckedIntCast$GT$16as_usize_checked17hf8c27e538d0e444fE_2522_, 4373
_ZN4core4iter6traits8iterator8Iterator8for_each17h03b17951018b3e39E_original, 4374
_ZN3std2io5error5Error12raw_os_error17h18499eac9d8bea1cE_2523_, 4375
_ZN6qrcode6canvas6Canvas15coords_to_index17h392521962941e573E_2524_, 4376
_ZN4core4iter6traits8iterator8Iterator4fold17had50487807a5fe23E_2525_, 4377
_ZN6qrcode6canvas6Canvas15coords_to_index17h392521962941e573E_2526_, 4378
_ZN6qrcode6canvas6Canvas20draw_finder_patterns17hdd8f6522c27cb362E_2527_, 4379
_ZN56_$LT$i16$u20$as$u20$checked_int_cast..CheckedIntCast$GT$16as_usize_checked17hf8c27e538d0e444fE_2528_, 4380
_ZN60_$LT$dyn$u20$rand_core..RngCore$u20$as$u20$std..io..Read$GT$4read17h91adfdc68e7ce606E_2529_, 4381
_ZN6qrcode6canvas6Canvas20draw_finder_patterns17hdd8f6522c27cb362E_2530_, 4382
_ZN56_$LT$i16$u20$as$u20$checked_int_cast..CheckedIntCast$GT$16as_usize_checked17hf8c27e538d0e444fE_2531_, 4383
_ZN5alloc5alloc6Global10alloc_impl17h1f328160f76f12cfE_2532_, 4384
_ZN56_$LT$i16$u20$as$u20$checked_int_cast..CheckedIntCast$GT$16as_usize_checked17hf8c27e538d0e444fE_2533_, 4385
_ZN6qrcode6canvas14mask_functions16horizontal_lines17h0c5de493f21ce1a3E_2534_, 4386
_ZN4core6option15Option$LT$T$GT$3map17h1a47d23c8837b815E_2535_, 4387
_ZN80_$LT$core..option..Option$LT$T$GT$$u20$as$u20$qrcode..cast..ExpectOrOverflow$GT$18expect_or_overflow17hcc565ad86b0a8398E_2536_, 4388
_ZN6qrcode6canvas6Canvas15coords_to_index17h392521962941e573E_2537_, 4389
_ZN5alloc7raw_vec19RawVec$LT$T$C$A$GT$11allocate_in17h29fe1f804abc0cc2E_2538_, 4390
_ZN5alloc7raw_vec19RawVec$LT$T$C$A$GT$11allocate_in17h344cc4811a228da3E_2539_, 4391
_ZN56_$LT$usize$u20$as$u20$core..iter..traits..accum..Sum$GT$3sum28_$u7b$$u7b$closure$u7d$$u7d$17h54dbf9b2464cbac5E_2540_, 4392
_ZN56_$LT$i16$u20$as$u20$checked_int_cast..CheckedIntCast$GT$16as_usize_checked17hf8c27e538d0e444fE_2541_, 4393
_ZN6qrcode6canvas6Canvas15coords_to_index17h392521962941e573E_2542_, 4394
_ZN4core6option15Option$LT$T$GT$3map17h1a47d23c8837b815E_2543_, 4395
_ZN5alloc5alloc6Global10alloc_impl17h1f328160f76f12cfE_2544_, 4396
_ZN6qrcode5types7Version8is_micro17hdb4237c14d4fb839E_2545_, 4397
_ZN4core4iter6traits8iterator8Iterator4fold17had50487807a5fe23E_2546_, 4398
_ZN5alloc5alloc6Global10alloc_impl17h1f328160f76f12cfE_2547_, 4399
_ZN3std2io5error5Error12raw_os_error17hff19ab5eadf4189dE_2548_, 4400
_ZN6qrcode6canvas6Canvas15coords_to_index17h392521962941e573E_2549_, 4401
_ZN6qrcode6canvas6Canvas15coords_to_index17h392521962941e573E_2550_, 4402
_ZN6qrcode6canvas14mask_functions16horizontal_lines17h0c5de493f21ce1a3E_2551_, 4403
_ZN5alloc7raw_vec19RawVec$LT$T$C$A$GT$14current_memory17h2ef02679d8327b97E_2552_, 4404
_ZN6qrcode6canvas6Canvas15coords_to_index17h392521962941e573E_2553_, 4405
_ZN6qrcode6canvas6Canvas15coords_to_index17h392521962941e573E_2554_, 4406
_ZN4core4iter6traits8iterator8Iterator4fold17had50487807a5fe23E_2555_, 4407
_ZN6qrcode6canvas14mask_functions16horizontal_lines17h0c5de493f21ce1a3E_2556_, 4408
_ZN56_$LT$usize$u20$as$u20$core..iter..traits..accum..Sum$GT$3sum28_$u7b$$u7b$closure$u7d$$u7d$17h54dbf9b2464cbac5E_2557_, 4409
_ZN6qrcode6canvas14mask_functions16horizontal_lines17h0c5de493f21ce1a3E_2558_, 4410
_ZN6qrcode6canvas6Canvas15coords_to_index17h392521962941e573E_2559_, 4411
_ZN47_$LT$u32$u20$as$u20$core..iter..range..Step$GT$17forward_unchecked17h0db0511b979a7ca8E_2560_, 4412
_ZN4core6option15Option$LT$T$GT$3map17h1a47d23c8837b815E_2561_, 4413
_ZN4core6option15Option$LT$T$GT$3map17h1a47d23c8837b815E_2562_, 4414
_ZN56_$LT$i16$u20$as$u20$checked_int_cast..CheckedIntCast$GT$16as_usize_checked17hf8c27e538d0e444fE_2563_, 4415
_ZN5alloc5alloc6Global10alloc_impl17h1f328160f76f12cfE_2564_, 4416
_ZN4core4iter6traits8iterator8Iterator4fold17had50487807a5fe23E_2565_, 4417
_ZN5alloc7raw_vec19RawVec$LT$T$C$A$GT$11allocate_in17h29fe1f804abc0cc2E_2566_, 4418
_ZN5alloc7raw_vec19RawVec$LT$T$C$A$GT$11allocate_in17h29fe1f804abc0cc2E_2567_, 4419
_ZN4core6option15Option$LT$T$GT$3map17h1a47d23c8837b815E_2568_, 4420
_ZN56_$LT$i16$u20$as$u20$checked_int_cast..CheckedIntCast$GT$16as_usize_checked17hf8c27e538d0e444fE_2569_, 4421
_ZN56_$LT$char$u20$as$u20$qrcode..render..string..Element$GT$13default_color17hc33573a548f8f261E_2570_, 4422
_ZN3std2io5error5Error12raw_os_error17hff19ab5eadf4189dE_2571_, 4423
_ZN4core6option15Option$LT$T$GT$3map17h1a47d23c8837b815E_2572_, 4424
_ZN6qrcode6canvas6Canvas15coords_to_index17h392521962941e573E_2573_, 4425
_ZN4core4iter6traits8iterator8Iterator4fold17had50487807a5fe23E_2574_, 4426
_ZN56_$LT$char$u20$as$u20$qrcode..render..string..Element$GT$13default_color17hc33573a548f8f261E_2575_, 4427
_ZN6qrcode6canvas14mask_functions16horizontal_lines17h0c5de493f21ce1a3E_2576_, 4428
_ZN6qrcode6canvas6Canvas15coords_to_index17h392521962941e573E_2577_, 4429
_ZN60_$LT$qrcode..types..Mode$u20$as$u20$core..cmp..PartialEq$GT$2eq17ha263fa5e4af74859E_2578_, 4430
_ZN75_$LT$core..option..Option$LT$T$GT$$u20$as$u20$core..ops..try_trait..Try$GT$6branch17h00056140ba3de476E_2579_, 4431
_ZN4core3num23_$LT$impl$u20$usize$GT$11checked_add17h096d975beb745572E_2580_, 4432
_ZN6qrcode6canvas14mask_functions16horizontal_lines17h0c5de493f21ce1a3E_2581_, 4433
_ZN6qrcode6canvas14mask_functions16horizontal_lines17h0c5de493f21ce1a3E_2582_, 4434
_ZN4core6option15Option$LT$T$GT$3map17h1a47d23c8837b815E_2583_, 4435
_ZN5alloc5alloc6Global10alloc_impl17h1f328160f76f12cfE_2584_, 4436
_ZN56_$LT$i16$u20$as$u20$checked_int_cast..CheckedIntCast$GT$16as_usize_checked17hf8c27e538d0e444fE_2585_, 4437
_ZN5alloc7raw_vec19RawVec$LT$T$C$A$GT$11allocate_in17h29fe1f804abc0cc2E_2586_, 4438
_ZN77_$LT$alloc..raw_vec..RawVec$LT$T$C$A$GT$$u20$as$u20$core..ops..drop..Drop$GT$4drop17h2653c8de238d7e6bE_2587_, 4439
_ZN4core6option15Option$LT$T$GT$3map17h1a47d23c8837b815E_2588_, 4440
_ZN6qrcode6canvas14mask_functions16horizontal_lines17h0c5de493f21ce1a3E_2589_, 4441
_ZN6qrcode6canvas6Canvas15coords_to_index17h392521962941e573E_2590_, 4442
_ZN6qrcode6canvas14mask_functions16horizontal_lines17h0c5de493f21ce1a3E_2591_, 4443
_ZN80_$LT$core..option..Option$LT$T$GT$$u20$as$u20$qrcode..cast..ExpectOrOverflow$GT$18expect_or_overflow17hcc565ad86b0a8398E_2592_, 4444
_ZN4core4iter6traits8iterator8Iterator4fold17had50487807a5fe23E_2593_, 4445
_ZN4core4iter6traits8iterator8Iterator4fold17had50487807a5fe23E_2594_, 4446
_ZN6qrcode6canvas6Canvas15coords_to_index17h392521962941e573E_2595_, 4447
_ZN6qrcode5types7Version8is_micro17hdb4237c14d4fb839E_2596_, 4448
_ZN4core6option15Option$LT$T$GT$3map17h1a47d23c8837b815E_2597_, 4449
_ZN56_$LT$i16$u20$as$u20$checked_int_cast..CheckedIntCast$GT$16as_usize_checked17hf8c27e538d0e444fE_2598_, 4450
_ZN56_$LT$usize$u20$as$u20$core..iter..traits..accum..Sum$GT$3sum28_$u7b$$u7b$closure$u7d$$u7d$17h54dbf9b2464cbac5E_2599_, 4451
_ZN6qrcode6canvas6Canvas15coords_to_index17h392521962941e573E_2600_, 4452
_ZN6qrcode6canvas6Canvas15coords_to_index17h392521962941e573E_2601_, 4453
_ZN6qrcode6canvas6Canvas15coords_to_index17h392521962941e573E_2602_, 4454
_ZN4core6option15Option$LT$T$GT$3map17h1a47d23c8837b815E_2603_, 4455
_ZN47_$LT$u32$u20$as$u20$core..iter..range..Step$GT$17forward_unchecked17h0db0511b979a7ca8E_2604_, 4456
_ZN4core6option15Option$LT$T$GT$3map17h1a47d23c8837b815E_2605_, 4457
_ZN56_$LT$i16$u20$as$u20$checked_int_cast..CheckedIntCast$GT$16as_usize_checked17hf8c27e538d0e444fE_2606_, 4458
_ZN6qrcode5types7Version8is_micro17hdb4237c14d4fb839E_2607_, 4459
_ZN4core6option15Option$LT$T$GT$3map17h1a47d23c8837b815E_2608_, 4460
_ZN47_$LT$u32$u20$as$u20$core..iter..range..Step$GT$17forward_unchecked17h0db0511b979a7ca8E_2609_, 4461
_ZN6qrcode6canvas6Canvas15coords_to_index17h392521962941e573E_2610_, 4462
_ZN5alloc5alloc6Global10alloc_impl17h1f328160f76f12cfE_2611_, 4463
_ZN4core3num23_$LT$impl$u20$usize$GT$11checked_add17h096d975beb745572E_2612_, 4464
_ZN6qrcode6canvas6Canvas15coords_to_index17h392521962941e573E_2613_, 4465
_ZN4core3num23_$LT$impl$u20$usize$GT$11checked_add17h096d975beb745572E_2614_, 4466
_ZN6qrcode6canvas6Canvas15coords_to_index17h392521962941e573E_2615_, 4467
_ZN4core4iter6traits8iterator8Iterator4fold17had50487807a5fe23E_2616_, 4468
_ZN4core3ptr41drop_in_place$LT$std..io..error..Repr$GT$17haedb15029a9f36edE_2617_, 4469
_ZN56_$LT$usize$u20$as$u20$core..iter..traits..accum..Sum$GT$3sum28_$u7b$$u7b$closure$u7d$$u7d$17h54dbf9b2464cbac5E_2618_, 4470
_ZN60_$LT$qrcode..types..Mode$u20$as$u20$core..cmp..PartialEq$GT$2eq17ha263fa5e4af74859E_2619_, 4471
_ZN47_$LT$u32$u20$as$u20$core..iter..range..Step$GT$17forward_unchecked17h0db0511b979a7ca8E_2620_, 4472
_ZN6qrcode6canvas6Canvas15coords_to_index17h392521962941e573E_2621_, 4473
_ZN80_$LT$core..option..Option$LT$T$GT$$u20$as$u20$qrcode..cast..ExpectOrOverflow$GT$18expect_or_overflow17hcc565ad86b0a8398E_2622_, 4474
_ZN6qrcode6canvas6Canvas15coords_to_index17h392521962941e573E_2623_, 4475
_ZN58_$LT$usize$u20$as$u20$checked_int_cast..CheckedIntCast$GT$14as_u16_checked17h8c652c149b1ec8f1E_2624_, 4476
_ZN6qrcode6canvas6Canvas15coords_to_index17h392521962941e573E_2625_, 4477
_ZN56_$LT$i16$u20$as$u20$checked_int_cast..CheckedIntCast$GT$16as_usize_checked17hf8c27e538d0e444fE_2626_, 4478
_ZN56_$LT$i16$u20$as$u20$checked_int_cast..CheckedIntCast$GT$16as_usize_checked17hf8c27e538d0e444fE_2627_, 4479
_ZN4core6option15Option$LT$T$GT$3map17h1a47d23c8837b815E_2628_, 4480
_ZN56_$LT$i16$u20$as$u20$checked_int_cast..CheckedIntCast$GT$16as_usize_checked17hf8c27e538d0e444fE_2629_, 4481
_ZN6qrcode6canvas6Canvas15coords_to_index17h392521962941e573E_2630_, 4482
_ZN4core6option15Option$LT$T$GT$3map17h1a47d23c8837b815E_2631_, 4483
_ZN6qrcode6canvas6Canvas15coords_to_index17h392521962941e573E_2632_, 4484
_ZN4core4iter6traits8iterator8Iterator4fold17had50487807a5fe23E_2633_, 4485
_ZN4core6option15Option$LT$T$GT$3map17h1a47d23c8837b815E_2634_, 4486
_ZN6qrcode6canvas6Canvas15coords_to_index17h392521962941e573E_2635_, 4487
_ZN6qrcode6canvas14mask_functions16horizontal_lines17h0c5de493f21ce1a3E_2636_, 4488
_ZN56_$LT$usize$u20$as$u20$core..iter..traits..accum..Sum$GT$3sum28_$u7b$$u7b$closure$u7d$$u7d$17h54dbf9b2464cbac5E_2637_, 4489
_ZN56_$LT$i16$u20$as$u20$checked_int_cast..CheckedIntCast$GT$16as_usize_checked17hf8c27e538d0e444fE_2638_, 4490
_ZN56_$LT$i16$u20$as$u20$checked_int_cast..CheckedIntCast$GT$16as_usize_checked17hf8c27e538d0e444fE_2639_, 4491
_ZN6qrcode6canvas14mask_functions16horizontal_lines17h0c5de493f21ce1a3E_2640_, 4492
_ZN5alloc7raw_vec19RawVec$LT$T$C$A$GT$11allocate_in17h29fe1f804abc0cc2E_2641_, 4493
_ZN6qrcode6canvas6Canvas15coords_to_index17h392521962941e573E_2642_, 4494
_ZN6qrcode5types7Version8is_micro17hdb4237c14d4fb839E_2643_, 4495
_ZN6qrcode6canvas6Canvas15coords_to_index17h392521962941e573E_2644_, 4496
_ZN4core4iter6traits8iterator8Iterator4fold17had50487807a5fe23E_2645_, 4497
_ZN80_$LT$core..option..Option$LT$T$GT$$u20$as$u20$qrcode..cast..ExpectOrOverflow$GT$18expect_or_overflow17hcc565ad86b0a8398E_2646_, 4498
_ZN6qrcode6canvas6Canvas15coords_to_index17h392521962941e573E_2647_, 4499
_ZN6qrcode6canvas6Canvas15coords_to_index17h392521962941e573E_2648_, 4500
_ZN4core6option15Option$LT$T$GT$3map17h1a47d23c8837b815E_2649_, 4501
_ZN6qrcode6canvas6Canvas15coords_to_index17h392521962941e573E_2650_, 4502
_ZN4core6option15Option$LT$T$GT$3map17h1a47d23c8837b815E_2651_, 4503
_ZN56_$LT$i16$u20$as$u20$checked_int_cast..CheckedIntCast$GT$16as_usize_checked17hf8c27e538d0e444fE_2652_, 4504
_ZN4core6option15Option$LT$T$GT$3map17h1a47d23c8837b815E_2653_, 4505
_ZN4core4iter6traits8iterator8Iterator4fold17had50487807a5fe23E_2654_, 4506
_ZN5alloc7raw_vec19RawVec$LT$T$C$A$GT$11allocate_in17h29fe1f804abc0cc2E_2655_, 4507
_ZN4core4iter6traits8iterator8Iterator4fold17had50487807a5fe23E_2656_, 4508
_ZN4core6option15Option$LT$T$GT$3map17h1a47d23c8837b815E_2657_, 4509
_ZN4core6option15Option$LT$T$GT$3map17h1a47d23c8837b815E_2658_, 4510
_ZN6qrcode6canvas6Canvas15coords_to_index17h392521962941e573E_2659_, 4511
_ZN5alloc7raw_vec19RawVec$LT$T$C$A$GT$11allocate_in17h29fe1f804abc0cc2E_2660_, 4512
_ZN56_$LT$i16$u20$as$u20$checked_int_cast..CheckedIntCast$GT$16as_usize_checked17hf8c27e538d0e444fE_2661_, 4513
_ZN6qrcode6canvas6Canvas15coords_to_index17h392521962941e573E_2662_, 4514
_ZN56_$LT$usize$u20$as$u20$core..iter..traits..accum..Sum$GT$3sum28_$u7b$$u7b$closure$u7d$$u7d$17h54dbf9b2464cbac5E_2663_, 4515
_ZN5alloc7raw_vec19RawVec$LT$T$C$A$GT$11allocate_in17h29fe1f804abc0cc2E_2664_, 4516
_ZN56_$LT$i16$u20$as$u20$checked_int_cast..CheckedIntCast$GT$16as_usize_checked17hf8c27e538d0e444fE_2665_, 4517
_ZN6qrcode6canvas6Canvas15coords_to_index17h392521962941e573E_2666_, 4518
_ZN4core4iter6traits8iterator8Iterator4fold17had50487807a5fe23E_2667_, 4519
_ZN4core6option15Option$LT$T$GT$3map17h1a47d23c8837b815E_2668_, 4520
_ZN5alloc5alloc6Global10alloc_impl17h1f328160f76f12cfE_2669_, 4521
_ZN5alloc7raw_vec19RawVec$LT$T$C$A$GT$11allocate_in17h29fe1f804abc0cc2E_2670_, 4522
_ZN4core6option15Option$LT$T$GT$3map17h1a47d23c8837b815E_2671_, 4523
_ZN4core6option15Option$LT$T$GT$3map17h1a47d23c8837b815E_2672_, 4524
_ZN56_$LT$i16$u20$as$u20$checked_int_cast..CheckedIntCast$GT$16as_usize_checked17hf8c27e538d0e444fE_2673_, 4525
_ZN56_$LT$i16$u20$as$u20$checked_int_cast..CheckedIntCast$GT$16as_usize_checked17hf8c27e538d0e444fE_2674_, 4526
_ZN56_$LT$usize$u20$as$u20$core..iter..traits..accum..Sum$GT$3sum28_$u7b$$u7b$closure$u7d$$u7d$17h54dbf9b2464cbac5E_2675_, 4527
_ZN80_$LT$core..option..Option$LT$T$GT$$u20$as$u20$qrcode..cast..ExpectOrOverflow$GT$18expect_or_overflow17h0299d77236c2d7f5E_2676_, 4528
_ZN4core4iter6traits8iterator8Iterator4fold17had50487807a5fe23E_2677_, 4529
_ZN6qrcode6canvas6Canvas15coords_to_index17h392521962941e573E_2678_, 4530
_ZN4core4iter6traits8iterator8Iterator4fold17had50487807a5fe23E_2679_, 4531
_ZN6qrcode6canvas6Canvas15coords_to_index17h392521962941e573E_2680_, 4532
_ZN6qrcode6canvas6Canvas15coords_to_index17h392521962941e573E_2681_, 4533
_ZN102_$LT$core..iter..adapters..cycle..Cycle$LT$I$GT$$u20$as$u20$core..iter..traits..iterator..Iterator$GT$9size_hint17hb562490e751a5104E, 4534
_ZN102_$LT$core..iter..adapters..map..Map$LT$I$C$F$GT$$u20$as$u20$core..iter..traits..iterator..Iterator$GT$24__iterator_get_unchecked17h30a37547f1a288f3E, 4535
_ZN103_$LT$alloc..vec..into_iter..IntoIter$LT$T$C$A$GT$$u20$as$u20$core..iter..traits..iterator..Iterator$GT$24__iterator_get_unchecked17h0fc81070bbe0d704E, 4536
_ZN103_$LT$alloc..vec..into_iter..IntoIter$LT$T$C$A$GT$$u20$as$u20$core..iter..traits..iterator..Iterator$GT$9size_hint17h88f56e8c40f880afE, 4537
_ZN106_$LT$core..ops..range..Range$LT$usize$GT$$u20$as$u20$core..slice..index..SliceIndex$LT$$u5b$T$u5d$$GT$$GT$9index_mut17h9c4f94c3b03aa397E, 4538
_ZN3std2io5error5Error12raw_os_error17h18499eac9d8bea1cE, 4539
_ZN3std2io5error5Error12raw_os_error17hff19ab5eadf4189dE, 4540
_ZN47_$LT$u32$u20$as$u20$core..iter..range..Step$GT$17forward_unchecked17h0db0511b979a7ca8E, 4541
_ZN4core10intrinsics19copy_nonoverlapping17hd9866c2fcb327602E, 4542
_ZN4core3num23_$LT$impl$u20$usize$GT$11checked_add17h096d975beb745572E, 4543
_ZN4core3ptr41drop_in_place$LT$std..io..error..Repr$GT$17haedb15029a9f36edE, 4544
_ZN4core3ptr9const_ptr33_$LT$impl$u20$$BP$const$u20$T$GT$11offset_from17h02b19100594bd202E, 4545
_ZN4core4iter6traits8iterator8Iterator4fold17had50487807a5fe23E, 4546
_ZN4core4iter6traits8iterator8Iterator8for_each17h03b17951018b3e39E, 4547
_ZN4core6option15Option$LT$T$GT$3map17h1a47d23c8837b815E, 4548
_ZN56_$LT$char$u20$as$u20$qrcode..render..string..Element$GT$13default_color17hc33573a548f8f261E, 4549
_ZN56_$LT$i16$u20$as$u20$checked_int_cast..CheckedIntCast$GT$16as_usize_checked17hf8c27e538d0e444fE, 4550
_ZN56_$LT$usize$u20$as$u20$core..iter..traits..accum..Sum$GT$3sum28_$u7b$$u7b$closure$u7d$$u7d$17h54dbf9b2464cbac5E, 4551
_ZN58_$LT$usize$u20$as$u20$checked_int_cast..CheckedIntCast$GT$14as_u16_checked17h8c652c149b1ec8f1E, 4552
_ZN59_$LT$qrcode..types..EcLevel$u20$as$u20$core..fmt..Debug$GT$3fmt17ha948e4d029cdc453E, 4553
_ZN5alloc5alloc6Global10alloc_impl17h1f328160f76f12cfE, 4554
_ZN5alloc7raw_vec19RawVec$LT$T$C$A$GT$11allocate_in17h29fe1f804abc0cc2E, 4555
_ZN5alloc7raw_vec19RawVec$LT$T$C$A$GT$11allocate_in17h344cc4811a228da3E, 4556
_ZN5alloc7raw_vec19RawVec$LT$T$C$A$GT$14current_memory17h2ef02679d8327b97E, 4557
_ZN5alloc7raw_vec19RawVec$LT$T$C$A$GT$14current_memory17hf63ae283156fbceeE, 4558
_ZN5alloc7raw_vec19RawVec$LT$T$C$A$GT$14grow_amortized17h14d11f244aa212b0E, 4559
_ZN5alloc7raw_vec19RawVec$LT$T$C$A$GT$14grow_amortized17h6f899ca47fc55f93E, 4560
_ZN5alloc7raw_vec19RawVec$LT$T$C$A$GT$16with_capacity_in17hc167591bf67cc4c3E, 4561
_ZN60_$LT$dyn$u20$rand_core..RngCore$u20$as$u20$std..io..Read$GT$4read17h91adfdc68e7ce606E, 4562
_ZN60_$LT$qrcode..types..Mode$u20$as$u20$core..cmp..PartialEq$GT$2eq17ha263fa5e4af74859E, 4563
_ZN6qrcode5types7Version8is_micro17hdb4237c14d4fb839E, 4564
_ZN6qrcode6canvas14mask_functions16horizontal_lines17h0c5de493f21ce1a3E, 4565
_ZN6qrcode6canvas6Canvas15coords_to_index17h392521962941e573E, 4566
_ZN6qrcode6canvas6Canvas20draw_finder_patterns17hdd8f6522c27cb362E, 4567
_ZN75_$LT$core..option..Option$LT$T$GT$$u20$as$u20$core..ops..try_trait..Try$GT$6branch17h00056140ba3de476E, 4568
_ZN77_$LT$alloc..raw_vec..RawVec$LT$T$C$A$GT$$u20$as$u20$core..ops..drop..Drop$GT$4drop17h2653c8de238d7e6bE, 4569
_ZN77_$LT$alloc..raw_vec..RawVec$LT$T$C$A$GT$$u20$as$u20$core..ops..drop..Drop$GT$4drop17h7425ee577f6364a4E, 4570
_ZN80_$LT$core..option..Option$LT$T$GT$$u20$as$u20$qrcode..cast..ExpectOrOverflow$GT$18expect_or_overflow17h0299d77236c2d7f5E, 4571
_ZN80_$LT$core..option..Option$LT$T$GT$$u20$as$u20$qrcode..cast..ExpectOrOverflow$GT$18expect_or_overflow17hcc565ad86b0a8398E, 4572
_ZN90_$LT$alloc..vec..Vec$LT$T$C$A$GT$$u20$as$u20$core..iter..traits..collect..IntoIterator$GT$9into_iter17h22749a8b022aa6ebE, 4573
_ZN90_$LT$alloc..vec..Vec$LT$T$C$A$GT$$u20$as$u20$core..iter..traits..collect..IntoIterator$GT$9into_iter17had3fcf2b000b78efE, 4574
Added functions 2685

567123170
3287039