Finishing the switch case for _ZN63_$LT$I$u20$as$u20$core..iter..traits..collect..IntoIterator$GT$9into_iter17hd935e04e1d3a6502E. Final size 2
_ZN104_$LT$core..iter..adapters..cloned..Cloned$LT$I$GT$$u20$as$u20$core..iter..traits..iterator..Iterator$GT$8try_fold17hc04b293aba0b3c76E, 0
_ZN4core4iter8adapters6cloned14clone_try_fold17hb60f6d48f67d7bb9E, 1
_ZN4core4iter6traits8iterator8Iterator8try_fold17h954877877434c616E, 2
_ZN91_$LT$core..slice..iter..Iter$LT$T$GT$$u20$as$u20$core..iter..traits..iterator..Iterator$GT$4next17ha91c021d54173a86E, 3
_ZN4core4iter8adapters6cloned14clone_try_fold28_$u7b$$u7b$closure$u7d$$u7d$17h792bc200e3bc8015E, 4
_ZN95_$LT$core..ops..control_flow..ControlFlow$LT$B$C$C$GT$$u20$as$u20$core..ops..try_trait..Try$GT$11from_output17h0d6f55bc66a08018E, 5
_ZN95_$LT$core..ops..control_flow..ControlFlow$LT$B$C$C$GT$$u20$as$u20$core..ops..try_trait..Try$GT$6branch17h1ed65127e91566e8E, 6
_ZN104_$LT$core..ops..control_flow..ControlFlow$LT$B$C$C$GT$$u20$as$u20$core..ops..try_trait..FromResidual$GT$13from_residual17hfee311c54ea65865E, 7
_ZN4core5clone5impls51_$LT$impl$u20$core..clone..Clone$u20$for$u20$u8$GT$5clone17h573898708466dc3fE, 8
_ZN4core4iter6traits8iterator8Iterator8position5check28_$u7b$$u7b$closure$u7d$$u7d$17h7eba32d3dd5efcfcE, 9
_ZN4core3ops8function5FnMut8call_mut17h082cf4ae66286f2eE, 10
_ZN5rayon3str16is_char_boundary17h6e518202fb00cc49E, 11
_ZN106_$LT$core..slice..iter..Iter$LT$T$GT$$u20$as$u20$core..iter..traits..double_ended..DoubleEndedIterator$GT$9next_back17ha909f17492248ff4E, 12
_ZN108_$LT$core..ops..range..RangeTo$LT$usize$GT$$u20$as$u20$core..slice..index..SliceIndex$LT$$u5b$T$u5d$$GT$$GT$13get_unchecked17hf2e3c91c1dd3180aE, 13
_ZN115_$LT$core..iter..adapters..cloned..Cloned$LT$I$GT$$u20$as$u20$core..iter..traits..exact_size..ExactSizeIterator$GT$3len17h7e4b96ade6575359E, 14
_ZN119_$LT$core..iter..adapters..cloned..Cloned$LT$I$GT$$u20$as$u20$core..iter..traits..double_ended..DoubleEndedIterator$GT$9try_rfold17h55b851f011643eaeE, 15
_ZN4core4iter8adapters6cloned14clone_try_fold17h9b9723ecc1c0e385E, 16
_ZN4core4iter6traits12double_ended19DoubleEndedIterator9try_rfold17ha9424f66ab3f256eE, 17
_ZN4core4iter8adapters6cloned14clone_try_fold28_$u7b$$u7b$closure$u7d$$u7d$17h2e469909271dcb9eE, 18
_ZN4core4iter6traits8iterator8Iterator9rposition5check28_$u7b$$u7b$closure$u7d$$u7d$17h9ba73c08cb84fd40E, 19
_ZN132_$LT$alloc..vec..Vec$LT$T$C$A$GT$$u20$as$u20$alloc..vec..spec_extend..SpecExtend$LT$$RF$T$C$core..slice..iter..Iter$LT$T$GT$$GT$$GT$11spec_extend17h1cb56a2c9f0bbe04E, 20
_ZN4core5slice4iter13Iter$LT$T$GT$8as_slice17h6ae37fe18e5d41b9E, 21
_ZN5alloc3vec16Vec$LT$T$C$A$GT$15append_elements17hc063a3388d6c6f60E, 22
_ZN5alloc3vec16Vec$LT$T$C$A$GT$7reserve17hdb1063d7f69cf3bdE, 23
_ZN5alloc7raw_vec19RawVec$LT$T$C$A$GT$7reserve17h2a46d5c1165f6fd0E, 24
_ZN5alloc7raw_vec19RawVec$LT$T$C$A$GT$13needs_to_grow17h79909c1172c058e4E, 25
_ZN5alloc7raw_vec19RawVec$LT$T$C$A$GT$7reserve21do_reserve_and_handle17h98aeda25e0d08b32E, 26
_ZN5alloc7raw_vec19RawVec$LT$T$C$A$GT$14grow_amortized17h94c34db431f316b5E, 27
_ZN5alloc7raw_vec14handle_reserve17h608b7bade0ce9e83E, 28
_ZN4core3num23_$LT$impl$u20$usize$GT$11checked_add17h0812fc1612b9a5afE, 29
_ZN5alloc7raw_vec19RawVec$LT$T$C$A$GT$7set_ptr17h0e1dcde2113cff1aE, 30
_ZN153_$LT$core..result..Result$LT$T$C$F$GT$$u20$as$u20$core..ops..try_trait..FromResidual$LT$core..result..Result$LT$core..convert..Infallible$C$E$GT$$GT$$GT$13from_residual17h6168fd84620f75d6E, 31
_ZN50_$LT$T$u20$as$u20$core..convert..From$LT$T$GT$$GT$4from17h798ab769eeebd6f5E, 32
_ZN42_$LT$$RF$T$u20$as$u20$core..fmt..Debug$GT$3fmt17h070dcd756187b832E, 33
_ZN50_$LT$$RF$mut$u20$T$u20$as$u20$core..fmt..Debug$GT$3fmt17ha71cc735bee0a4beE, 34
_ZN58_$LT$alloc..string..String$u20$as$u20$core..fmt..Debug$GT$3fmt17ha12432c5e901a970E, 35
_ZN65_$LT$alloc..string..String$u20$as$u20$core..ops..deref..Deref$GT$5deref17h5276dbdfa6f3eaccE, 36
_ZN4core3str8converts19from_utf8_unchecked17h2287e76ee40fc165E, 37
_ZN42_$LT$$RF$T$u20$as$u20$core..fmt..Debug$GT$3fmt17h5898a77f8e317f9dE, 38
_ZN42_$LT$$RF$T$u20$as$u20$core..fmt..Debug$GT$3fmt17h903f1cb3694652ddE, 39
_ZN71_$LT$core..ops..range..Range$LT$Idx$GT$$u20$as$u20$core..fmt..Debug$GT$3fmt17he87fea29e7325b09E, 40
_ZN4core3fmt3num52_$LT$impl$u20$core..fmt..Debug$u20$for$u20$usize$GT$3fmt17hcc5a423d85718a53E, 41
_ZN79_$LT$core..result..Result$LT$T$C$E$GT$$u20$as$u20$core..ops..try_trait..Try$GT$6branch17h8ad50d915e44d812E, 42
_ZN4core3fmt9Arguments6new_v117hed26cd1a9c28062bE, 43
_ZN42_$LT$$RF$T$u20$as$u20$core..fmt..Debug$GT$3fmt17hb32cc957d3e5f888E, 44
_ZN4core3ops12control_flow24ControlFlow$LT$B$C$C$GT$11break_value17hea41daeb6250b2efE, 45
_ZN4core3ops5range25RangeInclusive$LT$Idx$GT$3end17h0186a233878d5710E, 46
_ZN4core3ops5range25RangeInclusive$LT$Idx$GT$3end17h0aea13b562914ae1E, 47
_ZN4core3ops5range25RangeInclusive$LT$Idx$GT$3end17h338971fe4a9016ecE, 48
_ZN4core3ops5range25RangeInclusive$LT$Idx$GT$3end17h4530f6ea06d2622dE, 49
_ZN4core3ops5range25RangeInclusive$LT$Idx$GT$3end17h46d56110590e6b8eE, 50
_ZN4core3ops5range25RangeInclusive$LT$Idx$GT$3end17h6f9bd7b82aa8930cE, 51
_ZN4core3ops5range25RangeInclusive$LT$Idx$GT$3end17ha66f4d7b08b6e14fE, 52
_ZN4core3ops5range25RangeInclusive$LT$Idx$GT$3end17hc018dab6e053aec4E, 53
_ZN4core3ops5range25RangeInclusive$LT$Idx$GT$3end17hc4046d88549348e8E, 54
_ZN4core3ops5range25RangeInclusive$LT$Idx$GT$3end17hdc7e66d33d6d7a88E, 55
_ZN4core3ops5range25RangeInclusive$LT$Idx$GT$3end17hde75fe3d05e38fc6E, 56
_ZN4core3ops5range25RangeInclusive$LT$Idx$GT$3end17hf4ac9a7835d7148eE, 57
_ZN4core3ops5range25RangeInclusive$LT$Idx$GT$3end17hf578b998bc57f487E, 58
_ZN4core3ops5range25RangeInclusive$LT$Idx$GT$3new17h0998939bd57cbb10E, 59
_ZN4core3ops5range25RangeInclusive$LT$Idx$GT$3new17h0acb3fa2ff1abfbbE, 60
_ZN4core3ops5range25RangeInclusive$LT$Idx$GT$3new17h141e1d85e1a2143eE, 61
_ZN4core3ops5range25RangeInclusive$LT$Idx$GT$3new17h2030a2257708f316E, 62
_ZN4core3ops5range25RangeInclusive$LT$Idx$GT$3new17h241e9e92af7d966aE, 63
_ZN4core3ops5range25RangeInclusive$LT$Idx$GT$3new17h36f23570b1f827c2E, 64
_ZN4core3ops5range25RangeInclusive$LT$Idx$GT$3new17h43fcf677d7adcd63E, 65
_ZN4core3ops5range25RangeInclusive$LT$Idx$GT$3new17h6771063d857788abE, 66
_ZN4core3ops5range25RangeInclusive$LT$Idx$GT$3new17h709da96a48a5a400E, 67
_ZN4core3ops5range25RangeInclusive$LT$Idx$GT$3new17h896c916504722f9cE, 68
_ZN4core3ops5range25RangeInclusive$LT$Idx$GT$3new17h962c3f1c2cca5c7eE, 69
_ZN4core3ops5range25RangeInclusive$LT$Idx$GT$3new17hbf2a15afeba8f57aE, 70
_ZN4core3ops5range25RangeInclusive$LT$Idx$GT$3new17hd006160eec639f94E, 71
_ZN4core3ops5range25RangeInclusive$LT$Idx$GT$5start17h07450b00aa9ec6d9E, 72
_ZN4core3ops5range25RangeInclusive$LT$Idx$GT$5start17h0d77616ea2c20de4E, 73
_ZN4core3ops5range25RangeInclusive$LT$Idx$GT$5start17h50816cce8648dac2E, 74
_ZN4core3ops5range25RangeInclusive$LT$Idx$GT$5start17h510f77817153a55cE, 75
_ZN4core3ops5range25RangeInclusive$LT$Idx$GT$5start17h5b064b5f21b1348eE, 76
_ZN4core3ops5range25RangeInclusive$LT$Idx$GT$5start17h78c13f759fd6dae8E, 77
_ZN4core3ops5range25RangeInclusive$LT$Idx$GT$5start17h7bc0471af8223a4eE, 78
_ZN4core3ops5range25RangeInclusive$LT$Idx$GT$5start17h8f1f0f220c9470e7E, 79
_ZN4core3ops5range25RangeInclusive$LT$Idx$GT$5start17h9abbedbebd5624a0E, 80
_ZN4core3ops5range25RangeInclusive$LT$Idx$GT$5start17ha2d26c3a64a4ba92E, 81
_ZN4core3ops5range25RangeInclusive$LT$Idx$GT$5start17ha40da6e54c8c262eE, 82
_ZN4core3ops5range25RangeInclusive$LT$Idx$GT$5start17hd136f93027beb246E, 83
_ZN4core3ops5range25RangeInclusive$LT$Idx$GT$5start17hd8a8ab4e81aeec7eE, 84
_ZN4core3ops5range25RangeInclusive$LT$Idx$GT$8is_empty17h20e4749ef950fd92E, 85
_ZN4core3cmp5impls54_$LT$impl$u20$core..cmp..PartialOrd$u20$for$u20$i8$GT$2le17h34c382072dfacbdeE, 86
_ZN4core3ops5range25RangeInclusive$LT$Idx$GT$8is_empty17hb30328fc1127f3b1E, 87
_ZN4core3cmp5impls55_$LT$impl$u20$core..cmp..PartialOrd$u20$for$u20$i16$GT$2le17heda557f42dbcc62cE, 88
_ZN4core3ops5range25RangeInclusive$LT$Idx$GT$8is_empty17hcd518065979385d3E, 89
_ZN4core3cmp5impls54_$LT$impl$u20$core..cmp..PartialOrd$u20$for$u20$u8$GT$2le17h7fea41c5dd119320E, 90
_ZN4core3ops5range25RangeInclusive$LT$Idx$GT$8is_empty17hf54a7171e88b02aaE, 91
_ZN4core3cmp5impls55_$LT$impl$u20$core..cmp..PartialOrd$u20$for$u20$u16$GT$2le17ha295571f598451ecE, 92
_ZN4core3ptr41drop_in_place$LT$alloc..string..Drain$GT$17hc0d852342ea42d45E, 93
_ZN4core3ptr5write17h51e6aa5ed38333eeE, 94
_ZN4core3str21_$LT$impl$u20$str$GT$13get_unchecked17h502de1c9b32b9b6eE, 95
_ZN4core3str6traits108_$LT$impl$u20$core..slice..index..SliceIndex$LT$str$GT$$u20$for$u20$core..ops..range..Range$LT$usize$GT$$GT$13get_unchecked17h296c5625b6df8a6bE, 96
_ZN4core4iter5range101_$LT$impl$u20$core..iter..traits..iterator..Iterator$u20$for$u20$core..ops..range..Range$LT$A$GT$$GT$9size_hint17h3cbf42302e1b6472E, 97
_ZN4core3cmp5impls54_$LT$impl$u20$core..cmp..PartialOrd$u20$for$u20$i8$GT$2lt17h3e9f25f68855aa80E, 98
_ZN46_$LT$i8$u20$as$u20$core..iter..range..Step$GT$13steps_between17he6be57f69a0a2c54E, 99
_ZN4core4iter5range101_$LT$impl$u20$core..iter..traits..iterator..Iterator$u20$for$u20$core..ops..range..Range$LT$A$GT$$GT$9size_hint17h64d24b90a65a11a6E, 100
_ZN4core3cmp5impls55_$LT$impl$u20$core..cmp..PartialOrd$u20$for$u20$i32$GT$2lt17h211647a97e80d8d6E, 101
_ZN47_$LT$i32$u20$as$u20$core..iter..range..Step$GT$13steps_between17h0602fce130fb8cfbE, 102
_ZN4core4iter5range101_$LT$impl$u20$core..iter..traits..iterator..Iterator$u20$for$u20$core..ops..range..Range$LT$A$GT$$GT$9size_hint17h9f63d9f3537589b4E, 103
_ZN4core3cmp5impls55_$LT$impl$u20$core..cmp..PartialOrd$u20$for$u20$u16$GT$2lt17h9b9424f03fc94683E, 104
_ZN47_$LT$u16$u20$as$u20$core..iter..range..Step$GT$13steps_between17h3cc9093483e9a9ecE, 105
_ZN4core4iter5range101_$LT$impl$u20$core..iter..traits..iterator..Iterator$u20$for$u20$core..ops..range..Range$LT$A$GT$$GT$9size_hint17haf26afe225709f53E, 106
_ZN4core3cmp5impls55_$LT$impl$u20$core..cmp..PartialOrd$u20$for$u20$i16$GT$2lt17h59bd6047cf1e3fabE, 107
_ZN47_$LT$i16$u20$as$u20$core..iter..range..Step$GT$13steps_between17he9caaf640693c112E, 108
_ZN4core4iter5range101_$LT$impl$u20$core..iter..traits..iterator..Iterator$u20$for$u20$core..ops..range..Range$LT$A$GT$$GT$9size_hint17hbaef7b7bf634b5cbE, 109
_ZN4core3cmp5impls55_$LT$impl$u20$core..cmp..PartialOrd$u20$for$u20$u32$GT$2lt17h185d07532e2d84d4E, 110
_ZN47_$LT$u32$u20$as$u20$core..iter..range..Step$GT$13steps_between17h0b608f1e3c9ea86eE, 111
_ZN4core4iter5range101_$LT$impl$u20$core..iter..traits..iterator..Iterator$u20$for$u20$core..ops..range..Range$LT$A$GT$$GT$9size_hint17hcda9f1b12dc7c12aE, 112
_ZN4core3cmp5impls57_$LT$impl$u20$core..cmp..PartialOrd$u20$for$u20$isize$GT$2lt17h4f8a7f84ef74fe04E, 113
_ZN49_$LT$isize$u20$as$u20$core..iter..range..Step$GT$13steps_between17h8ff701cb2ad058f5E, 114
_ZN4core4iter5range101_$LT$impl$u20$core..iter..traits..iterator..Iterator$u20$for$u20$core..ops..range..Range$LT$A$GT$$GT$9size_hint17hda5ae84065f214b2E, 115
_ZN4core3cmp5impls54_$LT$impl$u20$core..cmp..PartialOrd$u20$for$u20$u8$GT$2lt17h9393b5403e044371E, 116
_ZN46_$LT$u8$u20$as$u20$core..iter..range..Step$GT$13steps_between17h21bca96b7f2d202aE, 117
_ZN4core4iter5range110_$LT$impl$u20$core..iter..traits..iterator..Iterator$u20$for$u20$core..ops..range..RangeInclusive$LT$A$GT$$GT$9size_hint17h430d80785542c4a9E, 118
_ZN4core4iter5range110_$LT$impl$u20$core..iter..traits..iterator..Iterator$u20$for$u20$core..ops..range..RangeInclusive$LT$A$GT$$GT$9size_hint17h82ddec3fa81ed0b6E, 119
_ZN4core4iter5range110_$LT$impl$u20$core..iter..traits..iterator..Iterator$u20$for$u20$core..ops..range..RangeInclusive$LT$A$GT$$GT$9size_hint17hbf522640fda3bcf2E, 120
_ZN4core4iter5range110_$LT$impl$u20$core..iter..traits..iterator..Iterator$u20$for$u20$core..ops..range..RangeInclusive$LT$A$GT$$GT$9size_hint17hf368270e1d382166E, 121
_ZN4core4iter6traits10exact_size17ExactSizeIterator3len17h00f9f23b1902162dE, 122
_ZN4core4iter6traits10exact_size17ExactSizeIterator3len17h32ca8fa2241d2737E, 123
_ZN4core4iter6traits10exact_size17ExactSizeIterator3len17h38b8a66f47fa6a54E, 124
_ZN4core4iter6traits10exact_size17ExactSizeIterator3len17h428ca453becadfb5E, 125
_ZN4core4iter6traits10exact_size17ExactSizeIterator3len17h67c8f55b7a00fe70E, 126
_ZN4core4iter6traits10exact_size17ExactSizeIterator3len17h8600ad46bee0eef2E, 127
_ZN4core4iter6traits10exact_size17ExactSizeIterator3len17ha4b583e0d3b26af4E, 128
_ZN4core4iter6traits10exact_size17ExactSizeIterator3len17hc2c530b905b91914E, 129
_ZN4core4iter6traits10exact_size17ExactSizeIterator3len17hd18adbc891cdf19aE, 130
_ZN4core4iter6traits10exact_size17ExactSizeIterator3len17hd2fdaf20a954d061E, 131
_ZN4core4iter6traits10exact_size17ExactSizeIterator3len17he77bd940da84f735E, 132
_ZN4core4iter6traits10exact_size17ExactSizeIterator3len17hfef871f71c4944cbE, 133
_ZN4core4iter6traits8iterator8Iterator6cloned17h844f32a335ba2aebE, 134
_ZN4core4iter8adapters6cloned15Cloned$LT$I$GT$3new17hb435b2d21df9cf3aE, 135
_ZN4core4iter6traits8iterator8Iterator8position17h943baccecc220d62E, 136
_ZN4core4iter6traits8iterator8Iterator8position5check17h3a98d9cd7840f35cE, 137
_ZN4core4iter6traits8iterator8Iterator9rposition17h5c40cae55730bcf0E, 138
_ZN83_$LT$$RF$mut$u20$I$u20$as$u20$core..iter..traits..exact_size..ExactSizeIterator$GT$3len17hbb512ad03d65dfbbE, 139
_ZN4core4iter6traits8iterator8Iterator9rposition5check17h3305d7d70955cf85E, 140
_ZN4core5slice29_$LT$impl$u20$$u5b$T$u5d$$GT$13get_unchecked17h21f3c6a4e595fe9eE, 141
_ZN4core5slice29_$LT$impl$u20$$u5b$T$u5d$$GT$13get_unchecked17hf20402fb53ca65a9E, 142
_ZN4core5slice29_$LT$impl$u20$$u5b$T$u5d$$GT$18split_at_unchecked17hd40d0be2aeabc75fE, 143
_ZN4core5slice29_$LT$impl$u20$$u5b$T$u5d$$GT$4iter17h9cb8a7b72d123de0E, 144
_ZN4core5slice4iter13Iter$LT$T$GT$3new17hab69647d79d3c499E, 145
_ZN4core5slice29_$LT$impl$u20$$u5b$T$u5d$$GT$8split_at17hbd65989cce25f677E, 146
_ZN4core5slice5index5range17hac184c9b3b6c29cbE, 147
_ZN91_$LT$core..ops..range..Range$LT$T$GT$$u20$as$u20$core..ops..range..RangeBounds$LT$T$GT$$GT$11start_bound17h9a2d01da9d03a3beE, 148
_ZN91_$LT$core..ops..range..Range$LT$T$GT$$u20$as$u20$core..ops..range..RangeBounds$LT$T$GT$$GT$9end_bound17h20a0536c69c8b76bE, 149
_ZN4core6option15Option$LT$T$GT$14unwrap_or_else17h3a6beb74c2c8d59bE, 150
_ZN4core6option15Option$LT$T$GT$14unwrap_or_else17hd43603aa8b1db107E, 151
_ZN4core5slice5index5range28_$u7b$$u7b$closure$u7d$$u7d$17h957cae96464dcca7E, 152
_ZN4core5slice5index5range28_$u7b$$u7b$closure$u7d$$u7d$17h82e7dfe51ed7e1f2E, 153
_ZN4core6result19Result$LT$T$C$E$GT$2ok17h598a31f3bc3cb9e6E, 154
_ZN5alloc3vec16Vec$LT$T$C$A$GT$17extend_from_slice17he4b73ad903b80c1aE, 155
_ZN5alloc3vec16Vec$LT$T$C$A$GT$4push17h69c716e8b0b49b19E, 156
_ZN5alloc6string6String5drain17he48c93af033c2cc8E, 157
_ZN5alloc6string6String3len17h326684ba5493bf33E, 158
_ZN4core3str21_$LT$impl$u20$str$GT$16is_char_boundary17ha3b74bcd2319aaf4E, 159
_ZN4core3str21_$LT$impl$u20$str$GT$5chars17hefb9f756f76b1919E, 160
_ZN4core3str21_$LT$impl$u20$str$GT$3len17h258423ccfa71fc0dE, 161
_ZN73_$LT$core..ops..range..Range$LT$Idx$GT$$u20$as$u20$core..clone..Clone$GT$5clone17hc2cb536f7ee0c42aE, 162
_ZN4core5clone5impls54_$LT$impl$u20$core..clone..Clone$u20$for$u20$usize$GT$5clone17hcb79cd58b20881b0E, 163
_ZN84_$LT$core..ops..range..RangeInclusive$LT$Idx$GT$$u20$as$u20$core..cmp..PartialEq$GT$2eq17h38daa821a5c271c7E, 164
_ZN4core3cmp5impls54_$LT$impl$u20$core..cmp..PartialEq$u20$for$u20$i32$GT$2eq17h8ab69dc30311762eE, 165
_ZN84_$LT$core..ops..range..RangeInclusive$LT$Idx$GT$$u20$as$u20$core..cmp..PartialEq$GT$2eq17h3ca09efbd7a8312cE, 166
_ZN4core3cmp5impls56_$LT$impl$u20$core..cmp..PartialEq$u20$for$u20$usize$GT$2eq17hb0eb113aea9a0a14E, 167
_ZN84_$LT$core..ops..range..RangeInclusive$LT$Idx$GT$$u20$as$u20$core..cmp..PartialEq$GT$2eq17h4b0fb49fbe2f6084E, 168
_ZN4core3cmp5impls55_$LT$impl$u20$core..cmp..PartialEq$u20$for$u20$i128$GT$2eq17hafd873aed8f51338E, 169
_ZN84_$LT$core..ops..range..RangeInclusive$LT$Idx$GT$$u20$as$u20$core..cmp..PartialEq$GT$2eq17h535ab6ca3a1324a5E, 170
_ZN4core3cmp5impls54_$LT$impl$u20$core..cmp..PartialEq$u20$for$u20$u32$GT$2eq17h672cc324e28e4bcbE, 171
_ZN84_$LT$core..ops..range..RangeInclusive$LT$Idx$GT$$u20$as$u20$core..cmp..PartialEq$GT$2eq17h56e907b0d05aaeb7E, 172
_ZN4core3cmp5impls53_$LT$impl$u20$core..cmp..PartialEq$u20$for$u20$i8$GT$2eq17h15f28b1482636afbE, 173
_ZN84_$LT$core..ops..range..RangeInclusive$LT$Idx$GT$$u20$as$u20$core..cmp..PartialEq$GT$2eq17h6a664c6923e16680E, 174
_ZN4core3cmp5impls56_$LT$impl$u20$core..cmp..PartialEq$u20$for$u20$isize$GT$2eq17h33dd3e673555747eE, 175
_ZN84_$LT$core..ops..range..RangeInclusive$LT$Idx$GT$$u20$as$u20$core..cmp..PartialEq$GT$2eq17haab48f3b3d18b575E, 176
_ZN4core3cmp5impls55_$LT$impl$u20$core..cmp..PartialEq$u20$for$u20$u128$GT$2eq17h6fd1776779ada534E, 177
_ZN84_$LT$core..ops..range..RangeInclusive$LT$Idx$GT$$u20$as$u20$core..cmp..PartialEq$GT$2eq17hadf85c3f71ea3cacE, 178
_ZN4core3cmp5impls55_$LT$impl$u20$core..cmp..PartialEq$u20$for$u20$char$GT$2eq17h2821e28c9049de98E, 179
_ZN84_$LT$core..ops..range..RangeInclusive$LT$Idx$GT$$u20$as$u20$core..cmp..PartialEq$GT$2eq17hb356f2299fef8059E, 180
_ZN4core3cmp5impls54_$LT$impl$u20$core..cmp..PartialEq$u20$for$u20$i16$GT$2eq17h962ce6362af77c88E, 181
_ZN84_$LT$core..ops..range..RangeInclusive$LT$Idx$GT$$u20$as$u20$core..cmp..PartialEq$GT$2eq17hb8b13f8b5a018edbE, 182
_ZN4core3cmp5impls54_$LT$impl$u20$core..cmp..PartialEq$u20$for$u20$i64$GT$2eq17he7078e1e2e8cb0caE, 183
_ZN84_$LT$core..ops..range..RangeInclusive$LT$Idx$GT$$u20$as$u20$core..cmp..PartialEq$GT$2eq17he52e01436b57ea16E, 184
_ZN4core3cmp5impls54_$LT$impl$u20$core..cmp..PartialEq$u20$for$u20$u64$GT$2eq17ha8561a2ce994d60fE, 185
_ZN84_$LT$core..ops..range..RangeInclusive$LT$Idx$GT$$u20$as$u20$core..cmp..PartialEq$GT$2eq17hf863e65af3149f9eE, 186
_ZN4core3cmp5impls54_$LT$impl$u20$core..cmp..PartialEq$u20$for$u20$u16$GT$2eq17h29f1bdb51757a082E, 187
_ZN84_$LT$core..ops..range..RangeInclusive$LT$Idx$GT$$u20$as$u20$core..cmp..PartialEq$GT$2eq17hfeeac02d55578b24E, 188
_ZN4core3cmp5impls53_$LT$impl$u20$core..cmp..PartialEq$u20$for$u20$u8$GT$2eq17h5c95cfe879fd2e1fE, 189
_ZN5rayon4iter5chain18Chain$LT$A$C$B$GT$3new17h1642da78833e66e5E, 190
_ZN5rayon4iter5chain18Chain$LT$A$C$B$GT$3new17h4fb9b6e196df492dE, 191
_ZN5rayon4iter5chain18Chain$LT$A$C$B$GT$3new17h6a2f8803d75e47caE, 192
_ZN5rayon4iter5chain18Chain$LT$A$C$B$GT$3new17h7212c988b5a59271E, 193
_ZN5rayon4iter5chain18Chain$LT$A$C$B$GT$3new17h73555cbb21564b29E, 194
_ZN5rayon4iter5chain18Chain$LT$A$C$B$GT$3new17h86e7cbe53efaead9E, 195
_ZN5rayon4iter5chain18Chain$LT$A$C$B$GT$3new17h899cef87ed029687E, 196
_ZN5rayon4iter5chain18Chain$LT$A$C$B$GT$3new17h8ebc4a84fb385c8eE, 197
_ZN5rayon4iter5chain18Chain$LT$A$C$B$GT$3new17h9a0c9dd022f598afE, 198
_ZN5rayon4iter5chain18Chain$LT$A$C$B$GT$3new17hccc186b356e83984E, 199
_ZN5rayon4iter5chain18Chain$LT$A$C$B$GT$3new17hd1072380df570b39E, 200
_ZN5rayon4iter5chain18Chain$LT$A$C$B$GT$3new17hd7875c6bd0cea7dbE, 201
_ZN88_$LT$rayon..iter..chain..Chain$LT$A$C$B$GT$$u20$as$u20$rayon..iter..ParallelIterator$GT$7opt_len17h07d7671a0bef9710E, 202
_ZN77_$LT$rayon..range..Iter$LT$T$GT$$u20$as$u20$rayon..iter..ParallelIterator$GT$7opt_len17h0b436503899a06a4E, 203
_ZN82_$LT$rayon..iter..once..Once$LT$T$GT$$u20$as$u20$rayon..iter..ParallelIterator$GT$7opt_len17h95482607764f51f9E, 204
_ZN5rayon5range69_$LT$impl$u20$rayon..range..private..RangeInteger$u20$for$u20$i32$GT$7opt_len17h37cb6c853b1eb13aE, 205
_ZN88_$LT$rayon..iter..chain..Chain$LT$A$C$B$GT$$u20$as$u20$rayon..iter..ParallelIterator$GT$7opt_len17h1b192c85253233f4E, 206
_ZN77_$LT$rayon..range..Iter$LT$T$GT$$u20$as$u20$rayon..iter..ParallelIterator$GT$7opt_len17h885ea2995d1f97e0E, 207
_ZN82_$LT$rayon..iter..once..Once$LT$T$GT$$u20$as$u20$rayon..iter..ParallelIterator$GT$7opt_len17h37286bbed6f59bb4E, 208
_ZN5rayon5range70_$LT$impl$u20$rayon..range..private..RangeInteger$u20$for$u20$i128$GT$7opt_len17h4e88bf9ef1b54cccE, 209
_ZN99_$LT$core..ops..range..Range$LT$i128$GT$$u20$as$u20$rayon..range..UnindexedRangeLen$LT$u128$GT$$GT$3len17h8d01a1eb3d002089E, 210
_ZN4core7convert3num18ptr_try_from_impls70_$LT$impl$u20$core..convert..TryFrom$LT$u128$GT$$u20$for$u20$usize$GT$8try_from17hc4f0ac43b4657d63E, 211
_ZN88_$LT$rayon..iter..chain..Chain$LT$A$C$B$GT$$u20$as$u20$rayon..iter..ParallelIterator$GT$7opt_len17h1c50cae5e0e06dc1E, 212
_ZN77_$LT$rayon..range..Iter$LT$T$GT$$u20$as$u20$rayon..iter..ParallelIterator$GT$7opt_len17hd21b917fbab5af8fE, 213
_ZN82_$LT$rayon..iter..once..Once$LT$T$GT$$u20$as$u20$rayon..iter..ParallelIterator$GT$7opt_len17h6620902a4d3b80c8E, 214
_ZN5rayon5range69_$LT$impl$u20$rayon..range..private..RangeInteger$u20$for$u20$u32$GT$7opt_len17h53488cd42abd13d5E, 215
_ZN88_$LT$rayon..iter..chain..Chain$LT$A$C$B$GT$$u20$as$u20$rayon..iter..ParallelIterator$GT$7opt_len17h4c22840075690c44E, 216
_ZN77_$LT$rayon..range..Iter$LT$T$GT$$u20$as$u20$rayon..iter..ParallelIterator$GT$7opt_len17h51b815af41de8793E, 217
_ZN82_$LT$rayon..iter..once..Once$LT$T$GT$$u20$as$u20$rayon..iter..ParallelIterator$GT$7opt_len17hbf657cca5c70dc9eE, 218
_ZN5rayon5range69_$LT$impl$u20$rayon..range..private..RangeInteger$u20$for$u20$u64$GT$7opt_len17h5e049ab4f8d6a171E, 219
_ZN97_$LT$core..ops..range..Range$LT$u64$GT$$u20$as$u20$rayon..range..UnindexedRangeLen$LT$u64$GT$$GT$3len17hb5b71c0a11c3cdf2E, 220
_ZN4core7convert3num18ptr_try_from_impls69_$LT$impl$u20$core..convert..TryFrom$LT$u64$GT$$u20$for$u20$usize$GT$8try_from17hb7cf89778557036cE, 221
_ZN88_$LT$rayon..iter..chain..Chain$LT$A$C$B$GT$$u20$as$u20$rayon..iter..ParallelIterator$GT$7opt_len17h55ba5718a21cc6faE, 222
_ZN77_$LT$rayon..range..Iter$LT$T$GT$$u20$as$u20$rayon..iter..ParallelIterator$GT$7opt_len17h0b40fcc011db6593E, 223
_ZN82_$LT$rayon..iter..once..Once$LT$T$GT$$u20$as$u20$rayon..iter..ParallelIterator$GT$7opt_len17hbccbdef96415cfa4E, 224
_ZN5rayon5range68_$LT$impl$u20$rayon..range..private..RangeInteger$u20$for$u20$u8$GT$7opt_len17hefb17eeae7269da3E, 225
_ZN88_$LT$rayon..iter..chain..Chain$LT$A$C$B$GT$$u20$as$u20$rayon..iter..ParallelIterator$GT$7opt_len17h814dee421ed32385E, 226
_ZN77_$LT$rayon..range..Iter$LT$T$GT$$u20$as$u20$rayon..iter..ParallelIterator$GT$7opt_len17h146fe3f30fde00bfE, 227
_ZN82_$LT$rayon..iter..once..Once$LT$T$GT$$u20$as$u20$rayon..iter..ParallelIterator$GT$7opt_len17h9eacae475aff19a3E, 228
_ZN5rayon5range71_$LT$impl$u20$rayon..range..private..RangeInteger$u20$for$u20$isize$GT$7opt_len17h7594089e38b6f2e7E, 229
_ZN88_$LT$rayon..iter..chain..Chain$LT$A$C$B$GT$$u20$as$u20$rayon..iter..ParallelIterator$GT$7opt_len17h9a3cc5ce7dd0b499E, 230
_ZN77_$LT$rayon..range..Iter$LT$T$GT$$u20$as$u20$rayon..iter..ParallelIterator$GT$7opt_len17hc7b787ca4d92cee2E, 231
_ZN82_$LT$rayon..iter..once..Once$LT$T$GT$$u20$as$u20$rayon..iter..ParallelIterator$GT$7opt_len17h6b9c207a7560e5f1E, 232
_ZN5rayon5range69_$LT$impl$u20$rayon..range..private..RangeInteger$u20$for$u20$i16$GT$7opt_len17hc2793902d11b3ea8E, 233
_ZN88_$LT$rayon..iter..chain..Chain$LT$A$C$B$GT$$u20$as$u20$rayon..iter..ParallelIterator$GT$7opt_len17ha0a2a0735c48a681E, 234
_ZN77_$LT$rayon..range..Iter$LT$T$GT$$u20$as$u20$rayon..iter..ParallelIterator$GT$7opt_len17h083b1d2b71b1682cE, 235
_ZN82_$LT$rayon..iter..once..Once$LT$T$GT$$u20$as$u20$rayon..iter..ParallelIterator$GT$7opt_len17he4a59043f09f6191E, 236
_ZN5rayon5range71_$LT$impl$u20$rayon..range..private..RangeInteger$u20$for$u20$usize$GT$7opt_len17h9050f033f9f3e666E, 237
_ZN88_$LT$rayon..iter..chain..Chain$LT$A$C$B$GT$$u20$as$u20$rayon..iter..ParallelIterator$GT$7opt_len17ha209af78f8dae473E, 238
_ZN77_$LT$rayon..range..Iter$LT$T$GT$$u20$as$u20$rayon..iter..ParallelIterator$GT$7opt_len17hcdeede0ca3081cf0E, 239
_ZN82_$LT$rayon..iter..once..Once$LT$T$GT$$u20$as$u20$rayon..iter..ParallelIterator$GT$7opt_len17h3a489ced4aa6a71bE, 240
_ZN5rayon5range70_$LT$impl$u20$rayon..range..private..RangeInteger$u20$for$u20$u128$GT$7opt_len17h7446eb81ab2c92b9E, 241
_ZN99_$LT$core..ops..range..Range$LT$u128$GT$$u20$as$u20$rayon..range..UnindexedRangeLen$LT$u128$GT$$GT$3len17h1ada6fedc662d963E, 242
_ZN88_$LT$rayon..iter..chain..Chain$LT$A$C$B$GT$$u20$as$u20$rayon..iter..ParallelIterator$GT$7opt_len17hb026810a4791ebbbE, 243
_ZN77_$LT$rayon..range..Iter$LT$T$GT$$u20$as$u20$rayon..iter..ParallelIterator$GT$7opt_len17h94cf2f3fb2687f5aE, 244
_ZN82_$LT$rayon..iter..once..Once$LT$T$GT$$u20$as$u20$rayon..iter..ParallelIterator$GT$7opt_len17hc33d570cf59280eeE, 245
_ZN5rayon5range69_$LT$impl$u20$rayon..range..private..RangeInteger$u20$for$u20$u16$GT$7opt_len17h45aeb61cd0b27b0aE, 246
_ZN88_$LT$rayon..iter..chain..Chain$LT$A$C$B$GT$$u20$as$u20$rayon..iter..ParallelIterator$GT$7opt_len17hb105f16277f5c3a7E, 247
_ZN77_$LT$rayon..range..Iter$LT$T$GT$$u20$as$u20$rayon..iter..ParallelIterator$GT$7opt_len17hd4802d8558f82d35E, 248
_ZN82_$LT$rayon..iter..once..Once$LT$T$GT$$u20$as$u20$rayon..iter..ParallelIterator$GT$7opt_len17h26633ba2e0f3d7f6E, 249
_ZN5rayon5range68_$LT$impl$u20$rayon..range..private..RangeInteger$u20$for$u20$i8$GT$7opt_len17h5a2c22f994048837E, 250
_ZN88_$LT$rayon..iter..chain..Chain$LT$A$C$B$GT$$u20$as$u20$rayon..iter..ParallelIterator$GT$7opt_len17hee4c222b695fcd55E, 251
_ZN77_$LT$rayon..range..Iter$LT$T$GT$$u20$as$u20$rayon..iter..ParallelIterator$GT$7opt_len17h77bd4591f3682ad7E, 252
_ZN82_$LT$rayon..iter..once..Once$LT$T$GT$$u20$as$u20$rayon..iter..ParallelIterator$GT$7opt_len17hf9d7acadf96a4afbE, 253
_ZN5rayon5range69_$LT$impl$u20$rayon..range..private..RangeInteger$u20$for$u20$i64$GT$7opt_len17h469cd6a692986a03E, 254
_ZN97_$LT$core..ops..range..Range$LT$i64$GT$$u20$as$u20$rayon..range..UnindexedRangeLen$LT$u64$GT$$GT$3len17hf01f9eeed6fc8e18E, 255
_ZN5rayon4iter5empty5empty17h1af74537cf0d7e46E, 256
_ZN5rayon4iter5empty5empty17h26508ef08fb8ff36E, 257
_ZN5rayon4iter5empty5empty17h311b5e8bfe737063E, 258
_ZN5rayon4iter5empty5empty17h493b860c523197ccE, 259
_ZN5rayon4iter5empty5empty17h9238550267127664E, 260
_ZN5rayon4iter5empty5empty17ha72778fd800cbad2E, 261
_ZN5rayon4iter5empty5empty17hafdcb4236a4b0567E, 262
_ZN5rayon4iter5empty5empty17hc146a60d7228435dE, 263
_ZN5rayon4iter5empty5empty17hde43028293fde05cE, 264
_ZN5rayon4iter5empty5empty17he183234159b9a8eaE, 265
_ZN5rayon4iter5empty5empty17he20c8fa9793450d7E, 266
_ZN5rayon4iter5empty5empty17hff37330c50ae4358E, 267
_ZN84_$LT$rayon..iter..empty..Empty$LT$T$GT$$u20$as$u20$rayon..iter..ParallelIterator$GT$7opt_len17h05eea691073f141eE, 268
_ZN84_$LT$rayon..iter..empty..Empty$LT$T$GT$$u20$as$u20$rayon..iter..ParallelIterator$GT$7opt_len17h0aac21dd5f05598cE, 269
_ZN84_$LT$rayon..iter..empty..Empty$LT$T$GT$$u20$as$u20$rayon..iter..ParallelIterator$GT$7opt_len17h27e325cc231b7864E, 270
_ZN84_$LT$rayon..iter..empty..Empty$LT$T$GT$$u20$as$u20$rayon..iter..ParallelIterator$GT$7opt_len17h29b907e4ffaa0aa3E, 271
_ZN84_$LT$rayon..iter..empty..Empty$LT$T$GT$$u20$as$u20$rayon..iter..ParallelIterator$GT$7opt_len17h33534c33aa4ed35aE, 272
_ZN84_$LT$rayon..iter..empty..Empty$LT$T$GT$$u20$as$u20$rayon..iter..ParallelIterator$GT$7opt_len17h34ae5304d5b1429dE, 273
_ZN84_$LT$rayon..iter..empty..Empty$LT$T$GT$$u20$as$u20$rayon..iter..ParallelIterator$GT$7opt_len17h3f5530acbd82e7caE, 274
_ZN84_$LT$rayon..iter..empty..Empty$LT$T$GT$$u20$as$u20$rayon..iter..ParallelIterator$GT$7opt_len17h4e50af42570dff3fE, 275
_ZN84_$LT$rayon..iter..empty..Empty$LT$T$GT$$u20$as$u20$rayon..iter..ParallelIterator$GT$7opt_len17h514ff802d6ca7717E, 276
_ZN84_$LT$rayon..iter..empty..Empty$LT$T$GT$$u20$as$u20$rayon..iter..ParallelIterator$GT$7opt_len17h5fe86913c29740c5E, 277
_ZN84_$LT$rayon..iter..empty..Empty$LT$T$GT$$u20$as$u20$rayon..iter..ParallelIterator$GT$7opt_len17h6b843d43de1bf08cE, 278
_ZN84_$LT$rayon..iter..empty..Empty$LT$T$GT$$u20$as$u20$rayon..iter..ParallelIterator$GT$7opt_len17h89335c08514b5046E, 279
_ZN5rayon4iter6extend11string_push17he18eee5e84d523c1E, 280
_ZN5alloc6string6String4push17h5128de691c242bebE, 281
_ZN4core4char7methods22_$LT$impl$u20$char$GT$8len_utf817he4c47a2a15dfcb69E, 282
_ZN4core4char7methods22_$LT$impl$u20$char$GT$11encode_utf817h425ba0c619feec6cE, 283
_ZN4core4char7methods15encode_utf8_raw17h9b4f30eee05d7c76E, 284
_ZN4core3str8converts23from_utf8_unchecked_mut17h8854d0e592842beeE, 285
_ZN4core4char7methods8len_utf817ha02fc145a1cda598E, 286
_ZN97_$LT$rayon..iter..noop..NoopReducer$u20$as$u20$rayon..iter..plumbing..Reducer$LT$$LP$$RP$$GT$$GT$6reduce17h495e49d817e440c5E, 287
_ZN5rayon4iter4once4once17h2af02ab117c31997E, 288
_ZN5rayon4iter4once4once17h2b885b06c9f92f6fE, 289
_ZN5rayon4iter4once4once17h6ffb03a1c3450df6E, 290
_ZN5rayon4iter4once4once17h7f0ca2464f772f28E, 291
_ZN5rayon4iter4once4once17hb5123cb8506cc274E, 292
_ZN5rayon4iter4once4once17hc456dc362d7ed2e8E, 293
_ZN5rayon4iter4once4once17hc7c2d3b36dbdfba4E, 294
_ZN5rayon4iter4once4once17hcb7e31395eaf8808E, 295
_ZN5rayon4iter4once4once17hd3f8096cb7a7910dE, 296
_ZN5rayon4iter4once4once17he30b3cf93ff879a2E, 297
_ZN5rayon4iter4once4once17he30dc5f926bb3cefE, 298
_ZN5rayon4iter4once4once17hf81bb081308f93a5E, 299
_ZN5rayon4iter16ParallelIterator5chain17h1d6d3d05932e868aE, 300
_ZN55_$LT$T$u20$as$u20$rayon..iter..IntoParallelIterator$GT$13into_par_iter17h8fbf95fc4c0a113dE, 301
_ZN5rayon4iter16ParallelIterator5chain17h2e101824388e798dE, 302
_ZN55_$LT$T$u20$as$u20$rayon..iter..IntoParallelIterator$GT$13into_par_iter17hb93d3c8ac1dab986E, 303
_ZN5rayon4iter16ParallelIterator5chain17h41f7dd4b3ecbebe5E, 304
_ZN55_$LT$T$u20$as$u20$rayon..iter..IntoParallelIterator$GT$13into_par_iter17ha0a6148709419de8E, 305
_ZN5rayon4iter16ParallelIterator5chain17h548cf6391adff75dE, 306
_ZN55_$LT$T$u20$as$u20$rayon..iter..IntoParallelIterator$GT$13into_par_iter17h1a326d484793e1e9E, 307
_ZN5rayon4iter16ParallelIterator5chain17h56dfa0f0787f424aE, 308
_ZN55_$LT$T$u20$as$u20$rayon..iter..IntoParallelIterator$GT$13into_par_iter17h9c089206f12d8d88E, 309
_ZN5rayon4iter16ParallelIterator5chain17h78283a4b9f3d12c5E, 310
_ZN55_$LT$T$u20$as$u20$rayon..iter..IntoParallelIterator$GT$13into_par_iter17h1cd083ffcffc57a7E, 311
_ZN5rayon4iter16ParallelIterator5chain17h79c19857d9422894E, 312
_ZN55_$LT$T$u20$as$u20$rayon..iter..IntoParallelIterator$GT$13into_par_iter17h5ebc6f29721511a1E, 313
_ZN5rayon4iter16ParallelIterator5chain17h867bdfef72244233E, 314
_ZN55_$LT$T$u20$as$u20$rayon..iter..IntoParallelIterator$GT$13into_par_iter17hdf7d59211a9ec8daE, 315
_ZN5rayon4iter16ParallelIterator5chain17h909584db5c1a24ddE, 316
_ZN55_$LT$T$u20$as$u20$rayon..iter..IntoParallelIterator$GT$13into_par_iter17hf15332001785b6aaE, 317
_ZN5rayon4iter16ParallelIterator5chain17he163e52a77d1ed09E, 318
_ZN55_$LT$T$u20$as$u20$rayon..iter..IntoParallelIterator$GT$13into_par_iter17hf61d3076101d0c61E, 319
_ZN5rayon4iter16ParallelIterator5chain17he9110c3c8ad06bc4E, 320
_ZN55_$LT$T$u20$as$u20$rayon..iter..IntoParallelIterator$GT$13into_par_iter17h677bfc49c2440d36E, 321
_ZN5rayon4iter16ParallelIterator5chain17hef512cc27f78ad80E, 322
_ZN55_$LT$T$u20$as$u20$rayon..iter..IntoParallelIterator$GT$13into_par_iter17h743d480c39aa155dE, 323
_ZN5rayon5range96_$LT$impl$u20$rayon..iter..IntoParallelIterator$u20$for$u20$core..ops..range..Range$LT$T$GT$$GT$13into_par_iter17h02aa51528b6e6fd9E, 324
_ZN5rayon5range96_$LT$impl$u20$rayon..iter..IntoParallelIterator$u20$for$u20$core..ops..range..Range$LT$T$GT$$GT$13into_par_iter17h167bfb4a0e17f163E, 325
_ZN5rayon5range96_$LT$impl$u20$rayon..iter..IntoParallelIterator$u20$for$u20$core..ops..range..Range$LT$T$GT$$GT$13into_par_iter17h1d588ce11201a278E, 326
_ZN5rayon5range96_$LT$impl$u20$rayon..iter..IntoParallelIterator$u20$for$u20$core..ops..range..Range$LT$T$GT$$GT$13into_par_iter17h354b51aac47e0d5cE, 327
_ZN5rayon5range96_$LT$impl$u20$rayon..iter..IntoParallelIterator$u20$for$u20$core..ops..range..Range$LT$T$GT$$GT$13into_par_iter17h3f14b5a7d5ba318aE, 328
_ZN5rayon5range96_$LT$impl$u20$rayon..iter..IntoParallelIterator$u20$for$u20$core..ops..range..Range$LT$T$GT$$GT$13into_par_iter17h46aea00d2762fd3dE, 329
_ZN5rayon5range96_$LT$impl$u20$rayon..iter..IntoParallelIterator$u20$for$u20$core..ops..range..Range$LT$T$GT$$GT$13into_par_iter17h8e53bd1ecc631d55E, 330
_ZN5rayon5range96_$LT$impl$u20$rayon..iter..IntoParallelIterator$u20$for$u20$core..ops..range..Range$LT$T$GT$$GT$13into_par_iter17h91f7a0e5093ca7aeE, 331
_ZN5rayon5range96_$LT$impl$u20$rayon..iter..IntoParallelIterator$u20$for$u20$core..ops..range..Range$LT$T$GT$$GT$13into_par_iter17hbe10b1c0ff7f68d3E, 332
_ZN5rayon5range96_$LT$impl$u20$rayon..iter..IntoParallelIterator$u20$for$u20$core..ops..range..Range$LT$T$GT$$GT$13into_par_iter17hcd9b66e16ab23858E, 333
_ZN5rayon5range96_$LT$impl$u20$rayon..iter..IntoParallelIterator$u20$for$u20$core..ops..range..Range$LT$T$GT$$GT$13into_par_iter17hd1135e483d593dd7E, 334
_ZN5rayon5range96_$LT$impl$u20$rayon..iter..IntoParallelIterator$u20$for$u20$core..ops..range..Range$LT$T$GT$$GT$13into_par_iter17hfecd6b604f350fb9E, 335
_ZN80_$LT$rayon..range..Iter$LT$char$GT$$u20$as$u20$rayon..iter..ParallelIterator$GT$7opt_len17h273aa98f5d4208d4E, 336
_ZN87_$LT$rayon..range..Iter$LT$char$GT$$u20$as$u20$rayon..iter..IndexedParallelIterator$GT$3len17hb00169c7f1f8709bE, 337
_ZN5rayon15range_inclusive13Iter$LT$T$GT$6bounds17h06c37c7c99bab4a3E, 338
_ZN4core3cmp5impls55_$LT$impl$u20$core..cmp..PartialOrd$u20$for$u20$i32$GT$2le17hc9201cf151ec165cE, 339
_ZN5rayon15range_inclusive13Iter$LT$T$GT$6bounds17h1bd77ab698e00699E, 340
_ZN4core3cmp5impls57_$LT$impl$u20$core..cmp..PartialOrd$u20$for$u20$isize$GT$2le17hbacae0d3206afa7fE, 341
_ZN5rayon15range_inclusive13Iter$LT$T$GT$6bounds17h1cd66f49a5cde64bE, 342
_ZN5rayon15range_inclusive13Iter$LT$T$GT$6bounds17h303db045716fd7ffE, 343
_ZN4core3cmp5impls56_$LT$impl$u20$core..cmp..PartialOrd$u20$for$u20$i128$GT$2le17hba66b48450f3b133E, 344
_ZN5rayon15range_inclusive13Iter$LT$T$GT$6bounds17h48bab830a32a9a9eE, 345
_ZN5rayon15range_inclusive13Iter$LT$T$GT$6bounds17h6b58cd0ee365eab3E, 346
_ZN4core3cmp5impls55_$LT$impl$u20$core..cmp..PartialOrd$u20$for$u20$u32$GT$2le17hb2070dac3a255adfE, 347
_ZN5rayon15range_inclusive13Iter$LT$T$GT$6bounds17h77fbf2ee5d0e31b5E, 348
_ZN5rayon15range_inclusive13Iter$LT$T$GT$6bounds17ha00114883d56b13dE, 349
_ZN4core3cmp5impls55_$LT$impl$u20$core..cmp..PartialOrd$u20$for$u20$i64$GT$2le17h29e9272d45b6ebcbE, 350
_ZN5rayon15range_inclusive13Iter$LT$T$GT$6bounds17ha9c9897f60a0de35E, 351
_ZN4core3cmp5impls57_$LT$impl$u20$core..cmp..PartialOrd$u20$for$u20$usize$GT$2le17h5ea5245274e27590E, 352
_ZN5rayon15range_inclusive13Iter$LT$T$GT$6bounds17hb3887430395a29e4E, 353
_ZN4core3cmp5impls55_$LT$impl$u20$core..cmp..PartialOrd$u20$for$u20$u64$GT$2le17h3f630150ea7d2527E, 354
_ZN5rayon15range_inclusive13Iter$LT$T$GT$6bounds17hd17ace8ec6b17bf4E, 355
_ZN4core3cmp5impls56_$LT$impl$u20$core..cmp..PartialOrd$u20$for$u20$u128$GT$2le17hcc9e8fc1898e4633E, 356
_ZN5rayon15range_inclusive13Iter$LT$T$GT$6bounds17hd238c0d738e6ca76E, 357
_ZN5rayon15range_inclusive13Iter$LT$T$GT$6bounds17hf84b1b7d8f5cb5c2E, 358
_ZN4core3cmp5impls56_$LT$impl$u20$core..cmp..PartialOrd$u20$for$u20$char$GT$2le17h9b67fe9182843a46E, 359
_ZN90_$LT$rayon..range_inclusive..Iter$LT$char$GT$$u20$as$u20$rayon..iter..ParallelIterator$GT$7opt_len17hde5480185d38bbdaE, 360
_ZN97_$LT$rayon..range_inclusive..Iter$LT$char$GT$$u20$as$u20$rayon..iter..IndexedParallelIterator$GT$3len17hc035b5896395fcc4E, 361
_ZN86_$LT$rayon..str..CharsProducer$u20$as$u20$rayon..iter..plumbing..UnindexedProducer$GT$5split17h87ac503afd79468dE, 362
_ZN5rayon3str5split17h594e6328e84dd990E, 363
_ZN5rayon3str18find_char_midpoint17h68abba9dfad0848eE, 364
_ZN4core3str21_$LT$impl$u20$str$GT$8split_at17h877de48dd4035a29E, 365
_ZN92_$LT$rayon..str..CharIndicesProducer$u20$as$u20$rayon..iter..plumbing..UnindexedProducer$GT$5split17h97b75b2d3d8354ffE, 366
_ZN86_$LT$rayon..str..BytesProducer$u20$as$u20$rayon..iter..plumbing..UnindexedProducer$GT$5split17h72c76ce4fa6e4a12E, 367
_ZN92_$LT$rayon..str..EncodeUtf16Producer$u20$as$u20$rayon..iter..plumbing..UnindexedProducer$GT$5split17h9dc176778ca451cfE, 368
_ZN62_$LT$rayon..string..Drain$u20$as$u20$core..ops..drop..Drop$GT$4drop17h6cabd0272cd1c08dE, 369
_ZN5rayon5range75_$LT$impl$u20$rayon..range..private..IndexedRangeInteger$u20$for$u20$u8$GT$3len17h86d2503b385d2884E, 370
_ZN88_$LT$rayon..range..IterProducer$LT$u8$GT$$u20$as$u20$rayon..iter..plumbing..Producer$GT$9into_iter17h1c587cb307329021E, 371
_ZN88_$LT$rayon..range..IterProducer$LT$u8$GT$$u20$as$u20$rayon..iter..plumbing..Producer$GT$8split_at17hd607ed0e0cc8cdd9E, 372
_ZN5rayon5range68_$LT$impl$u20$rayon..range..private..RangeInteger$u20$for$u20$u8$GT$17__rayon_private__17h4cbe721bea90e6b9E, 373
_ZN5rayon5range75_$LT$impl$u20$rayon..range..private..IndexedRangeInteger$u20$for$u20$u8$GT$17__rayon_private__17h622f79c110d10bb5E, 374
_ZN5rayon5range76_$LT$impl$u20$rayon..range..private..IndexedRangeInteger$u20$for$u20$u16$GT$3len17h2bbf7fb316453eafE, 375
_ZN89_$LT$rayon..range..IterProducer$LT$u16$GT$$u20$as$u20$rayon..iter..plumbing..Producer$GT$9into_iter17h3c904a1997c25af4E, 376
_ZN89_$LT$rayon..range..IterProducer$LT$u16$GT$$u20$as$u20$rayon..iter..plumbing..Producer$GT$8split_at17h430f7170fece4b47E, 377
_ZN5rayon5range69_$LT$impl$u20$rayon..range..private..RangeInteger$u20$for$u20$u16$GT$17__rayon_private__17h6f384d374424a9ebE, 378
_ZN5rayon5range76_$LT$impl$u20$rayon..range..private..IndexedRangeInteger$u20$for$u20$u16$GT$17__rayon_private__17hf16c8ade1ab93f8bE, 379
_ZN5rayon5range76_$LT$impl$u20$rayon..range..private..IndexedRangeInteger$u20$for$u20$u32$GT$3len17ha2e50b35a4cede3eE, 380
_ZN89_$LT$rayon..range..IterProducer$LT$u32$GT$$u20$as$u20$rayon..iter..plumbing..Producer$GT$9into_iter17h8d93899f7628ba03E, 381
_ZN89_$LT$rayon..range..IterProducer$LT$u32$GT$$u20$as$u20$rayon..iter..plumbing..Producer$GT$8split_at17hd6bfd53b94f28ec2E, 382
_ZN5rayon5range69_$LT$impl$u20$rayon..range..private..RangeInteger$u20$for$u20$u32$GT$17__rayon_private__17h6af77bcf1869b081E, 383
_ZN5rayon5range76_$LT$impl$u20$rayon..range..private..IndexedRangeInteger$u20$for$u20$u32$GT$17__rayon_private__17h1e20f526f2bb364bE, 384
_ZN5rayon5range78_$LT$impl$u20$rayon..range..private..IndexedRangeInteger$u20$for$u20$usize$GT$3len17h1753314f1ed99337E, 385
_ZN91_$LT$rayon..range..IterProducer$LT$usize$GT$$u20$as$u20$rayon..iter..plumbing..Producer$GT$9into_iter17h25209d3fde74b554E, 386
_ZN91_$LT$rayon..range..IterProducer$LT$usize$GT$$u20$as$u20$rayon..iter..plumbing..Producer$GT$8split_at17ha2baf7fe973b0569E, 387
_ZN5rayon5range71_$LT$impl$u20$rayon..range..private..RangeInteger$u20$for$u20$usize$GT$17__rayon_private__17hd8423b1ba89767eeE, 388
_ZN5rayon5range78_$LT$impl$u20$rayon..range..private..IndexedRangeInteger$u20$for$u20$usize$GT$17__rayon_private__17h5ad51ea7f2471a4dE, 389
_ZN5rayon5range75_$LT$impl$u20$rayon..range..private..IndexedRangeInteger$u20$for$u20$i8$GT$3len17hb7ff682ee0d3060fE, 390
_ZN88_$LT$rayon..range..IterProducer$LT$i8$GT$$u20$as$u20$rayon..iter..plumbing..Producer$GT$9into_iter17h2bb1188b1a901dd9E, 391
_ZN88_$LT$rayon..range..IterProducer$LT$i8$GT$$u20$as$u20$rayon..iter..plumbing..Producer$GT$8split_at17hb4585db8fd3db8baE, 392
_ZN5rayon5range68_$LT$impl$u20$rayon..range..private..RangeInteger$u20$for$u20$i8$GT$17__rayon_private__17hc3b30bc9b5892277E, 393
_ZN5rayon5range75_$LT$impl$u20$rayon..range..private..IndexedRangeInteger$u20$for$u20$i8$GT$17__rayon_private__17hcd9aee18c5b4318aE, 394
_ZN5rayon5range76_$LT$impl$u20$rayon..range..private..IndexedRangeInteger$u20$for$u20$i16$GT$3len17hcac6bf5f85ffa4bbE, 395
_ZN89_$LT$rayon..range..IterProducer$LT$i16$GT$$u20$as$u20$rayon..iter..plumbing..Producer$GT$9into_iter17h7ac14a5d8585715cE, 396
_ZN89_$LT$rayon..range..IterProducer$LT$i16$GT$$u20$as$u20$rayon..iter..plumbing..Producer$GT$8split_at17hb0e4cc6f3afdab35E, 397
_ZN5rayon5range69_$LT$impl$u20$rayon..range..private..RangeInteger$u20$for$u20$i16$GT$17__rayon_private__17hd81ebe30bfebdaf0E, 398
_ZN5rayon5range76_$LT$impl$u20$rayon..range..private..IndexedRangeInteger$u20$for$u20$i16$GT$17__rayon_private__17h6c1a153283ded5ccE, 399
_ZN5rayon5range76_$LT$impl$u20$rayon..range..private..IndexedRangeInteger$u20$for$u20$i32$GT$3len17hf53e949c2c286365E, 400
_ZN89_$LT$rayon..range..IterProducer$LT$i32$GT$$u20$as$u20$rayon..iter..plumbing..Producer$GT$9into_iter17hcc287990d8268837E, 401
_ZN89_$LT$rayon..range..IterProducer$LT$i32$GT$$u20$as$u20$rayon..iter..plumbing..Producer$GT$8split_at17ha32683118c28c782E, 402
_ZN5rayon5range69_$LT$impl$u20$rayon..range..private..RangeInteger$u20$for$u20$i32$GT$17__rayon_private__17h2779cefa4d0108faE, 403
_ZN5rayon5range76_$LT$impl$u20$rayon..range..private..IndexedRangeInteger$u20$for$u20$i32$GT$17__rayon_private__17h22ae47e9dc13904bE, 404
_ZN5rayon5range78_$LT$impl$u20$rayon..range..private..IndexedRangeInteger$u20$for$u20$isize$GT$3len17h108e526ebd265728E, 405
_ZN91_$LT$rayon..range..IterProducer$LT$isize$GT$$u20$as$u20$rayon..iter..plumbing..Producer$GT$9into_iter17h813affd871f008edE, 406
_ZN91_$LT$rayon..range..IterProducer$LT$isize$GT$$u20$as$u20$rayon..iter..plumbing..Producer$GT$8split_at17he3e12b6409be4d15E, 407
_ZN5rayon5range71_$LT$impl$u20$rayon..range..private..RangeInteger$u20$for$u20$isize$GT$17__rayon_private__17ha9ab8e2f0252a0d8E, 408
_ZN5rayon5range78_$LT$impl$u20$rayon..range..private..IndexedRangeInteger$u20$for$u20$isize$GT$17__rayon_private__17h1d664e8c2ea66a02E, 409
_ZN98_$LT$rayon..range..IterProducer$LT$u64$GT$$u20$as$u20$rayon..iter..plumbing..UnindexedProducer$GT$5split17ha89c101773bb1cfdE, 410
_ZN5rayon5range69_$LT$impl$u20$rayon..range..private..RangeInteger$u20$for$u20$u64$GT$17__rayon_private__17h8ed386f65afc4fdbE, 411
_ZN98_$LT$rayon..range..IterProducer$LT$i64$GT$$u20$as$u20$rayon..iter..plumbing..UnindexedProducer$GT$5split17h714720266e611e95E, 412
_ZN5rayon5range69_$LT$impl$u20$rayon..range..private..RangeInteger$u20$for$u20$i64$GT$17__rayon_private__17h708d7c7c9b78f165E, 413
_ZN99_$LT$rayon..range..IterProducer$LT$u128$GT$$u20$as$u20$rayon..iter..plumbing..UnindexedProducer$GT$5split17h94f38a47c86cb63eE, 414
_ZN5rayon5range70_$LT$impl$u20$rayon..range..private..RangeInteger$u20$for$u20$u128$GT$17__rayon_private__17h2727b9b93f0672afE, 415
_ZN99_$LT$rayon..range..IterProducer$LT$i128$GT$$u20$as$u20$rayon..iter..plumbing..UnindexedProducer$GT$5split17h6e861ceca73b77a5E, 416
_ZN5rayon5range70_$LT$impl$u20$rayon..range..private..RangeInteger$u20$for$u20$i128$GT$17__rayon_private__17h64a63f54b6e3d594E, 417
_ZN5rayon15range_inclusive85_$LT$impl$u20$rayon..range_inclusive..private..IndexedRangeInteger$u20$for$u20$u8$GT$3len17hda153fe7d8bdc76cE, 418
_ZN5rayon15range_inclusive78_$LT$impl$u20$rayon..range_inclusive..private..RangeInteger$u20$for$u20$u8$GT$7opt_len17hc8f1b969fb10b116E, 419
_ZN4core3num20_$LT$impl$u20$u8$GT$11checked_add17hdfb282e164ebac81E, 420
_ZN5rayon15range_inclusive78_$LT$impl$u20$rayon..range_inclusive..private..RangeInteger$u20$for$u20$u8$GT$17__rayon_private__17h983d912a8c092888E, 421
_ZN5rayon15range_inclusive85_$LT$impl$u20$rayon..range_inclusive..private..IndexedRangeInteger$u20$for$u20$u8$GT$17__rayon_private__17hfd19d6d23d24f575E, 422
_ZN5rayon15range_inclusive86_$LT$impl$u20$rayon..range_inclusive..private..IndexedRangeInteger$u20$for$u20$u16$GT$3len17h2e8bf1402ba1c3c7E, 423
_ZN5rayon15range_inclusive79_$LT$impl$u20$rayon..range_inclusive..private..RangeInteger$u20$for$u20$u16$GT$7opt_len17h8b44a2105b9fdc2eE, 424
_ZN4core3num21_$LT$impl$u20$u16$GT$11checked_add17h733f07ed6f305237E, 425
_ZN5rayon15range_inclusive79_$LT$impl$u20$rayon..range_inclusive..private..RangeInteger$u20$for$u20$u16$GT$17__rayon_private__17ha288ee8e0e683fd8E, 426
_ZN5rayon15range_inclusive86_$LT$impl$u20$rayon..range_inclusive..private..IndexedRangeInteger$u20$for$u20$u16$GT$17__rayon_private__17h312caef8936dfe03E, 427
_ZN5rayon15range_inclusive85_$LT$impl$u20$rayon..range_inclusive..private..IndexedRangeInteger$u20$for$u20$i8$GT$3len17hcc5ca54551edf425E, 428
_ZN5rayon15range_inclusive78_$LT$impl$u20$rayon..range_inclusive..private..RangeInteger$u20$for$u20$i8$GT$7opt_len17h87ab2366a978c0d7E, 429
_ZN4core3num20_$LT$impl$u20$i8$GT$11checked_add17h8e599880d4bb7bb2E, 430
_ZN5rayon15range_inclusive78_$LT$impl$u20$rayon..range_inclusive..private..RangeInteger$u20$for$u20$i8$GT$17__rayon_private__17h51685d17602c9ee6E, 431
_ZN5rayon15range_inclusive85_$LT$impl$u20$rayon..range_inclusive..private..IndexedRangeInteger$u20$for$u20$i8$GT$17__rayon_private__17h566eb0b05696bf89E, 432
_ZN5rayon15range_inclusive86_$LT$impl$u20$rayon..range_inclusive..private..IndexedRangeInteger$u20$for$u20$i16$GT$3len17h222032975dc62944E, 433
_ZN5rayon15range_inclusive79_$LT$impl$u20$rayon..range_inclusive..private..RangeInteger$u20$for$u20$i16$GT$7opt_len17hd5f90dc76555b5baE, 434
_ZN4core3num21_$LT$impl$u20$i16$GT$11checked_add17h5d362c0c91142f00E, 435
_ZN5rayon15range_inclusive79_$LT$impl$u20$rayon..range_inclusive..private..RangeInteger$u20$for$u20$i16$GT$17__rayon_private__17hb743db02d0ed453bE, 436
_ZN5rayon15range_inclusive86_$LT$impl$u20$rayon..range_inclusive..private..IndexedRangeInteger$u20$for$u20$i16$GT$17__rayon_private__17h52964b870aab04faE, 437
_ZN5rayon15range_inclusive81_$LT$impl$u20$rayon..range_inclusive..private..RangeInteger$u20$for$u20$usize$GT$7opt_len17hcbfcd02b785220b9E, 438
_ZN5rayon15range_inclusive81_$LT$impl$u20$rayon..range_inclusive..private..RangeInteger$u20$for$u20$usize$GT$17__rayon_private__17h5318fe6fbed60849E, 439
_ZN5rayon15range_inclusive81_$LT$impl$u20$rayon..range_inclusive..private..RangeInteger$u20$for$u20$isize$GT$7opt_len17haca825eb31859450E, 440
_ZN4core3num23_$LT$impl$u20$isize$GT$11checked_add17h5cf74f002637740eE, 441
_ZN5rayon15range_inclusive81_$LT$impl$u20$rayon..range_inclusive..private..RangeInteger$u20$for$u20$isize$GT$17__rayon_private__17h843bb30e3d8e9c91E, 442
_ZN5rayon15range_inclusive79_$LT$impl$u20$rayon..range_inclusive..private..RangeInteger$u20$for$u20$u32$GT$7opt_len17h758c64f90fa01a4bE, 443
_ZN4core3num21_$LT$impl$u20$u32$GT$11checked_add17hcd9635224b3969ddE, 444
_ZN5rayon15range_inclusive79_$LT$impl$u20$rayon..range_inclusive..private..RangeInteger$u20$for$u20$u32$GT$17__rayon_private__17haf7437f02bb20798E, 445
_ZN5rayon15range_inclusive79_$LT$impl$u20$rayon..range_inclusive..private..RangeInteger$u20$for$u20$i32$GT$7opt_len17h108675762ea21ca1E, 446
_ZN4core3num21_$LT$impl$u20$i32$GT$11checked_add17h3726c7d411297ddeE, 447
_ZN5rayon15range_inclusive79_$LT$impl$u20$rayon..range_inclusive..private..RangeInteger$u20$for$u20$i32$GT$17__rayon_private__17h7e05e700daef16cfE, 448
_ZN5rayon15range_inclusive79_$LT$impl$u20$rayon..range_inclusive..private..RangeInteger$u20$for$u20$u64$GT$7opt_len17h79795b8de7b04224E, 449
_ZN4core3num21_$LT$impl$u20$u64$GT$11checked_add17hc064a4b02b066e8aE, 450
_ZN5rayon15range_inclusive79_$LT$impl$u20$rayon..range_inclusive..private..RangeInteger$u20$for$u20$u64$GT$17__rayon_private__17h75634bfc2b0aaafeE, 451
_ZN5rayon15range_inclusive79_$LT$impl$u20$rayon..range_inclusive..private..RangeInteger$u20$for$u20$i64$GT$7opt_len17h84adb9bd67517afdE, 452
_ZN4core3num21_$LT$impl$u20$i64$GT$11checked_add17h42043be930a9582bE, 453
_ZN5rayon15range_inclusive79_$LT$impl$u20$rayon..range_inclusive..private..RangeInteger$u20$for$u20$i64$GT$17__rayon_private__17haa7be548158a2945E, 454
_ZN5rayon15range_inclusive80_$LT$impl$u20$rayon..range_inclusive..private..RangeInteger$u20$for$u20$u128$GT$7opt_len17h253acc2172167c81E, 455
_ZN4core3num22_$LT$impl$u20$u128$GT$11checked_add17h63945fa31aca505bE, 456
_ZN5rayon15range_inclusive80_$LT$impl$u20$rayon..range_inclusive..private..RangeInteger$u20$for$u20$u128$GT$17__rayon_private__17h14d12cde129e7bacE, 457
_ZN5rayon15range_inclusive80_$LT$impl$u20$rayon..range_inclusive..private..RangeInteger$u20$for$u20$i128$GT$7opt_len17hc94350136d814ea6E, 458
_ZN4core3num22_$LT$impl$u20$i128$GT$11checked_add17hf9e408ce1f951494E, 459
_ZN5rayon15range_inclusive80_$LT$impl$u20$rayon..range_inclusive..private..RangeInteger$u20$for$u20$i128$GT$17__rayon_private__17ha75b7043b79019e3E, 460
_ZN5rayon3str63_$LT$impl$u20$rayon..str..private..Pattern$u20$for$u20$char$GT$17__rayon_private__17h0fc9bae6cbfa74cbE, 461
_ZN54_$LT$rayon..str..Chars$u20$as$u20$core..fmt..Debug$GT$3fmt17h81f2f3228a7fdb70E, 462
_ZN4core3ptr32drop_in_place$LT$$RF$$RF$str$GT$17h93131cc29b60d857E, 463
_ZN60_$LT$rayon..str..CharIndices$u20$as$u20$core..fmt..Debug$GT$3fmt17h49847cdedb80dd59E, 464
_ZN54_$LT$rayon..str..Bytes$u20$as$u20$core..fmt..Debug$GT$3fmt17h9d8845767ee623a0E, 465
_ZN60_$LT$rayon..str..EncodeUtf16$u20$as$u20$core..fmt..Debug$GT$3fmt17he890f5b42b4cf484E, 466
_ZN54_$LT$rayon..str..Lines$u20$as$u20$core..fmt..Debug$GT$3fmt17hbe1c9f46b505c462E, 467
_ZN64_$LT$rayon..str..SplitWhitespace$u20$as$u20$core..fmt..Debug$GT$3fmt17h7095dfa4f7d833eaE, 468
_ZN57_$LT$rayon..string..Drain$u20$as$u20$core..fmt..Debug$GT$3fmt17h59e8587d59bfcdbdE, 469
_ZN4core3ptr61drop_in_place$LT$$RF$core..ops..range..Range$LT$usize$GT$$GT$17hb9be20981a29a6a1E, 470
_ZN4core3ptr58drop_in_place$LT$$RF$$RF$mut$u20$alloc..string..String$GT$17ha046754b3ff33ac6E, 471
_ZN102_$LT$core..iter..adapters..map..Map$LT$I$C$F$GT$$u20$as$u20$core..iter..traits..iterator..Iterator$GT$4next17h011caaf499409267E, 472
_ZN102_$LT$core..iter..adapters..map..Map$LT$I$C$F$GT$$u20$as$u20$core..iter..traits..iterator..Iterator$GT$4next17h45296beb6c91f199E, 473
_ZN4core6option15Option$LT$T$GT$3map17h43a49d21fb3682d9E, 474
_ZN4core3ops8function5impls80_$LT$impl$u20$core..ops..function..FnOnce$LT$A$GT$$u20$for$u20$$RF$mut$u20$F$GT$9call_once17h94c04a6d76ff570bE, 475
_ZN4core3ops8function5FnMut8call_mut17h4a44eec63fa1ffa8E, 476
_ZN4core7convert3num64_$LT$impl$u20$core..convert..From$LT$u32$GT$$u20$for$u20$u64$GT$4from17h4195633bdfbba85cE, 477
_ZN81_$LT$core..str..iter..Chars$u20$as$u20$core..iter..traits..iterator..Iterator$GT$4next17h7d8e5a0e57c288a4E, 478
_ZN4core6option15Option$LT$T$GT$3map17h8c09e35ce42a9535E, 479
_ZN4core3ops8function5impls80_$LT$impl$u20$core..ops..function..FnOnce$LT$A$GT$$u20$for$u20$$RF$mut$u20$F$GT$9call_once17h74543cf9d4f47bafE, 480
_ZN4core3ops8function5FnMut8call_mut17h868f029257700d37E, 481
_ZN4core4char7convert65_$LT$impl$u20$core..convert..From$LT$char$GT$$u20$for$u20$u32$GT$4from17hda053024870d7b68E, 482
_ZN4core3str11validations15next_code_point17he2f8000b4264b0c5E, 483
_ZN4core6option15Option$LT$T$GT$3map17h06f689a8fde96124E, 484
_ZN81_$LT$core..str..iter..Chars$u20$as$u20$core..iter..traits..iterator..Iterator$GT$4next28_$u7b$$u7b$closure$u7d$$u7d$17hc36b9e0a8cc5941dE, 485
_ZN4core4char7convert18from_u32_unchecked17hd47fa8a8e9863eafE, 486
_ZN84_$LT$core..option..Option$LT$T$GT$$u20$as$u20$core..ops..try_trait..FromResidual$GT$13from_residual17h6ffe99e715c36c08E, 487
_ZN4core3str11validations15utf8_first_byte17h6a853819964afbfeE, 488
_ZN4core3str11validations11unwrap_or_017h0a72b1734922de80E, 489
_ZN4core3str11validations18utf8_acc_cont_byte17h0a932b46c7e8e1a6E, 490
_ZN102_$LT$core..iter..adapters..map..Map$LT$I$C$F$GT$$u20$as$u20$core..iter..traits..iterator..Iterator$GT$9size_hint17h4e71657057332222E, 491
_ZN102_$LT$core..iter..adapters..map..Map$LT$I$C$F$GT$$u20$as$u20$core..iter..traits..iterator..Iterator$GT$9size_hint17h8a4ec8c927d56650E, 492
_ZN81_$LT$core..str..iter..Chars$u20$as$u20$core..iter..traits..iterator..Iterator$GT$9size_hint17h3bf3d840b57e4af3E, 493
_ZN103_$LT$alloc..vec..into_iter..IntoIter$LT$T$C$A$GT$$u20$as$u20$core..iter..traits..iterator..Iterator$GT$4next17h7a8a101ea2a3205dE, 494
_ZN4core3ptr4read17h8a91a7221f6052dcE, 495
_ZN4core3mem12maybe_uninit20MaybeUninit$LT$T$GT$6zeroed17h15a593ecd3110e78E, 496
_ZN4core10intrinsics11write_bytes17h8efbf34b58911a40E, 497
_ZN4core10intrinsics19copy_nonoverlapping17hacc04bd01f232352E, 498
_ZN103_$LT$alloc..vec..into_iter..IntoIter$LT$T$C$A$GT$$u20$as$u20$core..iter..traits..iterator..Iterator$GT$9size_hint17h4a7e195efd68d654E, 499
_ZN4core3ptr9const_ptr33_$LT$impl$u20$$BP$const$u20$T$GT$11offset_from17h2a1e1fed0506b95aE, 500
_ZN106_$LT$core..ops..range..Range$LT$usize$GT$$u20$as$u20$core..slice..index..SliceIndex$LT$$u5b$T$u5d$$GT$$GT$17get_unchecked_mut17h20d4ec4aaf10429eE, 501
_ZN4core3ptr24slice_from_raw_parts_mut17h018924905af70909E, 502
_ZN4core3ptr8metadata18from_raw_parts_mut17hd4f935e17d3c77bcE, 503
_ZN106_$LT$core..ops..range..Range$LT$usize$GT$$u20$as$u20$core..slice..index..SliceIndex$LT$$u5b$T$u5d$$GT$$GT$17get_unchecked_mut17hde9732683335add7E, 504
_ZN4core3ptr24slice_from_raw_parts_mut17hf790510d241511a1E, 505
_ZN4core3ptr8metadata18from_raw_parts_mut17h685bb251b2eef222E, 506
_ZN106_$LT$core..ops..range..Range$LT$usize$GT$$u20$as$u20$core..slice..index..SliceIndex$LT$$u5b$T$u5d$$GT$$GT$17get_unchecked_mut17he5a21fc01c359366E, 507
_ZN4core3ptr24slice_from_raw_parts_mut17he915d9acca0aa175E, 508
_ZN4core3ptr8metadata18from_raw_parts_mut17h89ad245070c7109cE, 509
_ZN106_$LT$core..ops..range..Range$LT$usize$GT$$u20$as$u20$core..slice..index..SliceIndex$LT$$u5b$T$u5d$$GT$$GT$17get_unchecked_mut17hfa90886fa39e0452E, 510
_ZN4core3ptr24slice_from_raw_parts_mut17h179b7ab6ee9177f1E, 511
_ZN4core3ptr8metadata18from_raw_parts_mut17hf2633d5b2d85b379E, 512
_ZN110_$LT$core..ops..range..RangeFrom$LT$usize$GT$$u20$as$u20$core..slice..index..SliceIndex$LT$$u5b$T$u5d$$GT$$GT$17get_unchecked_mut17h143a208aaa712044E, 513
_ZN4core3ptr8metadata8metadata17h29d57a2611c7e625E, 514
_ZN110_$LT$core..ops..range..RangeFrom$LT$usize$GT$$u20$as$u20$core..slice..index..SliceIndex$LT$$u5b$T$u5d$$GT$$GT$17get_unchecked_mut17h189ddc4a7bfe1360E, 515
_ZN4core3ptr8metadata8metadata17hb152c0d5efe5288aE, 516
_ZN110_$LT$core..ops..range..RangeFrom$LT$usize$GT$$u20$as$u20$core..slice..index..SliceIndex$LT$$u5b$T$u5d$$GT$$GT$17get_unchecked_mut17h3f2dbd87ff282c77E, 517
_ZN4core3ptr8metadata8metadata17h5d95cf4dffd2da1aE, 518
_ZN110_$LT$core..ops..range..RangeFrom$LT$usize$GT$$u20$as$u20$core..slice..index..SliceIndex$LT$$u5b$T$u5d$$GT$$GT$17get_unchecked_mut17h4abef62243c7afefE, 519
_ZN4core3ptr8metadata8metadata17h7224909e9fca362fE, 520
_ZN110_$LT$core..ops..range..RangeFrom$LT$usize$GT$$u20$as$u20$core..slice..index..SliceIndex$LT$$u5b$T$u5d$$GT$$GT$17get_unchecked_mut17h99d111e6bbe74bc7E, 521
_ZN4core3ptr8metadata8metadata17hd0f5fc10e97e4d04E, 522
_ZN110_$LT$core..ops..range..RangeFrom$LT$usize$GT$$u20$as$u20$core..slice..index..SliceIndex$LT$$u5b$T$u5d$$GT$$GT$9index_mut17h13dd2921201ae0e7E, 523
_ZN110_$LT$core..ops..range..RangeFrom$LT$usize$GT$$u20$as$u20$core..slice..index..SliceIndex$LT$$u5b$T$u5d$$GT$$GT$9index_mut17h8fab5ce258da9ae6E, 524
_ZN110_$LT$core..ops..range..RangeFrom$LT$usize$GT$$u20$as$u20$core..slice..index..SliceIndex$LT$$u5b$T$u5d$$GT$$GT$9index_mut17hb3e40ad907bdadf9E, 525
_ZN4core5slice29_$LT$impl$u20$$u5b$T$u5d$$GT$3len17h94b6c627cab7b95dE, 526
_ZN110_$LT$core..ops..range..RangeFrom$LT$usize$GT$$u20$as$u20$core..slice..index..SliceIndex$LT$$u5b$T$u5d$$GT$$GT$9index_mut17hbeeccf71fe57c03cE, 527
_ZN4core5slice29_$LT$impl$u20$$u5b$T$u5d$$GT$3len17h56e3cf12f125e384E, 528
_ZN110_$LT$core..ops..range..RangeFrom$LT$usize$GT$$u20$as$u20$core..slice..index..SliceIndex$LT$$u5b$T$u5d$$GT$$GT$9index_mut17hdea00cda4cc4c42aE, 529
_ZN4core5slice29_$LT$impl$u20$$u5b$T$u5d$$GT$3len17he9e2dae24f5227b0E, 530
_ZN111_$LT$alloc..vec..Vec$LT$T$GT$$u20$as$u20$alloc..vec..spec_from_iter_nested..SpecFromIterNested$LT$T$C$I$GT$$GT$9from_iter17h46b7109ff27caba5E, 531
_ZN5alloc3vec12Vec$LT$T$GT$3new17h708767e3c8c25bedE, 532
_ZN5alloc3vec12Vec$LT$T$GT$13with_capacity17hef71cef13bcb29baE, 533
_ZN5alloc3vec16Vec$LT$T$C$A$GT$10as_mut_ptr17h7d3cfb3dd5b815a3E, 534
_ZN5alloc3vec16Vec$LT$T$C$A$GT$7set_len17hc82dc08bdf71d2f6E, 535
_ZN97_$LT$alloc..vec..Vec$LT$T$C$A$GT$$u20$as$u20$alloc..vec..spec_extend..SpecExtend$LT$T$C$I$GT$$GT$11spec_extend17h9afaa3953b9bd3d2E, 536
_ZN5alloc3vec16Vec$LT$T$C$A$GT$16extend_desugared17h67442d9f54f03055E, 537
_ZN5alloc3vec16Vec$LT$T$C$A$GT$3len17h66cc8b6abed125e2E, 538
_ZN5alloc3vec16Vec$LT$T$C$A$GT$8capacity17h51d1d82bde4864b4E, 539
_ZN5alloc3vec16Vec$LT$T$C$A$GT$7reserve17hf036345c8cc42cb1E, 540
_ZN5alloc7raw_vec19RawVec$LT$T$C$A$GT$7reserve17h93d16d9f0ae96becE, 541
_ZN5alloc7raw_vec19RawVec$LT$T$C$A$GT$13needs_to_grow17h25c4c59e557cd768E, 542
_ZN5alloc7raw_vec19RawVec$LT$T$C$A$GT$7reserve21do_reserve_and_handle17h139d2ab146a4a97fE, 543
_ZN5alloc7raw_vec19RawVec$LT$T$C$A$GT$14grow_amortized17h62d850411e326025E, 544
_ZN5alloc7raw_vec14handle_reserve17h210944d0b4290bf7E, 545
_ZN4core3num23_$LT$impl$u20$usize$GT$11checked_add17h3a913e0e7c236ad2E, 546
_ZN4core5alloc6layout6Layout5array17h2da91656c17f8ac9E, 547
_ZN5alloc7raw_vec19RawVec$LT$T$C$A$GT$14current_memory17h8c3e3bdc4a926e44E, 548
_ZN5alloc7raw_vec19RawVec$LT$T$C$A$GT$7set_ptr17hf07461c0106cd4aaE, 549
_ZN4core3ptr8non_null16NonNull$LT$T$GT$4cast17h194090ea7e9f7a3fE, 550
_ZN4core3ptr8non_null16NonNull$LT$T$GT$6as_ptr17h1d9b86d758e5ec5aE, 551
_ZN4core3ptr6unique15Unique$LT$T$GT$13new_unchecked17h7f3883eee3d36536E, 552
_ZN5alloc7raw_vec19RawVec$LT$T$C$A$GT$19capacity_from_bytes17h3bd46fc3f8dde122E, 553
_ZN4core3ptr8non_null16NonNull$LT$T$GT$13new_unchecked17h4d4dbb72a6b6b301E, 554
_ZN4core5alloc6layout6Layout25from_size_align_unchecked17h8e93eefab3ea88feE, 555
_ZN4core3ptr6unique15Unique$LT$T$GT$4cast17hd665cb97dc0fde6eE, 556
_ZN4core3ptr6unique15Unique$LT$T$GT$6as_ptr17h59244647b6145dc8E, 557
_ZN4core3num7nonzero12NonZeroUsize13new_unchecked17h8854da6acb281afdE, 558
_ZN4core5alloc6layout6Layout3new17ha15bfbc7e60afbfbE, 559
_ZN4core5alloc6layout6Layout6repeat17ha4b2f51e9f55de91E, 560
_ZN4core5alloc6layout6Layout12pad_to_align17hbf72d6cc07865a52E, 561
_ZN4core5alloc6layout6Layout5align17h6f8ddd939f9c1c5aE, 562
_ZN4core5alloc6layout6Layout18padding_needed_for17h6e12fe49aa7271b4E, 563
_ZN4core5alloc6layout6Layout4size17h5ccecee182376924E, 564
_ZN4core5alloc6layout6Layout15from_size_align17h80efc4f71af7c061E, 565
_ZN4core3num7nonzero12NonZeroUsize3get17h107f7e8c4fa6d35cE, 566
_ZN4core3num23_$LT$impl$u20$usize$GT$11checked_mul17h5d382c4b5fb6c5a5E, 567
_ZN4core5alloc6layout10size_align17h8ff259658f738fe6E, 568
_ZN5alloc7raw_vec19RawVec$LT$T$C$A$GT$3ptr17h608bf9f232342ef2E, 569
_ZN4core3ptr7mut_ptr31_$LT$impl$u20$$BP$mut$u20$T$GT$7is_null17hc5fa2e34bde0154bE, 570
_ZN5alloc3vec16Vec$LT$T$C$A$GT$16with_capacity_in17h9a2d05027673c6aaE, 571
_ZN5alloc7raw_vec19RawVec$LT$T$C$A$GT$16with_capacity_in17hbb07d29aca798785E, 572
_ZN5alloc7raw_vec19RawVec$LT$T$C$A$GT$11allocate_in17h8015cbded3fc746dE, 573
_ZN5alloc7raw_vec19RawVec$LT$T$C$A$GT$6new_in17h3e37d6104a46589cE, 574
_ZN5alloc7raw_vec11alloc_guard17h55589c6910aa43b9E, 575
_ZN63_$LT$alloc..alloc..Global$u20$as$u20$core..alloc..Allocator$GT$8allocate17h181939dcce502551E, 576
_ZN63_$LT$alloc..alloc..Global$u20$as$u20$core..alloc..Allocator$GT$15allocate_zeroed17h1c3b8f2fe6fcdf4bE, 577
_ZN5alloc5alloc6Global10alloc_impl17h49bebf377280d032E, 578
_ZN4core5alloc6layout6Layout8dangling17h6a36f60443ba8796E, 579
_ZN5alloc5alloc5alloc17ha0939ee409e2adbcE, 580
_ZN5alloc5alloc12alloc_zeroed17h1d1e0d6df6887052E, 581
_ZN4core3ptr6unique15Unique$LT$T$GT$8dangling17h36bf23f79072bd21E, 582
_ZN111_$LT$alloc..vec..Vec$LT$T$GT$$u20$as$u20$alloc..vec..spec_from_iter_nested..SpecFromIterNested$LT$T$C$I$GT$$GT$9from_iter17had72a9a56ba8e36dE, 583
_ZN5alloc3vec12Vec$LT$T$GT$3new17h6fdae1f5df90e7fcE, 584
_ZN5alloc3vec12Vec$LT$T$GT$13with_capacity17he9743bc853243dd6E, 585
_ZN5alloc3vec16Vec$LT$T$C$A$GT$10as_mut_ptr17h07a383543e6ea44cE, 586
_ZN5alloc3vec16Vec$LT$T$C$A$GT$7set_len17hbee12c1f6808a26eE, 587
_ZN97_$LT$alloc..vec..Vec$LT$T$C$A$GT$$u20$as$u20$alloc..vec..spec_extend..SpecExtend$LT$T$C$I$GT$$GT$11spec_extend17hc5828dd07366f447E, 588
_ZN5alloc3vec16Vec$LT$T$C$A$GT$16extend_desugared17hcbe05417649b6b98E, 589
_ZN5alloc3vec16Vec$LT$T$C$A$GT$3len17hd43e2900e4ecfce6E, 590
_ZN5alloc3vec16Vec$LT$T$C$A$GT$8capacity17hbaf254bdf5bbf6ceE, 591
_ZN5alloc3vec16Vec$LT$T$C$A$GT$7reserve17h5dca89abebd4cce2E, 592
_ZN5alloc7raw_vec19RawVec$LT$T$C$A$GT$7reserve17h27ba707e6d8bea2fE, 593
_ZN5alloc7raw_vec19RawVec$LT$T$C$A$GT$13needs_to_grow17h80b5eb5e1db87b03E, 594
_ZN5alloc7raw_vec19RawVec$LT$T$C$A$GT$7reserve21do_reserve_and_handle17he80c984111f7b11eE, 595
_ZN5alloc7raw_vec19RawVec$LT$T$C$A$GT$14grow_amortized17h64aeb47c29c1206cE, 596
_ZN4core5alloc6layout6Layout5array17hbc5b4536eee273c2E, 597
_ZN5alloc7raw_vec19RawVec$LT$T$C$A$GT$14current_memory17hc0a1b3154c957067E, 598
_ZN5alloc7raw_vec19RawVec$LT$T$C$A$GT$7set_ptr17h7ab8d7b3bebaf3eeE, 599
_ZN4core3ptr8non_null16NonNull$LT$T$GT$4cast17hfcfc7010f3a7ad0dE, 600
_ZN4core3ptr6unique15Unique$LT$T$GT$13new_unchecked17h3c02164fd392df58E, 601
_ZN5alloc7raw_vec19RawVec$LT$T$C$A$GT$19capacity_from_bytes17h0bf2336b774e6a92E, 602
_ZN4core3ptr6unique15Unique$LT$T$GT$4cast17hbdad4d7970c7d3f3E, 603
_ZN4core3ptr6unique15Unique$LT$T$GT$6as_ptr17h2a090141caa564cbE, 604
_ZN4core5alloc6layout6Layout3new17h5b75df2e8ccf5debE, 605
_ZN4core5alloc6layout10size_align17hd468fc7f320d00f8E, 606
_ZN5alloc7raw_vec19RawVec$LT$T$C$A$GT$3ptr17h5ec81cdaf94c7d5bE, 607
_ZN5alloc3vec16Vec$LT$T$C$A$GT$16with_capacity_in17hd2fc19fec4584584E, 608
_ZN5alloc7raw_vec19RawVec$LT$T$C$A$GT$16with_capacity_in17hac9ede6e4797ab53E, 609
_ZN5alloc7raw_vec19RawVec$LT$T$C$A$GT$11allocate_in17h902ea313c20d8289E, 610
_ZN5alloc7raw_vec19RawVec$LT$T$C$A$GT$6new_in17haf0ce8ee5962d86aE, 611
_ZN4core3ptr6unique15Unique$LT$T$GT$8dangling17h015bd8bf1480485dE, 612
_ZN153_$LT$core..result..Result$LT$T$C$F$GT$$u20$as$u20$core..ops..try_trait..FromResidual$LT$core..result..Result$LT$core..convert..Infallible$C$E$GT$$GT$$GT$13from_residual17h1e0d94ab8b9cc15aE, 613
_ZN50_$LT$T$u20$as$u20$core..convert..From$LT$T$GT$$GT$4from17hf7a966ad85340ffbE, 614
_ZN153_$LT$core..result..Result$LT$T$C$F$GT$$u20$as$u20$core..ops..try_trait..FromResidual$LT$core..result..Result$LT$core..convert..Infallible$C$E$GT$$GT$$GT$13from_residual17h255c26fb68d3ada2E, 615
_ZN153_$LT$core..result..Result$LT$T$C$F$GT$$u20$as$u20$core..ops..try_trait..FromResidual$LT$core..result..Result$LT$core..convert..Infallible$C$E$GT$$GT$$GT$13from_residual17h393ecead8f1d8b0aE, 616
_ZN153_$LT$core..result..Result$LT$T$C$F$GT$$u20$as$u20$core..ops..try_trait..FromResidual$LT$core..result..Result$LT$core..convert..Infallible$C$E$GT$$GT$$GT$13from_residual17h3effe7f68264f785E, 617
_ZN103_$LT$tiff..error..TiffError$u20$as$u20$core..convert..From$LT$core..num..error..TryFromIntError$GT$$GT$4from17hca7c32cfdaebd864E, 618
_ZN153_$LT$core..result..Result$LT$T$C$F$GT$$u20$as$u20$core..ops..try_trait..FromResidual$LT$core..result..Result$LT$core..convert..Infallible$C$E$GT$$GT$$GT$13from_residual17h64ee4670e779ca61E, 619
_ZN153_$LT$core..result..Result$LT$T$C$F$GT$$u20$as$u20$core..ops..try_trait..FromResidual$LT$core..result..Result$LT$core..convert..Infallible$C$E$GT$$GT$$GT$13from_residual17h7050f8057b0c219aE, 620
_ZN153_$LT$core..result..Result$LT$T$C$F$GT$$u20$as$u20$core..ops..try_trait..FromResidual$LT$core..result..Result$LT$core..convert..Infallible$C$E$GT$$GT$$GT$13from_residual17h7d37f2547e5769efE, 621
_ZN153_$LT$core..result..Result$LT$T$C$F$GT$$u20$as$u20$core..ops..try_trait..FromResidual$LT$core..result..Result$LT$core..convert..Infallible$C$E$GT$$GT$$GT$13from_residual17h884b5c10f416395fE, 622
_ZN153_$LT$core..result..Result$LT$T$C$F$GT$$u20$as$u20$core..ops..try_trait..FromResidual$LT$core..result..Result$LT$core..convert..Infallible$C$E$GT$$GT$$GT$13from_residual17h89f6a6db5c4e2ebcE, 623
_ZN153_$LT$core..result..Result$LT$T$C$F$GT$$u20$as$u20$core..ops..try_trait..FromResidual$LT$core..result..Result$LT$core..convert..Infallible$C$E$GT$$GT$$GT$13from_residual17h8e162252d2d160d9E, 624
_ZN153_$LT$core..result..Result$LT$T$C$F$GT$$u20$as$u20$core..ops..try_trait..FromResidual$LT$core..result..Result$LT$core..convert..Infallible$C$E$GT$$GT$$GT$13from_residual17h8f4945c24ead3c3fE, 625
_ZN153_$LT$core..result..Result$LT$T$C$F$GT$$u20$as$u20$core..ops..try_trait..FromResidual$LT$core..result..Result$LT$core..convert..Infallible$C$E$GT$$GT$$GT$13from_residual17h96468e1b8b0aef42E, 626
_ZN153_$LT$core..result..Result$LT$T$C$F$GT$$u20$as$u20$core..ops..try_trait..FromResidual$LT$core..result..Result$LT$core..convert..Infallible$C$E$GT$$GT$$GT$13from_residual17ha007f484f44ed958E, 627
_ZN153_$LT$core..result..Result$LT$T$C$F$GT$$u20$as$u20$core..ops..try_trait..FromResidual$LT$core..result..Result$LT$core..convert..Infallible$C$E$GT$$GT$$GT$13from_residual17hd13b51f21c0e15c6E, 628
_ZN153_$LT$core..result..Result$LT$T$C$F$GT$$u20$as$u20$core..ops..try_trait..FromResidual$LT$core..result..Result$LT$core..convert..Infallible$C$E$GT$$GT$$GT$13from_residual17hf3ad63bd99e77a16E, 629
_ZN153_$LT$core..result..Result$LT$T$C$F$GT$$u20$as$u20$core..ops..try_trait..FromResidual$LT$core..result..Result$LT$core..convert..Infallible$C$E$GT$$GT$$GT$13from_residual17hfac9b1f5ec04e6c7E, 630
_ZN157_$LT$$LT$alloc..vec..into_iter..IntoIter$LT$T$C$A$GT$$u20$as$u20$core..ops..drop..Drop$GT$..drop..DropGuard$LT$T$C$A$GT$$u20$as$u20$core..ops..drop..Drop$GT$4drop17h26d60f18112136caE, 631
_ZN4core3ptr8non_null16NonNull$LT$T$GT$6as_ptr17hbb76cf631cdc5f26E, 632
_ZN5alloc7raw_vec19RawVec$LT$T$C$A$GT$17from_raw_parts_in17h1b662cf441021c1aE, 633
_ZN4core3ptr76drop_in_place$LT$alloc..raw_vec..RawVec$LT$tiff..decoder..ifd..Value$GT$$GT$17hc651a32d403a8759E, 634
_ZN77_$LT$alloc..raw_vec..RawVec$LT$T$C$A$GT$$u20$as$u20$core..ops..drop..Drop$GT$4drop17h36fcb78c24c46f3eE, 635
_ZN5alloc7raw_vec19RawVec$LT$T$C$A$GT$14current_memory17hd1321fc93d62d7c3E, 636
_ZN63_$LT$alloc..alloc..Global$u20$as$u20$core..alloc..Allocator$GT$10deallocate17h5e8dc58b8c0871c2E, 637
_ZN5alloc5alloc7dealloc17ha7458d6075cdc115E, 638
_ZN4core3ptr6unique15Unique$LT$T$GT$4cast17h59f287c9bf4537acE, 639
_ZN4core3ptr6unique15Unique$LT$T$GT$6as_ptr17h2132d71237fa3c56E, 640
_ZN4core3ptr6unique15Unique$LT$T$GT$13new_unchecked17h002c0a67d3409811E, 641
_ZN3std2io6cursor15Cursor$LT$T$GT$3new17h3507a6d1858ab2d6E, 642
_ZN42_$LT$$RF$T$u20$as$u20$core..fmt..Debug$GT$3fmt17h0779a1248364a437E, 643
_ZN42_$LT$$RF$T$u20$as$u20$core..fmt..Debug$GT$3fmt17h10195e9bdc034154E, 644
_ZN62_$LT$tiff..error..InflateError$u20$as$u20$core..fmt..Debug$GT$3fmt17h1dccdd4b29094813E, 645
_ZN4core3ptr58drop_in_place$LT$$RF$miniz_oxide..inflate..TINFLStatus$GT$17h3cdf386ca28f867dE, 646
_ZN42_$LT$$RF$T$u20$as$u20$core..fmt..Debug$GT$3fmt17h2dd5a3f3b4d0795aE, 647
_ZN42_$LT$$RF$T$u20$as$u20$core..fmt..Debug$GT$3fmt17h33e3cfa40898d4b8E, 648
_ZN61_$LT$tiff..tags..SampleFormat$u20$as$u20$core..fmt..Debug$GT$3fmt17hf54da4270203f17fE, 649
_ZN4core3ptr28drop_in_place$LT$$RF$u16$GT$17h506418e20c13c3bfE, 650
_ZN42_$LT$$RF$T$u20$as$u20$core..fmt..Debug$GT$3fmt17h37c41de5895e62d6E, 651
_ZN68_$LT$tiff..tags..PlanarConfiguration$u20$as$u20$core..fmt..Debug$GT$3fmt17h2a3ae83216a44077E, 652
_ZN42_$LT$$RF$T$u20$as$u20$core..fmt..Debug$GT$3fmt17h3c10fef7245d2296E, 653
_ZN74_$LT$tiff..tags..PhotometricInterpretation$u20$as$u20$core..fmt..Debug$GT$3fmt17hdec7768d7add608aE, 654
_ZN42_$LT$$RF$T$u20$as$u20$core..fmt..Debug$GT$3fmt17h42b11c805091eaa3E, 655
_ZN65_$LT$alloc..vec..Vec$LT$T$C$A$GT$$u20$as$u20$core..fmt..Debug$GT$3fmt17h0a0ddded439b8e46E, 656
_ZN72_$LT$alloc..vec..Vec$LT$T$C$A$GT$$u20$as$u20$core..ops..deref..Deref$GT$5deref17h9e98962fb2d395d9E, 657
_ZN48_$LT$$u5b$T$u5d$$u20$as$u20$core..fmt..Debug$GT$3fmt17h79f72e74166bf736E, 658
_ZN4core5slice29_$LT$impl$u20$$u5b$T$u5d$$GT$4iter17h861c77f5d6711b28E, 659
_ZN4core3fmt8builders9DebugList7entries17hcbd995958abf45c9E, 660
_ZN63_$LT$I$u20$as$u20$core..iter..traits..collect..IntoIterator$GT$9into_iter17hc6474a4a6b0374a1E, 661
_ZN91_$LT$core..slice..iter..Iter$LT$T$GT$$u20$as$u20$core..iter..traits..iterator..Iterator$GT$4next17h19473be5b4f61244E, 662
_ZN4core3ptr28drop_in_place$LT$$RF$f64$GT$17h7af97e955dbb086fE, 663
_ZN42_$LT$$RF$T$u20$as$u20$core..fmt..Debug$GT$3fmt17h662030a8a7f2afc5E, 664
_ZN4core3ptr8non_null16NonNull$LT$T$GT$6as_ptr17h5dfb2e98e499de8cE, 665
_ZN4core3ptr7mut_ptr31_$LT$impl$u20$$BP$mut$u20$T$GT$7is_null17hec5e735709931d51E, 666
_ZN4core3ptr9const_ptr33_$LT$impl$u20$$BP$const$u20$T$GT$7is_null17h1b48debd80d602acE, 667
_ZN4core3ptr8non_null16NonNull$LT$T$GT$13new_unchecked17h0297bfed8d3d95b5E, 668
_ZN4core5slice4iter13Iter$LT$T$GT$3new17he9d1f6ec0675a680E, 669
_ZN4core5slice29_$LT$impl$u20$$u5b$T$u5d$$GT$6as_ptr17h968857ac28ae3a5cE, 670
_ZN5alloc3vec16Vec$LT$T$C$A$GT$6as_ptr17ha44c6b6047ad012bE, 671
_ZN4core5slice3raw14from_raw_parts17h616bce23245026abE, 672
_ZN4core3ptr20slice_from_raw_parts17h7c82e90ed7c0fae8E, 673
_ZN4core3ptr9const_ptr33_$LT$impl$u20$$BP$const$u20$T$GT$4cast17h79185aef2f605c97E, 674
_ZN4core3ptr8metadata14from_raw_parts17hb635476877a28ddfE, 675
_ZN5alloc7raw_vec19RawVec$LT$T$C$A$GT$3ptr17h29cc2fa0abfa972bE, 676
_ZN4core3ptr6unique15Unique$LT$T$GT$6as_ptr17h1001eb88ea87f4adE, 677
_ZN42_$LT$$RF$T$u20$as$u20$core..fmt..Debug$GT$3fmt17h431ca1ca10d58c09E, 678
_ZN65_$LT$alloc..vec..Vec$LT$T$C$A$GT$$u20$as$u20$core..fmt..Debug$GT$3fmt17he55b471be75018f2E, 679
_ZN72_$LT$alloc..vec..Vec$LT$T$C$A$GT$$u20$as$u20$core..ops..deref..Deref$GT$5deref17h9f9e85542d8ad770E, 680
_ZN48_$LT$$u5b$T$u5d$$u20$as$u20$core..fmt..Debug$GT$3fmt17h03d1bc3662a8c7c0E, 681
_ZN4core5slice29_$LT$impl$u20$$u5b$T$u5d$$GT$4iter17h69efc81ccf6bf469E, 682
_ZN4core3fmt8builders9DebugList7entries17hdbe0e9668ba52bb2E, 683
_ZN63_$LT$I$u20$as$u20$core..iter..traits..collect..IntoIterator$GT$9into_iter17h6bd2357e028a18ccE, 684
_ZN91_$LT$core..slice..iter..Iter$LT$T$GT$$u20$as$u20$core..iter..traits..iterator..Iterator$GT$4next17h89c73513ce8f86beE, 685
_ZN4core3ptr28drop_in_place$LT$$RF$u64$GT$17had3b76e6ee7a1498E, 686
_ZN4core3ptr9const_ptr33_$LT$impl$u20$$BP$const$u20$T$GT$7is_null17h5ce5ad0cc8494713E, 687
_ZN4core5slice4iter13Iter$LT$T$GT$3new17h62317f0d64f4a971E, 688
_ZN4core5slice29_$LT$impl$u20$$u5b$T$u5d$$GT$6as_ptr17h0acfe6a9c5c5980bE, 689
_ZN5alloc3vec16Vec$LT$T$C$A$GT$6as_ptr17hbaba2ba0701e8c11E, 690
_ZN4core5slice3raw14from_raw_parts17h3e05a2f897c124fcE, 691
_ZN4core3ptr20slice_from_raw_parts17h7440c2a85e04b19eE, 692
_ZN4core3ptr9const_ptr33_$LT$impl$u20$$BP$const$u20$T$GT$4cast17h756f032675d7c078E, 693
_ZN4core3ptr8metadata14from_raw_parts17hf99d5587b41be009E, 694
_ZN42_$LT$$RF$T$u20$as$u20$core..fmt..Debug$GT$3fmt17h55ddc4308d6a85c5E, 695
_ZN4core3fmt3num50_$LT$impl$u20$core..fmt..Debug$u20$for$u20$i32$GT$3fmt17h195be30faa5b49b7E, 696
_ZN42_$LT$$RF$T$u20$as$u20$core..fmt..Debug$GT$3fmt17h692175620e1b2308E, 697
_ZN65_$LT$alloc..vec..Vec$LT$T$C$A$GT$$u20$as$u20$core..fmt..Debug$GT$3fmt17he39ba9a4b2386e8cE, 698
_ZN72_$LT$alloc..vec..Vec$LT$T$C$A$GT$$u20$as$u20$core..ops..deref..Deref$GT$5deref17hb2992b7e32c7fd81E, 699
_ZN48_$LT$$u5b$T$u5d$$u20$as$u20$core..fmt..Debug$GT$3fmt17h4515b2e7535ab15bE, 700
_ZN4core3fmt8builders9DebugList7entries17hd6cbb073b88cfa37E, 701
_ZN4core3ptr28drop_in_place$LT$$RF$u32$GT$17h2c7a75b8e823b833E, 702
_ZN5alloc3vec16Vec$LT$T$C$A$GT$6as_ptr17h1e73de8ff2d88381E, 703
_ZN4core5slice3raw14from_raw_parts17h891cbd3dfcc69656E, 704
_ZN4core3ptr20slice_from_raw_parts17h0e89eae4ba689100E, 705
_ZN4core3ptr9const_ptr33_$LT$impl$u20$$BP$const$u20$T$GT$4cast17h2bbd88b715fc0732E, 706
_ZN4core3ptr8metadata14from_raw_parts17h6aeacd6648c3f8d6E, 707
_ZN42_$LT$$RF$T$u20$as$u20$core..fmt..Debug$GT$3fmt17h6af8bec861bc0d4dE, 708
_ZN42_$LT$$RF$T$u20$as$u20$core..fmt..Debug$GT$3fmt17h80ffa5f4ca32adcaE, 709
_ZN65_$LT$alloc..vec..Vec$LT$T$C$A$GT$$u20$as$u20$core..fmt..Debug$GT$3fmt17hec22d11d8b19f611E, 710
_ZN72_$LT$alloc..vec..Vec$LT$T$C$A$GT$$u20$as$u20$core..ops..deref..Deref$GT$5deref17hbf3e9d762fd1dc0cE, 711
_ZN48_$LT$$u5b$T$u5d$$u20$as$u20$core..fmt..Debug$GT$3fmt17h706bce9db218a45cE, 712
_ZN4core5slice29_$LT$impl$u20$$u5b$T$u5d$$GT$4iter17h2e57f1f202f352b0E, 713
_ZN4core3fmt8builders9DebugList7entries17h39ccf0a23a2d3269E, 714
_ZN63_$LT$I$u20$as$u20$core..iter..traits..collect..IntoIterator$GT$9into_iter17h23eb6627a4dea206E, 715
_ZN91_$LT$core..slice..iter..Iter$LT$T$GT$$u20$as$u20$core..iter..traits..iterator..Iterator$GT$4next17heb7c7bb8e63da51fE, 716
_ZN4core3ptr49drop_in_place$LT$$RF$tiff..tags..SampleFormat$GT$17haf3ac425851a7ff9E, 717
_ZN4core3ptr8non_null16NonNull$LT$T$GT$6as_ptr17h47a4d401696b754fE, 718
_ZN4core3ptr7mut_ptr31_$LT$impl$u20$$BP$mut$u20$T$GT$7is_null17h0c37eda925295549E, 719
_ZN4core3ptr9const_ptr33_$LT$impl$u20$$BP$const$u20$T$GT$7is_null17hf4828b01a5cb7ea2E, 720
_ZN4core3ptr8non_null16NonNull$LT$T$GT$13new_unchecked17hb45e8efc4f72e499E, 721
_ZN4core5slice4iter13Iter$LT$T$GT$3new17h42be51f63e391df6E, 722
_ZN4core5slice29_$LT$impl$u20$$u5b$T$u5d$$GT$6as_ptr17h5f5b82f9a3cb69efE, 723
_ZN4core5slice29_$LT$impl$u20$$u5b$T$u5d$$GT$3len17habe1dd196a48e326E, 724
_ZN5alloc3vec16Vec$LT$T$C$A$GT$6as_ptr17hdc034949331958c6E, 725
_ZN4core5slice3raw14from_raw_parts17h924a1bd14daa08b9E, 726
_ZN4core3ptr20slice_from_raw_parts17hb98932c528075086E, 727
_ZN4core3ptr9const_ptr33_$LT$impl$u20$$BP$const$u20$T$GT$4cast17h2651e672bc43ad51E, 728
_ZN4core3ptr8metadata14from_raw_parts17h25b97de8ad717fd7E, 729
_ZN5alloc7raw_vec19RawVec$LT$T$C$A$GT$3ptr17hac1c508ddda6e1c0E, 730
_ZN4core3ptr6unique15Unique$LT$T$GT$6as_ptr17hdecff2527f1a60bbE, 731
_ZN42_$LT$$RF$T$u20$as$u20$core..fmt..Debug$GT$3fmt17h85e734bacd142ec0E, 732
_ZN52_$LT$tiff..tags..Tag$u20$as$u20$core..fmt..Debug$GT$3fmt17h89522a40333ac101E, 733
_ZN42_$LT$$RF$T$u20$as$u20$core..fmt..Debug$GT$3fmt17h896b7743896035ecE, 734
_ZN70_$LT$tiff..error..TiffUnsupportedError$u20$as$u20$core..fmt..Debug$GT$3fmt17hc2b7db8e96ed30f1E, 735
_ZN4core3ptr50drop_in_place$LT$$RF$alloc..vec..Vec$LT$u8$GT$$GT$17hd4a862e4c7abcf01E, 736
_ZN4core3ptr62drop_in_place$LT$$RF$tiff..tags..PhotometricInterpretation$GT$17h9b09f4fac7a7f3bbE, 737
_ZN4core3ptr54drop_in_place$LT$$RF$tiff..tags..CompressionMethod$GT$17hee560a38433141d3E, 738
_ZN42_$LT$$RF$T$u20$as$u20$core..fmt..Debug$GT$3fmt17hccd21dcb298627b2E, 739
_ZN66_$LT$tiff..tags..CompressionMethod$u20$as$u20$core..fmt..Debug$GT$3fmt17hafbc0bf6b644f364E, 740
_ZN4core3ptr72drop_in_place$LT$$RF$alloc..vec..Vec$LT$tiff..tags..SampleFormat$GT$$GT$17h2979220da9a1c68aE, 741
_ZN4core3ptr40drop_in_place$LT$$RF$tiff..ColorType$GT$17hcd92a3ae62b7742aE, 742
_ZN42_$LT$$RF$T$u20$as$u20$core..fmt..Debug$GT$3fmt17h936d4441cb26636fE, 743
_ZN52_$LT$tiff..ColorType$u20$as$u20$core..fmt..Debug$GT$3fmt17h6c456cf1feffc0c8E, 744
_ZN4core3ptr27drop_in_place$LT$$RF$u8$GT$17h2b882ae8d1d31b50E, 745
_ZN4core3ptr84drop_in_place$LT$$RF$core..option..Option$LT$tiff..tags..PlanarConfiguration$GT$$GT$17h3dae4029a8cedb61E, 746
_ZN42_$LT$$RF$T$u20$as$u20$core..fmt..Debug$GT$3fmt17he8bec07188bf6e75E, 747
_ZN66_$LT$core..option..Option$LT$T$GT$$u20$as$u20$core..fmt..Debug$GT$3fmt17h7551c89bded4a6c4E, 748
_ZN4core3ptr56drop_in_place$LT$$RF$tiff..tags..PlanarConfiguration$GT$17h60d61a9be839c8cfE, 749
_ZN42_$LT$$RF$T$u20$as$u20$core..fmt..Debug$GT$3fmt17h8b48f4fbf78817aeE, 750
_ZN65_$LT$alloc..vec..Vec$LT$T$C$A$GT$$u20$as$u20$core..fmt..Debug$GT$3fmt17had593ae8a72e004fE, 751
_ZN48_$LT$$u5b$T$u5d$$u20$as$u20$core..fmt..Debug$GT$3fmt17hb7038bf78e16fb4dE, 752
_ZN4core3fmt8builders9DebugList7entries17h9606705de8593185E, 753
_ZN91_$LT$core..slice..iter..Iter$LT$T$GT$$u20$as$u20$core..iter..traits..iterator..Iterator$GT$4next17h2808fdebc3700c46E, 754
_ZN42_$LT$$RF$T$u20$as$u20$core..fmt..Debug$GT$3fmt17ha2df84381fb5c8b1E, 755
_ZN65_$LT$tiff..error..TiffFormatError$u20$as$u20$core..fmt..Debug$GT$3fmt17h6f74812350803892E, 756
_ZN4core3ptr30drop_in_place$LT$$RF$usize$GT$17h4439d10d66909671E, 757
_ZN4core3ptr50drop_in_place$LT$$RF$tiff..decoder..ifd..Value$GT$17hc088795cd0885affE, 758
_ZN42_$LT$$RF$T$u20$as$u20$core..fmt..Debug$GT$3fmt17ha6b4e1be5871ce69E, 759
_ZN62_$LT$tiff..decoder..ifd..Value$u20$as$u20$core..fmt..Debug$GT$3fmt17h27ea813c76c6ad61E, 760
_ZN4core3ptr28drop_in_place$LT$$RF$f32$GT$17h59f6ed05a67c6212E, 761
_ZN4core3ptr73drop_in_place$LT$$RF$alloc..vec..Vec$LT$tiff..decoder..ifd..Value$GT$$GT$17h3362065b5598333cE, 762
_ZN42_$LT$$RF$T$u20$as$u20$core..fmt..Debug$GT$3fmt17hab4f5517b7cfbf30E, 763
_ZN65_$LT$alloc..vec..Vec$LT$T$C$A$GT$$u20$as$u20$core..fmt..Debug$GT$3fmt17hed1c235389455a39E, 764
_ZN72_$LT$alloc..vec..Vec$LT$T$C$A$GT$$u20$as$u20$core..ops..deref..Deref$GT$5deref17he836aad7a76870e0E, 765
_ZN48_$LT$$u5b$T$u5d$$u20$as$u20$core..fmt..Debug$GT$3fmt17ha1fef13fc4211738E, 766
_ZN4core5slice29_$LT$impl$u20$$u5b$T$u5d$$GT$4iter17hc28bd8128b536383E, 767
_ZN4core3fmt8builders9DebugList7entries17h2d4baa4b8bbf9718E, 768
_ZN63_$LT$I$u20$as$u20$core..iter..traits..collect..IntoIterator$GT$9into_iter17hd356579c9efc5011E, 769
_ZN91_$LT$core..slice..iter..Iter$LT$T$GT$$u20$as$u20$core..iter..traits..iterator..Iterator$GT$4next17h00eac4ad92d01362E, 770
_ZN4core3ptr7mut_ptr31_$LT$impl$u20$$BP$mut$u20$T$GT$7is_null17h5e69f70c3f7fc615E, 771
_ZN4core3ptr9const_ptr33_$LT$impl$u20$$BP$const$u20$T$GT$7is_null17heef0bc69f14fdd0eE, 772
_ZN4core3ptr8non_null16NonNull$LT$T$GT$13new_unchecked17h422921aa46969c0cE, 773
_ZN4core5slice4iter13Iter$LT$T$GT$3new17h06e079cf61158da8E, 774
_ZN4core5slice29_$LT$impl$u20$$u5b$T$u5d$$GT$6as_ptr17hfebda76cd2f6fa86E, 775
_ZN4core5slice29_$LT$impl$u20$$u5b$T$u5d$$GT$3len17h5e03c545bae815e0E, 776
_ZN5alloc3vec16Vec$LT$T$C$A$GT$6as_ptr17h42676f9cf25e75caE, 777
_ZN4core5slice3raw14from_raw_parts17h66d0f6d8b064d123E, 778
_ZN4core3ptr20slice_from_raw_parts17h15e9c20e2e4e4fc7E, 779
_ZN4core3ptr9const_ptr33_$LT$impl$u20$$BP$const$u20$T$GT$4cast17hf82e9c84b0929389E, 780
_ZN4core3ptr8metadata14from_raw_parts17h43e2408c5116257eE, 781
_ZN5alloc7raw_vec19RawVec$LT$T$C$A$GT$3ptr17h058f4cf0b6226305E, 782
_ZN4core3ptr28drop_in_place$LT$$RF$i32$GT$17he5cbe0609def1f54E, 783
_ZN4core3ptr28drop_in_place$LT$$RF$i64$GT$17hd3ddd127001ce96aE, 784
_ZN42_$LT$$RF$T$u20$as$u20$core..fmt..Debug$GT$3fmt17hbb2964b96e578c58E, 785
_ZN4core3fmt3num50_$LT$impl$u20$core..fmt..Debug$u20$for$u20$i64$GT$3fmt17hf571de892a157caeE, 786
_ZN4core3ptr50drop_in_place$LT$$RF$tiff..error..InflateError$GT$17hc26e42f7727a3887E, 787
_ZN4core3ptr46drop_in_place$LT$$RF$alloc..string..String$GT$17hc6bbdc6b26334270E, 788
_ZN4core3ptr40drop_in_place$LT$$RF$tiff..tags..Tag$GT$17h38476f53d80d6956E, 789
_ZN42_$LT$$RF$T$u20$as$u20$core..fmt..Debug$GT$3fmt17hdda3a6d25589668bE, 790
_ZN4core5array69_$LT$impl$u20$core..fmt..Debug$u20$for$u20$$u5b$T$u3b$$u20$N$u5d$$GT$3fmt17h99903ae95be0a8e6E, 791
_ZN4core5array85_$LT$impl$u20$core..ops..index..Index$LT$I$GT$$u20$for$u20$$u5b$T$u3b$$u20$N$u5d$$GT$5index17h6db7b8d4b6d16588E, 792
_ZN42_$LT$$RF$T$u20$as$u20$core..fmt..Debug$GT$3fmt17hf72a9b3a86c28f94E, 793
_ZN65_$LT$alloc..vec..Vec$LT$T$C$A$GT$$u20$as$u20$core..fmt..Debug$GT$3fmt17hfd06c194fa18203cE, 794
_ZN72_$LT$alloc..vec..Vec$LT$T$C$A$GT$$u20$as$u20$core..ops..deref..Deref$GT$5deref17h0a702f8349dace64E, 795
_ZN48_$LT$$u5b$T$u5d$$u20$as$u20$core..fmt..Debug$GT$3fmt17h37d18db0df30728eE, 796
_ZN4core5slice29_$LT$impl$u20$$u5b$T$u5d$$GT$4iter17h5e90f1d76d8a1fc0E, 797
_ZN4core3fmt8builders9DebugList7entries17h48de67380717c8bcE, 798
_ZN63_$LT$I$u20$as$u20$core..iter..traits..collect..IntoIterator$GT$9into_iter17hee0c5e2f975aa6f8E, 799
_ZN91_$LT$core..slice..iter..Iter$LT$T$GT$$u20$as$u20$core..iter..traits..iterator..Iterator$GT$4next17h360174ca564cb2f0E, 800
_ZN4core3ptr8non_null16NonNull$LT$T$GT$6as_ptr17hc563745efac9efcaE, 801
_ZN4core3ptr7mut_ptr31_$LT$impl$u20$$BP$mut$u20$T$GT$7is_null17h1ffc2c633969dd76E, 802
_ZN4core3ptr9const_ptr33_$LT$impl$u20$$BP$const$u20$T$GT$7is_null17h2bcdaa4d8fa656f9E, 803
_ZN4core3ptr8non_null16NonNull$LT$T$GT$13new_unchecked17h026f8c6f588ec7f0E, 804
_ZN4core5slice4iter13Iter$LT$T$GT$3new17h2cee4747bb7f14f7E, 805
_ZN4core5slice29_$LT$impl$u20$$u5b$T$u5d$$GT$6as_ptr17ha5c32ecb8b2de116E, 806
_ZN5alloc3vec16Vec$LT$T$C$A$GT$6as_ptr17h960b2bb981b00932E, 807
_ZN4core5slice3raw14from_raw_parts17h750cca8fae27fe23E, 808
_ZN4core3ptr20slice_from_raw_parts17h1b9587d59f134889E, 809
_ZN4core3ptr9const_ptr33_$LT$impl$u20$$BP$const$u20$T$GT$4cast17he3e48bcf99dd0928E, 810
_ZN4core3ptr8metadata14from_raw_parts17h75d8ffc11dc2b6beE, 811
_ZN5alloc7raw_vec19RawVec$LT$T$C$A$GT$3ptr17h42f189b32ea0fc11E, 812
_ZN4core3ptr6unique15Unique$LT$T$GT$6as_ptr17hbe466923fdab41aeE, 813
_ZN44_$LT$$RF$T$u20$as$u20$core..fmt..Display$GT$3fmt17h94bd7e0b0b9659a7E, 814
_ZN72_$LT$tiff..error..TiffUnsupportedError$u20$as$u20$core..fmt..Display$GT$3fmt17h15b1161fbfba6b75E, 815
_ZN4core3fmt10ArgumentV13new17h3f886bc9d14603fcE, 816
_ZN4core3fmt10ArgumentV13new17h43a67ff0a1e2794bE, 817
_ZN4core3fmt9Arguments6new_v117h8e2f6af1e305d520E, 818
_ZN4core3fmt10ArgumentV13new17hab2fbd34ce8bb9a7E, 819
_ZN4core3fmt10ArgumentV13new17h38fcffac58a3467cE, 820
_ZN4core3fmt10ArgumentV13new17h428678ccbc46272bE, 821
_ZN4core3fmt10ArgumentV13new17hddddf82a80ab569aE, 822
_ZN44_$LT$$RF$T$u20$as$u20$core..fmt..Display$GT$3fmt17hb2a4c569561d687cE, 823
_ZN67_$LT$tiff..error..TiffFormatError$u20$as$u20$core..fmt..Display$GT$3fmt17ha5eac16f1e47282cE, 824
_ZN4core3fmt10ArgumentV13new17h20e58c3666c60fd5E, 825
_ZN44_$LT$$RF$T$u20$as$u20$core..fmt..Display$GT$3fmt17hfa0bef30e66e04dcE, 826
_ZN4core3fmt10ArgumentV13new17h65f9f644a5232cbbE, 827
_ZN4core3fmt10ArgumentV13new17h7a34d10cd314cfdaE, 828
_ZN4core3cmp3Ord3min17hda39575e7f839583E, 829
_ZN4core3cmp6min_by17h666721132d4ab376E, 830
_ZN4core3ops8function6FnOnce9call_once17h242a3de730c39c28E, 831
_ZN4core3cmp5impls48_$LT$impl$u20$core..cmp..Ord$u20$for$u20$u64$GT$3cmp17heef126287a004730E, 832
_ZN4core3cmp3min17h875bc12431219147E, 833
_ZN4core3fmt10ArgumentV13new17h322b0aa5faad6d15E, 834
_ZN4core3fmt10ArgumentV13new17h5cdd5b2c2309c296E, 835
_ZN4core3fmt10ArgumentV13new17h6b0834ec1167ebd1E, 836
_ZN4core3fmt10ArgumentV13new17h9aaa8868fbf6ca20E, 837
_ZN4core3fmt10ArgumentV13new17hc4573e300c9a3c2bE, 838
_ZN4core3mem11size_of_val17h0463956673b7fbefE, 839
_ZN4core3mem11size_of_val17h3e2f5cf8914a5665E, 840
_ZN4core3mem11size_of_val17h53c9496177a3d28cE, 841
_ZN4core3mem11size_of_val17ha1cea0f54415ab9cE, 842
_ZN4core3mem11size_of_val17hbfc354d4bdb039bbE, 843
_ZN4core3mem11size_of_val17hc713e068dad7bbfcE, 844
_ZN4core3mem11size_of_val17he2bdd120133f18ffE, 845
_ZN4core3mem11size_of_val17he526f843c1488eddE, 846
_ZN4core3ptr179drop_in_place$LT$$LT$alloc..vec..into_iter..IntoIter$LT$T$C$A$GT$$u20$as$u20$core..ops..drop..Drop$GT$..drop..DropGuard$LT$tiff..decoder..ifd..Value$C$alloc..alloc..Global$GT$$GT$17h6292f3ce92f84b1cE, 847
_ZN4core3ptr24slice_from_raw_parts_mut17h5c1aa58aa25b14f1E, 848
_ZN4core3ptr8metadata18from_raw_parts_mut17hb81633952d2161f9E, 849
_ZN4core3ptr24slice_from_raw_parts_mut17hb3148b18830d21f0E, 850
_ZN4core3ptr8metadata18from_raw_parts_mut17h6922bf919b8cb0ceE, 851
_ZN4core3ptr24slice_from_raw_parts_mut17heca42afc84c00cfeE, 852
_ZN4core3ptr8metadata18from_raw_parts_mut17h14486cddb0efb507E, 853
_ZN4core3ptr46drop_in_place$LT$tiff..decoder..ifd..Value$GT$17hfe53dd12bda14458E, 854
_ZN4core3ptr69drop_in_place$LT$alloc..vec..Vec$LT$tiff..decoder..ifd..Value$GT$$GT$17h1ec1a40bf4e774f0E, 855
_ZN70_$LT$alloc..vec..Vec$LT$T$C$A$GT$$u20$as$u20$core..ops..drop..Drop$GT$4drop17hdf3d63dd82b2ab90E, 856
_ZN5alloc3vec16Vec$LT$T$C$A$GT$10as_mut_ptr17h652b57469ad3f0afE, 857
_ZN4core3ptr56drop_in_place$LT$$u5b$tiff..decoder..ifd..Value$u5d$$GT$17h9b47ab19a55040eaE, 858
_ZN4core3ptr47drop_in_place$LT$alloc..vec..Vec$LT$f32$GT$$GT$17he3ada789ccefccccE, 859
_ZN70_$LT$alloc..vec..Vec$LT$T$C$A$GT$$u20$as$u20$core..ops..drop..Drop$GT$4drop17h8ae9fbde6441818dE, 860
_ZN4core3ptr54drop_in_place$LT$alloc..raw_vec..RawVec$LT$f32$GT$$GT$17h98fd62b3cfa9d2c5E, 861
_ZN77_$LT$alloc..raw_vec..RawVec$LT$T$C$A$GT$$u20$as$u20$core..ops..drop..Drop$GT$4drop17h19a804cdefe7817cE, 862
_ZN5alloc7raw_vec19RawVec$LT$T$C$A$GT$14current_memory17h572bc4bd6a887c06E, 863
_ZN4core3ptr6unique15Unique$LT$T$GT$4cast17h7c7cbf3e88d73876E, 864
_ZN5alloc3vec16Vec$LT$T$C$A$GT$10as_mut_ptr17hf1bb0beb0e012be1E, 865
_ZN4core3ptr47drop_in_place$LT$alloc..vec..Vec$LT$f64$GT$$GT$17hb2202dd3e1458791E, 866
_ZN70_$LT$alloc..vec..Vec$LT$T$C$A$GT$$u20$as$u20$core..ops..drop..Drop$GT$4drop17h953895571053b4ccE, 867
_ZN4core3ptr54drop_in_place$LT$alloc..raw_vec..RawVec$LT$f64$GT$$GT$17h5ba55f5b0acb9318E, 868
_ZN77_$LT$alloc..raw_vec..RawVec$LT$T$C$A$GT$$u20$as$u20$core..ops..drop..Drop$GT$4drop17h47c6eafa55f92278E, 869
_ZN5alloc7raw_vec19RawVec$LT$T$C$A$GT$14current_memory17h7d1400851d5d2cccE, 870
_ZN4core3ptr6unique15Unique$LT$T$GT$4cast17h4a8186dfc172cd56E, 871
_ZN5alloc3vec16Vec$LT$T$C$A$GT$10as_mut_ptr17h14ef20d5c8728a07E, 872
_ZN4core3ptr47drop_in_place$LT$alloc..vec..Vec$LT$i32$GT$$GT$17h7448b94fe8c267afE, 873
_ZN70_$LT$alloc..vec..Vec$LT$T$C$A$GT$$u20$as$u20$core..ops..drop..Drop$GT$4drop17h7132cf4c2a0e6000E, 874
_ZN4core3ptr54drop_in_place$LT$alloc..raw_vec..RawVec$LT$i32$GT$$GT$17h5e3b612a8079e730E, 875
_ZN77_$LT$alloc..raw_vec..RawVec$LT$T$C$A$GT$$u20$as$u20$core..ops..drop..Drop$GT$4drop17h704a83f76ff7b790E, 876
_ZN5alloc7raw_vec19RawVec$LT$T$C$A$GT$14current_memory17hbe458bbc9e92ea77E, 877
_ZN4core3ptr6unique15Unique$LT$T$GT$4cast17hfb56196933bb08c6E, 878
_ZN4core3ptr6unique15Unique$LT$T$GT$6as_ptr17hd1284dd93e24c899E, 879
_ZN5alloc3vec16Vec$LT$T$C$A$GT$10as_mut_ptr17hbb87acf29f4cb50cE, 880
_ZN5alloc7raw_vec19RawVec$LT$T$C$A$GT$3ptr17h43619aef4d030f55E, 881
_ZN4core3ptr47drop_in_place$LT$alloc..vec..Vec$LT$i64$GT$$GT$17hfb73d62e5100a4ceE, 882
_ZN70_$LT$alloc..vec..Vec$LT$T$C$A$GT$$u20$as$u20$core..ops..drop..Drop$GT$4drop17hd9fb94f12bf2edf0E, 883
_ZN4core3ptr54drop_in_place$LT$alloc..raw_vec..RawVec$LT$i64$GT$$GT$17h32b9ef6d88eca1ecE, 884
_ZN77_$LT$alloc..raw_vec..RawVec$LT$T$C$A$GT$$u20$as$u20$core..ops..drop..Drop$GT$4drop17hecb90411fe75f5b8E, 885
_ZN5alloc7raw_vec19RawVec$LT$T$C$A$GT$14current_memory17h697b24ca59e48e8eE, 886
_ZN4core3ptr6unique15Unique$LT$T$GT$4cast17h0ffbeee0f8818f0eE, 887
_ZN4core3ptr6unique15Unique$LT$T$GT$6as_ptr17h0d17ecf2ab074873E, 888
_ZN5alloc3vec16Vec$LT$T$C$A$GT$10as_mut_ptr17h8e6d43f45c74de25E, 889
_ZN5alloc7raw_vec19RawVec$LT$T$C$A$GT$3ptr17hd37731844d6575e9E, 890
_ZN4core3ptr7mut_ptr31_$LT$impl$u20$$BP$mut$u20$T$GT$7is_null17hef4a51f632ac7a1aE, 891
_ZN4core3ptr47drop_in_place$LT$alloc..vec..Vec$LT$u32$GT$$GT$17h35552c8e920c1eaaE, 892
_ZN70_$LT$alloc..vec..Vec$LT$T$C$A$GT$$u20$as$u20$core..ops..drop..Drop$GT$4drop17h830af31ba96f7daeE, 893
_ZN4core3ptr54drop_in_place$LT$alloc..raw_vec..RawVec$LT$u32$GT$$GT$17h8719c85fb1c7a527E, 894
_ZN77_$LT$alloc..raw_vec..RawVec$LT$T$C$A$GT$$u20$as$u20$core..ops..drop..Drop$GT$4drop17h96c11ff8f8eec556E, 895
_ZN4core3ptr47drop_in_place$LT$alloc..vec..Vec$LT$u64$GT$$GT$17ha89f5776e91b5983E, 896
_ZN70_$LT$alloc..vec..Vec$LT$T$C$A$GT$$u20$as$u20$core..ops..drop..Drop$GT$4drop17hf54118105466e8beE, 897
_ZN4core3ptr54drop_in_place$LT$alloc..raw_vec..RawVec$LT$u64$GT$$GT$17h252b52e0a2195281E, 898
_ZN77_$LT$alloc..raw_vec..RawVec$LT$T$C$A$GT$$u20$as$u20$core..ops..drop..Drop$GT$4drop17hc29aaa6ec51e6e21E, 899
_ZN4core3ptr49drop_in_place$LT$alloc..string..FromUtf8Error$GT$17hdf3b7fed89983ff0E, 900
_ZN4core3ptr5write17h0e152035f6ef9778E, 901
_ZN4core3ptr5write17h465cc79fadd6db77E, 902
_ZN4core3ptr5write17hc7cce25295f26a12E, 903
_ZN4core3ptr6unique15Unique$LT$T$GT$13new_unchecked17h1d6b7362db7ad0f3E, 904
_ZN4core3ptr6unique15Unique$LT$T$GT$13new_unchecked17h4df5e5344142a31aE, 905
_ZN4core3ptr6unique15Unique$LT$T$GT$13new_unchecked17h54b32d4194f0c8a2E, 906
_ZN4core3ptr6unique15Unique$LT$T$GT$13new_unchecked17he28e5e1f22aeed45E, 907
_ZN4core3ptr6unique15Unique$LT$T$GT$4cast17h7a602c2891607ef1E, 908
_ZN4core3ptr6unique15Unique$LT$T$GT$6as_ptr17he7b26f9641774df4E, 909
_ZN4core3ptr6unique15Unique$LT$T$GT$4cast17hd1071270292aeebeE, 910
_ZN4core3ptr6unique15Unique$LT$T$GT$6as_ptr17hae0a65039af910aeE, 911
_ZN4core3ptr6unique15Unique$LT$T$GT$4cast17he042e3d9b57523f2E, 912
_ZN4core3ptr6unique15Unique$LT$T$GT$6as_ptr17h00b5b9e07142120eE, 913
_ZN4core3ptr6unique15Unique$LT$T$GT$4cast17he9fd24ffde4dfe2dE, 914
_ZN4core3ptr6unique15Unique$LT$T$GT$6as_ptr17hcb3339469b7675bfE, 915
_ZN4core3ptr6unique15Unique$LT$T$GT$6as_ptr17h0cffb3dc53b1b1bbE, 916
_ZN4core3ptr6unique15Unique$LT$T$GT$6as_ptr17h2f3c6762b838ad11E, 917
_ZN4core3ptr6unique15Unique$LT$T$GT$6as_ptr17h44c2ef258d588b29E, 918
_ZN4core3ptr6unique15Unique$LT$T$GT$6as_ptr17hacf08641a2117ed1E, 919
_ZN4core3ptr6unique15Unique$LT$T$GT$6as_ptr17hb45cde7022df8dd0E, 920
_ZN4core3ptr6unique15Unique$LT$T$GT$6as_ptr17hd12dfaa0fdaca88cE, 921
_ZN4core3ptr6unique15Unique$LT$T$GT$6as_ptr17hfe8799519d54defeE, 922
_ZN4core3ptr6unique15Unique$LT$T$GT$6as_ref17h48e722585b3b51daE, 923
_ZN4core3ptr6unique15Unique$LT$T$GT$6as_ref17h52af69866b78e770E, 924
_ZN4core3ptr6unique15Unique$LT$T$GT$6as_ref17hd608afc22c59b6f6E, 925
_ZN4core3ptr6unique15Unique$LT$T$GT$6as_ref17he66e489e3bd979bdE, 926
_ZN4core3ptr6unique15Unique$LT$T$GT$8dangling17h164982a076ccb451E, 927
_ZN4core3ptr6unique15Unique$LT$T$GT$8dangling17h367159fdfe932cd2E, 928
_ZN4core3ptr6unique15Unique$LT$T$GT$8dangling17h52441aa138b66c8cE, 929
_ZN4core3ptr6unique15Unique$LT$T$GT$8dangling17ha6334efd4bbe8e21E, 930
_ZN4core3ptr85drop_in_place$LT$alloc..vec..into_iter..IntoIter$LT$tiff..decoder..ifd..Value$GT$$GT$17hbd4e507dfe05a734E, 931
_ZN86_$LT$alloc..vec..into_iter..IntoIter$LT$T$C$A$GT$$u20$as$u20$core..ops..drop..Drop$GT$4drop17hff7100b7b1d5c5bbE, 932
_ZN5alloc3vec9into_iter21IntoIter$LT$T$C$A$GT$16as_raw_mut_slice17h94c3d8db8791a392E, 933
_ZN83_$LT$$RF$mut$u20$I$u20$as$u20$core..iter..traits..exact_size..ExactSizeIterator$GT$3len17h418000bf6bdb85d9E, 934
_ZN4core4iter6traits10exact_size17ExactSizeIterator3len17ha15d7874aaf3cda5E, 935
_ZN4core3ptr8non_null16NonNull$LT$T$GT$13new_unchecked17h8ab4978b31655a40E, 936
_ZN4core3ptr8non_null16NonNull$LT$T$GT$4cast17h657cdcc560717497E, 937
_ZN4core3ptr8non_null16NonNull$LT$T$GT$4cast17h75b6533db492e99bE, 938
_ZN4core3ptr8non_null16NonNull$LT$T$GT$4cast17h82e3621932a5d180E, 939
_ZN4core3ptr8non_null16NonNull$LT$T$GT$4cast17h8be7c8c85e9e90e7E, 940
_ZN4core3ptr8non_null16NonNull$LT$T$GT$6as_ptr17hc838e19c3e05882cE, 941
_ZN4core4iter6traits8iterator8Iterator3map17h543d76c41103cf6fE, 942
_ZN4core4iter8adapters3map16Map$LT$I$C$F$GT$3new17h41e1801eaaaea894E, 943
_ZN4core4iter6traits8iterator8Iterator3map17h807e959eb6ab1aedE, 944
_ZN4core4iter8adapters3map16Map$LT$I$C$F$GT$3new17h9ea44081f843d104E, 945
_ZN4core4iter6traits8iterator8Iterator7collect17h18eedf304bd2ff32E, 946
_ZN95_$LT$alloc..vec..Vec$LT$T$GT$$u20$as$u20$core..iter..traits..collect..FromIterator$LT$T$GT$$GT$9from_iter17h61ecf396f3b91116E, 947
_ZN63_$LT$I$u20$as$u20$core..iter..traits..collect..IntoIterator$GT$9into_iter17hbc695963954d1355E, 948
_ZN98_$LT$alloc..vec..Vec$LT$T$GT$$u20$as$u20$alloc..vec..spec_from_iter..SpecFromIter$LT$T$C$I$GT$$GT$9from_iter17h4c1a6f62f18f8f58E, 949
_ZN4core4iter6traits8iterator8Iterator7collect17hc4dc743d80fc8796E, 950
_ZN95_$LT$alloc..vec..Vec$LT$T$GT$$u20$as$u20$core..iter..traits..collect..FromIterator$LT$T$GT$$GT$9from_iter17h6ceef40e91def395E, 951
_ZN63_$LT$I$u20$as$u20$core..iter..traits..collect..IntoIterator$GT$9into_iter17h33a8bb323e4c7731E, 952
_ZN98_$LT$alloc..vec..Vec$LT$T$GT$$u20$as$u20$alloc..vec..spec_from_iter..SpecFromIter$LT$T$C$I$GT$$GT$9from_iter17h20b93c8fc8cc5f3eE, 953
_ZN4core5alloc6layout10size_align17h3583c36999025c7bE, 954
_ZN4core5alloc6layout10size_align17h48e06a262f6d3f72E, 955
_ZN4core5alloc6layout10size_align17h6c5484b93c2f86b8E, 956
_ZN4core5alloc6layout10size_align17h79a4041a2773397fE, 957
_ZN4core5alloc6layout6Layout3new17h157c04c88460256fE, 958
_ZN4core5alloc6layout6Layout3new17h20d6c0aa456f8739E, 959
_ZN4core5alloc6layout6Layout3new17ha78169eeb36d563cE, 960
_ZN4core5alloc6layout6Layout3new17hb05cb7ea61d18f22E, 961
_ZN4core5alloc6layout6Layout5array17h247ffadf1dfe99a4E, 962
_ZN4core5alloc6layout6Layout5array17h400659c8800b875fE, 963
_ZN4core5alloc6layout6Layout5array17hb71f4d9240e64826E, 964
_ZN4core5alloc6layout6Layout5array17hf67c0a7e7acabd2aE, 965
_ZN4core5slice29_$LT$impl$u20$$u5b$T$u5d$$GT$10as_mut_ptr17h88072fd7b74745f0E, 966
_ZN4core5slice29_$LT$impl$u20$$u5b$T$u5d$$GT$10as_mut_ptr17ha9c2d9828ac13319E, 967
_ZN4core5slice29_$LT$impl$u20$$u5b$T$u5d$$GT$10as_mut_ptr17hfb6e256bf3e3beb1E, 968
_ZN4core5slice29_$LT$impl$u20$$u5b$T$u5d$$GT$3len17h0d752982140cca5fE, 969
_ZN4core5slice29_$LT$impl$u20$$u5b$T$u5d$$GT$3len17h80e1374888a62018E, 970
_ZN4core5slice29_$LT$impl$u20$$u5b$T$u5d$$GT$3len17h9b8e633567f27656E, 971
_ZN4core5slice29_$LT$impl$u20$$u5b$T$u5d$$GT$3len17haeb995da1eaef355E, 972
_ZN4core5slice29_$LT$impl$u20$$u5b$T$u5d$$GT$6as_ptr17h1519baabbfd6dc78E, 973
_ZN4core5slice29_$LT$impl$u20$$u5b$T$u5d$$GT$6as_ptr17hffb075dcb5a04b13E, 974
_ZN4core5slice3raw18from_raw_parts_mut17h06e566ae7193414eE, 975
_ZN4core5slice3raw18from_raw_parts_mut17h093059bc9116ce81E, 976
_ZN4core5slice3raw18from_raw_parts_mut17h67d8c1ecf6019f2eE, 977
_ZN4core5slice3raw18from_raw_parts_mut17headaf8cb83782d1aE, 978
_ZN4core5slice5index77_$LT$impl$u20$core..ops..index..IndexMut$LT$I$GT$$u20$for$u20$$u5b$T$u5d$$GT$9index_mut17h01ae31cd656e229eE, 979
_ZN4core5slice5index77_$LT$impl$u20$core..ops..index..IndexMut$LT$I$GT$$u20$for$u20$$u5b$T$u5d$$GT$9index_mut17h83cfc0e01299d5c3E, 980
_ZN4core5slice5index77_$LT$impl$u20$core..ops..index..IndexMut$LT$I$GT$$u20$for$u20$$u5b$T$u5d$$GT$9index_mut17hbd8b7335426ed0eaE, 981
_ZN4core5slice5index77_$LT$impl$u20$core..ops..index..IndexMut$LT$I$GT$$u20$for$u20$$u5b$T$u5d$$GT$9index_mut17hd981680545c21b9bE, 982
_ZN4core5slice5index77_$LT$impl$u20$core..ops..index..IndexMut$LT$I$GT$$u20$for$u20$$u5b$T$u5d$$GT$9index_mut17hf94a4a5bad2130c3E, 983
_ZN50_$LT$T$u20$as$u20$core..convert..Into$LT$U$GT$$GT$4into17h2cc9fe2f10bb7aabE, 984
_ZN4core7convert3num64_$LT$impl$u20$core..convert..From$LT$u16$GT$$u20$for$u20$u64$GT$4from17hb28dd386322cef01E, 985
_ZN50_$LT$T$u20$as$u20$core..convert..Into$LT$U$GT$$GT$4into17h654f7aa3e73077fbE, 986
_ZN4core7convert3num64_$LT$impl$u20$core..convert..From$LT$i32$GT$$u20$for$u20$i64$GT$4from17h5cc76e35c33d7895E, 987
_ZN50_$LT$T$u20$as$u20$core..convert..Into$LT$U$GT$$GT$4into17h845ec17daf4b2092E, 988
_ZN51_$LT$f32$u20$as$u20$alloc..vec..is_zero..IsZero$GT$7is_zero28_$u7b$$u7b$closure$u7d$$u7d$17hdae50176a5c38c68E, 989
_ZN4core3f3221_$LT$impl$u20$f32$GT$7to_bits17h2fa89bf27703549bE, 990
_ZN51_$LT$f64$u20$as$u20$alloc..vec..is_zero..IsZero$GT$7is_zero28_$u7b$$u7b$closure$u7d$$u7d$17h4d0729affd018eb8E, 991
_ZN4core3f6421_$LT$impl$u20$f64$GT$7to_bits17hc3564e8a85c5ecd7E, 992
_ZN51_$LT$u32$u20$as$u20$alloc..vec..is_zero..IsZero$GT$7is_zero28_$u7b$$u7b$closure$u7d$$u7d$17he4236227b9f407f1E, 993
_ZN51_$LT$u64$u20$as$u20$alloc..vec..is_zero..IsZero$GT$7is_zero28_$u7b$$u7b$closure$u7d$$u7d$17h1b9beca3f5092d00E, 994
_ZN5alloc3vec12Vec$LT$T$GT$13with_capacity17h0e6a6d3dd759b0d2E, 995
_ZN5alloc3vec16Vec$LT$T$C$A$GT$16with_capacity_in17ha0474578d5d2cdc1E, 996
_ZN5alloc7raw_vec19RawVec$LT$T$C$A$GT$16with_capacity_in17h8dd302a874b96784E, 997
_ZN5alloc7raw_vec19RawVec$LT$T$C$A$GT$11allocate_in17h14ab1f316b353c7aE, 998
_ZN5alloc7raw_vec19RawVec$LT$T$C$A$GT$6new_in17h07e5f6e7424f25d7E, 999
_ZN5alloc7raw_vec19RawVec$LT$T$C$A$GT$19capacity_from_bytes17h559e39513f3e6f5aE, 1000
_ZN5alloc3vec12Vec$LT$T$GT$13with_capacity17h2aa47f1df60a39b5E, 1001
_ZN5alloc3vec16Vec$LT$T$C$A$GT$16with_capacity_in17h34c1fc1a5a1a5edaE, 1002
_ZN5alloc7raw_vec19RawVec$LT$T$C$A$GT$16with_capacity_in17ha498e3f11ef5617dE, 1003
_ZN5alloc7raw_vec19RawVec$LT$T$C$A$GT$11allocate_in17h67af3866f879a1abE, 1004
_ZN5alloc7raw_vec19RawVec$LT$T$C$A$GT$6new_in17he19cbd98a89764e6E, 1005
_ZN5alloc7raw_vec19RawVec$LT$T$C$A$GT$19capacity_from_bytes17h4586f44fc68d1983E, 1006
_ZN5alloc3vec12Vec$LT$T$GT$13with_capacity17h2b8caa1eb5f4603eE, 1007
_ZN5alloc3vec16Vec$LT$T$C$A$GT$16with_capacity_in17h39ca79d855caa802E, 1008
_ZN5alloc7raw_vec19RawVec$LT$T$C$A$GT$16with_capacity_in17hacf85d925cd250abE, 1009
_ZN5alloc7raw_vec19RawVec$LT$T$C$A$GT$11allocate_in17hf943baa80fe454e3E, 1010
_ZN5alloc7raw_vec19RawVec$LT$T$C$A$GT$6new_in17hb5145956f51168c0E, 1011
_ZN5alloc7raw_vec19RawVec$LT$T$C$A$GT$19capacity_from_bytes17h6974933efe51cd9bE, 1012
_ZN5alloc3vec12Vec$LT$T$GT$13with_capacity17hdb0d9ae09b7a8ed5E, 1013
_ZN5alloc3vec16Vec$LT$T$C$A$GT$16with_capacity_in17hceddb7108102d11aE, 1014
_ZN5alloc7raw_vec19RawVec$LT$T$C$A$GT$16with_capacity_in17he3c81fca909f76baE, 1015
_ZN5alloc7raw_vec19RawVec$LT$T$C$A$GT$11allocate_in17he45d5526decc840cE, 1016
_ZN5alloc7raw_vec19RawVec$LT$T$C$A$GT$6new_in17hfb8ae7b8b4c6dee1E, 1017
_ZN5alloc7raw_vec19RawVec$LT$T$C$A$GT$19capacity_from_bytes17h9db633843c5cc922E, 1018
_ZN5alloc3vec16Vec$LT$T$C$A$GT$11extend_with17h395a8f4a39d1dfe2E, 1019
_ZN5alloc3vec16Vec$LT$T$C$A$GT$7reserve17h57e44f94fa293898E, 1020
_ZN5alloc3vec16Vec$LT$T$C$A$GT$3len17h78fc70bc38f8c5b0E, 1021
_ZN5alloc3vec15set_len_on_drop12SetLenOnDrop3new17hdfb1bd5e295f915dE, 1022
_ZN86_$LT$alloc..vec..ExtendElement$LT$T$GT$$u20$as$u20$alloc..vec..ExtendWith$LT$T$GT$$GT$4next17hf434a31317cd2a3aE, 1023
_ZN5alloc3vec15set_len_on_drop12SetLenOnDrop13increment_len17hc0e4ff1a501c6e73E, 1024
_ZN86_$LT$alloc..vec..ExtendElement$LT$T$GT$$u20$as$u20$alloc..vec..ExtendWith$LT$T$GT$$GT$4last17hbb1f8ef1a9229d02E, 1025
_ZN4core5clone5impls52_$LT$impl$u20$core..clone..Clone$u20$for$u20$f32$GT$5clone17hbcb60a64efc04b14E, 1026
_ZN5alloc7raw_vec19RawVec$LT$T$C$A$GT$7reserve17hb086ff4b60069cbcE, 1027
_ZN5alloc7raw_vec19RawVec$LT$T$C$A$GT$13needs_to_grow17h7337904d5f00456aE, 1028
_ZN5alloc7raw_vec19RawVec$LT$T$C$A$GT$7reserve21do_reserve_and_handle17hb79466b34fcb0365E, 1029
_ZN5alloc7raw_vec19RawVec$LT$T$C$A$GT$14grow_amortized17h3f667008463f6c39E, 1030
_ZN5alloc7raw_vec19RawVec$LT$T$C$A$GT$7set_ptr17hacb9492c1bdf2d30E, 1031
_ZN5alloc3vec16Vec$LT$T$C$A$GT$11extend_with17h7f4d636ce40d9205E, 1032
_ZN5alloc3vec16Vec$LT$T$C$A$GT$7reserve17h38d1081cd90ab17fE, 1033
_ZN5alloc3vec16Vec$LT$T$C$A$GT$3len17h100fb69e58a397c2E, 1034
_ZN86_$LT$alloc..vec..ExtendElement$LT$T$GT$$u20$as$u20$alloc..vec..ExtendWith$LT$T$GT$$GT$4next17h33d82c1edf9dc258E, 1035
_ZN86_$LT$alloc..vec..ExtendElement$LT$T$GT$$u20$as$u20$alloc..vec..ExtendWith$LT$T$GT$$GT$4last17hda2a37fecb14c26dE, 1036
_ZN4core5clone5impls52_$LT$impl$u20$core..clone..Clone$u20$for$u20$f64$GT$5clone17hc9a1823f6d72d19bE, 1037
_ZN5alloc7raw_vec19RawVec$LT$T$C$A$GT$7reserve17h13383940b3e6c387E, 1038
_ZN5alloc7raw_vec19RawVec$LT$T$C$A$GT$13needs_to_grow17h172213ef4c602f5cE, 1039
_ZN5alloc7raw_vec19RawVec$LT$T$C$A$GT$7reserve21do_reserve_and_handle17h71d3e91ffa2fcfc6E, 1040
_ZN5alloc7raw_vec19RawVec$LT$T$C$A$GT$14grow_amortized17h2c57cc38a9e085aaE, 1041
_ZN5alloc7raw_vec19RawVec$LT$T$C$A$GT$7set_ptr17h7a11069e9ce51c0bE, 1042
_ZN5alloc3vec16Vec$LT$T$C$A$GT$11extend_with17h834bd7ff36790ce8E, 1043
_ZN86_$LT$alloc..vec..ExtendElement$LT$T$GT$$u20$as$u20$alloc..vec..ExtendWith$LT$T$GT$$GT$4next17h76fdf743476aa890E, 1044
_ZN86_$LT$alloc..vec..ExtendElement$LT$T$GT$$u20$as$u20$alloc..vec..ExtendWith$LT$T$GT$$GT$4last17hc4dac5c11f2ad6cdE, 1045
_ZN4core5clone5impls52_$LT$impl$u20$core..clone..Clone$u20$for$u20$u32$GT$5clone17he9cd24d8436196c5E, 1046
_ZN5alloc3vec16Vec$LT$T$C$A$GT$11extend_with17hd87e755513391681E, 1047
_ZN86_$LT$alloc..vec..ExtendElement$LT$T$GT$$u20$as$u20$alloc..vec..ExtendWith$LT$T$GT$$GT$4next17h017de2a564bd102dE, 1048
_ZN86_$LT$alloc..vec..ExtendElement$LT$T$GT$$u20$as$u20$alloc..vec..ExtendWith$LT$T$GT$$GT$4last17hd93296dc3a6ada86E, 1049
_ZN4core5clone5impls52_$LT$impl$u20$core..clone..Clone$u20$for$u20$u64$GT$5clone17h1f16255366a85e9aE, 1050
_ZN5alloc3vec16Vec$LT$T$C$A$GT$17from_raw_parts_in17h1528f9f1f6446cdaE, 1051
_ZN5alloc7raw_vec19RawVec$LT$T$C$A$GT$17from_raw_parts_in17h5684b82e3144f58bE, 1052
_ZN5alloc3vec16Vec$LT$T$C$A$GT$17from_raw_parts_in17h23bb880167a861b8E, 1053
_ZN5alloc7raw_vec19RawVec$LT$T$C$A$GT$17from_raw_parts_in17hea1b01378370483dE, 1054
_ZN5alloc3vec16Vec$LT$T$C$A$GT$17from_raw_parts_in17h57d8cf31958a0420E, 1055
_ZN5alloc7raw_vec19RawVec$LT$T$C$A$GT$17from_raw_parts_in17h4b9f468267bf7146E, 1056
_ZN5alloc3vec16Vec$LT$T$C$A$GT$17from_raw_parts_in17h8a4ad81124f5609eE, 1057
_ZN5alloc7raw_vec19RawVec$LT$T$C$A$GT$17from_raw_parts_in17h90c7c0a5c5b31dd0E, 1058
_ZN5alloc3vec16Vec$LT$T$C$A$GT$17from_raw_parts_in17h9542a08ad8aa3a64E, 1059
_ZN5alloc7raw_vec19RawVec$LT$T$C$A$GT$17from_raw_parts_in17hc84aeafe0165e9b9E, 1060
_ZN5alloc3vec16Vec$LT$T$C$A$GT$17from_raw_parts_in17h9800f14c027fd6bfE, 1061
_ZN5alloc7raw_vec19RawVec$LT$T$C$A$GT$17from_raw_parts_in17h6d88bbc8a91e1ce2E, 1062
_ZN5alloc3vec16Vec$LT$T$C$A$GT$17from_raw_parts_in17h9805b9226b583f2dE, 1063
_ZN5alloc7raw_vec19RawVec$LT$T$C$A$GT$17from_raw_parts_in17hba85189bc6a70a8cE, 1064
_ZN5alloc3vec16Vec$LT$T$C$A$GT$17from_raw_parts_in17hadcd288c5867b762E, 1065
_ZN5alloc7raw_vec19RawVec$LT$T$C$A$GT$17from_raw_parts_in17h80dfbc1dbdec7ffcE, 1066
_ZN5alloc3vec16Vec$LT$T$C$A$GT$3len17h21c9ee98e351da38E, 1067
_ZN5alloc3vec16Vec$LT$T$C$A$GT$4push17h072a064f5b41c9d9E, 1068
_ZN5alloc3vec16Vec$LT$T$C$A$GT$4push17h0d04452af846a5ccE, 1069
_ZN5alloc3vec16Vec$LT$T$C$A$GT$4push17h1b72734e89343776E, 1070
_ZN5alloc3vec16Vec$LT$T$C$A$GT$4push17h4d2400a7eb446ee4E, 1071
_ZN5alloc3vec16Vec$LT$T$C$A$GT$7reserve17h7178d08d85c1ef6eE, 1072
_ZN5alloc7raw_vec19RawVec$LT$T$C$A$GT$7reserve17h28a7a7efaa6c7034E, 1073
_ZN5alloc7raw_vec19RawVec$LT$T$C$A$GT$13needs_to_grow17h89d7e835a267f38fE, 1074
_ZN5alloc7raw_vec19RawVec$LT$T$C$A$GT$7reserve21do_reserve_and_handle17hded5285a4dfb91d1E, 1075
_ZN5alloc7raw_vec19RawVec$LT$T$C$A$GT$14grow_amortized17h120bfd3969d4a711E, 1076
_ZN5alloc7raw_vec19RawVec$LT$T$C$A$GT$7set_ptr17hf67e072f2104393cE, 1077
_ZN5alloc3vec16Vec$LT$T$C$A$GT$4push17h74a7501efcb6fa85E, 1078
_ZN5alloc3vec16Vec$LT$T$C$A$GT$4push17h74c15f361ca11f5bE, 1079
_ZN5alloc3vec16Vec$LT$T$C$A$GT$7reserve17h95a53546b99e661cE, 1080
_ZN5alloc7raw_vec19RawVec$LT$T$C$A$GT$7reserve17haec5d5c6c1890faaE, 1081
_ZN5alloc7raw_vec19RawVec$LT$T$C$A$GT$13needs_to_grow17hbe2dbcf7979549aeE, 1082
_ZN5alloc7raw_vec19RawVec$LT$T$C$A$GT$7reserve21do_reserve_and_handle17h5a61b68dba183197E, 1083
_ZN5alloc7raw_vec19RawVec$LT$T$C$A$GT$14grow_amortized17h37d8f03c4bb5d594E, 1084
_ZN5alloc7raw_vec19RawVec$LT$T$C$A$GT$7set_ptr17ha17a21d032b13a01E, 1085
_ZN5alloc3vec16Vec$LT$T$C$A$GT$6append17hafdf354715288ab9E, 1086
_ZN5alloc3vec16Vec$LT$T$C$A$GT$8as_slice17heb7041848f455ac2E, 1087
_ZN5alloc3vec16Vec$LT$T$C$A$GT$9allocator17h2de59f69a3fe5a51E, 1088
_ZN5alloc7raw_vec19RawVec$LT$T$C$A$GT$9allocator17he58069e5d9827287E, 1089
_ZN5alloc3vec9from_elem17h87cf9dca8e70484cE, 1090
_ZN62_$LT$T$u20$as$u20$alloc..vec..spec_from_elem..SpecFromElem$GT$9from_elem17hd240d9f8ce799147E, 1091
_ZN51_$LT$u64$u20$as$u20$alloc..vec..is_zero..IsZero$GT$7is_zero17hb21e0bafce8e243cE, 1092
_ZN5alloc7raw_vec19RawVec$LT$T$C$A$GT$23with_capacity_zeroed_in17h76a2fff81e8c7f89E, 1093
_ZN5alloc3vec9from_elem17ha21b4f58dba999b4E, 1094
_ZN62_$LT$T$u20$as$u20$alloc..vec..spec_from_elem..SpecFromElem$GT$9from_elem17h955eaa6c716128a9E, 1095
_ZN51_$LT$f32$u20$as$u20$alloc..vec..is_zero..IsZero$GT$7is_zero17hb7ffc762f84ef419E, 1096
_ZN5alloc7raw_vec19RawVec$LT$T$C$A$GT$23with_capacity_zeroed_in17h1d8036ba3db60795E, 1097
_ZN5alloc3vec9from_elem17hc185765a7d938410E, 1098
_ZN62_$LT$T$u20$as$u20$alloc..vec..spec_from_elem..SpecFromElem$GT$9from_elem17h1a6030a5daaffb66E, 1099
_ZN51_$LT$f64$u20$as$u20$alloc..vec..is_zero..IsZero$GT$7is_zero17h6c5a232c13658f4bE, 1100
_ZN5alloc7raw_vec19RawVec$LT$T$C$A$GT$23with_capacity_zeroed_in17h2a16734665fc9455E, 1101
_ZN5alloc3vec9from_elem17hd7e60ac538d9c2ceE, 1102
_ZN62_$LT$T$u20$as$u20$alloc..vec..spec_from_elem..SpecFromElem$GT$9from_elem17h054cb214e2ce9f87E, 1103
_ZN51_$LT$u32$u20$as$u20$alloc..vec..is_zero..IsZero$GT$7is_zero17h9c18088cf68182b9E, 1104
_ZN5alloc7raw_vec19RawVec$LT$T$C$A$GT$23with_capacity_zeroed_in17h97bdedd58162af0fE, 1105
_ZN5alloc5alloc8box_free17h51af5bdf40934e69E, 1106
_ZN5alloc5alloc8box_free17h630d2762405e3715E, 1107
_ZN5alloc5alloc8box_free17h8365f234561b4cfaE, 1108
_ZN5alloc5alloc8box_free17he3506f3667a11232E, 1109
_ZN5alloc5boxed16Box$LT$T$C$A$GT$11into_unique17h09242795af4921aaE, 1110
_ZN5alloc5boxed16Box$LT$T$C$A$GT$4leak17h4011a779b2713db0E, 1111
_ZN95_$LT$core..ptr..unique..Unique$LT$T$GT$$u20$as$u20$core..convert..From$LT$$RF$mut$u20$T$GT$$GT$4from17h009cd4a30be29d2cE, 1112
_ZN5alloc5boxed16Box$LT$T$C$A$GT$11into_unique17h23aaf494cc2d0166E, 1113
_ZN5alloc5boxed16Box$LT$T$C$A$GT$4leak17heea072d76ed32364E, 1114
_ZN95_$LT$core..ptr..unique..Unique$LT$T$GT$$u20$as$u20$core..convert..From$LT$$RF$mut$u20$T$GT$$GT$4from17h4b634b22d0b7fa33E, 1115
_ZN5alloc5boxed16Box$LT$T$C$A$GT$11into_unique17h252dfe8df5b20001E, 1116
_ZN5alloc5boxed16Box$LT$T$C$A$GT$4leak17h477bffadd8287c1fE, 1117
_ZN95_$LT$core..ptr..unique..Unique$LT$T$GT$$u20$as$u20$core..convert..From$LT$$RF$mut$u20$T$GT$$GT$4from17hb876e6957566c342E, 1118
_ZN5alloc5boxed16Box$LT$T$C$A$GT$11into_unique17h2cc59bdec521b46fE, 1119
_ZN5alloc5boxed16Box$LT$T$C$A$GT$4leak17h110c14dba76c9cc3E, 1120
_ZN95_$LT$core..ptr..unique..Unique$LT$T$GT$$u20$as$u20$core..convert..From$LT$$RF$mut$u20$T$GT$$GT$4from17h0270c737ad88430fE, 1121
_ZN5alloc5boxed16Box$LT$T$C$A$GT$11into_unique17h3292f037c254ad57E, 1122
_ZN5alloc5boxed16Box$LT$T$C$A$GT$4leak17h06b7747209f39a40E, 1123
_ZN95_$LT$core..ptr..unique..Unique$LT$T$GT$$u20$as$u20$core..convert..From$LT$$RF$mut$u20$T$GT$$GT$4from17hbd20ccd07ffce4f5E, 1124
_ZN5alloc5boxed16Box$LT$T$C$A$GT$11into_unique17h5655a5093e691948E, 1125
_ZN5alloc5boxed16Box$LT$T$C$A$GT$4leak17hee83b71ec35d7850E, 1126
_ZN95_$LT$core..ptr..unique..Unique$LT$T$GT$$u20$as$u20$core..convert..From$LT$$RF$mut$u20$T$GT$$GT$4from17hfd40deac52d5b18fE, 1127
_ZN5alloc5boxed16Box$LT$T$C$A$GT$11into_unique17he3c34a6ecfbeab55E, 1128
_ZN5alloc5boxed16Box$LT$T$C$A$GT$4leak17h189e546145eedbd1E, 1129
_ZN95_$LT$core..ptr..unique..Unique$LT$T$GT$$u20$as$u20$core..convert..From$LT$$RF$mut$u20$T$GT$$GT$4from17h2fa3d07cd2a94dafE, 1130
_ZN5alloc5boxed16Box$LT$T$C$A$GT$11into_unique17hf49ebf5815cf8510E, 1131
_ZN5alloc5boxed16Box$LT$T$C$A$GT$4leak17h9f276704b7f03533E, 1132
_ZN95_$LT$core..ptr..unique..Unique$LT$T$GT$$u20$as$u20$core..convert..From$LT$$RF$mut$u20$T$GT$$GT$4from17h10f4ad2b28be59a0E, 1133
_ZN5alloc5boxed16Box$LT$T$C$A$GT$23into_raw_with_allocator17h1b944b478980142eE, 1134
_ZN5alloc5boxed16Box$LT$T$C$A$GT$23into_raw_with_allocator17h2fb7d12df274aa55E, 1135
_ZN5alloc5boxed16Box$LT$T$C$A$GT$23into_raw_with_allocator17h391a5095dd9dda20E, 1136
_ZN5alloc5boxed16Box$LT$T$C$A$GT$23into_raw_with_allocator17h58e0cee16760c1f3E, 1137
_ZN5alloc5boxed16Box$LT$T$C$A$GT$23into_raw_with_allocator17h72453174e008160dE, 1138
_ZN5alloc5boxed16Box$LT$T$C$A$GT$23into_raw_with_allocator17hb0bc2832b52b6de2E, 1139
_ZN5alloc5boxed16Box$LT$T$C$A$GT$23into_raw_with_allocator17hb964a2a1485fb3bbE, 1140
_ZN5alloc5boxed16Box$LT$T$C$A$GT$23into_raw_with_allocator17hd5736d60395aa8abE, 1141
_ZN5alloc5slice29_$LT$impl$u20$$u5b$T$u5d$$GT$8into_vec17h19550f687dd7473eE, 1142
_ZN5alloc5slice4hack8into_vec17he5336a4b57b58158E, 1143
_ZN5alloc5slice29_$LT$impl$u20$$u5b$T$u5d$$GT$8into_vec17h1f77b3308e396a5aE, 1144
_ZN5alloc5slice4hack8into_vec17h1a33954b7351086fE, 1145
_ZN5alloc5slice29_$LT$impl$u20$$u5b$T$u5d$$GT$8into_vec17h2acf510e2feb6d52E, 1146
_ZN5alloc5slice4hack8into_vec17h90df1ac059554d3bE, 1147
_ZN5alloc5slice29_$LT$impl$u20$$u5b$T$u5d$$GT$8into_vec17h6ed14cfd9d449f66E, 1148
_ZN5alloc5slice4hack8into_vec17h3279725910a2d4cfE, 1149
_ZN5alloc5slice29_$LT$impl$u20$$u5b$T$u5d$$GT$8into_vec17h79c775b53e662825E, 1150
_ZN5alloc5slice4hack8into_vec17h9526aef9e04e2db3E, 1151
_ZN5alloc5slice29_$LT$impl$u20$$u5b$T$u5d$$GT$8into_vec17h9313d99a33119abcE, 1152
_ZN5alloc5slice4hack8into_vec17h6fdf688288828161E, 1153
_ZN5alloc5slice29_$LT$impl$u20$$u5b$T$u5d$$GT$8into_vec17haa570c401e1246abE, 1154
_ZN5alloc5slice4hack8into_vec17h6eb7d3dece2f17ccE, 1155
_ZN5alloc5slice29_$LT$impl$u20$$u5b$T$u5d$$GT$8into_vec17hcc1e329b2b2583c3E, 1156
_ZN5alloc5slice4hack8into_vec17hd4c990b26fb0a592E, 1157
_ZN66_$LT$std..io..cursor..Cursor$LT$T$GT$$u20$as$u20$std..io..Read$GT$4read17haf19e5adadd7bc66E, 1158
_ZN69_$LT$std..io..cursor..Cursor$LT$T$GT$$u20$as$u20$std..io..BufRead$GT$8fill_buf17hbb7fdc89dadfa0e1E, 1159
_ZN79_$LT$core..result..Result$LT$T$C$E$GT$$u20$as$u20$core..ops..try_trait..Try$GT$6branch17h31b5c01d70cc7cfbE, 1160
_ZN3std2io5impls60_$LT$impl$u20$std..io..Read$u20$for$u20$$RF$$u5b$u8$u5d$$GT$4read17he7f52ef9d9b25572E, 1161
_ZN79_$LT$core..result..Result$LT$T$C$E$GT$$u20$as$u20$core..ops..try_trait..Try$GT$6branch17h15f2beae2dbc11dcE, 1162
_ZN88_$LT$alloc..vec..Vec$LT$T$C$A$GT$$u20$as$u20$core..convert..AsRef$LT$$u5b$T$u5d$$GT$$GT$6as_ref17h7102a4d9ff3f07dcE, 1163
_ZN75_$LT$alloc..vec..Vec$LT$T$C$A$GT$$u20$as$u20$core..ops..deref..DerefMut$GT$9deref_mut17h20182e28aa0c7785E, 1164
_ZN75_$LT$alloc..vec..Vec$LT$T$C$A$GT$$u20$as$u20$core..ops..deref..DerefMut$GT$9deref_mut17h2f712742d2ed23a0E, 1165
_ZN75_$LT$alloc..vec..Vec$LT$T$C$A$GT$$u20$as$u20$core..ops..deref..DerefMut$GT$9deref_mut17h6ea83f19a3c3ba57E, 1166
_ZN75_$LT$alloc..vec..Vec$LT$T$C$A$GT$$u20$as$u20$core..ops..deref..DerefMut$GT$9deref_mut17h71c0c85c6899c389E, 1167
_ZN79_$LT$core..result..Result$LT$T$C$E$GT$$u20$as$u20$core..ops..try_trait..Try$GT$6branch17h09bca7cf0f70382eE, 1168
_ZN79_$LT$core..result..Result$LT$T$C$E$GT$$u20$as$u20$core..ops..try_trait..Try$GT$6branch17h2aba6acb089eb65bE, 1169
_ZN79_$LT$core..result..Result$LT$T$C$E$GT$$u20$as$u20$core..ops..try_trait..Try$GT$6branch17h3efc6cff622f4ee5E, 1170
_ZN79_$LT$core..result..Result$LT$T$C$E$GT$$u20$as$u20$core..ops..try_trait..Try$GT$6branch17h4705bed10545b7cfE, 1171
_ZN79_$LT$core..result..Result$LT$T$C$E$GT$$u20$as$u20$core..ops..try_trait..Try$GT$6branch17h5a8a7ff86c50ba3eE, 1172
_ZN79_$LT$core..result..Result$LT$T$C$E$GT$$u20$as$u20$core..ops..try_trait..Try$GT$6branch17h5e157fb8cdd647feE, 1173
_ZN79_$LT$core..result..Result$LT$T$C$E$GT$$u20$as$u20$core..ops..try_trait..Try$GT$6branch17h5e4c83674b06c896E, 1174
_ZN79_$LT$core..result..Result$LT$T$C$E$GT$$u20$as$u20$core..ops..try_trait..Try$GT$6branch17h9db7ef24a0df3f4fE, 1175
_ZN79_$LT$core..result..Result$LT$T$C$E$GT$$u20$as$u20$core..ops..try_trait..Try$GT$6branch17hc317ee464601033bE, 1176
_ZN79_$LT$core..result..Result$LT$T$C$E$GT$$u20$as$u20$core..ops..try_trait..Try$GT$6branch17hc8690ac1142045e4E, 1177
_ZN79_$LT$core..result..Result$LT$T$C$E$GT$$u20$as$u20$core..ops..try_trait..Try$GT$6branch17he763998cbd6b9476E, 1178
_ZN79_$LT$core..result..Result$LT$T$C$E$GT$$u20$as$u20$core..ops..try_trait..Try$GT$6branch17hf9964642e6784f1fE, 1179
_ZN79_$LT$core..result..Result$LT$T$C$E$GT$$u20$as$u20$core..ops..try_trait..Try$GT$6branch17hfb19bcf72cc8b82fE, 1180
_ZN81_$LT$alloc..vec..Vec$LT$T$C$A$GT$$u20$as$u20$core..ops..index..Index$LT$I$GT$$GT$5index17hc724076472408acdE, 1181
_ZN84_$LT$alloc..vec..Vec$LT$T$C$A$GT$$u20$as$u20$core..ops..index..IndexMut$LT$I$GT$$GT$9index_mut17hbcb3384e18c334d9E, 1182
_ZN84_$LT$alloc..vec..Vec$LT$T$C$A$GT$$u20$as$u20$core..ops..index..IndexMut$LT$I$GT$$GT$9index_mut17hd56b20f7d3025ef3E, 1183
_ZN84_$LT$alloc..vec..Vec$LT$T$C$A$GT$$u20$as$u20$core..ops..index..IndexMut$LT$I$GT$$GT$9index_mut17he1eb7fd697eb391fE, 1184
_ZN84_$LT$alloc..vec..Vec$LT$T$C$A$GT$$u20$as$u20$core..ops..index..IndexMut$LT$I$GT$$GT$9index_mut17hedc1b93d1f2441a3E, 1185
_ZN84_$LT$alloc..vec..Vec$LT$T$C$A$GT$$u20$as$u20$core..ops..index..IndexMut$LT$I$GT$$GT$9index_mut17hf635c7c2a854a72aE, 1186
_ZN90_$LT$alloc..vec..Vec$LT$T$C$A$GT$$u20$as$u20$core..iter..traits..collect..IntoIterator$GT$9into_iter17hca8214c10046b979E, 1187
_ZN4tiff7decoder3ifd5Value7into_u817h06f6f2444ecca55aE, 1188
_ZN4tiff7decoder3ifd5Value8into_u1617h4e31f8aea76518c4E, 1189
_ZN4core7convert3num67_$LT$impl$u20$core..convert..TryFrom$LT$u32$GT$$u20$for$u20$u16$GT$8try_from17hbd2cba486d55401cE, 1190
_ZN4core7convert3num67_$LT$impl$u20$core..convert..TryFrom$LT$u64$GT$$u20$for$u20$u16$GT$8try_from17h7d4e3571c2c7049bE, 1191
_ZN4tiff7decoder3ifd5Value8into_u3217hf7d856a42ab436aaE, 1192
_ZN4core7convert3num67_$LT$impl$u20$core..convert..TryFrom$LT$u64$GT$$u20$for$u20$u32$GT$8try_from17he155463f2f3c8f80E, 1193
_ZN4tiff7decoder3ifd5Value8into_i3217h209c96101ada6e58E, 1194
_ZN4core7convert3num67_$LT$impl$u20$core..convert..TryFrom$LT$i64$GT$$u20$for$u20$i32$GT$8try_from17h6cd040bd52f7a354E, 1195
_ZN4tiff7decoder3ifd5Value8into_u6417h7e2c271bbee01aa2E, 1196
_ZN4tiff7decoder3ifd5Value8into_i6417h93ce6aae057a44ffE, 1197
_ZN4tiff7decoder3ifd5Value8into_f3217haf11d5f293502fd7E, 1198
_ZN4tiff7decoder3ifd5Value8into_f6417h0129166b2643ece1E, 1199
_ZN4tiff7decoder3ifd5Value11into_string17h9059df490053b6d4E, 1200
_ZN4tiff7decoder3ifd5Value12into_u32_vec17h981719ddd434688eE, 1201
_ZN5alloc5alloc15exchange_malloc17h024f0615e62512bcE, 1202
_ZN65_$LT$alloc..string..String$u20$as$u20$core..ops..deref..Deref$GT$5deref17hc316ac38463dc0f2E, 1203
_ZN4core3str21_$LT$impl$u20$str$GT$5chars17h82b6573330c72601E, 1204
_ZN4core3str8converts19from_utf8_unchecked17hbea99a08058181d1E, 1205
_ZN4tiff7decoder3ifd5Value11into_u8_vec17h257c10fb8f4c8deeE, 1206
_ZN4tiff7decoder3ifd5Value12into_u16_vec17hfce92b2e5c47686cE, 1207
_ZN4tiff7decoder3ifd5Value12into_i32_vec17h4df818fdc892993bE, 1208
_ZN4tiff7decoder3ifd5Value12into_f32_vec17hf3f5856a5b1ca1e0E, 1209
_ZN4tiff7decoder3ifd5Value12into_f64_vec17h943c6d6a4446f12eE, 1210
_ZN4tiff7decoder3ifd5Value12into_u64_vec17h2e0caf68a8eb5a86E, 1211
_ZN4tiff7decoder3ifd5Value12into_i64_vec17h3524e4f590cfd70aE, 1212
_ZN62_$LT$tiff..decoder..ifd..Entry$u20$as$u20$core..fmt..Debug$GT$3fmt17h190bf9cee950a626E, 1213
_ZN53_$LT$tiff..tags..Type$u20$as$u20$core..fmt..Debug$GT$3fmt17hb886e60e50525750E, 1214
_ZN4core3fmt3num50_$LT$impl$u20$core..fmt..Debug$u20$for$u20$u64$GT$3fmt17h3c15352932368b22E, 1215
_ZN4tiff7decoder3ifd5Entry3new17h9619aacb84165e75E, 1216
_ZN4tiff7decoder3ifd5Entry7new_u6417h314ae292f99e5e85E, 1217
_ZN4tiff7decoder3ifd5Entry1r17he007c9ecae1bbca1E, 1218
_ZN4tiff7decoder6stream20SmartReader$LT$R$GT$4wrap17h23e8c178831c43b6E, 1219
_ZN70_$LT$tiff..decoder..stream..DeflateReader$u20$as$u20$std..io..Read$GT$4read17h0244116d26c96fb4E, 1220
_ZN92_$LT$tiff..decoder..stream..DeflateReader$u20$as$u20$tiff..decoder..stream..EndianReader$GT$10byte_order17h7775e99dde04170dE, 1221
_ZN67_$LT$tiff..decoder..stream..JpegReader$u20$as$u20$std..io..Read$GT$4read17h1d9e97858de063ceE, 1222
_ZN4tiff7decoder14DecodingResult6new_u817h934c4b06f5062344E, 1223
_ZN4tiff7decoder14DecodingResult7new_u1617hc2dd730eeaec9a1fE, 1224
_ZN4tiff7decoder14DecodingResult7new_u3217hb6b956bc5e91f47dE, 1225
_ZN4tiff7decoder14DecodingResult7new_u6417h0c2aa15af5510b2eE, 1226
_ZN4tiff7decoder14DecodingResult7new_f3217h2f43b99fc2ea5354E, 1227
_ZN4tiff7decoder14DecodingResult7new_f6417h66e3ed781d63f5f0E, 1228
_ZN4tiff7decoder14DecodingResult9as_buffer17h02b9f1cbc13cfcb8E, 1229
_ZN4tiff7decoder14DecodingBuffer3len17hd89d2c6604903415E, 1230
_ZN4tiff7decoder14DecodingBuffer8byte_len17h78b4e379d096c604E, 1231
_ZN4tiff7decoder14DecodingBuffer4copy17h35d7be5702d7a0d9E, 1232
_ZN4tiff7decoder6Limits9unlimited17h0d79f9ffbd9b3e1aE, 1233
_ZN64_$LT$tiff..decoder..Limits$u20$as$u20$core..default..Default$GT$7default17hc6c13204c13769a6E, 1234
_ZN46_$LT$u8$u20$as$u20$tiff..decoder..Wrapping$GT$12wrapping_add17h20385047c40cd47dE, 1235
_ZN47_$LT$u16$u20$as$u20$tiff..decoder..Wrapping$GT$12wrapping_add17hfdc6a7a32a960825E, 1236
_ZN47_$LT$u32$u20$as$u20$tiff..decoder..Wrapping$GT$12wrapping_add17h32e9c90200fab614E, 1237
_ZN47_$LT$u64$u20$as$u20$tiff..decoder..Wrapping$GT$12wrapping_add17ha236c5d89fcb3c06E, 1238
_ZN4tiff7decoder12rev_hpredict17hcdf2e4c3f45face4E, 1239
_ZN4tiff7decoder18rev_hpredict_nsamp17hce43e6df83c0a25cE, 1240
_ZN4tiff7decoder18rev_hpredict_nsamp17h595921b1c370bd41E, 1241
_ZN4tiff7decoder18rev_hpredict_nsamp17h08c5426359f24d49E, 1242
_ZN4tiff7decoder18rev_hpredict_nsamp17hf74a876e96abce57E, 1243
_ZN4core7convert3num18ptr_try_from_impls69_$LT$impl$u20$core..convert..TryFrom$LT$u32$GT$$u20$for$u20$usize$GT$8try_from17hc94c15386beafd58E, 1244
_ZN57_$LT$$u5b$u8$u5d$$u20$as$u20$tiff..encoder..TiffValue$GT$5count17h4173ab28b83e44d4E, 1245
_ZN57_$LT$$u5b$i8$u5d$$u20$as$u20$tiff..encoder..TiffValue$GT$5count17h63c30627acc842a3E, 1246
_ZN58_$LT$$u5b$u16$u5d$$u20$as$u20$tiff..encoder..TiffValue$GT$5count17h69d427a2fd8084e7E, 1247
_ZN58_$LT$$u5b$i16$u5d$$u20$as$u20$tiff..encoder..TiffValue$GT$5count17h37ddf0cd923f65e0E, 1248
_ZN58_$LT$$u5b$u32$u5d$$u20$as$u20$tiff..encoder..TiffValue$GT$5count17h3a6c7e6dd4e5b3a3E, 1249
_ZN58_$LT$$u5b$i32$u5d$$u20$as$u20$tiff..encoder..TiffValue$GT$5count17h3579fa7189ec9361E, 1250
_ZN58_$LT$$u5b$u64$u5d$$u20$as$u20$tiff..encoder..TiffValue$GT$5count17h8dc4dac620e71ebfE, 1251
_ZN58_$LT$$u5b$f32$u5d$$u20$as$u20$tiff..encoder..TiffValue$GT$5count17hf007fb5d7c1dfffcE, 1252
_ZN58_$LT$$u5b$f64$u5d$$u20$as$u20$tiff..encoder..TiffValue$GT$5count17hd6823f9c11ff28ddE, 1253
_ZN78_$LT$$u5b$tiff..encoder..Rational$u5d$$u20$as$u20$tiff..encoder..TiffValue$GT$5count17hd044df60eb672757E, 1254
_ZN79_$LT$$u5b$tiff..encoder..SRational$u5d$$u20$as$u20$tiff..encoder..TiffValue$GT$5count17hdecabaa49a0d4aabE, 1255
_ZN47_$LT$u8$u20$as$u20$tiff..encoder..TiffValue$GT$5count17h3ce9090773424d01E, 1256
_ZN47_$LT$i8$u20$as$u20$tiff..encoder..TiffValue$GT$5count17h26b3fa971aaa5866E, 1257
_ZN48_$LT$u16$u20$as$u20$tiff..encoder..TiffValue$GT$5count17h3d299de0946170e8E, 1258
_ZN48_$LT$i16$u20$as$u20$tiff..encoder..TiffValue$GT$5count17ha5fd3e9a1dbf5533E, 1259
_ZN48_$LT$u32$u20$as$u20$tiff..encoder..TiffValue$GT$5count17heef738bd2237612dE, 1260
_ZN48_$LT$i32$u20$as$u20$tiff..encoder..TiffValue$GT$5count17h0a0774988bbfcfe1E, 1261
_ZN48_$LT$u64$u20$as$u20$tiff..encoder..TiffValue$GT$5count17ha493c4f1f156fa61E, 1262
_ZN48_$LT$f32$u20$as$u20$tiff..encoder..TiffValue$GT$5count17h61957bd6174929bdE, 1263
_ZN48_$LT$f64$u20$as$u20$tiff..encoder..TiffValue$GT$5count17h2263990cd7b7b52fE, 1264
_ZN68_$LT$tiff..encoder..Rational$u20$as$u20$tiff..encoder..TiffValue$GT$5count17h4e163df9f8143c94E, 1265
_ZN69_$LT$tiff..encoder..SRational$u20$as$u20$tiff..encoder..TiffValue$GT$5count17h613a56231b3a6ae5E, 1266
_ZN48_$LT$str$u20$as$u20$tiff..encoder..TiffValue$GT$5count17hf8f8020833b40f06E, 1267
_ZN4core3str21_$LT$impl$u20$str$GT$3len17haa51e09e87369657E, 1268
_ZN4tiff5error9TiffError19from_inflate_status17h6711047e91f86e54E, 1269
_ZN4tiff5error12InflateError3new17hce9b874ba86e5bb4E, 1270
_ZN61_$LT$tiff..error..TiffError$u20$as$u20$core..fmt..Display$GT$3fmt17hb5334d25cb375644E, 1271
_ZN60_$LT$tiff..error..TiffError$u20$as$u20$std..error..Error$GT$11description17hb74c33ab5694d280E, 1272
_ZN60_$LT$tiff..error..TiffError$u20$as$u20$std..error..Error$GT$5cause17haad2109bda44fdecE, 1273
_ZN91_$LT$tiff..error..TiffError$u20$as$u20$core..convert..From$LT$std..io..error..Error$GT$$GT$4from17h3fb2da6f0001b58aE, 1274
_ZN98_$LT$tiff..error..TiffError$u20$as$u20$core..convert..From$LT$alloc..string..FromUtf8Error$GT$$GT$4from17h6644999d4e029c13E, 1275
_ZN98_$LT$tiff..error..TiffError$u20$as$u20$core..convert..From$LT$tiff..error..TiffFormatError$GT$$GT$4from17hb8e9110cc438c02fE, 1276
_ZN103_$LT$tiff..error..TiffError$u20$as$u20$core..convert..From$LT$tiff..error..TiffUnsupportedError$GT$$GT$4from17h8fd930616c7c828fE, 1277
_ZN4tiff8bytecast14i8_as_ne_bytes17h9214a5eb1b075868E, 1278
_ZN4tiff8bytecast15u16_as_ne_bytes17hf298aab045fabdc0E, 1279
_ZN4tiff8bytecast19u16_as_ne_mut_bytes17h5b21af787fb42f52E, 1280
_ZN4tiff8bytecast15i16_as_ne_bytes17hefb3f68cf8555435E, 1281
_ZN4tiff8bytecast15u32_as_ne_bytes17h8bedf52d21e5b451E, 1282
_ZN4tiff8bytecast19u32_as_ne_mut_bytes17h21cc97ef7f55d771E, 1283
_ZN4tiff8bytecast15i32_as_ne_bytes17h9b568f9759747d09E, 1284
_ZN4tiff8bytecast15u64_as_ne_bytes17hdee0d0cb985dcaa0E, 1285
_ZN4tiff8bytecast19u64_as_ne_mut_bytes17h7f8cda2c8412c4d5E, 1286
_ZN4tiff8bytecast15f32_as_ne_bytes17h701836a5f62dde1aE, 1287
_ZN4tiff8bytecast19f32_as_ne_mut_bytes17h743e9d9ecd2ce834E, 1288
_ZN4tiff8bytecast15f64_as_ne_bytes17h9e0a543a5b9b2ad9E, 1289
_ZN4tiff8bytecast19f64_as_ne_mut_bytes17h39ffc6348a84648cE, 1290
_ZN69_$LT$tiff..decoder..stream..ByteOrder$u20$as$u20$core..fmt..Debug$GT$3fmt17haa8c7012e6158f4fE, 1291
_ZN66_$LT$tiff..decoder..DecodingResult$u20$as$u20$core..fmt..Debug$GT$3fmt17h25dbf5eb5ec235f6E, 1292
_ZN4core3ptr51drop_in_place$LT$$RF$alloc..vec..Vec$LT$u16$GT$$GT$17he8c9ca2ab64976c8E, 1293
_ZN4core3ptr51drop_in_place$LT$$RF$alloc..vec..Vec$LT$u32$GT$$GT$17h14611fe2a53b3c77E, 1294
_ZN4core3ptr51drop_in_place$LT$$RF$alloc..vec..Vec$LT$u64$GT$$GT$17hcfb7fc71895cc9c5E, 1295
_ZN4core3ptr51drop_in_place$LT$$RF$alloc..vec..Vec$LT$f32$GT$$GT$17h613cfb19bc4aabceE, 1296
_ZN4core3ptr51drop_in_place$LT$$RF$alloc..vec..Vec$LT$f64$GT$$GT$17h4941f9e595d2cbb7E, 1297
_ZN68_$LT$tiff..decoder..StripDecodeState$u20$as$u20$core..fmt..Debug$GT$3fmt17h8b4ec68a5bbeee91E, 1298
_ZN58_$LT$tiff..decoder..Limits$u20$as$u20$core..fmt..Debug$GT$3fmt17h2a60e2ade4ceafbfE, 1299
_ZN4core3ptr33drop_in_place$LT$$RF$$LP$$RP$$GT$17h62a5a7bba3b36566E, 1300
_ZN59_$LT$tiff..error..TiffError$u20$as$u20$core..fmt..Debug$GT$3fmt17h6935f977155da7feE, 1301
_ZN4core3ptr53drop_in_place$LT$$RF$tiff..error..TiffFormatError$GT$17h99f57c750121c4f4E, 1302
_ZN4core3ptr58drop_in_place$LT$$RF$tiff..error..TiffUnsupportedError$GT$17h2bce92a8643b90d3E, 1303
_ZN4core3ptr46drop_in_place$LT$$RF$std..io..error..Error$GT$17h63fcd529b1e90229E, 1304
_ZN58_$LT$tiff..tags..Predictor$u20$as$u20$core..fmt..Debug$GT$3fmt17h5c11469a6a2ffb82E, 1305
_ZN63_$LT$tiff..tags..ResolutionUnit$u20$as$u20$core..fmt..Debug$GT$3fmt17h4ab6970fe2910f94E, 1306
_ZN55_$LT$scopeguard..Always$u20$as$u20$core..fmt..Debug$GT$3fmt17h454fbb586b5c64d0E, 1307
_ZN10num_traits10identities3One7set_one17h073179e01f641b00E, 1308
_ZN52_$LT$i128$u20$as$u20$num_traits..identities..One$GT$3one17ha9a565f5b125f9ceE, 1309
_ZN10num_traits10identities3One7set_one17h082af336c7e48352E, 1310
_ZN52_$LT$u128$u20$as$u20$num_traits..identities..One$GT$3one17h7037928a17b4dfc5E, 1311
_ZN10num_traits10identities3One7set_one17h1e78695894c3420cE, 1312
_ZN51_$LT$i64$u20$as$u20$num_traits..identities..One$GT$3one17h3fccf700ce06d1ccE, 1313
_ZN10num_traits10identities3One7set_one17h42268ea8d26e4d36E, 1314
_ZN51_$LT$i16$u20$as$u20$num_traits..identities..One$GT$3one17h463a738e6fdbbf95E, 1315
_ZN10num_traits10identities3One7set_one17h7b6d24aea34ca149E, 1316
_ZN51_$LT$u64$u20$as$u20$num_traits..identities..One$GT$3one17h4d383ea66c5e1288E, 1317
_ZN10num_traits10identities3One7set_one17hae6298635643c692E, 1318
_ZN50_$LT$i8$u20$as$u20$num_traits..identities..One$GT$3one17hc7c3d487e3f644ffE, 1319
_ZN10num_traits10identities3One7set_one17hb3f5561500ce3552E, 1320
_ZN51_$LT$i32$u20$as$u20$num_traits..identities..One$GT$3one17h3fb0b4a84da1c8e6E, 1321
_ZN10num_traits10identities3One7set_one17hb40209dd685b4a38E, 1322
_ZN51_$LT$u32$u20$as$u20$num_traits..identities..One$GT$3one17hfbaa6a8fcc6f4795E, 1323
_ZN10num_traits10identities3One7set_one17hc67242166b180caeE, 1324
_ZN53_$LT$isize$u20$as$u20$num_traits..identities..One$GT$3one17h58caa4351a97688dE, 1325
_ZN10num_traits10identities3One7set_one17hd617e87791b4b508E, 1326
_ZN50_$LT$u8$u20$as$u20$num_traits..identities..One$GT$3one17hd95ff57a848e798aE, 1327
_ZN10num_traits10identities3One7set_one17he56252bb3dd19043E, 1328
_ZN53_$LT$usize$u20$as$u20$num_traits..identities..One$GT$3one17hbd310e999aac94fcE, 1329
_ZN10num_traits10identities3One7set_one17hfd9b5a638c041459E, 1330
_ZN51_$LT$u16$u20$as$u20$num_traits..identities..One$GT$3one17h976ee321aad3e88eE, 1331
_ZN42_$LT$$RF$T$u20$as$u20$core..fmt..Debug$GT$3fmt17h3a6906ad8b5150d7E, 1332
_ZN65_$LT$num_rational..RatioErrorKind$u20$as$u20$core..fmt..Debug$GT$3fmt17hb8f7e0a575164e4bE, 1333
_ZN42_$LT$$RF$T$u20$as$u20$core..fmt..Debug$GT$3fmt17h8ca29d69be4f5e3aE, 1334
_ZN4core3fmt3num50_$LT$impl$u20$core..fmt..Debug$u20$for$u20$u32$GT$3fmt17h7a5cf09d9fe78ed5E, 1335
_ZN48_$LT$i8$u20$as$u20$num_traits..cast..NumCast$GT$4from17h5c348b48bce57e3cE, 1336
_ZN53_$LT$f64$u20$as$u20$num_traits..cast..ToPrimitive$GT$5to_i817hfe0c842715742388E, 1337
_ZN4core3f6421_$LT$impl$u20$f64$GT$16to_int_unchecked17hc9e60cdb4b074ac4E, 1338
_ZN64_$LT$f64$u20$as$u20$core..convert..num..FloatToInt$LT$i8$GT$$GT$16to_int_unchecked17hfe9d362d0f345052E, 1339
_ZN48_$LT$i8$u20$as$u20$num_traits..cast..NumCast$GT$4from17hcdda4b99a5c76c1dE, 1340
_ZN53_$LT$f32$u20$as$u20$num_traits..cast..ToPrimitive$GT$5to_i817h9edf3fbc19891548E, 1341
_ZN4core3f3221_$LT$impl$u20$f32$GT$16to_int_unchecked17hfd6e222396848d57E, 1342
_ZN64_$LT$f32$u20$as$u20$core..convert..num..FloatToInt$LT$i8$GT$$GT$16to_int_unchecked17hd18e6df3b3bb6f67E, 1343
_ZN48_$LT$u8$u20$as$u20$num_traits..cast..NumCast$GT$4from17ha2bdbe71e697dac8E, 1344
_ZN53_$LT$f64$u20$as$u20$num_traits..cast..ToPrimitive$GT$5to_u817h43af18f4eb276c32E, 1345
_ZN4core3f6421_$LT$impl$u20$f64$GT$16to_int_unchecked17h8fbadb6244e7d6c9E, 1346
_ZN64_$LT$f64$u20$as$u20$core..convert..num..FloatToInt$LT$u8$GT$$GT$16to_int_unchecked17h526d7ad66f7242c4E, 1347
_ZN48_$LT$u8$u20$as$u20$num_traits..cast..NumCast$GT$4from17hda0c3578cd3673c2E, 1348
_ZN53_$LT$f32$u20$as$u20$num_traits..cast..ToPrimitive$GT$5to_u817h4429b9631cdcb9bcE, 1349
_ZN4core3f3221_$LT$impl$u20$f32$GT$16to_int_unchecked17hb79f81242b2f8064E, 1350
_ZN64_$LT$f32$u20$as$u20$core..convert..num..FloatToInt$LT$u8$GT$$GT$16to_int_unchecked17h9f211686f526e822E, 1351
_ZN49_$LT$f32$u20$as$u20$num_traits..cast..NumCast$GT$4from17h1a595ea2558ba053E, 1352
_ZN54_$LT$u128$u20$as$u20$num_traits..cast..ToPrimitive$GT$6to_f3217hc81d4e017d0877d2E, 1353
_ZN49_$LT$f32$u20$as$u20$num_traits..cast..NumCast$GT$4from17h220c9c62083c6113E, 1354
_ZN53_$LT$u64$u20$as$u20$num_traits..cast..ToPrimitive$GT$6to_f3217h34de49a6919097aaE, 1355
_ZN49_$LT$f32$u20$as$u20$num_traits..cast..NumCast$GT$4from17h40f5a93aeb13a392E, 1356
_ZN55_$LT$usize$u20$as$u20$num_traits..cast..ToPrimitive$GT$6to_f3217h1102638d2d58447fE, 1357
_ZN49_$LT$f32$u20$as$u20$num_traits..cast..NumCast$GT$4from17h422dbe054e0cea4fE, 1358
_ZN54_$LT$i128$u20$as$u20$num_traits..cast..ToPrimitive$GT$6to_f3217h13a588842d272a65E, 1359
_ZN49_$LT$f32$u20$as$u20$num_traits..cast..NumCast$GT$4from17h78315c2dc694e4e7E, 1360
_ZN53_$LT$u16$u20$as$u20$num_traits..cast..ToPrimitive$GT$6to_f3217h0c88edaf8fee8f34E, 1361
_ZN49_$LT$f32$u20$as$u20$num_traits..cast..NumCast$GT$4from17h7dbb70ed870c6799E, 1362
_ZN52_$LT$u8$u20$as$u20$num_traits..cast..ToPrimitive$GT$6to_f3217h67bfc9e5e1fad4f5E, 1363
_ZN49_$LT$f32$u20$as$u20$num_traits..cast..NumCast$GT$4from17h8152b8b5b253dd3bE, 1364
_ZN53_$LT$i64$u20$as$u20$num_traits..cast..ToPrimitive$GT$6to_f3217hfe1679a300c9042cE, 1365
_ZN49_$LT$f32$u20$as$u20$num_traits..cast..NumCast$GT$4from17hadeb3c04b9d546e3E, 1366
_ZN53_$LT$i16$u20$as$u20$num_traits..cast..ToPrimitive$GT$6to_f3217h0a60b154a2e9a807E, 1367
_ZN49_$LT$f32$u20$as$u20$num_traits..cast..NumCast$GT$4from17hb08e468e379d9b6cE, 1368
_ZN53_$LT$u32$u20$as$u20$num_traits..cast..ToPrimitive$GT$6to_f3217h6d8853e84bdf5b3aE, 1369
_ZN49_$LT$f32$u20$as$u20$num_traits..cast..NumCast$GT$4from17hc4fff0c461e09607E, 1370
_ZN52_$LT$i8$u20$as$u20$num_traits..cast..ToPrimitive$GT$6to_f3217hf1a3b029d32a49aeE, 1371
_ZN49_$LT$f32$u20$as$u20$num_traits..cast..NumCast$GT$4from17he675db0ce8e55a1fE, 1372
_ZN55_$LT$isize$u20$as$u20$num_traits..cast..ToPrimitive$GT$6to_f3217ha425d890abe4aa5cE, 1373
_ZN49_$LT$f32$u20$as$u20$num_traits..cast..NumCast$GT$4from17hf1c46c180a95d49fE, 1374
_ZN53_$LT$i32$u20$as$u20$num_traits..cast..ToPrimitive$GT$6to_f3217h698a5b4c3a8a505fE, 1375
_ZN49_$LT$f64$u20$as$u20$num_traits..cast..NumCast$GT$4from17h33b9a973adbc560bE, 1376
_ZN52_$LT$i8$u20$as$u20$num_traits..cast..ToPrimitive$GT$6to_f6417h005ab1724d03df8eE, 1377
_ZN49_$LT$f64$u20$as$u20$num_traits..cast..NumCast$GT$4from17h4fe67118461e5669E, 1378
_ZN53_$LT$u16$u20$as$u20$num_traits..cast..ToPrimitive$GT$6to_f6417hc09d669762cd5768E, 1379
_ZN49_$LT$f64$u20$as$u20$num_traits..cast..NumCast$GT$4from17h5aee9b5283d6b5a7E, 1380
_ZN53_$LT$i16$u20$as$u20$num_traits..cast..ToPrimitive$GT$6to_f6417h2fa1637501dd8f87E, 1381
_ZN49_$LT$f64$u20$as$u20$num_traits..cast..NumCast$GT$4from17h6ea3729558679504E, 1382
_ZN52_$LT$u8$u20$as$u20$num_traits..cast..ToPrimitive$GT$6to_f6417hf0787d7b11742f5eE, 1383
_ZN49_$LT$f64$u20$as$u20$num_traits..cast..NumCast$GT$4from17h71faf95c70770fafE, 1384
_ZN55_$LT$isize$u20$as$u20$num_traits..cast..ToPrimitive$GT$6to_f6417h10c6c146e7268024E, 1385
_ZN49_$LT$f64$u20$as$u20$num_traits..cast..NumCast$GT$4from17h7574ab49f1a44293E, 1386
_ZN53_$LT$u64$u20$as$u20$num_traits..cast..ToPrimitive$GT$6to_f6417h85130642996573b1E, 1387
_ZN49_$LT$f64$u20$as$u20$num_traits..cast..NumCast$GT$4from17ha336d21697137613E, 1388
_ZN53_$LT$u32$u20$as$u20$num_traits..cast..ToPrimitive$GT$6to_f6417ha9919f002e4d4300E, 1389
_ZN49_$LT$f64$u20$as$u20$num_traits..cast..NumCast$GT$4from17hafb7d5238e653e84E, 1390
_ZN53_$LT$i32$u20$as$u20$num_traits..cast..ToPrimitive$GT$6to_f6417h01dfaeac5fafb111E, 1391
_ZN49_$LT$f64$u20$as$u20$num_traits..cast..NumCast$GT$4from17hbd16306b7e499c1eE, 1392
_ZN54_$LT$i128$u20$as$u20$num_traits..cast..ToPrimitive$GT$6to_f6417h07734d37b954ced2E, 1393
_ZN49_$LT$f64$u20$as$u20$num_traits..cast..NumCast$GT$4from17hcb798a9cc011473cE, 1394
_ZN55_$LT$usize$u20$as$u20$num_traits..cast..ToPrimitive$GT$6to_f6417h711926e101f22191E, 1395
_ZN49_$LT$f64$u20$as$u20$num_traits..cast..NumCast$GT$4from17hd1436d6ba4a77075E, 1396
_ZN54_$LT$u128$u20$as$u20$num_traits..cast..ToPrimitive$GT$6to_f6417hff69d5851841bcb5E, 1397
_ZN49_$LT$f64$u20$as$u20$num_traits..cast..NumCast$GT$4from17he8bfe824227329cfE, 1398
_ZN53_$LT$i64$u20$as$u20$num_traits..cast..ToPrimitive$GT$6to_f6417ha04fac68def4e22aE, 1399
_ZN49_$LT$i16$u20$as$u20$num_traits..cast..NumCast$GT$4from17h19381b85d34f8cf6E, 1400
_ZN53_$LT$f64$u20$as$u20$num_traits..cast..ToPrimitive$GT$6to_i1617h20a63391bbbe2f06E, 1401
_ZN4core3f6421_$LT$impl$u20$f64$GT$16to_int_unchecked17h69e7708a2bb8a76eE, 1402
_ZN65_$LT$f64$u20$as$u20$core..convert..num..FloatToInt$LT$i16$GT$$GT$16to_int_unchecked17h8cee67578ee50c5fE, 1403
_ZN49_$LT$i16$u20$as$u20$num_traits..cast..NumCast$GT$4from17h2981e6f529737782E, 1404
_ZN53_$LT$f32$u20$as$u20$num_traits..cast..ToPrimitive$GT$6to_i1617h2573ab5774cf25fdE, 1405
_ZN4core3f3221_$LT$impl$u20$f32$GT$16to_int_unchecked17h7f15ee76b677c29eE, 1406
_ZN65_$LT$f32$u20$as$u20$core..convert..num..FloatToInt$LT$i16$GT$$GT$16to_int_unchecked17hc26f708554a89ce4E, 1407
_ZN49_$LT$i32$u20$as$u20$num_traits..cast..NumCast$GT$4from17h0439bee7d13a9e84E, 1408
_ZN53_$LT$f32$u20$as$u20$num_traits..cast..ToPrimitive$GT$6to_i3217h57ac3a76cfb661d1E, 1409
_ZN4core3f3221_$LT$impl$u20$f32$GT$16to_int_unchecked17h3e9a3bb949bcdb5dE, 1410
_ZN65_$LT$f32$u20$as$u20$core..convert..num..FloatToInt$LT$i32$GT$$GT$16to_int_unchecked17h8d93bf85c5269c80E, 1411
_ZN49_$LT$i32$u20$as$u20$num_traits..cast..NumCast$GT$4from17hd0114a0a9cdab282E, 1412
_ZN53_$LT$f64$u20$as$u20$num_traits..cast..ToPrimitive$GT$6to_i3217hbcf34c97d4d2a4beE, 1413
_ZN4core3f6421_$LT$impl$u20$f64$GT$16to_int_unchecked17h833b70945306b71dE, 1414
_ZN65_$LT$f64$u20$as$u20$core..convert..num..FloatToInt$LT$i32$GT$$GT$16to_int_unchecked17h883476712c31d523E, 1415
_ZN49_$LT$i64$u20$as$u20$num_traits..cast..NumCast$GT$4from17h0b8aed10255a4db9E, 1416
_ZN53_$LT$f64$u20$as$u20$num_traits..cast..ToPrimitive$GT$6to_i6417hbc0ab5bb3ef13afbE, 1417
_ZN4core3f6421_$LT$impl$u20$f64$GT$16to_int_unchecked17hac78585126367bf9E, 1418
_ZN65_$LT$f64$u20$as$u20$core..convert..num..FloatToInt$LT$i64$GT$$GT$16to_int_unchecked17ha6f801d87a825d49E, 1419
_ZN49_$LT$i64$u20$as$u20$num_traits..cast..NumCast$GT$4from17ha22e3b70fbeeecb5E, 1420
_ZN53_$LT$f32$u20$as$u20$num_traits..cast..ToPrimitive$GT$6to_i6417ha8210d88e03fe3a0E, 1421
_ZN4core3f3221_$LT$impl$u20$f32$GT$16to_int_unchecked17h040c4a7c7205e147E, 1422
_ZN65_$LT$f32$u20$as$u20$core..convert..num..FloatToInt$LT$i64$GT$$GT$16to_int_unchecked17h00e2839b91096fb0E, 1423
_ZN49_$LT$u16$u20$as$u20$num_traits..cast..NumCast$GT$4from17h63d6de29f2f90cf9E, 1424
_ZN53_$LT$f64$u20$as$u20$num_traits..cast..ToPrimitive$GT$6to_u1617h1fb04f4ea86be6afE, 1425
_ZN4core3f6421_$LT$impl$u20$f64$GT$16to_int_unchecked17hd4a825fe64ca656dE, 1426
_ZN65_$LT$f64$u20$as$u20$core..convert..num..FloatToInt$LT$u16$GT$$GT$16to_int_unchecked17h26693ba1a66afe0eE, 1427
_ZN49_$LT$u16$u20$as$u20$num_traits..cast..NumCast$GT$4from17hfabfec71bb53ea61E, 1428
_ZN53_$LT$f32$u20$as$u20$num_traits..cast..ToPrimitive$GT$6to_u1617h049f3f4db9fa6c5dE, 1429
_ZN4core3f3221_$LT$impl$u20$f32$GT$16to_int_unchecked17he903623e0d86a6a1E, 1430
_ZN65_$LT$f32$u20$as$u20$core..convert..num..FloatToInt$LT$u16$GT$$GT$16to_int_unchecked17hbb600d49a898104aE, 1431
_ZN49_$LT$u32$u20$as$u20$num_traits..cast..NumCast$GT$4from17ha0723ffd823652b2E, 1432
_ZN53_$LT$f64$u20$as$u20$num_traits..cast..ToPrimitive$GT$6to_u3217h00ea643cb2ce5dfcE, 1433
_ZN4core3f6421_$LT$impl$u20$f64$GT$16to_int_unchecked17h32d295ac0cc6a340E, 1434
_ZN65_$LT$f64$u20$as$u20$core..convert..num..FloatToInt$LT$u32$GT$$GT$16to_int_unchecked17he29ac256919c44adE, 1435
_ZN49_$LT$u32$u20$as$u20$num_traits..cast..NumCast$GT$4from17hf2a04b2befa9fe82E, 1436
_ZN53_$LT$f32$u20$as$u20$num_traits..cast..ToPrimitive$GT$6to_u3217h38cd6cd011d5ebc8E, 1437
_ZN4core3f3221_$LT$impl$u20$f32$GT$16to_int_unchecked17hb9d8c2f2c0a5b608E, 1438
_ZN65_$LT$f32$u20$as$u20$core..convert..num..FloatToInt$LT$u32$GT$$GT$16to_int_unchecked17heddc03aba8ae1b90E, 1439
_ZN49_$LT$u64$u20$as$u20$num_traits..cast..NumCast$GT$4from17h7f3187814606a6e8E, 1440
_ZN53_$LT$f64$u20$as$u20$num_traits..cast..ToPrimitive$GT$6to_u6417heed04ef2db3cf8fdE, 1441
_ZN4core3f6421_$LT$impl$u20$f64$GT$16to_int_unchecked17haa8f8617ce3caedbE, 1442
_ZN65_$LT$f64$u20$as$u20$core..convert..num..FloatToInt$LT$u64$GT$$GT$16to_int_unchecked17h66ea54bcd8800fdeE, 1443
_ZN49_$LT$u64$u20$as$u20$num_traits..cast..NumCast$GT$4from17hefcdbdd60922de7cE, 1444
_ZN53_$LT$f32$u20$as$u20$num_traits..cast..ToPrimitive$GT$6to_u6417hd41f85fc0577a63bE, 1445
_ZN4core3f3221_$LT$impl$u20$f32$GT$16to_int_unchecked17h5548c9347c4a0dd9E, 1446
_ZN65_$LT$f32$u20$as$u20$core..convert..num..FloatToInt$LT$u64$GT$$GT$16to_int_unchecked17hb8be1dbc00b63ce0E, 1447
_ZN4core10intrinsics19copy_nonoverlapping17hc4cab5d13c941e30E, 1448
_ZN4core3cmp3Ord3max17hc0951c990ad47864E, 1449
_ZN4core3cmp6max_by17h1cd4449098fcadf4E, 1450
_ZN4core3ops8function6FnOnce9call_once17h29ee99b46667eff8E, 1451
_ZN4core3cmp5impls50_$LT$impl$u20$core..cmp..Ord$u20$for$u20$isize$GT$3cmp17hc06cdd982d4ef4d0E, 1452
_ZN4core3f3221_$LT$impl$u20$f32$GT$16to_int_unchecked17h683197a62af0c56aE, 1453
_ZN66_$LT$f32$u20$as$u20$core..convert..num..FloatToInt$LT$u128$GT$$GT$16to_int_unchecked17h464363060f4dd9a2E, 1454
_ZN4core3f3221_$LT$impl$u20$f32$GT$16to_int_unchecked17h85362a0d2af0825fE, 1455
_ZN67_$LT$f32$u20$as$u20$core..convert..num..FloatToInt$LT$usize$GT$$GT$16to_int_unchecked17hacf8cf8c98e0fa32E, 1456
_ZN4core3f3221_$LT$impl$u20$f32$GT$16to_int_unchecked17h93551720259aae5cE, 1457
_ZN66_$LT$f32$u20$as$u20$core..convert..num..FloatToInt$LT$i128$GT$$GT$16to_int_unchecked17hdb42c274ebe21a5cE, 1458
_ZN4core3f3221_$LT$impl$u20$f32$GT$16to_int_unchecked17he1be1e99c547b6dfE, 1459
_ZN67_$LT$f32$u20$as$u20$core..convert..num..FloatToInt$LT$isize$GT$$GT$16to_int_unchecked17hf5c7f444b9b70e15E, 1460
_ZN4core3f6421_$LT$impl$u20$f64$GT$16to_int_unchecked17h171e5b73ebc6c23bE, 1461
_ZN66_$LT$f64$u20$as$u20$core..convert..num..FloatToInt$LT$u128$GT$$GT$16to_int_unchecked17h49b82e310135469fE, 1462
_ZN4core3f6421_$LT$impl$u20$f64$GT$16to_int_unchecked17h871f78196ebe6a99E, 1463
_ZN67_$LT$f64$u20$as$u20$core..convert..num..FloatToInt$LT$isize$GT$$GT$16to_int_unchecked17h4ca0132d9132b403E, 1464
_ZN4core3f6421_$LT$impl$u20$f64$GT$16to_int_unchecked17he198c318608bf28bE, 1465
_ZN66_$LT$f64$u20$as$u20$core..convert..num..FloatToInt$LT$i128$GT$$GT$16to_int_unchecked17h23fdb19f2ebc7044E, 1466
_ZN4core3f6421_$LT$impl$u20$f64$GT$16to_int_unchecked17he36ebd18fe8f7b3dE, 1467
_ZN67_$LT$f64$u20$as$u20$core..convert..num..FloatToInt$LT$usize$GT$$GT$16to_int_unchecked17hea52d2f654829dc4E, 1468
_ZN4core3mem7replace17h9c2b8e070b3d08a2E, 1469
_ZN4core3ptr4read17h61da964c94288b5dE, 1470
_ZN4core3ptr5write17h1fa612f9a549ed0bE, 1471
_ZN4core4iter5range101_$LT$impl$u20$core..iter..traits..iterator..Iterator$u20$for$u20$core..ops..range..Range$LT$A$GT$$GT$4next17h1d387ae8cdd638f6E, 1472
_ZN89_$LT$core..ops..range..Range$LT$T$GT$$u20$as$u20$core..iter..range..RangeIteratorImpl$GT$9spec_next17h00978d187a99a79aE, 1473
_ZN4core3cmp5impls57_$LT$impl$u20$core..cmp..PartialOrd$u20$for$u20$usize$GT$2lt17h806e00a751f3a528E, 1474
_ZN4core5clone5impls54_$LT$impl$u20$core..clone..Clone$u20$for$u20$usize$GT$5clone17h155f15be56299965E, 1475
_ZN49_$LT$usize$u20$as$u20$core..iter..range..Step$GT$17forward_unchecked17h7e5ffbb2a4edc0dfE, 1476
_ZN4core6option15Option$LT$T$GT$3map17h18813530c3238345E, 1477
_ZN4core3ops8function6FnOnce9call_once17h867104625978677aE, 1478
_ZN12num_rational14Ratio$LT$T$GT$12from_integer17h33395775a487fa0bE, 1479
_ZN12num_rational14Ratio$LT$T$GT$7new_raw17hcf870613d0ed3677E, 1480
_ZN4core6option15Option$LT$T$GT$3map17h19e9ed03de91ebe7E, 1481
_ZN4core3ops8function6FnOnce9call_once17h519278802eaebadaE, 1482
_ZN12num_rational14Ratio$LT$T$GT$12from_integer17h05c953b99223f193E, 1483
_ZN12num_rational14Ratio$LT$T$GT$7new_raw17hdfda3d168da9f7f2E, 1484
_ZN4core6option15Option$LT$T$GT$3map17h36e9a62c554354fcE, 1485
_ZN4core3ops8function6FnOnce9call_once17he417445c3a9e1e7fE, 1486
_ZN12num_rational14Ratio$LT$T$GT$12from_integer17hbb4d70e8f6e67fa9E, 1487
_ZN12num_rational14Ratio$LT$T$GT$7new_raw17h76acb68a79083cf8E, 1488
_ZN4core6option15Option$LT$T$GT$3map17h4bb7b9cbd5752a86E, 1489
_ZN4core3ops8function6FnOnce9call_once17hc6348e6ac368e14eE, 1490
_ZN12num_rational14Ratio$LT$T$GT$12from_integer17h2eade51a1eea8bb9E, 1491
_ZN12num_rational14Ratio$LT$T$GT$7new_raw17h0080be2a6e45eab1E, 1492
_ZN4core6option15Option$LT$T$GT$3map17h71da266016ebdf7aE, 1493
_ZN4core3ops8function6FnOnce9call_once17hba51c099b9f28da9E, 1494
_ZN12num_rational14Ratio$LT$T$GT$12from_integer17hd640e37a4c67f45aE, 1495
_ZN12num_rational14Ratio$LT$T$GT$7new_raw17h7b232496652f49aeE, 1496
_ZN4core6option15Option$LT$T$GT$3map17h7c49d628ce35c02fE, 1497
_ZN4core3ops8function6FnOnce9call_once17h7a04cfb3ee44bfe0E, 1498
_ZN12num_rational14Ratio$LT$T$GT$12from_integer17hff1f276d6e7ee1fcE, 1499
_ZN12num_rational14Ratio$LT$T$GT$7new_raw17h43d7e9379c92a04dE, 1500
_ZN4core6option15Option$LT$T$GT$3map17h8d69213ff520708eE, 1501
_ZN4core3ops8function6FnOnce9call_once17h4336b2919edf7f52E, 1502
_ZN12num_rational14Ratio$LT$T$GT$12from_integer17h048c637e1f5443c9E, 1503
_ZN12num_rational14Ratio$LT$T$GT$7new_raw17h98feef4df5baf9f0E, 1504
_ZN4core6option15Option$LT$T$GT$3map17ha84e39bd15fdc5beE, 1505
_ZN4core3ops8function6FnOnce9call_once17h1f710a19218b317bE, 1506
_ZN12num_rational14Ratio$LT$T$GT$12from_integer17h50d33b2ceb6b0c08E, 1507
_ZN12num_rational14Ratio$LT$T$GT$7new_raw17h380ed26356f5e9a8E, 1508
_ZN4core6option15Option$LT$T$GT$3map17ha9d86f17ed3d18c9E, 1509
_ZN4core3ops8function6FnOnce9call_once17hf28213d3ec5a3856E, 1510
_ZN12num_rational14Ratio$LT$T$GT$12from_integer17h0610129327af5d10E, 1511
_ZN12num_rational14Ratio$LT$T$GT$7new_raw17h9d7defd894e7b3beE, 1512
_ZN4core6option15Option$LT$T$GT$3map17hd745e409ee1a34adE, 1513
_ZN4core3ops8function6FnOnce9call_once17hb53974fb0c039f99E, 1514
_ZN12num_rational14Ratio$LT$T$GT$12from_integer17h579ac0b3a660a77cE, 1515
_ZN12num_rational14Ratio$LT$T$GT$7new_raw17h6457ea43f05575cdE, 1516
_ZN4core6option15Option$LT$T$GT$3map17he287126c897f8585E, 1517
_ZN4core3ops8function6FnOnce9call_once17h9621016020c40677E, 1518
_ZN12num_rational14Ratio$LT$T$GT$12from_integer17hccb20b891e9b812dE, 1519
_ZN12num_rational14Ratio$LT$T$GT$7new_raw17hbd423bff3a373205E, 1520
_ZN4core6option15Option$LT$T$GT$3map17hfd2da2a097c4b891E, 1521
_ZN4core3ops8function6FnOnce9call_once17hdac75a7f7d8e8be2E, 1522
_ZN12num_rational14Ratio$LT$T$GT$12from_integer17hb0576e83e7083032E, 1523
_ZN12num_rational14Ratio$LT$T$GT$7new_raw17h08ec8293dd832763E, 1524
_ZN4core6option15Option$LT$T$GT$6unwrap17h14b7792fd617d3a4E, 1525
_ZN4core6option15Option$LT$T$GT$6unwrap17ha55edbf06a4311cfE, 1526
_ZN4core6option15Option$LT$T$GT$6unwrap17he465466e3a3a8abeE, 1527
_ZN4core9panicking13assert_failed17h338088be4d051535E, 1528
_ZN4core3ptr28drop_in_place$LT$$RF$u32$GT$17he02cb9fbd37f585bE, 1529
_ZN50_$LT$T$u20$as$u20$core..convert..Into$LT$U$GT$$GT$4into17h822f13ee721279f8E, 1530
_ZN4core7convert3num64_$LT$impl$u20$core..convert..From$LT$u32$GT$$u20$for$u20$u64$GT$4from17hb097949420db3038E, 1531
_ZN50_$LT$i128$u20$as$u20$num_traits..cast..NumCast$GT$4from17h337e6006383db3d3E, 1532
_ZN53_$LT$f64$u20$as$u20$num_traits..cast..ToPrimitive$GT$7to_i12817h949b46f27bed9bd5E, 1533
_ZN50_$LT$i128$u20$as$u20$num_traits..cast..NumCast$GT$4from17hc561c39c3663aafbE, 1534
_ZN53_$LT$f32$u20$as$u20$num_traits..cast..ToPrimitive$GT$7to_i12817haae3624d9a3c0644E, 1535
_ZN50_$LT$u128$u20$as$u20$num_traits..cast..NumCast$GT$4from17h3da576ba0afa0ae1E, 1536
_ZN53_$LT$f32$u20$as$u20$num_traits..cast..ToPrimitive$GT$7to_u12817hb172c5796ee96e3cE, 1537
_ZN50_$LT$u128$u20$as$u20$num_traits..cast..NumCast$GT$4from17ha2acadc71a214c2aE, 1538
_ZN53_$LT$f64$u20$as$u20$num_traits..cast..ToPrimitive$GT$7to_u12817h0576754fb9e691a4E, 1539
_ZN51_$LT$isize$u20$as$u20$num_traits..cast..NumCast$GT$4from17h60d81c6df30bbfb6E, 1540
_ZN53_$LT$f32$u20$as$u20$num_traits..cast..ToPrimitive$GT$8to_isize17hc130f0ab71c9f8beE, 1541
_ZN51_$LT$isize$u20$as$u20$num_traits..cast..NumCast$GT$4from17h8fdd0abe4812d1bfE, 1542
_ZN53_$LT$f64$u20$as$u20$num_traits..cast..ToPrimitive$GT$8to_isize17h17ce9653d160a8fbE, 1543
_ZN51_$LT$usize$u20$as$u20$num_traits..cast..NumCast$GT$4from17h708cf0ce3f43217bE, 1544
_ZN53_$LT$f32$u20$as$u20$num_traits..cast..ToPrimitive$GT$8to_usize17he9183d583c22dee5E, 1545
_ZN51_$LT$usize$u20$as$u20$num_traits..cast..NumCast$GT$4from17hb3ac6d956cd1cd45E, 1546
_ZN53_$LT$f64$u20$as$u20$num_traits..cast..ToPrimitive$GT$8to_usize17h89cb88f1716d297eE, 1547
_ZN63_$LT$I$u20$as$u20$core..iter..traits..collect..IntoIterator$GT$9into_iter17h584ce14827090ab0E, 1548
_ZN75_$LT$core..option..Option$LT$T$GT$$u20$as$u20$core..ops..try_trait..Try$GT$6branch17h2350b2fa2653008eE, 1549
_ZN75_$LT$core..option..Option$LT$T$GT$$u20$as$u20$core..ops..try_trait..Try$GT$6branch17h24737a20f38f0dc6E, 1550
_ZN75_$LT$core..option..Option$LT$T$GT$$u20$as$u20$core..ops..try_trait..Try$GT$6branch17h4305285b250fbc02E, 1551
_ZN75_$LT$core..option..Option$LT$T$GT$$u20$as$u20$core..ops..try_trait..Try$GT$6branch17h6dfd1234afbe17bfE, 1552
_ZN75_$LT$core..option..Option$LT$T$GT$$u20$as$u20$core..ops..try_trait..Try$GT$6branch17h9829920cd5bf5dd7E, 1553
_ZN75_$LT$core..option..Option$LT$T$GT$$u20$as$u20$core..ops..try_trait..Try$GT$6branch17h9aa3facfe6328614E, 1554
_ZN75_$LT$core..option..Option$LT$T$GT$$u20$as$u20$core..ops..try_trait..Try$GT$6branch17ha98c261fc63dc8feE, 1555
_ZN75_$LT$core..option..Option$LT$T$GT$$u20$as$u20$core..ops..try_trait..Try$GT$6branch17hcc5b29ef232500ebE, 1556
_ZN84_$LT$core..option..Option$LT$T$GT$$u20$as$u20$core..ops..try_trait..FromResidual$GT$13from_residual17h1b9cf5e539d38ef7E, 1557
_ZN84_$LT$core..option..Option$LT$T$GT$$u20$as$u20$core..ops..try_trait..FromResidual$GT$13from_residual17h394747e313a31f33E, 1558
_ZN84_$LT$core..option..Option$LT$T$GT$$u20$as$u20$core..ops..try_trait..FromResidual$GT$13from_residual17h3ca44adbbd6c2fa1E, 1559
_ZN84_$LT$core..option..Option$LT$T$GT$$u20$as$u20$core..ops..try_trait..FromResidual$GT$13from_residual17h4cfe26e20dfd390aE, 1560
_ZN84_$LT$core..option..Option$LT$T$GT$$u20$as$u20$core..ops..try_trait..FromResidual$GT$13from_residual17h6ab0c5e045cb743eE, 1561
_ZN84_$LT$core..option..Option$LT$T$GT$$u20$as$u20$core..ops..try_trait..FromResidual$GT$13from_residual17h846dcb7a403a651cE, 1562
_ZN84_$LT$core..option..Option$LT$T$GT$$u20$as$u20$core..ops..try_trait..FromResidual$GT$13from_residual17h8606555f992aadb8E, 1563
_ZN84_$LT$core..option..Option$LT$T$GT$$u20$as$u20$core..ops..try_trait..FromResidual$GT$13from_residual17haaa8a7d0e60613bfE, 1564
_ZN84_$LT$core..option..Option$LT$T$GT$$u20$as$u20$core..ops..try_trait..FromResidual$GT$13from_residual17hb3bcb0d80697dc43E, 1565
_ZN84_$LT$core..option..Option$LT$T$GT$$u20$as$u20$core..ops..try_trait..FromResidual$GT$13from_residual17hb9348abbb3c6af02E, 1566
_ZN84_$LT$core..option..Option$LT$T$GT$$u20$as$u20$core..ops..try_trait..FromResidual$GT$13from_residual17hdee68ed193cb5f19E, 1567
_ZN84_$LT$core..option..Option$LT$T$GT$$u20$as$u20$core..ops..try_trait..FromResidual$GT$13from_residual17he8ca4cecdb85a31aE, 1568
_ZN12num_rational14Ratio$LT$T$GT$3new17h08438cd68f791a8dE, 1569
_ZN12num_rational14Ratio$LT$T$GT$6reduce17h62c8822483752b61E, 1570
_ZN52_$LT$i64$u20$as$u20$num_traits..identities..Zero$GT$7is_zero17he81f105e5abfebe8E, 1571
_ZN4core3cmp5impls54_$LT$impl$u20$core..cmp..PartialEq$u20$for$u20$i64$GT$2eq17hae0a62333bce9800E, 1572
_ZN44_$LT$i64$u20$as$u20$num_integer..Integer$GT$3gcd17h6f52b4a16a5a5596E, 1573
_ZN76_$LT$num_rational..Ratio$LT$T$GT$$u20$as$u20$num_traits..identities..One$GT$7set_one17hcbc6a989432b784fE, 1574
_ZN4core5clone5impls52_$LT$impl$u20$core..clone..Clone$u20$for$u20$i64$GT$5clone17h20375c3c8d22a7feE, 1575
_ZN45_$LT$i64$u20$as$u20$core..ops..arith..Div$GT$3div17h7e4c07b2f9abe90eE, 1576
_ZN52_$LT$i64$u20$as$u20$num_traits..identities..Zero$GT$4zero17h82884a7be2a931a8E, 1577
_ZN4core3cmp5impls55_$LT$impl$u20$core..cmp..PartialOrd$u20$for$u20$i64$GT$2lt17h9388a8e56fc2ddd1E, 1578
_ZN45_$LT$i64$u20$as$u20$core..ops..arith..Sub$GT$3sub17h282609cef0978ad1E, 1579
_ZN4core3num21_$LT$impl$u20$i64$GT$3abs17h315578719b1757b5E, 1580
_ZN48_$LT$i64$u20$as$u20$num_traits..sign..Signed$GT$3abs17hdff1a2f7e9423285E, 1581
_ZN48_$LT$i64$u20$as$u20$num_traits..sign..Signed$GT$11is_negative17h41a7a2d94d186604E, 1582
_ZN12num_rational14Ratio$LT$T$GT$3new17h186fa4aa625367e1E, 1583
_ZN12num_rational14Ratio$LT$T$GT$6reduce17hed99af56dd49c487E, 1584
_ZN52_$LT$u64$u20$as$u20$num_traits..identities..Zero$GT$7is_zero17h351f506181bb0742E, 1585
_ZN4core3cmp5impls54_$LT$impl$u20$core..cmp..PartialEq$u20$for$u20$u64$GT$2eq17hed317940ffffdce9E, 1586
_ZN44_$LT$u64$u20$as$u20$num_integer..Integer$GT$3gcd17h56af7377cb506a20E, 1587
_ZN76_$LT$num_rational..Ratio$LT$T$GT$$u20$as$u20$num_traits..identities..One$GT$7set_one17h66977483923b31eaE, 1588
_ZN4core5clone5impls52_$LT$impl$u20$core..clone..Clone$u20$for$u20$u64$GT$5clone17haf9f9920422cb67dE, 1589
_ZN45_$LT$u64$u20$as$u20$core..ops..arith..Div$GT$3div17hf546c98f4f0a600aE, 1590
_ZN52_$LT$u64$u20$as$u20$num_traits..identities..Zero$GT$4zero17h462147c88df1e863E, 1591
_ZN4core3cmp5impls55_$LT$impl$u20$core..cmp..PartialOrd$u20$for$u20$u64$GT$2lt17hef8562d7ed73eab3E, 1592
_ZN45_$LT$u64$u20$as$u20$core..ops..arith..Sub$GT$3sub17h5b858f9c4e272b48E, 1593
_ZN12num_rational14Ratio$LT$T$GT$3new17h1c62aecf6765dafcE, 1594
_ZN12num_rational14Ratio$LT$T$GT$6reduce17h6c21e14cf0177c58E, 1595
_ZN53_$LT$u128$u20$as$u20$num_traits..identities..Zero$GT$7is_zero17hadeaebe93a62199dE, 1596
_ZN4core3cmp5impls55_$LT$impl$u20$core..cmp..PartialEq$u20$for$u20$u128$GT$2eq17hc9a11387e673dbacE, 1597
_ZN45_$LT$u128$u20$as$u20$num_integer..Integer$GT$3gcd17ha652110fdc8c7836E, 1598
_ZN76_$LT$num_rational..Ratio$LT$T$GT$$u20$as$u20$num_traits..identities..One$GT$7set_one17h1042fdb2d07e4f4dE, 1599
_ZN4core5clone5impls53_$LT$impl$u20$core..clone..Clone$u20$for$u20$u128$GT$5clone17h36a705a18690539aE, 1600
_ZN46_$LT$u128$u20$as$u20$core..ops..arith..Div$GT$3div17h5e026fc5e86055c9E, 1601
_ZN53_$LT$u128$u20$as$u20$num_traits..identities..Zero$GT$4zero17ha8a51c3b1f13bd44E, 1602
_ZN4core3cmp5impls56_$LT$impl$u20$core..cmp..PartialOrd$u20$for$u20$u128$GT$2lt17h20a0e21c74eeebf1E, 1603
_ZN46_$LT$u128$u20$as$u20$core..ops..arith..Sub$GT$3sub17h527e6a558ab844ffE, 1604
_ZN12num_rational14Ratio$LT$T$GT$3new17h43e1f797107415e5E, 1605
_ZN12num_rational14Ratio$LT$T$GT$6reduce17he5f87f69d5ce1ebdE, 1606
_ZN54_$LT$isize$u20$as$u20$num_traits..identities..Zero$GT$7is_zero17h34952241e8f4f211E, 1607
_ZN4core3cmp5impls56_$LT$impl$u20$core..cmp..PartialEq$u20$for$u20$isize$GT$2eq17hd05c4393ca6b077fE, 1608
_ZN46_$LT$isize$u20$as$u20$num_integer..Integer$GT$3gcd17h9f783b18109ada56E, 1609
_ZN76_$LT$num_rational..Ratio$LT$T$GT$$u20$as$u20$num_traits..identities..One$GT$7set_one17h6c9a7faa6c2e19afE, 1610
_ZN4core5clone5impls54_$LT$impl$u20$core..clone..Clone$u20$for$u20$isize$GT$5clone17hedc3350232bdc4fcE, 1611
_ZN47_$LT$isize$u20$as$u20$core..ops..arith..Div$GT$3div17h2549e93611b026fcE, 1612
_ZN54_$LT$isize$u20$as$u20$num_traits..identities..Zero$GT$4zero17h7320e24f64e747abE, 1613
_ZN4core3cmp5impls57_$LT$impl$u20$core..cmp..PartialOrd$u20$for$u20$isize$GT$2lt17h9755d32097d7a26bE, 1614
_ZN47_$LT$isize$u20$as$u20$core..ops..arith..Sub$GT$3sub17h80264092ec46b755E, 1615
_ZN4core3num23_$LT$impl$u20$isize$GT$3abs17h9c79d0112a632723E, 1616
_ZN50_$LT$isize$u20$as$u20$num_traits..sign..Signed$GT$3abs17h2a05632152f225e4E, 1617
_ZN50_$LT$isize$u20$as$u20$num_traits..sign..Signed$GT$11is_negative17h7a37b3a858340f60E, 1618
_ZN12num_rational14Ratio$LT$T$GT$3new17h7f190d4525d7dcdbE, 1619
_ZN12num_rational14Ratio$LT$T$GT$6reduce17h96bb41b968c56dddE, 1620
_ZN52_$LT$i32$u20$as$u20$num_traits..identities..Zero$GT$7is_zero17h45cb87f2c503cec1E, 1621
_ZN4core3cmp5impls54_$LT$impl$u20$core..cmp..PartialEq$u20$for$u20$i32$GT$2eq17h0d4172015cb067baE, 1622
_ZN44_$LT$i32$u20$as$u20$num_integer..Integer$GT$3gcd17hd67a4f6f3ed85754E, 1623
_ZN76_$LT$num_rational..Ratio$LT$T$GT$$u20$as$u20$num_traits..identities..One$GT$7set_one17h201048e2baac336cE, 1624
_ZN4core5clone5impls52_$LT$impl$u20$core..clone..Clone$u20$for$u20$i32$GT$5clone17h2748b96329bf0348E, 1625
_ZN45_$LT$i32$u20$as$u20$core..ops..arith..Div$GT$3div17hbcf92e3e82a5354fE, 1626
_ZN52_$LT$i32$u20$as$u20$num_traits..identities..Zero$GT$4zero17hbed4523ba68bc5a8E, 1627
_ZN4core3cmp5impls55_$LT$impl$u20$core..cmp..PartialOrd$u20$for$u20$i32$GT$2lt17h291420b2de196e96E, 1628
_ZN45_$LT$i32$u20$as$u20$core..ops..arith..Sub$GT$3sub17hb0d9796dd82d91a3E, 1629
_ZN4core3num21_$LT$impl$u20$i32$GT$3abs17h187fdb20d35675b4E, 1630
_ZN48_$LT$i32$u20$as$u20$num_traits..sign..Signed$GT$3abs17h4b3c47055caea2baE, 1631
_ZN48_$LT$i32$u20$as$u20$num_traits..sign..Signed$GT$11is_negative17hbfc388b2e5380bd1E, 1632
_ZN12num_rational14Ratio$LT$T$GT$3new17h95b72acf719b24d6E, 1633
_ZN12num_rational14Ratio$LT$T$GT$6reduce17h45bf9b2243621273E, 1634
_ZN52_$LT$u16$u20$as$u20$num_traits..identities..Zero$GT$7is_zero17h1de1744232bee873E, 1635
_ZN4core3cmp5impls54_$LT$impl$u20$core..cmp..PartialEq$u20$for$u20$u16$GT$2eq17h54550a4ff3c6ff12E, 1636
_ZN44_$LT$u16$u20$as$u20$num_integer..Integer$GT$3gcd17h05ea8668236006ebE, 1637
_ZN76_$LT$num_rational..Ratio$LT$T$GT$$u20$as$u20$num_traits..identities..One$GT$7set_one17h78ed9256b4854983E, 1638
_ZN4core5clone5impls52_$LT$impl$u20$core..clone..Clone$u20$for$u20$u16$GT$5clone17h4e9ce23c5938378eE, 1639
_ZN45_$LT$u16$u20$as$u20$core..ops..arith..Div$GT$3div17ha92553b68b830f16E, 1640
_ZN52_$LT$u16$u20$as$u20$num_traits..identities..Zero$GT$4zero17ha8e8997117f4168aE, 1641
_ZN4core3cmp5impls55_$LT$impl$u20$core..cmp..PartialOrd$u20$for$u20$u16$GT$2lt17h2690319cc7afa050E, 1642
_ZN45_$LT$u16$u20$as$u20$core..ops..arith..Sub$GT$3sub17h00414f2ed479149dE, 1643
_ZN12num_rational14Ratio$LT$T$GT$3new17hde8b56fe624b36caE, 1644
_ZN12num_rational14Ratio$LT$T$GT$6reduce17h3c219569cdd4a507E, 1645
_ZN53_$LT$i128$u20$as$u20$num_traits..identities..Zero$GT$7is_zero17h6f6b02ea3e015e41E, 1646
_ZN4core3cmp5impls55_$LT$impl$u20$core..cmp..PartialEq$u20$for$u20$i128$GT$2eq17h91a5076be4ea1c9dE, 1647
_ZN45_$LT$i128$u20$as$u20$num_integer..Integer$GT$3gcd17h580a88bdc869b645E, 1648
_ZN76_$LT$num_rational..Ratio$LT$T$GT$$u20$as$u20$num_traits..identities..One$GT$7set_one17hf5f0140592d01ff1E, 1649
_ZN4core5clone5impls53_$LT$impl$u20$core..clone..Clone$u20$for$u20$i128$GT$5clone17h19419a3bab990861E, 1650
_ZN46_$LT$i128$u20$as$u20$core..ops..arith..Div$GT$3div17h925bbf24c67aa975E, 1651
_ZN53_$LT$i128$u20$as$u20$num_traits..identities..Zero$GT$4zero17h1a08bdfaf021c59fE, 1652
_ZN4core3cmp5impls56_$LT$impl$u20$core..cmp..PartialOrd$u20$for$u20$i128$GT$2lt17hd0cb25e24f903d4cE, 1653
_ZN46_$LT$i128$u20$as$u20$core..ops..arith..Sub$GT$3sub17h2a1168748e1c7165E, 1654
_ZN4core3num22_$LT$impl$u20$i128$GT$3abs17h30322e6bae3315b0E, 1655
_ZN49_$LT$i128$u20$as$u20$num_traits..sign..Signed$GT$3abs17hed69ae8b0135e3c9E, 1656
_ZN49_$LT$i128$u20$as$u20$num_traits..sign..Signed$GT$11is_negative17hf0ace3b8347de0b2E, 1657
_ZN12num_rational14Ratio$LT$T$GT$3new17hf176693c782364b7E, 1658
_ZN12num_rational14Ratio$LT$T$GT$6reduce17h7464fb5a13e401daE, 1659
_ZN52_$LT$i16$u20$as$u20$num_traits..identities..Zero$GT$7is_zero17h632c02e6e981aea5E, 1660
_ZN4core3cmp5impls54_$LT$impl$u20$core..cmp..PartialEq$u20$for$u20$i16$GT$2eq17ha0cd47985a01f4b4E, 1661
_ZN44_$LT$i16$u20$as$u20$num_integer..Integer$GT$3gcd17habce49d576d699c4E, 1662
_ZN76_$LT$num_rational..Ratio$LT$T$GT$$u20$as$u20$num_traits..identities..One$GT$7set_one17he0061b7bfc3a7514E, 1663
_ZN4core5clone5impls52_$LT$impl$u20$core..clone..Clone$u20$for$u20$i16$GT$5clone17hd283cf2de45d9459E, 1664
_ZN45_$LT$i16$u20$as$u20$core..ops..arith..Div$GT$3div17h2d713f0c5ebf5eb1E, 1665
_ZN52_$LT$i16$u20$as$u20$num_traits..identities..Zero$GT$4zero17hb7cd63d3f3d7c078E, 1666
_ZN4core3cmp5impls55_$LT$impl$u20$core..cmp..PartialOrd$u20$for$u20$i16$GT$2lt17h726447fe65fada72E, 1667
_ZN45_$LT$i16$u20$as$u20$core..ops..arith..Sub$GT$3sub17h9afdd5c2608e89bfE, 1668
_ZN4core3num21_$LT$impl$u20$i16$GT$3abs17h35e45096edf5fb3fE, 1669
_ZN48_$LT$i16$u20$as$u20$num_traits..sign..Signed$GT$3abs17hbae4cdd95194042bE, 1670
_ZN48_$LT$i16$u20$as$u20$num_traits..sign..Signed$GT$11is_negative17h22ddf73dace42eb3E, 1671
_ZN12num_rational14Ratio$LT$T$GT$3new17hf23f96d35075e044E, 1672
_ZN12num_rational14Ratio$LT$T$GT$6reduce17h24115ba902001d30E, 1673
_ZN52_$LT$u32$u20$as$u20$num_traits..identities..Zero$GT$7is_zero17h280415e401387d8cE, 1674
_ZN4core3cmp5impls54_$LT$impl$u20$core..cmp..PartialEq$u20$for$u20$u32$GT$2eq17h02620283ac551ceeE, 1675
_ZN44_$LT$u32$u20$as$u20$num_integer..Integer$GT$3gcd17h2eb111b1176d0f3bE, 1676
_ZN76_$LT$num_rational..Ratio$LT$T$GT$$u20$as$u20$num_traits..identities..One$GT$7set_one17h33fcf5ad98a155fcE, 1677
_ZN4core5clone5impls52_$LT$impl$u20$core..clone..Clone$u20$for$u20$u32$GT$5clone17h27eb6f006b10f777E, 1678
_ZN45_$LT$u32$u20$as$u20$core..ops..arith..Div$GT$3div17hc3287e651ae10f5cE, 1679
_ZN52_$LT$u32$u20$as$u20$num_traits..identities..Zero$GT$4zero17h02f71471ecf7d43cE, 1680
_ZN4core3cmp5impls55_$LT$impl$u20$core..cmp..PartialOrd$u20$for$u20$u32$GT$2lt17h0f8e4da369c1da1aE, 1681
_ZN45_$LT$u32$u20$as$u20$core..ops..arith..Sub$GT$3sub17h27f85d65d6b04acbE, 1682
_ZN12num_rational14Ratio$LT$T$GT$3new17hf399d7b54fd2e681E, 1683
_ZN12num_rational14Ratio$LT$T$GT$6reduce17h09520ae20f930a4cE, 1684
_ZN51_$LT$u8$u20$as$u20$num_traits..identities..Zero$GT$7is_zero17h24f50799d050463bE, 1685
_ZN4core3cmp5impls53_$LT$impl$u20$core..cmp..PartialEq$u20$for$u20$u8$GT$2eq17h67fdd23a6468f90bE, 1686
_ZN43_$LT$u8$u20$as$u20$num_integer..Integer$GT$3gcd17h40067322486c08e9E, 1687
_ZN76_$LT$num_rational..Ratio$LT$T$GT$$u20$as$u20$num_traits..identities..One$GT$7set_one17hb3f0dddc3bf24f8cE, 1688
_ZN4core5clone5impls51_$LT$impl$u20$core..clone..Clone$u20$for$u20$u8$GT$5clone17h9bc7f16f089f8ba8E, 1689
_ZN44_$LT$u8$u20$as$u20$core..ops..arith..Div$GT$3div17h13989eae6be7ac53E, 1690
_ZN51_$LT$u8$u20$as$u20$num_traits..identities..Zero$GT$4zero17h21f1a2c9734e5940E, 1691
_ZN4core3cmp5impls54_$LT$impl$u20$core..cmp..PartialOrd$u20$for$u20$u8$GT$2lt17h57cf5015347a2cfcE, 1692
_ZN44_$LT$u8$u20$as$u20$core..ops..arith..Sub$GT$3sub17h5287485de26cf6faE, 1693
_ZN12num_rational14Ratio$LT$T$GT$3new17hfcfd8874891364e1E, 1694
_ZN12num_rational14Ratio$LT$T$GT$6reduce17h90cd8e19052b9beaE, 1695
_ZN54_$LT$usize$u20$as$u20$num_traits..identities..Zero$GT$7is_zero17hd433ef528f9a9d8eE, 1696
_ZN4core3cmp5impls56_$LT$impl$u20$core..cmp..PartialEq$u20$for$u20$usize$GT$2eq17h7c570d41a4b3980bE, 1697
_ZN46_$LT$usize$u20$as$u20$num_integer..Integer$GT$3gcd17hb62d0b76673a12b8E, 1698
_ZN76_$LT$num_rational..Ratio$LT$T$GT$$u20$as$u20$num_traits..identities..One$GT$7set_one17h555dad2c057385dcE, 1699
_ZN47_$LT$usize$u20$as$u20$core..ops..arith..Div$GT$3div17hc2b82bc83935c7bdE, 1700
_ZN54_$LT$usize$u20$as$u20$num_traits..identities..Zero$GT$4zero17h37229ce77ef7ea40E, 1701
_ZN47_$LT$usize$u20$as$u20$core..ops..arith..Sub$GT$3sub17hc220897e88a61092E, 1702
_ZN12num_rational14Ratio$LT$T$GT$3new17hff424b3e4ebba6d9E, 1703
_ZN12num_rational14Ratio$LT$T$GT$6reduce17h48b9372d034f2fc3E, 1704
_ZN51_$LT$i8$u20$as$u20$num_traits..identities..Zero$GT$7is_zero17hccb506b7407c9355E, 1705
_ZN4core3cmp5impls53_$LT$impl$u20$core..cmp..PartialEq$u20$for$u20$i8$GT$2eq17h18ebdb882e07231eE, 1706
_ZN43_$LT$i8$u20$as$u20$num_integer..Integer$GT$3gcd17ha2b620a5e233ac55E, 1707
_ZN76_$LT$num_rational..Ratio$LT$T$GT$$u20$as$u20$num_traits..identities..One$GT$7set_one17heaebbabb7b384b12E, 1708
_ZN4core5clone5impls51_$LT$impl$u20$core..clone..Clone$u20$for$u20$i8$GT$5clone17h272886b5c93715ccE, 1709
_ZN44_$LT$i8$u20$as$u20$core..ops..arith..Div$GT$3div17haac85b32a5bdee83E, 1710
_ZN51_$LT$i8$u20$as$u20$num_traits..identities..Zero$GT$4zero17h1a0e0cc119fb19c3E, 1711
_ZN4core3cmp5impls54_$LT$impl$u20$core..cmp..PartialOrd$u20$for$u20$i8$GT$2lt17hc8e723c84a24e2fdE, 1712
_ZN44_$LT$i8$u20$as$u20$core..ops..arith..Sub$GT$3sub17h7db6dd87d629daf5E, 1713
_ZN4core3num20_$LT$impl$u20$i8$GT$3abs17h25bbbe711ce76a8aE, 1714
_ZN47_$LT$i8$u20$as$u20$num_traits..sign..Signed$GT$3abs17h33e8212982a23593E, 1715
_ZN47_$LT$i8$u20$as$u20$num_traits..sign..Signed$GT$11is_negative17h6c28d86c879733f2E, 1716
_ZN12num_rational14Ratio$LT$T$GT$10to_integer17h0e64709cacc82fdeE, 1717
_ZN12num_rational14Ratio$LT$T$GT$5trunc17h7bf50ed3ad258558E, 1718
_ZN12num_rational14Ratio$LT$T$GT$10to_integer17h391e35823c0f4bf5E, 1719
_ZN12num_rational14Ratio$LT$T$GT$5trunc17hb377d255e0440454E, 1720
_ZN12num_rational14Ratio$LT$T$GT$10to_integer17h3937c2bb8f42a79fE, 1721
_ZN12num_rational14Ratio$LT$T$GT$5trunc17hdaa6908559491a36E, 1722
_ZN12num_rational14Ratio$LT$T$GT$10to_integer17h3b59d5aff3076d07E, 1723
_ZN12num_rational14Ratio$LT$T$GT$5trunc17h6d77274b6d4ce81bE, 1724
_ZN12num_rational14Ratio$LT$T$GT$10to_integer17h67cfe213c79b15c1E, 1725
_ZN12num_rational14Ratio$LT$T$GT$5trunc17hf0abd201cccfd545E, 1726
_ZN12num_rational14Ratio$LT$T$GT$10to_integer17h95db7894f4de1d7cE, 1727
_ZN12num_rational14Ratio$LT$T$GT$5trunc17hf277c99fbed19c60E, 1728
_ZN12num_rational14Ratio$LT$T$GT$10to_integer17ha0e50e698280d2efE, 1729
_ZN12num_rational14Ratio$LT$T$GT$5trunc17heabd7847f893a4edE, 1730
_ZN12num_rational14Ratio$LT$T$GT$10to_integer17ha6d17cba93dd4cf4E, 1731
_ZN12num_rational14Ratio$LT$T$GT$5trunc17h4512ac1d21f5b883E, 1732
_ZN12num_rational14Ratio$LT$T$GT$10to_integer17haaccf9a671956b4aE, 1733
_ZN12num_rational14Ratio$LT$T$GT$5trunc17h9c7a52707148da51E, 1734
_ZN12num_rational14Ratio$LT$T$GT$10to_integer17hb06d7b5ce38fa05bE, 1735
_ZN12num_rational14Ratio$LT$T$GT$5trunc17hdcc93a3b8f4d2215E, 1736
_ZN70_$LT$num_rational..Ratio$LT$T$GT$$u20$as$u20$core..ops..arith..Neg$GT$3neg17h1565d42ad35993beE, 1737
_ZN46_$LT$i128$u20$as$u20$core..ops..arith..Neg$GT$3neg17h504e3980c943039eE, 1738
_ZN70_$LT$num_rational..Ratio$LT$T$GT$$u20$as$u20$core..ops..arith..Neg$GT$3neg17h3a16db9dbee628c9E, 1739
_ZN45_$LT$i16$u20$as$u20$core..ops..arith..Neg$GT$3neg17hafee8199bfb30d9fE, 1740
_ZN70_$LT$num_rational..Ratio$LT$T$GT$$u20$as$u20$core..ops..arith..Neg$GT$3neg17h3d8ecc72120e247eE, 1741
_ZN45_$LT$i32$u20$as$u20$core..ops..arith..Neg$GT$3neg17hae9163cc857e1570E, 1742
_ZN70_$LT$num_rational..Ratio$LT$T$GT$$u20$as$u20$core..ops..arith..Neg$GT$3neg17h9d09ccfc74f009e3E, 1743
_ZN45_$LT$i64$u20$as$u20$core..ops..arith..Neg$GT$3neg17h3e957aaea952845dE, 1744
_ZN70_$LT$num_rational..Ratio$LT$T$GT$$u20$as$u20$core..ops..arith..Neg$GT$3neg17ha14f9a6bffe7ff14E, 1745
_ZN47_$LT$isize$u20$as$u20$core..ops..arith..Neg$GT$3neg17hfe744aee3033328aE, 1746
_ZN70_$LT$num_rational..Ratio$LT$T$GT$$u20$as$u20$core..ops..arith..Neg$GT$3neg17ha9ff50a1d4224d9cE, 1747
_ZN44_$LT$i8$u20$as$u20$core..ops..arith..Neg$GT$3neg17ha97cc419731697d5E, 1748
_ZN68_$LT$num_rational..ParseRatioError$u20$as$u20$core..fmt..Display$GT$3fmt17hc0bb247a06dcba51E, 1749
_ZN12num_rational14RatioErrorKind11description17h5d68ae6e6714beafE, 1750
_ZN12num_rational17approximate_float17h010edddbc29626e6E, 1751
_ZN52_$LT$f64$u20$as$u20$num_traits..float..FloatCore$GT$16is_sign_negative17h4904d141a6c0c3f4E, 1752
_ZN52_$LT$f64$u20$as$u20$num_traits..float..FloatCore$GT$3abs17hb3ba59f3533f1471E, 1753
_ZN12num_rational26approximate_float_unsigned17h3089658b086a03caE, 1754
_ZN52_$LT$f64$u20$as$u20$num_traits..identities..Zero$GT$4zero17h89b8dd0a84b75090E, 1755
_ZN4core3cmp5impls55_$LT$impl$u20$core..cmp..PartialOrd$u20$for$u20$f64$GT$2lt17h9e3c38132589819eE, 1756
_ZN52_$LT$f64$u20$as$u20$num_traits..float..FloatCore$GT$6is_nan17he97b7972376dc8f0E, 1757
_ZN52_$LT$i128$u20$as$u20$num_traits..bounds..Bounded$GT$9max_value17h299e199aacae2b5cE, 1758
_ZN52_$LT$f64$u20$as$u20$num_traits..float..FloatCore$GT$5recip17hc195938ff31d83afE, 1759
_ZN4core3cmp5impls55_$LT$impl$u20$core..cmp..PartialOrd$u20$for$u20$f64$GT$2gt17h396e88e0811f620dE, 1760
_ZN45_$LT$f64$u20$as$u20$core..ops..arith..Sub$GT$3sub17h2124dd2591a6ef17E, 1761
_ZN4core3cmp5impls56_$LT$impl$u20$core..cmp..PartialOrd$u20$for$u20$i128$GT$2gt17hf075460096369cedE, 1762
_ZN46_$LT$i128$u20$as$u20$core..ops..arith..Mul$GT$3mul17hfd488fbdf1318399E, 1763
_ZN46_$LT$i128$u20$as$u20$core..ops..arith..Add$GT$3add17hf7702165d40e591cE, 1764
_ZN45_$LT$f64$u20$as$u20$core..ops..arith..Div$GT$3div17h053c511249fd556eE, 1765
_ZN4core3f6421_$LT$impl$u20$f64$GT$5recip17h5bece86763c33891E, 1766
_ZN4core3f6421_$LT$impl$u20$f64$GT$6is_nan17hef57f5d806ec1d11E, 1767
_ZN3std3f6421_$LT$impl$u20$f64$GT$3abs17h186edd96baf6110cE, 1768
_ZN4core3f6421_$LT$impl$u20$f64$GT$16is_sign_negative17h9d45ae6c4a65beafE, 1769
_ZN4core3f6421_$LT$impl$u20$f64$GT$7to_bits17h969509aa3c4e6fb5E, 1770
_ZN12num_rational17approximate_float17h286c255c4d1d45a6E, 1771
_ZN12num_rational26approximate_float_unsigned17hc524e13b539d5132E, 1772
_ZN51_$LT$i64$u20$as$u20$num_traits..bounds..Bounded$GT$9max_value17h46e02edbd7e1c838E, 1773
_ZN4core3cmp5impls55_$LT$impl$u20$core..cmp..PartialOrd$u20$for$u20$i64$GT$2gt17h4d5971bee7b1eca6E, 1774
_ZN45_$LT$i64$u20$as$u20$core..ops..arith..Mul$GT$3mul17h6c81890980aa9c99E, 1775
_ZN45_$LT$i64$u20$as$u20$core..ops..arith..Add$GT$3add17h8a3519baf0a5bdd0E, 1776
_ZN12num_rational17approximate_float17h43e9434ed51d4e38E, 1777
_ZN52_$LT$f32$u20$as$u20$num_traits..float..FloatCore$GT$16is_sign_negative17h3a8840046e67666bE, 1778
_ZN52_$LT$f32$u20$as$u20$num_traits..float..FloatCore$GT$3abs17hfb6020893ebbe351E, 1779
_ZN12num_rational26approximate_float_unsigned17h584d60d8d2bfd730E, 1780
_ZN52_$LT$f32$u20$as$u20$num_traits..identities..Zero$GT$4zero17h236e3a96fa01901dE, 1781
_ZN4core3cmp5impls55_$LT$impl$u20$core..cmp..PartialOrd$u20$for$u20$f32$GT$2lt17ha0e9d232e3dfaecbE, 1782
_ZN52_$LT$f32$u20$as$u20$num_traits..float..FloatCore$GT$6is_nan17h95a758c071bc7476E, 1783
_ZN51_$LT$i32$u20$as$u20$num_traits..bounds..Bounded$GT$9max_value17h515a01de5ef24e76E, 1784
_ZN52_$LT$f32$u20$as$u20$num_traits..float..FloatCore$GT$5recip17h593528f52da581e8E, 1785
_ZN4core3cmp5impls55_$LT$impl$u20$core..cmp..PartialOrd$u20$for$u20$f32$GT$2gt17h3dbc543ee04edbe4E, 1786
_ZN45_$LT$f32$u20$as$u20$core..ops..arith..Sub$GT$3sub17he4159cbe30807513E, 1787
_ZN4core3cmp5impls55_$LT$impl$u20$core..cmp..PartialOrd$u20$for$u20$i32$GT$2gt17h9a976dcde9a4ac74E, 1788
_ZN45_$LT$i32$u20$as$u20$core..ops..arith..Mul$GT$3mul17hb2fa8c96a8fb26e0E, 1789
_ZN45_$LT$i32$u20$as$u20$core..ops..arith..Add$GT$3add17he0cac0ced22fa8fcE, 1790
_ZN45_$LT$f32$u20$as$u20$core..ops..arith..Div$GT$3div17hd0cb1fd5cc09593dE, 1791
_ZN4core3f3221_$LT$impl$u20$f32$GT$5recip17hb5a482d447344f77E, 1792
_ZN4core3f3221_$LT$impl$u20$f32$GT$6is_nan17hb4e1bd6b2d329eb1E, 1793
_ZN3std3f3221_$LT$impl$u20$f32$GT$3abs17h602d80051b192e82E, 1794
_ZN4core3f3221_$LT$impl$u20$f32$GT$16is_sign_negative17h530033908c39a6f2E, 1795
_ZN4core3f3221_$LT$impl$u20$f32$GT$7to_bits17hcae9f78170f298b8E, 1796
_ZN12num_rational17approximate_float17h461ae2807a3199aaE, 1797
_ZN12num_rational26approximate_float_unsigned17h13524fca9b478ec1E, 1798
_ZN50_$LT$i8$u20$as$u20$num_traits..bounds..Bounded$GT$9max_value17h8b2072adb76a9ec5E, 1799
_ZN4core3cmp5impls54_$LT$impl$u20$core..cmp..PartialOrd$u20$for$u20$i8$GT$2gt17hd4f20d360e539330E, 1800
_ZN44_$LT$i8$u20$as$u20$core..ops..arith..Mul$GT$3mul17h6b6699dea2841a53E, 1801
_ZN44_$LT$i8$u20$as$u20$core..ops..arith..Add$GT$3add17h865081b027148b08E, 1802
_ZN12num_rational17approximate_float17h61ee14063c55b267E, 1803
_ZN12num_rational26approximate_float_unsigned17hcb2ca0debf1a7a69E, 1804
_ZN53_$LT$isize$u20$as$u20$num_traits..bounds..Bounded$GT$9max_value17h61d97197af792685E, 1805
_ZN4core3cmp5impls57_$LT$impl$u20$core..cmp..PartialOrd$u20$for$u20$isize$GT$2gt17hc60596fed11a3645E, 1806
_ZN47_$LT$isize$u20$as$u20$core..ops..arith..Mul$GT$3mul17h80f78db70ff09c09E, 1807
_ZN47_$LT$isize$u20$as$u20$core..ops..arith..Add$GT$3add17h7715712c4dc24062E, 1808
_ZN12num_rational17approximate_float17h6c2de697b77d0294E, 1809
_ZN12num_rational26approximate_float_unsigned17h8bd94ad478676371E, 1810
_ZN12num_rational17approximate_float17h6c5cd0f820a142eaE, 1811
_ZN12num_rational26approximate_float_unsigned17h4a5994bb34194390E, 1812
_ZN12num_rational17approximate_float17h9796f00c8edf0f88E, 1813
_ZN12num_rational26approximate_float_unsigned17hd1b7627b4a8a3409E, 1814
_ZN12num_rational17approximate_float17h9eb3a9ef9797a4feE, 1815
_ZN12num_rational26approximate_float_unsigned17h0dd06f9179f907c6E, 1816
_ZN12num_rational17approximate_float17hb4658a27d6edf8cdE, 1817
_ZN12num_rational26approximate_float_unsigned17h1f8342a41d6720beE, 1818
_ZN51_$LT$i16$u20$as$u20$num_traits..bounds..Bounded$GT$9max_value17h52364503ca465f37E, 1819
_ZN4core3cmp5impls55_$LT$impl$u20$core..cmp..PartialOrd$u20$for$u20$i16$GT$2gt17h1fff782d81acd4f4E, 1820
_ZN45_$LT$i16$u20$as$u20$core..ops..arith..Mul$GT$3mul17he03f359ebd0f22d8E, 1821
_ZN45_$LT$i16$u20$as$u20$core..ops..arith..Add$GT$3add17h3941d8f036aeca62E, 1822
_ZN12num_rational17approximate_float17hdbc042dcba32151dE, 1823
_ZN12num_rational26approximate_float_unsigned17hdb5542502da42361E, 1824
_ZN12num_rational17approximate_float17hffb5b328c470b9f1E, 1825
_ZN12num_rational26approximate_float_unsigned17h4bb666fbb43d0f74E, 1826
_ZN12num_rational26approximate_float_unsigned17h4cbe4a770655e181E, 1827
_ZN51_$LT$u64$u20$as$u20$num_traits..bounds..Bounded$GT$9max_value17hd107c6c18a344bfcE, 1828
_ZN4core3cmp5impls55_$LT$impl$u20$core..cmp..PartialOrd$u20$for$u20$u64$GT$2gt17hb2186d6b716acafaE, 1829
_ZN45_$LT$u64$u20$as$u20$core..ops..arith..Mul$GT$3mul17h0184dcee822c3c1eE, 1830
_ZN45_$LT$u64$u20$as$u20$core..ops..arith..Add$GT$3add17hbd519f416d9493eeE, 1831
_ZN12num_rational26approximate_float_unsigned17h5b6253e26f34c8bdE, 1832
_ZN52_$LT$u128$u20$as$u20$num_traits..bounds..Bounded$GT$9max_value17hd01915d94f664ea6E, 1833
_ZN4core3cmp5impls56_$LT$impl$u20$core..cmp..PartialOrd$u20$for$u20$u128$GT$2gt17he8548b04bcb4407fE, 1834
_ZN46_$LT$u128$u20$as$u20$core..ops..arith..Mul$GT$3mul17hb1bf55b5e2b3168fE, 1835
_ZN46_$LT$u128$u20$as$u20$core..ops..arith..Add$GT$3add17h09353da4182506ecE, 1836
_ZN12num_rational26approximate_float_unsigned17h5ba8855f88887aa5E, 1837
_ZN12num_rational26approximate_float_unsigned17h6cc780cd22ce42feE, 1838
_ZN50_$LT$u8$u20$as$u20$num_traits..bounds..Bounded$GT$9max_value17h956b15f2b4399007E, 1839
_ZN4core3cmp5impls54_$LT$impl$u20$core..cmp..PartialOrd$u20$for$u20$u8$GT$2gt17hc0868781fbbec766E, 1840
_ZN44_$LT$u8$u20$as$u20$core..ops..arith..Mul$GT$3mul17hadc655ecc5116c9aE, 1841
_ZN44_$LT$u8$u20$as$u20$core..ops..arith..Add$GT$3add17hb3b837ec5e85c02cE, 1842
_ZN12num_rational26approximate_float_unsigned17h88481c73b23ddfb8E, 1843
_ZN51_$LT$u16$u20$as$u20$num_traits..bounds..Bounded$GT$9max_value17hab3babbdfafc7e42E, 1844
_ZN4core3cmp5impls55_$LT$impl$u20$core..cmp..PartialOrd$u20$for$u20$u16$GT$2gt17h6f2c893a662cae11E, 1845
_ZN45_$LT$u16$u20$as$u20$core..ops..arith..Mul$GT$3mul17h5ac79966e826e1ceE, 1846
_ZN45_$LT$u16$u20$as$u20$core..ops..arith..Add$GT$3add17hf47628b0b80feb34E, 1847
_ZN12num_rational26approximate_float_unsigned17h94d3a6b1d88d2143E, 1848
_ZN51_$LT$u32$u20$as$u20$num_traits..bounds..Bounded$GT$9max_value17h93d711dbaedacd7eE, 1849
_ZN4core3cmp5impls55_$LT$impl$u20$core..cmp..PartialOrd$u20$for$u20$u32$GT$2gt17h1ac99b3a41e89033E, 1850
_ZN45_$LT$u32$u20$as$u20$core..ops..arith..Mul$GT$3mul17hff81cd84e3d4f7eaE, 1851
_ZN45_$LT$u32$u20$as$u20$core..ops..arith..Add$GT$3add17h41fa28b20a784176E, 1852
_ZN12num_rational26approximate_float_unsigned17ha19b3c732498d797E, 1853
_ZN53_$LT$usize$u20$as$u20$num_traits..bounds..Bounded$GT$9max_value17h3ae64d280abe1ac8E, 1854
_ZN4core3cmp5impls57_$LT$impl$u20$core..cmp..PartialOrd$u20$for$u20$usize$GT$2gt17h04d82f2f223a4980E, 1855
_ZN47_$LT$usize$u20$as$u20$core..ops..arith..Mul$GT$3mul17h48a22c87118bbfb8E, 1856
_ZN47_$LT$usize$u20$as$u20$core..ops..arith..Add$GT$3add17h373f1b234fecb211E, 1857
_ZN12num_rational26approximate_float_unsigned17hbc35ceb818fb7c4cE, 1858
_ZN12num_rational26approximate_float_unsigned17hc260952d234878d0E, 1859
_ZN12num_rational26approximate_float_unsigned17hcbf403ea8cd16b0bE, 1860
_ZN12num_rational26approximate_float_unsigned17hd08a624e0ae91425E, 1861
_ZN12num_rational26approximate_float_unsigned17hd84587ebcd19e5a6E, 1862
_ZN43_$LT$i128$u20$as$u20$num_rational..Bits$GT$4bits17hb2906251fd9bf6eaE, 1863
_ZN4core3num22_$LT$impl$u20$i128$GT$12wrapping_abs17he5fb8242af0d495aE, 1864
_ZN4core3num22_$LT$impl$u20$i128$GT$12wrapping_neg17h73de65c3686656ccE, 1865
_ZN4core3num22_$LT$impl$u20$i128$GT$15overflowing_neg17h0530d370f21ae812E, 1866
_ZN66_$LT$num_rational..ParseRatioError$u20$as$u20$core..fmt..Debug$GT$3fmt17h975956831252b7beE, 1867
_ZN4core3ptr53drop_in_place$LT$$RF$num_rational..RatioErrorKind$GT$17hf7095f469c9455d4E, 1868
_ZN81_$LT$num_rational..Ratio$LT$i8$GT$$u20$as$u20$num_traits..cast..FromPrimitive$GT$8from_i6417hf74ab334ddf1a69aE, 1869
_ZN54_$LT$i8$u20$as$u20$num_traits..cast..FromPrimitive$GT$8from_i6417hccb18b9ca954022eE, 1870
_ZN53_$LT$i64$u20$as$u20$num_traits..cast..ToPrimitive$GT$5to_i817h6aacfd282d29efaaE, 1871
_ZN81_$LT$num_rational..Ratio$LT$i8$GT$$u20$as$u20$num_traits..cast..FromPrimitive$GT$9from_i12817he0161900dbdfc389E, 1872
_ZN54_$LT$i8$u20$as$u20$num_traits..cast..FromPrimitive$GT$9from_i12817h6fe078ca4b86306cE, 1873
_ZN54_$LT$i128$u20$as$u20$num_traits..cast..ToPrimitive$GT$5to_i817h605f5f91e3567d3fE, 1874
_ZN81_$LT$num_rational..Ratio$LT$i8$GT$$u20$as$u20$num_traits..cast..FromPrimitive$GT$8from_u6417h2f0b5f2d05dea7ccE, 1875
_ZN54_$LT$i8$u20$as$u20$num_traits..cast..FromPrimitive$GT$8from_u6417h015bd349326fbb80E, 1876
_ZN53_$LT$u64$u20$as$u20$num_traits..cast..ToPrimitive$GT$5to_i817h65b8efc70e0c5ed1E, 1877
_ZN81_$LT$num_rational..Ratio$LT$i8$GT$$u20$as$u20$num_traits..cast..FromPrimitive$GT$9from_u12817heb1605c04e409c90E, 1878
_ZN54_$LT$i8$u20$as$u20$num_traits..cast..FromPrimitive$GT$9from_u12817he436a4b4bc48c975E, 1879
_ZN54_$LT$u128$u20$as$u20$num_traits..cast..ToPrimitive$GT$5to_i817h40464cd5b13e5aeaE, 1880
_ZN81_$LT$num_rational..Ratio$LT$i8$GT$$u20$as$u20$num_traits..cast..FromPrimitive$GT$8from_f3217h32144002a7223be1E, 1881
_ZN81_$LT$num_rational..Ratio$LT$i8$GT$$u20$as$u20$num_traits..cast..FromPrimitive$GT$8from_f6417h7635a109b459c857E, 1882
_ZN82_$LT$num_rational..Ratio$LT$i16$GT$$u20$as$u20$num_traits..cast..FromPrimitive$GT$8from_i6417h0df7a62ff1456a53E, 1883
_ZN55_$LT$i16$u20$as$u20$num_traits..cast..FromPrimitive$GT$8from_i6417h04f4385c18a77e00E, 1884
_ZN53_$LT$i64$u20$as$u20$num_traits..cast..ToPrimitive$GT$6to_i1617h085ff896ca5faa0fE, 1885
_ZN82_$LT$num_rational..Ratio$LT$i16$GT$$u20$as$u20$num_traits..cast..FromPrimitive$GT$9from_i12817h86271593aea11c6eE, 1886
_ZN55_$LT$i16$u20$as$u20$num_traits..cast..FromPrimitive$GT$9from_i12817h65aec357d4269704E, 1887
_ZN54_$LT$i128$u20$as$u20$num_traits..cast..ToPrimitive$GT$6to_i1617h2c4d6bdc2a8d3df2E, 1888
_ZN82_$LT$num_rational..Ratio$LT$i16$GT$$u20$as$u20$num_traits..cast..FromPrimitive$GT$8from_u6417h331840cc8548075dE, 1889
_ZN55_$LT$i16$u20$as$u20$num_traits..cast..FromPrimitive$GT$8from_u6417he8def47e46809e7cE, 1890
_ZN53_$LT$u64$u20$as$u20$num_traits..cast..ToPrimitive$GT$6to_i1617hf3fc38f21d54dc88E, 1891
_ZN82_$LT$num_rational..Ratio$LT$i16$GT$$u20$as$u20$num_traits..cast..FromPrimitive$GT$9from_u12817hf011938c5518858bE, 1892
_ZN55_$LT$i16$u20$as$u20$num_traits..cast..FromPrimitive$GT$9from_u12817h460d1c0b991aa3b7E, 1893
_ZN54_$LT$u128$u20$as$u20$num_traits..cast..ToPrimitive$GT$6to_i1617hdd7c263c87463201E, 1894
_ZN82_$LT$num_rational..Ratio$LT$i16$GT$$u20$as$u20$num_traits..cast..FromPrimitive$GT$8from_f3217hac025598426803aaE, 1895
_ZN82_$LT$num_rational..Ratio$LT$i16$GT$$u20$as$u20$num_traits..cast..FromPrimitive$GT$8from_f6417h631d814653870319E, 1896
_ZN82_$LT$num_rational..Ratio$LT$i32$GT$$u20$as$u20$num_traits..cast..FromPrimitive$GT$8from_i6417hdc9005bcd680374cE, 1897
_ZN55_$LT$i32$u20$as$u20$num_traits..cast..FromPrimitive$GT$8from_i6417hcbdff2a587f6144eE, 1898
_ZN53_$LT$i64$u20$as$u20$num_traits..cast..ToPrimitive$GT$6to_i3217h9f0d23f26449530bE, 1899
_ZN82_$LT$num_rational..Ratio$LT$i32$GT$$u20$as$u20$num_traits..cast..FromPrimitive$GT$9from_i12817hcde190996f767acaE, 1900
_ZN55_$LT$i32$u20$as$u20$num_traits..cast..FromPrimitive$GT$9from_i12817h19d01f9db251c574E, 1901
_ZN54_$LT$i128$u20$as$u20$num_traits..cast..ToPrimitive$GT$6to_i3217h41d0805a00ed48a1E, 1902
_ZN82_$LT$num_rational..Ratio$LT$i32$GT$$u20$as$u20$num_traits..cast..FromPrimitive$GT$8from_u6417h2de7a2eca46f47e9E, 1903
_ZN55_$LT$i32$u20$as$u20$num_traits..cast..FromPrimitive$GT$8from_u6417h626797ab3f626d15E, 1904
_ZN53_$LT$u64$u20$as$u20$num_traits..cast..ToPrimitive$GT$6to_i3217hf92218a35f3bd1e2E, 1905
_ZN82_$LT$num_rational..Ratio$LT$i32$GT$$u20$as$u20$num_traits..cast..FromPrimitive$GT$9from_u12817ha6a3fbae90d2b933E, 1906
_ZN55_$LT$i32$u20$as$u20$num_traits..cast..FromPrimitive$GT$9from_u12817h4b9f21e31e8d5d06E, 1907
_ZN54_$LT$u128$u20$as$u20$num_traits..cast..ToPrimitive$GT$6to_i3217h14f08eaf12b0dc7dE, 1908
_ZN82_$LT$num_rational..Ratio$LT$i32$GT$$u20$as$u20$num_traits..cast..FromPrimitive$GT$8from_f3217h9563a54b982ed097E, 1909
_ZN82_$LT$num_rational..Ratio$LT$i32$GT$$u20$as$u20$num_traits..cast..FromPrimitive$GT$8from_f6417hc0854eaa98c233ceE, 1910
_ZN82_$LT$num_rational..Ratio$LT$i64$GT$$u20$as$u20$num_traits..cast..FromPrimitive$GT$8from_i6417hb85e62d30d802919E, 1911
_ZN55_$LT$i64$u20$as$u20$num_traits..cast..FromPrimitive$GT$8from_i6417h183cc65177a2d6ecE, 1912
_ZN53_$LT$i64$u20$as$u20$num_traits..cast..ToPrimitive$GT$6to_i6417h4d72b1659167f551E, 1913
_ZN82_$LT$num_rational..Ratio$LT$i64$GT$$u20$as$u20$num_traits..cast..FromPrimitive$GT$9from_i12817h95efa183b0e338a2E, 1914
_ZN55_$LT$i64$u20$as$u20$num_traits..cast..FromPrimitive$GT$9from_i12817h57a4e87a0d0ade2dE, 1915
_ZN54_$LT$i128$u20$as$u20$num_traits..cast..ToPrimitive$GT$6to_i6417h0f411e72484115c1E, 1916
_ZN82_$LT$num_rational..Ratio$LT$i64$GT$$u20$as$u20$num_traits..cast..FromPrimitive$GT$8from_u6417h4dfaf6a61ee070f0E, 1917
_ZN55_$LT$i64$u20$as$u20$num_traits..cast..FromPrimitive$GT$8from_u6417h06dc79320337abdbE, 1918
_ZN53_$LT$u64$u20$as$u20$num_traits..cast..ToPrimitive$GT$6to_i6417hde1469c58d85969fE, 1919
_ZN82_$LT$num_rational..Ratio$LT$i64$GT$$u20$as$u20$num_traits..cast..FromPrimitive$GT$9from_u12817hee2ff5858812990cE, 1920
_ZN55_$LT$i64$u20$as$u20$num_traits..cast..FromPrimitive$GT$9from_u12817h961ca4334bf29538E, 1921
_ZN54_$LT$u128$u20$as$u20$num_traits..cast..ToPrimitive$GT$6to_i6417ha6c1b5c6a34ec821E, 1922
_ZN82_$LT$num_rational..Ratio$LT$i64$GT$$u20$as$u20$num_traits..cast..FromPrimitive$GT$8from_f3217h9071a66fbf441ceeE, 1923
_ZN82_$LT$num_rational..Ratio$LT$i64$GT$$u20$as$u20$num_traits..cast..FromPrimitive$GT$8from_f6417h703876ff71be3d6bE, 1924
_ZN83_$LT$num_rational..Ratio$LT$i128$GT$$u20$as$u20$num_traits..cast..FromPrimitive$GT$8from_i6417hbc91f0fc7cf535adE, 1925
_ZN56_$LT$i128$u20$as$u20$num_traits..cast..FromPrimitive$GT$8from_i6417h6ee971299cb855fcE, 1926
_ZN53_$LT$i64$u20$as$u20$num_traits..cast..ToPrimitive$GT$7to_i12817h0d3d8797007ce3d0E, 1927
_ZN83_$LT$num_rational..Ratio$LT$i128$GT$$u20$as$u20$num_traits..cast..FromPrimitive$GT$9from_i12817hf40282ed7e304774E, 1928
_ZN56_$LT$i128$u20$as$u20$num_traits..cast..FromPrimitive$GT$9from_i12817h0f71062df1b8f6b7E, 1929
_ZN54_$LT$i128$u20$as$u20$num_traits..cast..ToPrimitive$GT$7to_i12817h2b0fabe4f97be088E, 1930
_ZN83_$LT$num_rational..Ratio$LT$i128$GT$$u20$as$u20$num_traits..cast..FromPrimitive$GT$8from_u6417h3f77d2b58bb10339E, 1931
_ZN56_$LT$i128$u20$as$u20$num_traits..cast..FromPrimitive$GT$8from_u6417h82ca35866a86895fE, 1932
_ZN53_$LT$u64$u20$as$u20$num_traits..cast..ToPrimitive$GT$7to_i12817hb1bbcbf338652ce1E, 1933
_ZN83_$LT$num_rational..Ratio$LT$i128$GT$$u20$as$u20$num_traits..cast..FromPrimitive$GT$9from_u12817h85bc9970c40baeb3E, 1934
_ZN56_$LT$i128$u20$as$u20$num_traits..cast..FromPrimitive$GT$9from_u12817h5eca4130855b4245E, 1935
_ZN54_$LT$u128$u20$as$u20$num_traits..cast..ToPrimitive$GT$7to_i12817hf12ad105728fd3b1E, 1936
_ZN83_$LT$num_rational..Ratio$LT$i128$GT$$u20$as$u20$num_traits..cast..FromPrimitive$GT$8from_f3217h002451c988138649E, 1937
_ZN83_$LT$num_rational..Ratio$LT$i128$GT$$u20$as$u20$num_traits..cast..FromPrimitive$GT$8from_f6417h1587ceb3ac4d5cbaE, 1938
_ZN84_$LT$num_rational..Ratio$LT$isize$GT$$u20$as$u20$num_traits..cast..FromPrimitive$GT$8from_i6417h440f515f64472d41E, 1939
_ZN57_$LT$isize$u20$as$u20$num_traits..cast..FromPrimitive$GT$8from_i6417hf4e0fdffe0a43f5bE, 1940
_ZN53_$LT$i64$u20$as$u20$num_traits..cast..ToPrimitive$GT$8to_isize17hc3826d313b47b9fdE, 1941
_ZN84_$LT$num_rational..Ratio$LT$isize$GT$$u20$as$u20$num_traits..cast..FromPrimitive$GT$9from_i12817h4951790621b381acE, 1942
_ZN57_$LT$isize$u20$as$u20$num_traits..cast..FromPrimitive$GT$9from_i12817had60066887856757E, 1943
_ZN54_$LT$i128$u20$as$u20$num_traits..cast..ToPrimitive$GT$8to_isize17h9736c8784be41b83E, 1944
_ZN84_$LT$num_rational..Ratio$LT$isize$GT$$u20$as$u20$num_traits..cast..FromPrimitive$GT$8from_u6417h2b03f1068f35bb11E, 1945
_ZN57_$LT$isize$u20$as$u20$num_traits..cast..FromPrimitive$GT$8from_u6417h05f65f8462c4f1e3E, 1946
_ZN53_$LT$u64$u20$as$u20$num_traits..cast..ToPrimitive$GT$8to_isize17h8146b8b33adbcf72E, 1947
_ZN84_$LT$num_rational..Ratio$LT$isize$GT$$u20$as$u20$num_traits..cast..FromPrimitive$GT$9from_u12817h7a8dfc4642abe801E, 1948
_ZN57_$LT$isize$u20$as$u20$num_traits..cast..FromPrimitive$GT$9from_u12817hc86994559cb47b57E, 1949
_ZN54_$LT$u128$u20$as$u20$num_traits..cast..ToPrimitive$GT$8to_isize17hede2514ea057ca6fE, 1950
_ZN84_$LT$num_rational..Ratio$LT$isize$GT$$u20$as$u20$num_traits..cast..FromPrimitive$GT$8from_f3217hb6bc11158be8cda0E, 1951
_ZN84_$LT$num_rational..Ratio$LT$isize$GT$$u20$as$u20$num_traits..cast..FromPrimitive$GT$8from_f6417h5be77b736e681996E, 1952
_ZN81_$LT$num_rational..Ratio$LT$u8$GT$$u20$as$u20$num_traits..cast..FromPrimitive$GT$8from_i6417hac9ce01dfe278b2fE, 1953
_ZN54_$LT$u8$u20$as$u20$num_traits..cast..FromPrimitive$GT$8from_i6417hf0ef287a75f47cffE, 1954
_ZN53_$LT$i64$u20$as$u20$num_traits..cast..ToPrimitive$GT$5to_u817h35b19a773a28c0ceE, 1955
_ZN81_$LT$num_rational..Ratio$LT$u8$GT$$u20$as$u20$num_traits..cast..FromPrimitive$GT$9from_i12817h8e71943aa5388064E, 1956
_ZN54_$LT$u8$u20$as$u20$num_traits..cast..FromPrimitive$GT$9from_i12817h7c4d7f62689c6344E, 1957
_ZN54_$LT$i128$u20$as$u20$num_traits..cast..ToPrimitive$GT$5to_u817h1ded0e6477667238E, 1958
_ZN81_$LT$num_rational..Ratio$LT$u8$GT$$u20$as$u20$num_traits..cast..FromPrimitive$GT$8from_u6417h189adc99bce6d149E, 1959
_ZN54_$LT$u8$u20$as$u20$num_traits..cast..FromPrimitive$GT$8from_u6417hb8b3c769a37d1fadE, 1960
_ZN53_$LT$u64$u20$as$u20$num_traits..cast..ToPrimitive$GT$5to_u817hf051d2c5a85076edE, 1961
_ZN81_$LT$num_rational..Ratio$LT$u8$GT$$u20$as$u20$num_traits..cast..FromPrimitive$GT$9from_u12817h045addd72d1f3907E, 1962
_ZN54_$LT$u8$u20$as$u20$num_traits..cast..FromPrimitive$GT$9from_u12817hf5b4c4f6e278a27eE, 1963
_ZN54_$LT$u128$u20$as$u20$num_traits..cast..ToPrimitive$GT$5to_u817h5b0382fa63c22382E, 1964
_ZN81_$LT$num_rational..Ratio$LT$u8$GT$$u20$as$u20$num_traits..cast..FromPrimitive$GT$8from_f3217hcd06c900807f6ea4E, 1965
_ZN81_$LT$num_rational..Ratio$LT$u8$GT$$u20$as$u20$num_traits..cast..FromPrimitive$GT$8from_f6417hafdf3bb056f459c1E, 1966
_ZN82_$LT$num_rational..Ratio$LT$u16$GT$$u20$as$u20$num_traits..cast..FromPrimitive$GT$8from_i6417hef22f91a1b82f7d1E, 1967
_ZN55_$LT$u16$u20$as$u20$num_traits..cast..FromPrimitive$GT$8from_i6417h356c542d67970957E, 1968
_ZN53_$LT$i64$u20$as$u20$num_traits..cast..ToPrimitive$GT$6to_u1617h4daa0326d3b30ce0E, 1969
_ZN82_$LT$num_rational..Ratio$LT$u16$GT$$u20$as$u20$num_traits..cast..FromPrimitive$GT$9from_i12817hea1396958965b3d9E, 1970
_ZN55_$LT$u16$u20$as$u20$num_traits..cast..FromPrimitive$GT$9from_i12817hdb2961fae154c616E, 1971
_ZN54_$LT$i128$u20$as$u20$num_traits..cast..ToPrimitive$GT$6to_u1617hbe9b8d09f59dbf90E, 1972
_ZN82_$LT$num_rational..Ratio$LT$u16$GT$$u20$as$u20$num_traits..cast..FromPrimitive$GT$8from_u6417hcc06a4aa1b8e643cE, 1973
_ZN55_$LT$u16$u20$as$u20$num_traits..cast..FromPrimitive$GT$8from_u6417h371652173211730cE, 1974
_ZN53_$LT$u64$u20$as$u20$num_traits..cast..ToPrimitive$GT$6to_u1617h49d3af56a4af0feeE, 1975
_ZN82_$LT$num_rational..Ratio$LT$u16$GT$$u20$as$u20$num_traits..cast..FromPrimitive$GT$9from_u12817h5d175698309054f9E, 1976
_ZN55_$LT$u16$u20$as$u20$num_traits..cast..FromPrimitive$GT$9from_u12817h1b09710b3021934eE, 1977
_ZN54_$LT$u128$u20$as$u20$num_traits..cast..ToPrimitive$GT$6to_u1617h1d73957ea0ee1645E, 1978
_ZN82_$LT$num_rational..Ratio$LT$u16$GT$$u20$as$u20$num_traits..cast..FromPrimitive$GT$8from_f3217h474ac657069b6e61E, 1979
_ZN82_$LT$num_rational..Ratio$LT$u16$GT$$u20$as$u20$num_traits..cast..FromPrimitive$GT$8from_f6417hdccb068116fe7df7E, 1980
_ZN82_$LT$num_rational..Ratio$LT$u32$GT$$u20$as$u20$num_traits..cast..FromPrimitive$GT$8from_i6417h51884fd0c194a435E, 1981
_ZN55_$LT$u32$u20$as$u20$num_traits..cast..FromPrimitive$GT$8from_i6417h3bb602210d7516aeE, 1982
_ZN53_$LT$i64$u20$as$u20$num_traits..cast..ToPrimitive$GT$6to_u3217h4b4de36296756894E, 1983
_ZN82_$LT$num_rational..Ratio$LT$u32$GT$$u20$as$u20$num_traits..cast..FromPrimitive$GT$9from_i12817ha1b12213d00cc7aaE, 1984
_ZN55_$LT$u32$u20$as$u20$num_traits..cast..FromPrimitive$GT$9from_i12817hcae535ef8f0c254cE, 1985
_ZN54_$LT$i128$u20$as$u20$num_traits..cast..ToPrimitive$GT$6to_u3217he72b6bfcb78a0765E, 1986
_ZN82_$LT$num_rational..Ratio$LT$u32$GT$$u20$as$u20$num_traits..cast..FromPrimitive$GT$8from_u6417ha82c2660179df6afE, 1987
_ZN55_$LT$u32$u20$as$u20$num_traits..cast..FromPrimitive$GT$8from_u6417he296672dbc6d7ed4E, 1988
_ZN53_$LT$u64$u20$as$u20$num_traits..cast..ToPrimitive$GT$6to_u3217h1108f0ba6f4a3c44E, 1989
_ZN82_$LT$num_rational..Ratio$LT$u32$GT$$u20$as$u20$num_traits..cast..FromPrimitive$GT$9from_u12817h172f46b4ba631be4E, 1990
_ZN55_$LT$u32$u20$as$u20$num_traits..cast..FromPrimitive$GT$9from_u12817h6bff18f82ec4ba6dE, 1991
_ZN54_$LT$u128$u20$as$u20$num_traits..cast..ToPrimitive$GT$6to_u3217h19418ac623ed92caE, 1992
_ZN82_$LT$num_rational..Ratio$LT$u32$GT$$u20$as$u20$num_traits..cast..FromPrimitive$GT$8from_f3217h0254a95cfa51c7c3E, 1993
_ZN82_$LT$num_rational..Ratio$LT$u32$GT$$u20$as$u20$num_traits..cast..FromPrimitive$GT$8from_f6417h74b2480cddaeb7afE, 1994
_ZN82_$LT$num_rational..Ratio$LT$u64$GT$$u20$as$u20$num_traits..cast..FromPrimitive$GT$8from_i6417hf71b3a9ca56f6babE, 1995
_ZN55_$LT$u64$u20$as$u20$num_traits..cast..FromPrimitive$GT$8from_i6417hac1f0beed877bb26E, 1996
_ZN53_$LT$i64$u20$as$u20$num_traits..cast..ToPrimitive$GT$6to_u6417h3c30b0cf436ce4ddE, 1997
_ZN82_$LT$num_rational..Ratio$LT$u64$GT$$u20$as$u20$num_traits..cast..FromPrimitive$GT$9from_i12817hcc478b29435c4b60E, 1998
_ZN55_$LT$u64$u20$as$u20$num_traits..cast..FromPrimitive$GT$9from_i12817hbf7a902b75d208b3E, 1999
_ZN54_$LT$i128$u20$as$u20$num_traits..cast..ToPrimitive$GT$6to_u6417h0a7f24a3cfa54b3eE, 2000
_ZN82_$LT$num_rational..Ratio$LT$u64$GT$$u20$as$u20$num_traits..cast..FromPrimitive$GT$8from_u6417h8b31c90c2b9ece3fE, 2001
_ZN55_$LT$u64$u20$as$u20$num_traits..cast..FromPrimitive$GT$8from_u6417hdc5feb6f8e226146E, 2002
_ZN53_$LT$u64$u20$as$u20$num_traits..cast..ToPrimitive$GT$6to_u6417hf2a0ccc160aa2bb1E, 2003
_ZN82_$LT$num_rational..Ratio$LT$u64$GT$$u20$as$u20$num_traits..cast..FromPrimitive$GT$9from_u12817hac140b26227d2707E, 2004
_ZN55_$LT$u64$u20$as$u20$num_traits..cast..FromPrimitive$GT$9from_u12817h06e9ca424f5c35c1E, 2005
_ZN54_$LT$u128$u20$as$u20$num_traits..cast..ToPrimitive$GT$6to_u6417h9ee2cbbbda9fb7e7E, 2006
_ZN82_$LT$num_rational..Ratio$LT$u64$GT$$u20$as$u20$num_traits..cast..FromPrimitive$GT$8from_f3217h0d3a6235b8f4918dE, 2007
_ZN82_$LT$num_rational..Ratio$LT$u64$GT$$u20$as$u20$num_traits..cast..FromPrimitive$GT$8from_f6417hf0a945ab0a9e3f1dE, 2008
_ZN83_$LT$num_rational..Ratio$LT$u128$GT$$u20$as$u20$num_traits..cast..FromPrimitive$GT$8from_i6417ha5dc0642eadfb639E, 2009
_ZN56_$LT$u128$u20$as$u20$num_traits..cast..FromPrimitive$GT$8from_i6417he6112acf967af83cE, 2010
_ZN53_$LT$i64$u20$as$u20$num_traits..cast..ToPrimitive$GT$7to_u12817he2f273fc101c3de1E, 2011
_ZN83_$LT$num_rational..Ratio$LT$u128$GT$$u20$as$u20$num_traits..cast..FromPrimitive$GT$9from_i12817h81d08148ff49aefbE, 2012
_ZN56_$LT$u128$u20$as$u20$num_traits..cast..FromPrimitive$GT$9from_i12817he353e0e0c19c1f0bE, 2013
_ZN54_$LT$i128$u20$as$u20$num_traits..cast..ToPrimitive$GT$7to_u12817h1fe95a897b445df2E, 2014
_ZN83_$LT$num_rational..Ratio$LT$u128$GT$$u20$as$u20$num_traits..cast..FromPrimitive$GT$8from_u6417h9e9e80c72df8fde2E, 2015
_ZN56_$LT$u128$u20$as$u20$num_traits..cast..FromPrimitive$GT$8from_u6417hd162401d7bc14c9eE, 2016
_ZN53_$LT$u64$u20$as$u20$num_traits..cast..ToPrimitive$GT$7to_u12817ha909ac793dec214dE, 2017
_ZN83_$LT$num_rational..Ratio$LT$u128$GT$$u20$as$u20$num_traits..cast..FromPrimitive$GT$9from_u12817hc64a562a8cfda348E, 2018
_ZN56_$LT$u128$u20$as$u20$num_traits..cast..FromPrimitive$GT$9from_u12817h798e7877a9c2e0ccE, 2019
_ZN54_$LT$u128$u20$as$u20$num_traits..cast..ToPrimitive$GT$7to_u12817h28d4766b056d316aE, 2020
_ZN83_$LT$num_rational..Ratio$LT$u128$GT$$u20$as$u20$num_traits..cast..FromPrimitive$GT$8from_f3217hd6201485da3d3f81E, 2021
_ZN83_$LT$num_rational..Ratio$LT$u128$GT$$u20$as$u20$num_traits..cast..FromPrimitive$GT$8from_f6417h06226418569418e5E, 2022
_ZN84_$LT$num_rational..Ratio$LT$usize$GT$$u20$as$u20$num_traits..cast..FromPrimitive$GT$8from_i6417ha577ed3a7af5092dE, 2023
_ZN57_$LT$usize$u20$as$u20$num_traits..cast..FromPrimitive$GT$8from_i6417h424f93bd806da5faE, 2024
_ZN53_$LT$i64$u20$as$u20$num_traits..cast..ToPrimitive$GT$8to_usize17h80f615173c9490e5E, 2025
_ZN84_$LT$num_rational..Ratio$LT$usize$GT$$u20$as$u20$num_traits..cast..FromPrimitive$GT$9from_i12817h9a22e10de1c167d9E, 2026
_ZN57_$LT$usize$u20$as$u20$num_traits..cast..FromPrimitive$GT$9from_i12817h93d55407f9a9ad74E, 2027
_ZN54_$LT$i128$u20$as$u20$num_traits..cast..ToPrimitive$GT$8to_usize17h44f93c5b063eb404E, 2028
_ZN84_$LT$num_rational..Ratio$LT$usize$GT$$u20$as$u20$num_traits..cast..FromPrimitive$GT$8from_u6417hf2252fec0d239cedE, 2029
_ZN57_$LT$usize$u20$as$u20$num_traits..cast..FromPrimitive$GT$8from_u6417h7b0a54aeec082075E, 2030
_ZN53_$LT$u64$u20$as$u20$num_traits..cast..ToPrimitive$GT$8to_usize17he20de8e681901d65E, 2031
_ZN84_$LT$num_rational..Ratio$LT$usize$GT$$u20$as$u20$num_traits..cast..FromPrimitive$GT$9from_u12817h477f0daf12eb02ecE, 2032
_ZN57_$LT$usize$u20$as$u20$num_traits..cast..FromPrimitive$GT$9from_u12817hcc1830677f3bb6a1E, 2033
_ZN54_$LT$u128$u20$as$u20$num_traits..cast..ToPrimitive$GT$8to_usize17ha0a0da83b24ee109E, 2034
_ZN84_$LT$num_rational..Ratio$LT$usize$GT$$u20$as$u20$num_traits..cast..FromPrimitive$GT$8from_f3217ha26ef6275771ef0fE, 2035
_ZN84_$LT$num_rational..Ratio$LT$usize$GT$$u20$as$u20$num_traits..cast..FromPrimitive$GT$8from_f6417hb4682fac9425c1a7E, 2036
_ZN79_$LT$num_rational..Ratio$LT$u8$GT$$u20$as$u20$num_traits..cast..ToPrimitive$GT$6to_i6417he47caf7b0c395499E, 2037
_ZN52_$LT$u8$u20$as$u20$num_traits..cast..ToPrimitive$GT$6to_i6417hf930513045bb4ca8E, 2038
_ZN79_$LT$num_rational..Ratio$LT$u8$GT$$u20$as$u20$num_traits..cast..ToPrimitive$GT$7to_i12817h6c0edf37d4cfdf95E, 2039
_ZN52_$LT$u8$u20$as$u20$num_traits..cast..ToPrimitive$GT$7to_i12817h8a047b2fe9bc89abE, 2040
_ZN79_$LT$num_rational..Ratio$LT$u8$GT$$u20$as$u20$num_traits..cast..ToPrimitive$GT$6to_u6417h77df7885c78e5ce4E, 2041
_ZN52_$LT$u8$u20$as$u20$num_traits..cast..ToPrimitive$GT$6to_u6417h703bbba228be5b34E, 2042
_ZN79_$LT$num_rational..Ratio$LT$u8$GT$$u20$as$u20$num_traits..cast..ToPrimitive$GT$7to_u12817h794b97bc6e43b41fE, 2043
_ZN52_$LT$u8$u20$as$u20$num_traits..cast..ToPrimitive$GT$7to_u12817h53bae1f89f4cff6aE, 2044
_ZN79_$LT$num_rational..Ratio$LT$u8$GT$$u20$as$u20$num_traits..cast..ToPrimitive$GT$6to_f6417hcf78fc9d3013bc3cE, 2045
_ZN79_$LT$num_rational..Ratio$LT$i8$GT$$u20$as$u20$num_traits..cast..ToPrimitive$GT$6to_i6417h7e9b7ba44c4e3570E, 2046
_ZN52_$LT$i8$u20$as$u20$num_traits..cast..ToPrimitive$GT$6to_i6417h5a565cb3e64b52a8E, 2047
_ZN79_$LT$num_rational..Ratio$LT$i8$GT$$u20$as$u20$num_traits..cast..ToPrimitive$GT$7to_i12817h195981e0c0ae7481E, 2048
_ZN52_$LT$i8$u20$as$u20$num_traits..cast..ToPrimitive$GT$7to_i12817hf478798142dd6347E, 2049
_ZN79_$LT$num_rational..Ratio$LT$i8$GT$$u20$as$u20$num_traits..cast..ToPrimitive$GT$6to_u6417h2c1f9e7e5fc8e40eE, 2050
_ZN52_$LT$i8$u20$as$u20$num_traits..cast..ToPrimitive$GT$6to_u6417h461d31958b139a39E, 2051
_ZN79_$LT$num_rational..Ratio$LT$i8$GT$$u20$as$u20$num_traits..cast..ToPrimitive$GT$7to_u12817h27d3e2cdb83aa878E, 2052
_ZN52_$LT$i8$u20$as$u20$num_traits..cast..ToPrimitive$GT$7to_u12817h1d4ed16b787c6787E, 2053
_ZN79_$LT$num_rational..Ratio$LT$i8$GT$$u20$as$u20$num_traits..cast..ToPrimitive$GT$6to_f6417h5eade9d9e890dc56E, 2054
_ZN80_$LT$num_rational..Ratio$LT$u16$GT$$u20$as$u20$num_traits..cast..ToPrimitive$GT$6to_i6417ha280200308904b93E, 2055
_ZN53_$LT$u16$u20$as$u20$num_traits..cast..ToPrimitive$GT$6to_i6417h6c9c24f980eceefeE, 2056
_ZN80_$LT$num_rational..Ratio$LT$u16$GT$$u20$as$u20$num_traits..cast..ToPrimitive$GT$7to_i12817h2400afe9f7a6f0a6E, 2057
_ZN53_$LT$u16$u20$as$u20$num_traits..cast..ToPrimitive$GT$7to_i12817h4f178b9cb3608e6eE, 2058
_ZN80_$LT$num_rational..Ratio$LT$u16$GT$$u20$as$u20$num_traits..cast..ToPrimitive$GT$6to_u6417h66f4cca38e7d7497E, 2059
_ZN53_$LT$u16$u20$as$u20$num_traits..cast..ToPrimitive$GT$6to_u6417h020da1d06261ed42E, 2060
_ZN80_$LT$num_rational..Ratio$LT$u16$GT$$u20$as$u20$num_traits..cast..ToPrimitive$GT$7to_u12817hbb80a9d11a3a27aaE, 2061
_ZN53_$LT$u16$u20$as$u20$num_traits..cast..ToPrimitive$GT$7to_u12817h66ad9007167b515aE, 2062
_ZN80_$LT$num_rational..Ratio$LT$u16$GT$$u20$as$u20$num_traits..cast..ToPrimitive$GT$6to_f6417h9d3b8c81068f91edE, 2063
_ZN80_$LT$num_rational..Ratio$LT$i16$GT$$u20$as$u20$num_traits..cast..ToPrimitive$GT$6to_i6417h8c10cd3126d9fe8eE, 2064
_ZN53_$LT$i16$u20$as$u20$num_traits..cast..ToPrimitive$GT$6to_i6417h97d04c3e27c0daa6E, 2065
_ZN80_$LT$num_rational..Ratio$LT$i16$GT$$u20$as$u20$num_traits..cast..ToPrimitive$GT$7to_i12817h2a276190a1f9fe7bE, 2066
_ZN53_$LT$i16$u20$as$u20$num_traits..cast..ToPrimitive$GT$7to_i12817hca7491d0935604d0E, 2067
_ZN80_$LT$num_rational..Ratio$LT$i16$GT$$u20$as$u20$num_traits..cast..ToPrimitive$GT$6to_u6417h429796aa7d361aa5E, 2068
_ZN53_$LT$i16$u20$as$u20$num_traits..cast..ToPrimitive$GT$6to_u6417h8e783974ae76fbd0E, 2069
_ZN80_$LT$num_rational..Ratio$LT$i16$GT$$u20$as$u20$num_traits..cast..ToPrimitive$GT$7to_u12817h41b73486ce987ed7E, 2070
_ZN53_$LT$i16$u20$as$u20$num_traits..cast..ToPrimitive$GT$7to_u12817h27c4b7d2cf3a72e7E, 2071
_ZN80_$LT$num_rational..Ratio$LT$i16$GT$$u20$as$u20$num_traits..cast..ToPrimitive$GT$6to_f6417h93f456f65b7a9e21E, 2072
_ZN80_$LT$num_rational..Ratio$LT$u32$GT$$u20$as$u20$num_traits..cast..ToPrimitive$GT$6to_i6417hd741fe38720b1884E, 2073
_ZN53_$LT$u32$u20$as$u20$num_traits..cast..ToPrimitive$GT$6to_i6417h8674c800166ade85E, 2074
_ZN80_$LT$num_rational..Ratio$LT$u32$GT$$u20$as$u20$num_traits..cast..ToPrimitive$GT$7to_i12817h84e6cd3015477adfE, 2075
_ZN53_$LT$u32$u20$as$u20$num_traits..cast..ToPrimitive$GT$7to_i12817h4b02937922727306E, 2076
_ZN80_$LT$num_rational..Ratio$LT$u32$GT$$u20$as$u20$num_traits..cast..ToPrimitive$GT$6to_u6417hdb525cf9687fbb0eE, 2077
_ZN53_$LT$u32$u20$as$u20$num_traits..cast..ToPrimitive$GT$6to_u6417h25f09988e93a3f21E, 2078
_ZN80_$LT$num_rational..Ratio$LT$u32$GT$$u20$as$u20$num_traits..cast..ToPrimitive$GT$7to_u12817h1a757240933098deE, 2079
_ZN53_$LT$u32$u20$as$u20$num_traits..cast..ToPrimitive$GT$7to_u12817h512ad43009a77768E, 2080
_ZN80_$LT$num_rational..Ratio$LT$u32$GT$$u20$as$u20$num_traits..cast..ToPrimitive$GT$6to_f6417h370ce7ce72c6d989E, 2081
_ZN80_$LT$num_rational..Ratio$LT$i32$GT$$u20$as$u20$num_traits..cast..ToPrimitive$GT$6to_i6417h7fbc54c9f636318dE, 2082
_ZN53_$LT$i32$u20$as$u20$num_traits..cast..ToPrimitive$GT$6to_i6417h4e651335dbd703b8E, 2083
_ZN80_$LT$num_rational..Ratio$LT$i32$GT$$u20$as$u20$num_traits..cast..ToPrimitive$GT$7to_i12817ha14559bbf03dc61dE, 2084
_ZN53_$LT$i32$u20$as$u20$num_traits..cast..ToPrimitive$GT$7to_i12817h8a6f8643c55d3faeE, 2085
_ZN80_$LT$num_rational..Ratio$LT$i32$GT$$u20$as$u20$num_traits..cast..ToPrimitive$GT$6to_u6417h8b6219eab1f11e91E, 2086
_ZN53_$LT$i32$u20$as$u20$num_traits..cast..ToPrimitive$GT$6to_u6417h48353dc10892470cE, 2087
_ZN80_$LT$num_rational..Ratio$LT$i32$GT$$u20$as$u20$num_traits..cast..ToPrimitive$GT$7to_u12817hce6a43b8ac042a9bE, 2088
_ZN53_$LT$i32$u20$as$u20$num_traits..cast..ToPrimitive$GT$7to_u12817ha8746f7eb2fb078eE, 2089
_ZN80_$LT$num_rational..Ratio$LT$i32$GT$$u20$as$u20$num_traits..cast..ToPrimitive$GT$6to_f6417h1ae3961946f2d688E, 2090
_ZN82_$LT$num_rational..Ratio$LT$usize$GT$$u20$as$u20$num_traits..cast..ToPrimitive$GT$6to_i6417hb7562569adfcf448E, 2091
_ZN55_$LT$usize$u20$as$u20$num_traits..cast..ToPrimitive$GT$6to_i6417h9b431bbc91ba40c7E, 2092
_ZN82_$LT$num_rational..Ratio$LT$usize$GT$$u20$as$u20$num_traits..cast..ToPrimitive$GT$7to_i12817h73aefffd0012db94E, 2093
_ZN55_$LT$usize$u20$as$u20$num_traits..cast..ToPrimitive$GT$7to_i12817h5bb93f84af2e0af8E, 2094
_ZN82_$LT$num_rational..Ratio$LT$usize$GT$$u20$as$u20$num_traits..cast..ToPrimitive$GT$6to_u6417h8a9cb6d28d01749dE, 2095
_ZN55_$LT$usize$u20$as$u20$num_traits..cast..ToPrimitive$GT$6to_u6417h4188523d99234e2eE, 2096
_ZN82_$LT$num_rational..Ratio$LT$usize$GT$$u20$as$u20$num_traits..cast..ToPrimitive$GT$7to_u12817he42c82943c51844aE, 2097
_ZN55_$LT$usize$u20$as$u20$num_traits..cast..ToPrimitive$GT$7to_u12817he97ed11a7b696510E, 2098
_ZN82_$LT$num_rational..Ratio$LT$usize$GT$$u20$as$u20$num_traits..cast..ToPrimitive$GT$6to_f6417hf9e9a5fab0333f38E, 2099
_ZN82_$LT$num_rational..Ratio$LT$isize$GT$$u20$as$u20$num_traits..cast..ToPrimitive$GT$6to_i6417h148fb5e03387c6e6E, 2100
_ZN55_$LT$isize$u20$as$u20$num_traits..cast..ToPrimitive$GT$6to_i6417h24ff879e8a50f8c4E, 2101
_ZN82_$LT$num_rational..Ratio$LT$isize$GT$$u20$as$u20$num_traits..cast..ToPrimitive$GT$7to_i12817hc1007318a356cf89E, 2102
_ZN55_$LT$isize$u20$as$u20$num_traits..cast..ToPrimitive$GT$7to_i12817hc485bb896e0f53bdE, 2103
_ZN82_$LT$num_rational..Ratio$LT$isize$GT$$u20$as$u20$num_traits..cast..ToPrimitive$GT$6to_u6417h5548f8030f5a4cbaE, 2104
_ZN55_$LT$isize$u20$as$u20$num_traits..cast..ToPrimitive$GT$6to_u6417h412ef40b64f51e18E, 2105
_ZN82_$LT$num_rational..Ratio$LT$isize$GT$$u20$as$u20$num_traits..cast..ToPrimitive$GT$7to_u12817hd3df40de80f30760E, 2106
_ZN55_$LT$isize$u20$as$u20$num_traits..cast..ToPrimitive$GT$7to_u12817h6f2b9b3b1ec1670bE, 2107
_ZN82_$LT$num_rational..Ratio$LT$isize$GT$$u20$as$u20$num_traits..cast..ToPrimitive$GT$6to_f6417h30ca32da9eeed794E, 2108
_ZN80_$LT$num_rational..Ratio$LT$u64$GT$$u20$as$u20$num_traits..cast..ToPrimitive$GT$6to_i6417h774cceb5adf91a62E, 2109
_ZN80_$LT$num_rational..Ratio$LT$u64$GT$$u20$as$u20$num_traits..cast..ToPrimitive$GT$7to_i12817h2790487eab6e7f17E, 2110
_ZN80_$LT$num_rational..Ratio$LT$u64$GT$$u20$as$u20$num_traits..cast..ToPrimitive$GT$6to_u6417h4795130028e8e882E, 2111
_ZN80_$LT$num_rational..Ratio$LT$u64$GT$$u20$as$u20$num_traits..cast..ToPrimitive$GT$7to_u12817h5a147994bbe6d148E, 2112
_ZN80_$LT$num_rational..Ratio$LT$u64$GT$$u20$as$u20$num_traits..cast..ToPrimitive$GT$6to_f6417h1d3a8d4806a774c6E, 2113
_ZN12num_rational12ratio_to_f6417hc8862c6bbe13ec30E, 2114
_ZN49_$LT$i128$u20$as$u20$num_traits..sign..Signed$GT$6signum17h23fe7bb0aae281f3E, 2115
_ZN4core3fmt9Arguments6new_v117hf45d1aa3612a021bE, 2116
_ZN4core3f6421_$LT$impl$u20$f64$GT$9is_normal17hca52ee0537099709E, 2117
_ZN4core3num21_$LT$impl$u20$u64$GT$11checked_sub17h349e7ec05f4dff8bE, 2118
_ZN63_$LT$i128$u20$as$u20$core..ops..bit..ShlAssign$LT$usize$GT$$GT$10shl_assign17h79c9084499ba4d76E, 2119
_ZN45_$LT$i128$u20$as$u20$num_integer..Integer$GT$7div_rem17hc25b63c2f6b37fc4E, 2120
_ZN3std3f6421_$LT$impl$u20$f64$GT$4powi17hd5910fac3d0a58c0E, 2121
_ZN80_$LT$num_rational..Ratio$LT$i64$GT$$u20$as$u20$num_traits..cast..ToPrimitive$GT$6to_i6417hf991ac066d71bcd0E, 2122
_ZN80_$LT$num_rational..Ratio$LT$i64$GT$$u20$as$u20$num_traits..cast..ToPrimitive$GT$7to_i12817h9a46635bbb447e76E, 2123
_ZN80_$LT$num_rational..Ratio$LT$i64$GT$$u20$as$u20$num_traits..cast..ToPrimitive$GT$6to_u6417h8a21d4b5cdd12238E, 2124
_ZN80_$LT$num_rational..Ratio$LT$i64$GT$$u20$as$u20$num_traits..cast..ToPrimitive$GT$7to_u12817h423bc87822499c5dE, 2125
_ZN80_$LT$num_rational..Ratio$LT$i64$GT$$u20$as$u20$num_traits..cast..ToPrimitive$GT$6to_f6417h0d35552b568cd80aE, 2126
_ZN100_$LT$core..iter..adapters..take..Take$LT$I$GT$$u20$as$u20$core..iter..traits..iterator..Iterator$GT$4next17hfeddf156c7097420E, 2127
_ZN91_$LT$core..slice..iter..Iter$LT$T$GT$$u20$as$u20$core..iter..traits..iterator..Iterator$GT$4next17h8cf33b0642271cf7E, 2128
_ZN4core3ptr8non_null16NonNull$LT$T$GT$6as_ptr17hf0c224ffce7fb1e5E, 2129
_ZN4core3ptr7mut_ptr31_$LT$impl$u20$$BP$mut$u20$T$GT$7is_null17h35ee4c1034c9918eE, 2130
_ZN4core3ptr9const_ptr33_$LT$impl$u20$$BP$const$u20$T$GT$7is_null17ha9c0018df3360b26E, 2131
_ZN4core3ptr8non_null16NonNull$LT$T$GT$13new_unchecked17h613c5bfa730552c3E, 2132
_ZN4core3ptr9const_ptr33_$LT$impl$u20$$BP$const$u20$T$GT$13guaranteed_eq17h27d353d0ef04b155E, 2133
_ZN4core3ptr7mut_ptr31_$LT$impl$u20$$BP$mut$u20$T$GT$13guaranteed_eq17h26ebe98a932239efE, 2134
_ZN106_$LT$core..ops..range..Range$LT$usize$GT$$u20$as$u20$core..slice..index..SliceIndex$LT$$u5b$T$u5d$$GT$$GT$13get_unchecked17hf1ad55a02d89ce6fE, 2135
_ZN4core3ptr9const_ptr43_$LT$impl$u20$$BP$const$u20$$u5b$T$u5d$$GT$6as_ptr17h521532628469c8e3E, 2136
_ZN4core3ptr20slice_from_raw_parts17h3510d78fd6852c9aE, 2137
_ZN4core3ptr9const_ptr33_$LT$impl$u20$$BP$const$u20$T$GT$4cast17hd4ad004ab0dc0a6dE, 2138
_ZN4core3ptr8metadata14from_raw_parts17hfa07728c0e7cf976E, 2139
_ZN106_$LT$core..ops..range..Range$LT$usize$GT$$u20$as$u20$core..slice..index..SliceIndex$LT$$u5b$T$u5d$$GT$$GT$5index17h2412cf660442fc23E, 2140
_ZN4core5slice29_$LT$impl$u20$$u5b$T$u5d$$GT$3len17h82816495f647849dE, 2141
_ZN4core4iter6traits8iterator8Iterator4take17hd79d6bc37de9fcc6E, 2142
_ZN4core4iter8adapters4take13Take$LT$I$GT$3new17h1441e5faa71949a7E, 2143
_ZN4core5slice29_$LT$impl$u20$$u5b$T$u5d$$GT$4iter17ha2591ab24c23d065E, 2144
_ZN4core5slice4iter13Iter$LT$T$GT$3new17hea06ebb414dfc764E, 2145
_ZN4core5slice29_$LT$impl$u20$$u5b$T$u5d$$GT$6as_ptr17hb2163a269fe30fc3E, 2146
_ZN4core5slice5index74_$LT$impl$u20$core..ops..index..Index$LT$I$GT$$u20$for$u20$$u5b$T$u5d$$GT$5index17h3f4e73388ea05f35E, 2147
_ZN63_$LT$I$u20$as$u20$core..iter..traits..collect..IntoIterator$GT$9into_iter17hf3b088d0f259018bE, 2148
_ZN66_$LT$adler32..RollingAdler32$u20$as$u20$core..default..Default$GT$7default17h1229fdea4d201781E, 2149
_ZN7adler3214RollingAdler323new17h0f4f36bf86ec11cbE, 2150
_ZN7adler3214RollingAdler3210from_value17h4c317b759eac568aE, 2151
_ZN7adler3214RollingAdler3211from_buffer17h847261dba21a4a62E, 2152
_ZN7adler3214RollingAdler3213update_buffer17h261b7ed279f4f2a0E, 2153
_ZN4core7convert3num63_$LT$impl$u20$core..convert..From$LT$u8$GT$$u20$for$u20$u32$GT$4from17hb6eda3ca42b3ed99E, 2154
_ZN7adler3214RollingAdler326update17he0c3651e40019367E, 2155
_ZN7adler3214RollingAdler324hash17h9915ddccd1a38fe3E, 2156
_ZN7adler3214RollingAdler326remove17h20772240baf9b147E, 2157
_ZN57_$LT$libc..wasi..fpos_t$u20$as$u20$core..clone..Clone$GT$5clone17h7fa0bd97768683f7E, 2158
_ZN53_$LT$libc..wasi..tm$u20$as$u20$core..clone..Clone$GT$5clone17h1e670e86cc0c5e14E, 2159
_ZN58_$LT$libc..wasi..timeval$u20$as$u20$core..clone..Clone$GT$5clone17h3fb77cb22a188d53E, 2160
_ZN59_$LT$libc..wasi..timespec$u20$as$u20$core..clone..Clone$GT$5clone17h949d27ca0038c2b9E, 2161
_ZN54_$LT$libc..wasi..tms$u20$as$u20$core..clone..Clone$GT$5clone17h632c9efc49b7ebccE, 2162
_ZN61_$LT$libc..wasi..itimerspec$u20$as$u20$core..clone..Clone$GT$5clone17h1968d98addcef6bbE, 2163
_ZN56_$LT$libc..wasi..iovec$u20$as$u20$core..clone..Clone$GT$5clone17hd8df33a2a61fd5dfE, 2164
_ZN56_$LT$libc..wasi..lconv$u20$as$u20$core..clone..Clone$GT$5clone17he2d93205a92dba66E, 2165
_ZN57_$LT$libc..wasi..pollfd$u20$as$u20$core..clone..Clone$GT$5clone17h554cd6bf8e85bca7E, 2166
_ZN57_$LT$libc..wasi..rusage$u20$as$u20$core..clone..Clone$GT$5clone17h43779372facccd25E, 2167
_ZN55_$LT$libc..wasi..stat$u20$as$u20$core..clone..Clone$GT$5clone17ha680d732232c0f04E, 2168
_ZN100_$LT$core..iter..adapters..take..Take$LT$I$GT$$u20$as$u20$core..iter..traits..iterator..Iterator$GT$4next17h6bd2cab42707fddcE, 2169
_ZN94_$LT$core..slice..iter..IterMut$LT$T$GT$$u20$as$u20$core..iter..traits..iterator..Iterator$GT$4next17hdbcb2fbc2edef3ceE, 2170
_ZN4core3ptr8non_null16NonNull$LT$T$GT$6as_ptr17hb370c4ab564d7243E, 2171
_ZN4core3ptr7mut_ptr31_$LT$impl$u20$$BP$mut$u20$T$GT$7is_null17he74c9e360d041826E, 2172
_ZN4core3ptr8non_null16NonNull$LT$T$GT$13new_unchecked17hc3e0e401002285ecE, 2173
_ZN104_$LT$core..ops..control_flow..ControlFlow$LT$B$C$C$GT$$u20$as$u20$core..ops..try_trait..FromResidual$GT$13from_residual17ha1d5a6575a9ecebdE, 2174
_ZN110_$LT$core..iter..adapters..enumerate..Enumerate$LT$I$GT$$u20$as$u20$core..iter..traits..iterator..Iterator$GT$8try_fold17h9fef9615d2854ff9E, 2175
_ZN110_$LT$core..iter..adapters..enumerate..Enumerate$LT$I$GT$$u20$as$u20$core..iter..traits..iterator..Iterator$GT$8try_fold9enumerate17h834087ba1093a40eE, 2176
_ZN4core4iter6traits8iterator8Iterator8try_fold17h450e5094bf160154E, 2177
_ZN91_$LT$core..slice..iter..Iter$LT$T$GT$$u20$as$u20$core..iter..traits..iterator..Iterator$GT$4next17h827e47482b4ac707E, 2178
_ZN110_$LT$core..iter..adapters..enumerate..Enumerate$LT$I$GT$$u20$as$u20$core..iter..traits..iterator..Iterator$GT$8try_fold9enumerate28_$u7b$$u7b$closure$u7d$$u7d$17h27d2c0086f838a2eE, 2179
_ZN95_$LT$core..ops..control_flow..ControlFlow$LT$B$C$C$GT$$u20$as$u20$core..ops..try_trait..Try$GT$11from_output17he5a24f3a99bdea2aE, 2180
_ZN95_$LT$core..ops..control_flow..ControlFlow$LT$B$C$C$GT$$u20$as$u20$core..ops..try_trait..Try$GT$6branch17h45ad9dd0069c7c3aE, 2181
_ZN4core4iter6traits8iterator8Iterator4find5check28_$u7b$$u7b$closure$u7d$$u7d$17h8c9d661ab90bacfbE, 2182
_ZN17crossbeam_channel6select6Select6remove28_$u7b$$u7b$closure$u7d$$u7d$17h82e30ed0c891d1aaE, 2183
_ZN4core3ptr9const_ptr33_$LT$impl$u20$$BP$const$u20$T$GT$7is_null17h9ff228d5b3de2bc0E, 2184
_ZN4core3ptr9const_ptr33_$LT$impl$u20$$BP$const$u20$T$GT$13guaranteed_eq17h01fabfdc7a0eaa7aE, 2185
_ZN153_$LT$core..result..Result$LT$T$C$F$GT$$u20$as$u20$core..ops..try_trait..FromResidual$LT$core..result..Result$LT$core..convert..Infallible$C$E$GT$$GT$$GT$13from_residual17h92778eeb2fbd49f4E, 2186
_ZN153_$LT$core..result..Result$LT$T$C$F$GT$$u20$as$u20$core..ops..try_trait..FromResidual$LT$core..result..Result$LT$core..convert..Infallible$C$E$GT$$GT$$GT$13from_residual17h934250a78b611d86E, 2187
_ZN153_$LT$core..result..Result$LT$T$C$F$GT$$u20$as$u20$core..ops..try_trait..FromResidual$LT$core..result..Result$LT$core..convert..Infallible$C$E$GT$$GT$$GT$13from_residual17ha099b8570992fa64E, 2188
_ZN15crossbeam_utils6atomic11atomic_cell19AtomicCell$LT$T$GT$3new17hf1e8ca2b50f0cb3cE, 2189
_ZN3std6thread5local17LocalKey$LT$T$GT$8try_with17h1b7a45db3fe63624E, 2190
_ZN4core6option15Option$LT$T$GT$5ok_or17h1ec820b9b6f01652E, 2191
_ZN79_$LT$core..result..Result$LT$T$C$E$GT$$u20$as$u20$core..ops..try_trait..Try$GT$6branch17h2851f2ba3e729a92E, 2192
_ZN17crossbeam_channel7context7Context4with28_$u7b$$u7b$closure$u7d$$u7d$17h6a7d45a882172c86E, 2193
_ZN4core4cell13Cell$LT$T$GT$4take17h8dd884b8bf1fa510E, 2194
_ZN17crossbeam_channel7context7Context3new17h3ff4894d1bcaf76eE, 2195
_ZN17crossbeam_channel7context7Context5reset17h2320900e38826f06E, 2196
_ZN17crossbeam_channel7context7Context4with28_$u7b$$u7b$closure$u7d$$u7d$17h0f3c257c8994969bE, 2197
_ZN4core4cell13Cell$LT$T$GT$3set17hcae5434f42d08b64E, 2198
_ZN4core3ptr56drop_in_place$LT$crossbeam_channel..context..Context$GT$17hd3783ea18426761bE, 2199
_ZN4core3ptr78drop_in_place$LT$alloc..sync..Arc$LT$crossbeam_channel..context..Inner$GT$$GT$17h8fe5c1f14c8011d1E, 2200
_ZN67_$LT$alloc..sync..Arc$LT$T$GT$$u20$as$u20$core..ops..drop..Drop$GT$4drop17h8365a7af7bbfc274E, 2201
_ZN5alloc4sync12Arc$LT$T$GT$5inner17h91f4767919b23f9eE, 2202
_ZN4core4sync6atomic11AtomicUsize9fetch_sub17hfc47af3e17c49fc6E, 2203
_ZN4core4sync6atomic5fence17hc2ad504bc1cc0ebbE, 2204
_ZN5alloc4sync12Arc$LT$T$GT$9drop_slow17hfc14783471fe8e67E, 2205
_ZN5alloc4sync12Arc$LT$T$GT$17get_mut_unchecked17h2debac2558647094E, 2206
_ZN4core3ptr54drop_in_place$LT$crossbeam_channel..context..Inner$GT$17h7b826d09843a1c1aE, 2207
_ZN4core3mem4drop17h851b2e28fd07803eE, 2208
_ZN4core3ptr79drop_in_place$LT$alloc..sync..Weak$LT$crossbeam_channel..context..Inner$GT$$GT$17hb1b7fa70ac02af28E, 2209
_ZN68_$LT$alloc..sync..Weak$LT$T$GT$$u20$as$u20$core..ops..drop..Drop$GT$4drop17hf26b99ac474b9058E, 2210
_ZN5alloc4sync13Weak$LT$T$GT$5inner17hb0a4675a6d3c5edaE, 2211
_ZN4core3ptr8non_null16NonNull$LT$T$GT$4cast17hac8e5469945f895dE, 2212
_ZN4core3ptr8non_null16NonNull$LT$T$GT$6as_ptr17hdce8665a791a2140E, 2213
_ZN4core5alloc6layout6Layout13for_value_raw17h23cdcb028cec119eE, 2214
_ZN63_$LT$alloc..alloc..Global$u20$as$u20$core..alloc..Allocator$GT$10deallocate17h628ff8f8437f11bfE, 2215
_ZN4core5alloc6layout6Layout4size17h574a88231a9f2c2bE, 2216
_ZN5alloc5alloc7dealloc17h5d2d3df07c838d92E, 2217
_ZN4core5alloc6layout6Layout5align17heab9b78f8a3be2abE, 2218
_ZN4core3num7nonzero12NonZeroUsize3get17hf7689a75ac4fb4a5E, 2219
_ZN4core3mem15size_of_val_raw17h2ff268fef582df68E, 2220
_ZN4core3mem16align_of_val_raw17hb18b9859c14de34aE, 2221
_ZN4core5alloc6layout6Layout25from_size_align_unchecked17h97cc144b9a5777a3E, 2222
_ZN4core3num7nonzero12NonZeroUsize13new_unchecked17hc49314a6e529cce9E, 2223
_ZN5alloc2rc11is_dangling17h32ce4ae0fcd8cab6E, 2224
_ZN4core3ptr8non_null16NonNull$LT$T$GT$6as_ref17hf2b76ae8e6a67d02E, 2225
_ZN4core4cell13Cell$LT$T$GT$7replace17hdc60b70f90c23328E, 2226
_ZN4core3mem4drop17he256eb8a7b298639E, 2227
_ZN4core3ptr84drop_in_place$LT$core..option..Option$LT$crossbeam_channel..context..Context$GT$$GT$17h628c3af2b76aaf98E, 2228
_ZN4core3mem7replace17he22533e7663d8fb0E, 2229
_ZN4core3ptr4read17h596590b2142813c3E, 2230
_ZN4core3ptr5write17h5eadd939e51a08efE, 2231
_ZN4core10intrinsics19copy_nonoverlapping17h06fc54429a885218E, 2232
_ZN4core6option15Option$LT$T$GT$4take17hb72619d71c65cfbeE, 2233
_ZN4core6option15Option$LT$T$GT$6unwrap17h96d00595ed590fd7E, 2234
_ZN17crossbeam_channel6select10run_select28_$u7b$$u7b$closure$u7d$$u7d$17h19ad7feec7b6be80E, 2235
_ZN17crossbeam_channel7context7Context10try_select17h6b862168f89a95baE, 2236
_ZN4core5slice29_$LT$impl$u20$$u5b$T$u5d$$GT$8iter_mut17h0563c5023104d555E, 2237
_ZN4core6result19Result$LT$T$C$E$GT$6unwrap17hde5cbfdc96c46220E, 2238
_ZN63_$LT$I$u20$as$u20$core..iter..traits..collect..IntoIterator$GT$9into_iter17h9e4786ebea37d4d5E, 2239
_ZN17crossbeam_channel6select9Operation4hook17hef154a5889ceae4aE, 2240
_ZN17crossbeam_channel7context7Context8selected17h534647c24b57c85cE, 2241
_ZN76_$LT$crossbeam_channel..select..Selected$u20$as$u20$core..cmp..PartialEq$GT$2eq17had4aa7a1ddd1cc95E, 2242
_ZN76_$LT$crossbeam_channel..select..Selected$u20$as$u20$core..cmp..PartialEq$GT$2ne17h0e22a4194e549b88E, 2243
_ZN4core5slice29_$LT$impl$u20$$u5b$T$u5d$$GT$4iter17h3668c12f7bbc87c6E, 2244
_ZN63_$LT$I$u20$as$u20$core..iter..traits..collect..IntoIterator$GT$9into_iter17h5e66f65cb411c102E, 2245
_ZN17crossbeam_channel7context7Context10wait_until17hbead531d00d96c19E, 2246
_ZN4core6option15Option$LT$T$GT$3map17hc891350af9a24800E, 2247
_ZN4core6option15Option$LT$T$GT$2or17h5050ffc795666386E, 2248
_ZN4core4iter6traits8iterator8Iterator4take17hb868527bafe1c450E, 2249
_ZN63_$LT$I$u20$as$u20$core..iter..traits..collect..IntoIterator$GT$9into_iter17h71990c60a0f74ea2E, 2250
_ZN4core4iter8adapters4take13Take$LT$I$GT$3new17hb8986c9dfd64cc8bE, 2251
_ZN17crossbeam_channel6select10run_select28_$u7b$$u7b$closure$u7d$$u7d$28_$u7b$$u7b$closure$u7d$$u7d$17heac8ec9365c29c4cE, 2252
_ZN4core3cmp3Ord3min17hc7c451226bb62dafE, 2253
_ZN4core3cmp6min_by17h498fe09afed17085E, 2254
_ZN4core3ops8function6FnOnce9call_once17hc72d9bcee8a846b6E, 2255
_ZN53_$LT$std..time..Instant$u20$as$u20$core..cmp..Ord$GT$3cmp17h5cbe17e2aec9681fE, 2256
_ZN64_$LT$std..sys..wasi..time..Instant$u20$as$u20$core..cmp..Ord$GT$3cmp17hde03a2e8da48f73eE, 2257
_ZN55_$LT$core..time..Duration$u20$as$u20$core..cmp..Ord$GT$3cmp17h5585664aa020e29cE, 2258
_ZN4core3cmp5impls48_$LT$impl$u20$core..cmp..Ord$u20$for$u20$u64$GT$3cmp17h8f6750008457e3a7E, 2259
_ZN4core3cmp5impls48_$LT$impl$u20$core..cmp..Ord$u20$for$u20$u32$GT$3cmp17he61c3e635a570eebE, 2260
_ZN15crossbeam_utils7backoff7Backoff3new17h38c33112d345a2feE, 2261
_ZN69_$LT$alloc..sync..Arc$LT$T$GT$$u20$as$u20$core..ops..deref..Deref$GT$5deref17h5fad25611e488b47E, 2262
_ZN4core4sync6atomic11AtomicUsize4load17ha95562f4b6ce6a21E, 2263
_ZN88_$LT$crossbeam_channel..select..Selected$u20$as$u20$core..convert..From$LT$usize$GT$$GT$4from17h7cd033e6f1ea0888E, 2264
_ZN15crossbeam_utils7backoff7Backoff12is_completed17he5683b79a51e1edfE, 2265
_ZN15crossbeam_utils7backoff7Backoff6snooze17h1d95e0e106ee8eacE, 2266
_ZN63_$LT$I$u20$as$u20$core..iter..traits..collect..IntoIterator$GT$9into_iter17h7f179e0349c60e8cE, 2267
_ZN4core4iter5range101_$LT$impl$u20$core..iter..traits..iterator..Iterator$u20$for$u20$core..ops..range..Range$LT$A$GT$$GT$4next17hf6400a3c4ef3d916E, 2268
_ZN4core4sync6atomic14spin_loop_hint17h046a62784bc0d23eE, 2269
_ZN4core4cell13Cell$LT$T$GT$3set17hcd1a3b9f8898a2cbE, 2270
_ZN4core4cell13Cell$LT$T$GT$7replace17h3bbbce804987e8bdE, 2271
_ZN4core3mem4drop17h6ac3ab13e94bf162E, 2272
_ZN4core3mem7replace17hf8f1d37393f65799E, 2273
_ZN4core4hint9spin_loop17h26d197eb134dcc1eE, 2274
_ZN89_$LT$core..ops..range..Range$LT$T$GT$$u20$as$u20$core..iter..range..RangeIteratorImpl$GT$9spec_next17he628e3f1f4179ffaE, 2275
_ZN4core3cmp5impls55_$LT$impl$u20$core..cmp..PartialOrd$u20$for$u20$i32$GT$2lt17h8fdad4af78eb68a1E, 2276
_ZN4core5clone5impls52_$LT$impl$u20$core..clone..Clone$u20$for$u20$i32$GT$5clone17h846525d67a5536d7E, 2277
_ZN47_$LT$i32$u20$as$u20$core..iter..range..Step$GT$17forward_unchecked17h3a3c5d9cd2313465E, 2278
_ZN4core3mem7replace17hf3258717320d705aE, 2279
_ZN4core3ptr4read17hec7ddbe5d96901d3E, 2280
_ZN4core3ptr5write17he21e607fe290c647E, 2281
_ZN4core10intrinsics19copy_nonoverlapping17hb7f7ed4110bfd7e5E, 2282
_ZN4core5slice4iter13Iter$LT$T$GT$3new17h88266f9a9b9da737E, 2283
_ZN4core5slice29_$LT$impl$u20$$u5b$T$u5d$$GT$6as_ptr17hf6302c2ad66894ceE, 2284
_ZN4core5slice29_$LT$impl$u20$$u5b$T$u5d$$GT$3len17h5a268e4c20cbecd9E, 2285
_ZN77_$LT$crossbeam_channel..select..Operation$u20$as$u20$core..cmp..PartialEq$GT$2ne17h42335d6a85e22837E, 2286
_ZN77_$LT$crossbeam_channel..select..Operation$u20$as$u20$core..cmp..PartialEq$GT$2eq17h62abe75ca3ed01b4E, 2287
_ZN4core3ptr56drop_in_place$LT$crossbeam_channel..select..Selected$GT$17h4f9856b2b400d284E, 2288
_ZN72_$LT$crossbeam_channel..select..Selected$u20$as$u20$core..fmt..Debug$GT$3fmt17h22c2b884b64d7ccdE, 2289
_ZN4core3ptr61drop_in_place$LT$$RF$crossbeam_channel..select..Operation$GT$17h559746302fbb30f8E, 2290
_ZN42_$LT$$RF$T$u20$as$u20$core..fmt..Debug$GT$3fmt17h3bbb79bb303338feE, 2291
_ZN73_$LT$crossbeam_channel..select..Operation$u20$as$u20$core..fmt..Debug$GT$3fmt17h870e2e93d5c6dd58E, 2292
_ZN4core3ptr30drop_in_place$LT$$RF$usize$GT$17h81f5e207af6e61cbE, 2293
_ZN4core5slice4iter16IterMut$LT$T$GT$3new17h8544d6aa910bb855E, 2294
_ZN4core5slice29_$LT$impl$u20$$u5b$T$u5d$$GT$10as_mut_ptr17hf70ce94819af73e0E, 2295
_ZN88_$LT$crossbeam_channel..select..Selected$u20$as$u20$core..convert..Into$LT$usize$GT$$GT$4into17h963888dd01064dffE, 2296
_ZN4core4sync6atomic11AtomicUsize16compare_exchange17hb815049067899491E, 2297
_ZN4core6result19Result$LT$T$C$E$GT$3map17h95ce3ade6b70e9bdE, 2298
_ZN4core6result19Result$LT$T$C$E$GT$7map_err17hd817d433ec93f9c6E, 2299
_ZN17crossbeam_channel7context7Context10try_select28_$u7b$$u7b$closure$u7d$$u7d$17h65a21a0d6e792f6eE, 2300
_ZN50_$LT$T$u20$as$u20$core..convert..Into$LT$U$GT$$GT$4into17ha5fae2d56c1e3119E, 2301
_ZN17crossbeam_channel7context7Context10try_select28_$u7b$$u7b$closure$u7d$$u7d$17h865378693602dc07E, 2302
_ZN4core3mem4take17hc973d21b189c797bE, 2303
_ZN72_$LT$core..option..Option$LT$T$GT$$u20$as$u20$core..default..Default$GT$7default17hab57e460363f1810E, 2304
_ZN4core3mem7replace17h36b75b38fb7c8007E, 2305
_ZN4core3ptr4read17heb88edf28a9a2352E, 2306
_ZN4core3ptr5write17hb31ca4270446eb24E, 2307
_ZN4core10intrinsics19copy_nonoverlapping17h3b4b199e57f9db19E, 2308
_ZN4core4sync6atomic11AtomicUsize5store17hc331243d726900b6E, 2309
_ZN4core4sync6atomic12atomic_store17h791960ca30ef03f4E, 2310
_ZN4core4sync6atomic11AtomicUsize3new17hf22878d521fb630cE, 2311
_ZN5alloc4sync12Arc$LT$T$GT$3new17he7a857a6cbe25358E, 2312
_ZN5alloc5alloc15exchange_malloc17h5c98f53e45eaf82fE, 2313
_ZN5alloc5boxed16Box$LT$T$C$A$GT$4leak17h17e9dfa38bedb0eeE, 2314
_ZN50_$LT$T$u20$as$u20$core..convert..Into$LT$U$GT$$GT$4into17hc5364ed067558af1E, 2315
_ZN5alloc4sync12Arc$LT$T$GT$10from_inner17h415446ada05f24f7E, 2316
_ZN98_$LT$core..ptr..non_null..NonNull$LT$T$GT$$u20$as$u20$core..convert..From$LT$$RF$mut$u20$T$GT$$GT$4from17hc02bd4abf74df425E, 2317
_ZN4core3ptr6unique15Unique$LT$T$GT$6as_ptr17h2291e014a882b73dE, 2318
_ZN63_$LT$alloc..alloc..Global$u20$as$u20$core..alloc..Allocator$GT$8allocate17h0b93dd1fc0bae510E, 2319
_ZN5alloc5alloc6Global10alloc_impl17h8152c8402f49daa4E, 2320
_ZN4core5alloc6layout6Layout8dangling17h3a67e60c39fe9bb2E, 2321
_ZN5alloc5alloc5alloc17hc0b7a77af03580e7E, 2322
_ZN5alloc5alloc12alloc_zeroed17hc327fe22a8746fd8E, 2323
_ZN72_$LT$core..option..Option$LT$T$GT$$u20$as$u20$core..default..Default$GT$7default17hfce85b844bd63807E, 2324
_ZN3std6thread5local17LocalKey$LT$T$GT$8try_with17h6181f306893091faE, 2325
_ZN4core6option15Option$LT$T$GT$5ok_or17had4387b8c84c6690E, 2326
_ZN79_$LT$core..result..Result$LT$T$C$E$GT$$u20$as$u20$core..ops..try_trait..Try$GT$6branch17h9decbea444842f8bE, 2327
_ZN17crossbeam_channel5utils7shuffle28_$u7b$$u7b$closure$u7d$$u7d$17ha4914612f8e194a8E, 2328
_ZN4core4cell13Cell$LT$T$GT$3get17h514791d5c1e87c99E, 2329
_ZN93_$LT$core..num..wrapping..Wrapping$LT$u32$GT$$u20$as$u20$core..ops..bit..Shl$LT$usize$GT$$GT$3shl17hbdfd206f97481036E, 2330
_ZN89_$LT$core..num..wrapping..Wrapping$LT$u32$GT$$u20$as$u20$core..ops..bit..BitXorAssign$GT$13bitxor_assign17h87ae836975813a10E, 2331
_ZN93_$LT$core..num..wrapping..Wrapping$LT$u32$GT$$u20$as$u20$core..ops..bit..Shr$LT$usize$GT$$GT$3shr17he129f35797cfa599E, 2332
_ZN4core4cell13Cell$LT$T$GT$3set17ha2f184131d0cd2ccE, 2333
_ZN4core5slice29_$LT$impl$u20$$u5b$T$u5d$$GT$4swap17h4b18d60912f49553E, 2334
_ZN4core3ptr4swap17h719cb3717cb47835E, 2335
_ZN4core10intrinsics19copy_nonoverlapping17hec04e3b1f1158de5E, 2336
_ZN4core10intrinsics4copy17hde8ec27c3f94407eE, 2337
_ZN4core4cell13Cell$LT$T$GT$7replace17h4f121371f76c4b40E, 2338
_ZN4core3mem4drop17h683cda37f35c14dcE, 2339
_ZN4core3mem7replace17h5d8fed516a504a13E, 2340
_ZN4core3ptr4read17hc78e61371aadaf4bE, 2341
_ZN4core3ptr5write17hafb1a6d150255ddcE, 2342
_ZN4core10intrinsics19copy_nonoverlapping17hd7b3b7c913ced5a6E, 2343
_ZN83_$LT$core..num..wrapping..Wrapping$LT$u32$GT$$u20$as$u20$core..ops..bit..BitXor$GT$6bitxor17hce6110173fb7a09dE, 2344
_ZN3std6thread5local17LocalKey$LT$T$GT$8try_with17hb29901a551c85b8fE, 2345
_ZN17crossbeam_channel7context7Context4with28_$u7b$$u7b$closure$u7d$$u7d$17h658c688089abaa0eE, 2346
_ZN17crossbeam_channel7context7Context4with28_$u7b$$u7b$closure$u7d$$u7d$17h7d33457f1868b5d0E, 2347
_ZN4core6option15Option$LT$T$GT$4take17h5e3cbb3dacc00c66E, 2348
_ZN4core6option15Option$LT$T$GT$6unwrap17he4dafbd70a6a8849E, 2349
_ZN17crossbeam_channel6select9run_ready28_$u7b$$u7b$closure$u7d$$u7d$17hebb587b1967ed5d7E, 2350
_ZN4core6option15Option$LT$T$GT$3map17hef503a16a5d05155E, 2351
_ZN17crossbeam_channel6select9run_ready28_$u7b$$u7b$closure$u7d$$u7d$28_$u7b$$u7b$closure$u7d$$u7d$17hfe429bfd70b28383E, 2352
_ZN4core3mem4take17h99cb9496e80ace16E, 2353
_ZN72_$LT$core..option..Option$LT$T$GT$$u20$as$u20$core..default..Default$GT$7default17h47c22f94d427853eE, 2354
_ZN4core3mem7replace17hca34a01e7f14b4fbE, 2355
_ZN4core3ptr4read17h032fd90b6291c07fE, 2356
_ZN4core3ptr5write17h88747e8a4cbe43a0E, 2357
_ZN4core10intrinsics19copy_nonoverlapping17h5265f7313c32b99eE, 2358
_ZN3std6thread5local4lazy21LazyKeyInner$LT$T$GT$10initialize17h20727178f92dcfafE, 2359
_ZN4core3ops8function6FnOnce9call_once17h532d0d19a95b4382E, 2360
_ZN4core3mem7replace17hae00d4b263644f35E, 2361
_ZN4core3ptr136drop_in_place$LT$core..option..Option$LT$core..cell..Cell$LT$core..option..Option$LT$crossbeam_channel..context..Context$GT$$GT$$GT$$GT$17h6b0104de1861c7b6E, 2362
_ZN4core4hint21unreachable_unchecked17hca74ea6c70233eedE, 2363
_ZN4core3ptr108drop_in_place$LT$core..cell..Cell$LT$core..option..Option$LT$crossbeam_channel..context..Context$GT$$GT$$GT$17h653dc03e1d20edfbE, 2364
_ZN4core3ptr114drop_in_place$LT$core..cell..UnsafeCell$LT$core..option..Option$LT$crossbeam_channel..context..Context$GT$$GT$$GT$17h5e16455956c207fbE, 2365
_ZN4core3ptr4read17h36efd9fdda69f6a1E, 2366
_ZN4core3ptr5write17h3865ab05bcc3a258E, 2367
_ZN4core10intrinsics19copy_nonoverlapping17h2be701e66977d264E, 2368
_ZN3std6thread5local4lazy21LazyKeyInner$LT$T$GT$10initialize17h23819a5e0ba1d53cE, 2369
_ZN4core3ops8function6FnOnce9call_once17h07a09c5a98fe6493E, 2370
_ZN4core3mem7replace17h9799b051d99df1a4E, 2371
_ZN4core3ptr4read17h1f1b558bedca3558E, 2372
_ZN4core3ptr5write17hc6f8dc11bca205d4E, 2373
_ZN4core10intrinsics19copy_nonoverlapping17hc5d334ede759207aE, 2374
_ZN3std6thread5local4lazy21LazyKeyInner$LT$T$GT$10initialize17hcbd5546104397319E, 2375
_ZN4core3ops8function6FnOnce9call_once17h2a81da890d2bf771E, 2376
_ZN4core3mem7replace17hc3a34268511fd05bE, 2377
_ZN4core3ptr4read17hbac71808a1ac8297E, 2378
_ZN4core3ptr5write17ha1092f78849efcc6E, 2379
_ZN4core10intrinsics19copy_nonoverlapping17h2aef21c9dd69b105E, 2380
_ZN3std6thread5local4lazy21LazyKeyInner$LT$T$GT$3get17h13f4f90c50b2621cE, 2381
_ZN4core6option15Option$LT$T$GT$6as_ref17h15e46b563f3bc53bE, 2382
_ZN3std6thread5local4lazy21LazyKeyInner$LT$T$GT$3get17h35be2aa934597aceE, 2383
_ZN4core6option15Option$LT$T$GT$6as_ref17h3491129ea154a01bE, 2384
_ZN3std6thread5local4lazy21LazyKeyInner$LT$T$GT$3get17hcaad1902d75a0989E, 2385
_ZN4core6option15Option$LT$T$GT$6as_ref17hf48b09332949a953E, 2386
_ZN3std6thread5local6statik12Key$LT$T$GT$3get17h127864dc134c2e16E, 2387
_ZN3std6thread5local6statik12Key$LT$T$GT$3get17h157ea7af63ed0004E, 2388
_ZN3std6thread5local6statik12Key$LT$T$GT$3get17hbbf778a5d2164842E, 2389
_ZN42_$LT$$RF$T$u20$as$u20$core..fmt..Debug$GT$3fmt17h094b183103400d83E, 2390
_ZN80_$LT$crossbeam_channel..flavors..list..ListToken$u20$as$u20$core..fmt..Debug$GT$3fmt17hacfdd68b79680adaE, 2391
_ZN4core3ptr41drop_in_place$LT$$RF$$BP$const$u20$u8$GT$17h53ead1c36707aa93E, 2392
_ZN42_$LT$$RF$T$u20$as$u20$core..fmt..Debug$GT$3fmt17h872db234c992fb2eE, 2393
_ZN52_$LT$$BP$const$u20$T$u20$as$u20$core..fmt..Debug$GT$3fmt17h29c21ab29123cbb9E, 2394
_ZN54_$LT$$BP$const$u20$T$u20$as$u20$core..fmt..Pointer$GT$3fmt17h633f62ab5829c401E, 2395
_ZN4core6option15Option$LT$T$GT$7is_none17h1c32bf96d640d490E, 2396
_ZN4core6option15Option$LT$T$GT$7is_some17hea579c1bc9cfe5f1E, 2397
_ZN42_$LT$$RF$T$u20$as$u20$core..fmt..Debug$GT$3fmt17h115b1f33e76e9d78E, 2398
_ZN42_$LT$$RF$T$u20$as$u20$core..fmt..Debug$GT$3fmt17h204742a1e86c2a31E, 2399
_ZN42_$LT$$RF$T$u20$as$u20$core..fmt..Debug$GT$3fmt17h255cd23f01d7ca0eE, 2400
_ZN42_$LT$$RF$T$u20$as$u20$core..fmt..Debug$GT$3fmt17h8a07b93c55f16a66E, 2401
_ZN45_$LT$$LP$$RP$$u20$as$u20$core..fmt..Debug$GT$3fmt17h727f4c5422c6b840E, 2402
_ZN42_$LT$$RF$T$u20$as$u20$core..fmt..Debug$GT$3fmt17h960283f76bf9098aE, 2403
_ZN62_$LT$alloc..sync..Arc$LT$T$GT$$u20$as$u20$core..fmt..Debug$GT$3fmt17hbcffbeb9324c1e0aE, 2404
_ZN70_$LT$crossbeam_channel..context..Inner$u20$as$u20$core..fmt..Debug$GT$3fmt17h484765d359e0971bE, 2405
_ZN4core3ptr46drop_in_place$LT$$RF$std..thread..ThreadId$GT$17h4a9affc1f49b1134E, 2406
_ZN4core3ptr44drop_in_place$LT$$RF$std..thread..Thread$GT$17h7bd56fff34fc8099E, 2407
_ZN4core3ptr56drop_in_place$LT$$RF$core..sync..atomic..AtomicUsize$GT$17h4a7707ce8d0f91e4E, 2408
_ZN42_$LT$$RF$T$u20$as$u20$core..fmt..Debug$GT$3fmt17hc3f9d25ee84b55aeE, 2409
_ZN42_$LT$$RF$T$u20$as$u20$core..fmt..Debug$GT$3fmt17hcc7ab76b6eae5a2fE, 2410
_ZN82_$LT$crossbeam_channel..flavors..array..ArrayToken$u20$as$u20$core..fmt..Debug$GT$3fmt17h137ace7049cb25baE, 2411
_ZN42_$LT$$RF$T$u20$as$u20$core..fmt..Debug$GT$3fmt17he3b4d05adeb715ccE, 2412
_ZN66_$LT$core..option..Option$LT$T$GT$$u20$as$u20$core..fmt..Debug$GT$3fmt17h361560abc2635dffE, 2413
_ZN4core3ptr43drop_in_place$LT$$RF$std..time..Instant$GT$17h1aebc224fb2a6e07E, 2414
_ZN4core3cmp10PartialOrd2ge17h039642436a0d9037E, 2415
_ZN60_$LT$std..time..Instant$u20$as$u20$core..cmp..PartialOrd$GT$11partial_cmp17h9d3f44b1cc2c176fE, 2416
_ZN71_$LT$std..sys..wasi..time..Instant$u20$as$u20$core..cmp..PartialOrd$GT$11partial_cmp17h598335cb7eefb169E, 2417
_ZN62_$LT$core..time..Duration$u20$as$u20$core..cmp..PartialOrd$GT$11partial_cmp17ha33b3e5e63baec75E, 2418
_ZN4core3cmp5impls55_$LT$impl$u20$core..cmp..PartialOrd$u20$for$u20$u64$GT$11partial_cmp17hf67241feccb5773aE, 2419
_ZN4core3cmp5impls55_$LT$impl$u20$core..cmp..PartialOrd$u20$for$u20$u32$GT$11partial_cmp17h9daa22c3cc1c9177E, 2420
_ZN4core3mem4swap17h4f6124834d204ed6E, 2421
_ZN4core3ptr23swap_nonoverlapping_one17hdadbcbe74670c13dE, 2422
_ZN4core3ptr4read17hb435a4412c891afaE, 2423
_ZN4core3ptr19swap_nonoverlapping17h52d3c77eefd1af44E, 2424
_ZN4core3ptr5write17h32aa08dc1c8d77fcE, 2425
_ZN4core3ptr25swap_nonoverlapping_bytes17h1645db36e0d3e620E, 2426
_ZN4core3ops12control_flow24ControlFlow$LT$B$C$C$GT$11break_value17hd66c71bdb58ed438E, 2427
_ZN4core3ptr147drop_in_place$LT$std..thread..local..statik..Key$LT$core..cell..Cell$LT$core..option..Option$LT$crossbeam_channel..context..Context$GT$$GT$$GT$$GT$17h0da3c0c90b7de102E, 2428
_ZN4core3ptr154drop_in_place$LT$std..thread..local..lazy..LazyKeyInner$LT$core..cell..Cell$LT$core..option..Option$LT$crossbeam_channel..context..Context$GT$$GT$$GT$$GT$17hbf142134f85c44b4E, 2429
_ZN4core3ptr166drop_in_place$LT$core..cell..UnsafeCell$LT$core..option..Option$LT$core..cell..Cell$LT$core..option..Option$LT$crossbeam_channel..context..Context$GT$$GT$$GT$$GT$$GT$17h6faed6622c48453dE, 2430
_ZN4core3ptr20slice_from_raw_parts17hfa355a6e61e28393E, 2431
_ZN4core3ptr9const_ptr33_$LT$impl$u20$$BP$const$u20$T$GT$4cast17h0e14a84d61be627aE, 2432
_ZN4core3ptr8metadata14from_raw_parts17h86f468da3ff56b02E, 2433
_ZN4core3ptr24slice_from_raw_parts_mut17hd2402c94c95fae7aE, 2434
_ZN4core3ptr8metadata18from_raw_parts_mut17h9f5da853e38b19efE, 2435
_ZN4core3ptr6unique15Unique$LT$T$GT$13new_unchecked17hc73897c700421a4fE, 2436
_ZN4core3ptr6unique15Unique$LT$T$GT$6as_ptr17h479f98ec9da27807E, 2437
_ZN4core3ptr6unique15Unique$LT$T$GT$6as_ptr17h9c0a056e5e1a3b6eE, 2438
_ZN4core3ptr6unique15Unique$LT$T$GT$6as_ptr17h9d2ba5ae66bc7b9bE, 2439
_ZN4core3ptr6unique15Unique$LT$T$GT$8dangling17h2a71347f643ead10E, 2440
_ZN4core3ptr7replace17h98ef773f149b766eE, 2441
_ZN4core3ptr8non_null16NonNull$LT$T$GT$4cast17hde0fc87a474cd150E, 2442
_ZN4core3ptr9const_ptr33_$LT$impl$u20$$BP$const$u20$T$GT$22copy_to_nonoverlapping17hd94e1fb00b60341dE, 2443
_ZN4core4cell13Cell$LT$T$GT$3new17h249cf3f1d0050296E, 2444
_ZN4core4cell13Cell$LT$T$GT$3new17h24e4ab102bd5d896E, 2445
_ZN4core4iter6traits8iterator8Iterator4find17hcc57c67fb2c9722aE, 2446
_ZN4core4iter6traits8iterator8Iterator4find5check17h3e62f1a3afd055a3E, 2447
_ZN4core4iter6traits8iterator8Iterator9enumerate17h616f57e863987979E, 2448
_ZN4core4iter8adapters9enumerate18Enumerate$LT$I$GT$3new17ha432d65417b3ec40E, 2449
_ZN4core5alloc6layout10size_align17hf2dbf317240951a8E, 2450
_ZN4core5alloc6layout6Layout3new17he3141d73501f8e97E, 2451
_ZN4core5alloc6layout6Layout5array17hc5476ae9a286e49eE, 2452
_ZN4core5alloc6layout6Layout6repeat17h3871580574faa612E, 2453
_ZN4core5alloc6layout6Layout12pad_to_align17h578d1204091ddbe7E, 2454
_ZN4core5alloc6layout6Layout18padding_needed_for17hdb5bebd6bc574d9dE, 2455
_ZN4core5alloc6layout6Layout15from_size_align17h66ef3a16d8a04dcbE, 2456
_ZN4core3num23_$LT$impl$u20$usize$GT$11checked_mul17hb10e39d876a674e3E, 2457
_ZN4core5slice29_$LT$impl$u20$$u5b$T$u5d$$GT$8is_empty17h0774955cccc4739bE, 2458
_ZN4core5slice3raw14from_raw_parts17hc35a5c6e3b0c6118E, 2459
_ZN4core5slice3raw18from_raw_parts_mut17h6771f46321ecf541E, 2460
_ZN4core6option15Option$LT$T$GT$6expect17h82b29aeb4318fc19E, 2461
_ZN4core6option15Option$LT$T$GT$6unwrap17h144a2df3f628f29bE, 2462
_ZN4core6option15Option$LT$T$GT$6unwrap17h5fc6018e87431441E, 2463
_ZN4core6result19Result$LT$T$C$E$GT$14unwrap_or_else17h0b64987748b6bdccE, 2464
_ZN17crossbeam_channel7context7Context4with28_$u7b$$u7b$closure$u7d$$u7d$17h96dcc6938cf822acE, 2465
_ZN4core6result19Result$LT$T$C$E$GT$14unwrap_or_else17hdccb10fbc252cc79E, 2466
_ZN17crossbeam_channel7context7Context4with28_$u7b$$u7b$closure$u7d$$u7d$17hfdffd1ab64e7bc3fE, 2467
_ZN50_$LT$T$u20$as$u20$core..convert..Into$LT$U$GT$$GT$4into17h18789040b84a51e3E, 2468
_ZN98_$LT$core..ptr..non_null..NonNull$LT$T$GT$$u20$as$u20$core..convert..From$LT$$RF$mut$u20$T$GT$$GT$4from17h18ce9d5e5ca19051E, 2469
_ZN50_$LT$T$u20$as$u20$core..convert..Into$LT$U$GT$$GT$4into17hd51ea3b6d06bcdffE, 2470
_ZN98_$LT$core..ptr..non_null..NonNull$LT$T$GT$$u20$as$u20$core..convert..From$LT$$RF$mut$u20$T$GT$$GT$4from17he768b0371ac5ace3E, 2471
_ZN52_$LT$T$u20$as$u20$alloc..slice..hack..ConvertVec$GT$6to_vec17h4329ff135a528e47E, 2472
_ZN5alloc3vec16Vec$LT$T$C$A$GT$16with_capacity_in17he1e99b395b547ff0E, 2473
_ZN5alloc3vec16Vec$LT$T$C$A$GT$10as_mut_ptr17h89daa011d5d4df2aE, 2474
_ZN5alloc3vec16Vec$LT$T$C$A$GT$7set_len17hf824ce8965245ce3E, 2475
_ZN5alloc7raw_vec19RawVec$LT$T$C$A$GT$3ptr17hd94e5950eee6f771E, 2476
_ZN5alloc7raw_vec19RawVec$LT$T$C$A$GT$16with_capacity_in17h952dc31c30003414E, 2477
_ZN5alloc7raw_vec19RawVec$LT$T$C$A$GT$11allocate_in17h21b3e135e73d1e18E, 2478
_ZN5alloc7raw_vec19RawVec$LT$T$C$A$GT$6new_in17hff9361448b89bc2aE, 2479
_ZN5alloc7raw_vec11alloc_guard17h70a1b0d3ee8e2679E, 2480
_ZN63_$LT$alloc..alloc..Global$u20$as$u20$core..alloc..Allocator$GT$15allocate_zeroed17h792f122f2dbeb633E, 2481
_ZN5alloc7raw_vec19RawVec$LT$T$C$A$GT$19capacity_from_bytes17h33d85c3052b25e17E, 2482
_ZN5alloc3vec12Vec$LT$T$GT$13with_capacity17hef648cb70560ffe9E, 2483
_ZN5alloc3vec16Vec$LT$T$C$A$GT$11swap_remove17h440b5e94f7fbe0b1E, 2484
_ZN5alloc3vec16Vec$LT$T$C$A$GT$3len17hbd35aaf86c838909E, 2485
_ZN5alloc3vec16Vec$LT$T$C$A$GT$6as_ptr17ha7e11491abde9694E, 2486
_ZN5alloc3vec16Vec$LT$T$C$A$GT$8is_empty17h8fbed526ea4a1064E, 2487
_ZN5alloc3vec16Vec$LT$T$C$A$GT$9allocator17hdecbc23141c954aaE, 2488
_ZN5alloc7raw_vec19RawVec$LT$T$C$A$GT$9allocator17h816506935018870aE, 2489
_ZN5alloc4sync12Arc$LT$T$GT$10from_inner17h761016c398f72c5fE, 2490
_ZN5alloc4sync12Arc$LT$T$GT$10from_inner17he5fbbb8311d3fc1cE, 2491
_ZN5alloc4sync12Arc$LT$T$GT$3new17hb3b3cf490e55b66dE, 2492
_ZN5alloc5boxed16Box$LT$T$C$A$GT$4leak17h2ae08fc67e832f61E, 2493
_ZN5alloc4sync12Arc$LT$T$GT$3new17he0bd1e8cc0d12d70E, 2494
_ZN5alloc5boxed16Box$LT$T$C$A$GT$4leak17heb14cf19ebea16d0E, 2495
_ZN5alloc5slice29_$LT$impl$u20$$u5b$T$u5d$$GT$9to_vec_in17h9f4b6bff039bc26aE, 2496
_ZN5alloc5slice4hack6to_vec17h535d16b0c79f0ccfE, 2497
_ZN67_$LT$alloc..vec..Vec$LT$T$C$A$GT$$u20$as$u20$core..clone..Clone$GT$5clone17h6000b925c5edcd96E, 2498
_ZN59_$LT$alloc..alloc..Global$u20$as$u20$core..clone..Clone$GT$5clone17h6a7c1098cdd57d8bE, 2499
_ZN72_$LT$alloc..vec..Vec$LT$T$C$A$GT$$u20$as$u20$core..ops..deref..Deref$GT$5deref17h76552cebb7b166c5E, 2500
_ZN72_$LT$core..option..Option$LT$T$GT$$u20$as$u20$core..default..Default$GT$7default17h5a2c60de7e9c4149E, 2501
_ZN75_$LT$alloc..vec..Vec$LT$T$C$A$GT$$u20$as$u20$core..ops..deref..DerefMut$GT$9deref_mut17hba862581522780d7E, 2502
_ZN17crossbeam_channel7channel5after17h35b8f70c87467f72E, 2503
_ZN17crossbeam_channel7flavors2at7Channel11new_timeout17h89fd1524b2c765adE, 2504
_ZN17crossbeam_channel7flavors2at7Channel12new_deadline17h2d019ee8d5414177E, 2505
_ZN4core4sync6atomic10AtomicBool3new17h04294be8839f80ebE, 2506
_ZN17crossbeam_channel7channel2at17hfed7d466a20d008dE, 2507
_ZN17crossbeam_channel7channel4tick17hf8e4c90c47368120E, 2508
_ZN17crossbeam_channel7flavors4tick7Channel3new17hf31f41dbbdd284b0E, 2509
_ZN17crossbeam_channel7context7Context4with17hd561c762576a7ff0E, 2510
_ZN17crossbeam_channel7context7Context4with7CONTEXT7__getit17h42e5587f20018722E, 2511
_ZN17crossbeam_channel7context7Context4with7CONTEXT6__init17h53df1737fe79ac14E, 2512
_ZN17crossbeam_channel7context7Context4with17he8cca79f5093c968E, 2513
_ZN72_$LT$crossbeam_channel..err..RecvError$u20$as$u20$core..fmt..Display$GT$3fmt17h1524168b8028a677E, 2514
_ZN75_$LT$crossbeam_channel..err..TryRecvError$u20$as$u20$core..fmt..Display$GT$3fmt17h35d957b4d351c3d7E, 2515
_ZN117_$LT$crossbeam_channel..err..TryRecvError$u20$as$u20$core..convert..From$LT$crossbeam_channel..err..RecvError$GT$$GT$4from17h105e15d45a6a6d6bE, 2516
_ZN17crossbeam_channel3err12TryRecvError8is_empty17hc140e852c2fc7573E, 2517
_ZN17crossbeam_channel3err12TryRecvError15is_disconnected17hb48ebef8adcb6e60E, 2518
_ZN79_$LT$crossbeam_channel..err..RecvTimeoutError$u20$as$u20$core..fmt..Display$GT$3fmt17hb653bf676a29c7afE, 2519
_ZN121_$LT$crossbeam_channel..err..RecvTimeoutError$u20$as$u20$core..convert..From$LT$crossbeam_channel..err..RecvError$GT$$GT$4from17h21570f3739643aceE, 2520
_ZN17crossbeam_channel3err16RecvTimeoutError10is_timeout17h1ae40cdccb7c0188E, 2521
_ZN17crossbeam_channel3err16RecvTimeoutError15is_disconnected17h3652ef65631a2122E, 2522
_ZN77_$LT$crossbeam_channel..err..TrySelectError$u20$as$u20$core..fmt..Display$GT$3fmt17h47db1977165c7155E, 2523
_ZN81_$LT$crossbeam_channel..err..SelectTimeoutError$u20$as$u20$core..fmt..Display$GT$3fmt17h0811918cecfcae6bE, 2524
_ZN17crossbeam_channel6select10run_select17h345fb562c9ee2680E, 2525
_ZN17crossbeam_channel5utils7shuffle17ha78e9d5e54d01f79E, 2526
_ZN17crossbeam_channel5utils11sleep_until17h5d83f6c499f065caE, 2527
_ZN75_$LT$crossbeam_channel..select..Token$u20$as$u20$core..default..Default$GT$7default17hca99d8ba3dd485c1E, 2528
_ZN88_$LT$crossbeam_channel..flavors..array..ArrayToken$u20$as$u20$core..default..Default$GT$7default17h282e4f863e480bcdE, 2529
_ZN86_$LT$crossbeam_channel..flavors..list..ListToken$u20$as$u20$core..default..Default$GT$7default17h6a9be651e3cc18c8E, 2530
_ZN51_$LT$$LP$$RP$$u20$as$u20$core..default..Default$GT$7default17h4d423eda95084f8eE, 2531
_ZN48_$LT$usize$u20$as$u20$core..default..Default$GT$7default17h4d7665fd9a9d96a5E, 2532
_ZN4core4time8Duration9from_secs17h417ada229b4914ebE, 2533
_ZN17crossbeam_channel5utils7shuffle3RNG7__getit17ha9cb81a7c9fc2508E, 2534
_ZN17crossbeam_channel5utils7shuffle3RNG6__init17h230f5078c1d0b112E, 2535
_ZN17crossbeam_channel6select6Select3new17hf2c4ab25b34c9fd5E, 2536
_ZN17crossbeam_channel6select6Select6remove17hfb5d2773b71601dcE, 2537
_ZN4core3fmt9Arguments6new_v117h747f49dbb579d50cE, 2538
_ZN17crossbeam_channel6select6Select10try_select17ha457dea4ffb5f04fE, 2539
_ZN17crossbeam_channel6select10try_select17hc72dd5a90b1924a8E, 2540
_ZN17crossbeam_channel6select6Select6select17hc08951cf748d6748E, 2541
_ZN17crossbeam_channel6select6select17h834e95c6693d3c0eE, 2542
_ZN17crossbeam_channel6select6Select14select_timeout17h3a4a9dfcfe060bb6E, 2543
_ZN17crossbeam_channel6select14select_timeout17hbeaff6ac2c130442E, 2544
_ZN17crossbeam_channel6select15select_deadline17h813d2c7a06bcbe08E, 2545
_ZN17crossbeam_channel6select6Select15select_deadline17he5e15c50d020f276E, 2546
_ZN17crossbeam_channel6select6Select9try_ready17h39b0cc272f197d89E, 2547
_ZN17crossbeam_channel6select9run_ready17h9de84614fe57b292E, 2548
_ZN17crossbeam_channel6select6Select5ready17hc4242c85ea7fdd61E, 2549
_ZN17crossbeam_channel6select6Select13ready_timeout17h27b4ca9f74525170E, 2550
_ZN17crossbeam_channel6select6Select14ready_deadline17ha99293baf7bdedc1E, 2551
_ZN72_$LT$crossbeam_channel..select..Select$u20$as$u20$core..clone..Clone$GT$5clone17ha9c1def6c48c02a5E, 2552
_ZN76_$LT$crossbeam_channel..select..Select$u20$as$u20$core..default..Default$GT$7default17h353c3b24d36a2797E, 2553
_ZN70_$LT$crossbeam_channel..select..Select$u20$as$u20$core..fmt..Debug$GT$3fmt17h550d8accb796e95cE, 2554
_ZN17crossbeam_channel6select17SelectedOperation5index17he7c6083b5e4426a1E, 2555
_ZN81_$LT$crossbeam_channel..select..SelectedOperation$u20$as$u20$core..fmt..Debug$GT$3fmt17hc2f81f9849d1320bE, 2556
_ZN86_$LT$crossbeam_channel..select..SelectedOperation$u20$as$u20$core..ops..drop..Drop$GT$4drop17h4c11c505e229bf89E, 2557
_ZN72_$LT$crossbeam_channel..context..Context$u20$as$u20$core..fmt..Debug$GT$3fmt17ha45117e9c1383d45E, 2558
_ZN4core3ptr82drop_in_place$LT$$RF$alloc..sync..Arc$LT$crossbeam_channel..context..Inner$GT$$GT$17h2ff839ae8d540ea0E, 2559
_ZN70_$LT$crossbeam_channel..err..RecvError$u20$as$u20$core..fmt..Debug$GT$3fmt17hc3c556b029d3ad87E, 2560
_ZN73_$LT$crossbeam_channel..err..TryRecvError$u20$as$u20$core..fmt..Debug$GT$3fmt17hea58e4f367d0c260E, 2561
_ZN77_$LT$crossbeam_channel..err..RecvTimeoutError$u20$as$u20$core..fmt..Debug$GT$3fmt17h1e8393180f444580E, 2562
_ZN75_$LT$crossbeam_channel..err..TrySelectError$u20$as$u20$core..fmt..Debug$GT$3fmt17h263e15860a2b2b4cE, 2563
_ZN79_$LT$crossbeam_channel..err..SelectTimeoutError$u20$as$u20$core..fmt..Debug$GT$3fmt17h75ae922c13257d57E, 2564
_ZN74_$LT$crossbeam_channel..err..TryReadyError$u20$as$u20$core..fmt..Debug$GT$3fmt17h7a16c259f274690fE, 2565
_ZN78_$LT$crossbeam_channel..err..ReadyTimeoutError$u20$as$u20$core..fmt..Debug$GT$3fmt17h7bd639b1f19cf465E, 2566
_ZN69_$LT$crossbeam_channel..select..Token$u20$as$u20$core..fmt..Debug$GT$3fmt17h6c4cdf44cc5d7843E, 2567
_ZN4core3ptr33drop_in_place$LT$$RF$$LP$$RP$$GT$17h7811ff621723e9b9E, 2568
_ZN4core3ptr68drop_in_place$LT$$RF$crossbeam_channel..flavors..list..ListToken$GT$17h9a9f719d3a1354c0E, 2569
_ZN4core3ptr70drop_in_place$LT$$RF$crossbeam_channel..flavors..array..ArrayToken$GT$17h92be4a0ba56ec186E, 2570
_ZN4core3ptr71drop_in_place$LT$$RF$core..option..Option$LT$std..time..Instant$GT$$GT$17h08a733f85a9f5618E, 2571
_ZN106_$LT$core..ops..range..Range$LT$usize$GT$$u20$as$u20$core..slice..index..SliceIndex$LT$$u5b$T$u5d$$GT$$GT$13get_unchecked17h8a9cccd95fce71ffE, 2572
_ZN4core3ptr9const_ptr43_$LT$impl$u20$$BP$const$u20$$u5b$T$u5d$$GT$6as_ptr17hff7a4031eb3872abE, 2573
_ZN4core3ptr20slice_from_raw_parts17heade7f9bd5fcdf71E, 2574
_ZN4core3ptr9const_ptr33_$LT$impl$u20$$BP$const$u20$T$GT$4cast17hc17b804b946c92cbE, 2575
_ZN4core3ptr8metadata14from_raw_parts17h2e92bf4697588342E, 2576
_ZN110_$LT$core..ops..range..RangeFrom$LT$usize$GT$$u20$as$u20$core..slice..index..SliceIndex$LT$$u5b$T$u5d$$GT$$GT$13get_unchecked17h5f2af6b5ecb11584E, 2577
_ZN4core3ptr9const_ptr43_$LT$impl$u20$$BP$const$u20$$u5b$T$u5d$$GT$3len17hb6452156ce489c8dE, 2578
_ZN4core3ptr8metadata8metadata17he5f2538c3532f16bE, 2579
_ZN110_$LT$core..ops..range..RangeFrom$LT$usize$GT$$u20$as$u20$core..slice..index..SliceIndex$LT$$u5b$T$u5d$$GT$$GT$5index17h9062c57740cf3ff6E, 2580
_ZN4core5slice29_$LT$impl$u20$$u5b$T$u5d$$GT$3len17h680c7b4caf7619fbE, 2581
_ZN4core10intrinsics19copy_nonoverlapping17hd5bea79e4cbef83dE, 2582
_ZN4core3mem7replace17h91ed663b4fa84017E, 2583
_ZN4core3ptr4read17hc4bbc47f26f38485E, 2584
_ZN4core3ptr5write17h52285d2912066eb3E, 2585
_ZN4core3ptr7mut_ptr31_$LT$impl$u20$$BP$mut$u20$T$GT$13guaranteed_eq17hec5b3247c1715cffE, 2586
_ZN4core3ptr7mut_ptr31_$LT$impl$u20$$BP$mut$u20$T$GT$7is_null17hb5a1e040ec0452edE, 2587
_ZN4core3ptr8non_null16NonNull$LT$T$GT$13new_unchecked17hf1992cdd985de4feE, 2588
_ZN4core3ptr8non_null16NonNull$LT$T$GT$6as_ptr17hedc8135c56a1390aE, 2589
_ZN4core3ptr9const_ptr33_$LT$impl$u20$$BP$const$u20$T$GT$13guaranteed_eq17h9a902f74ba742777E, 2590
_ZN4core3ptr9const_ptr33_$LT$impl$u20$$BP$const$u20$T$GT$7is_null17h34e2142538cd01a9E, 2591
_ZN4core4iter5range101_$LT$impl$u20$core..iter..traits..iterator..Iterator$u20$for$u20$core..ops..range..Range$LT$A$GT$$GT$4next17h52b18ed412a68895E, 2592
_ZN89_$LT$core..ops..range..Range$LT$T$GT$$u20$as$u20$core..iter..range..RangeIteratorImpl$GT$9spec_next17h6c924dea704c0526E, 2593
_ZN4core3cmp5impls57_$LT$impl$u20$core..cmp..PartialOrd$u20$for$u20$usize$GT$2lt17h88a25564323e1947E, 2594
_ZN4core5clone5impls54_$LT$impl$u20$core..clone..Clone$u20$for$u20$usize$GT$5clone17h0b8f90cdc5e77f05E, 2595
_ZN49_$LT$usize$u20$as$u20$core..iter..range..Step$GT$17forward_unchecked17hd04ed6e0ac6a8064E, 2596
_ZN4core5slice29_$LT$impl$u20$$u5b$T$u5d$$GT$4iter17ha3f2215962521550E, 2597
_ZN4core5slice4iter13Iter$LT$T$GT$3new17h95fbee3eefea0966E, 2598
_ZN4core5slice29_$LT$impl$u20$$u5b$T$u5d$$GT$6as_ptr17h70096b0293dad152E, 2599
_ZN4core5slice5index74_$LT$impl$u20$core..ops..index..Index$LT$I$GT$$u20$for$u20$$u5b$T$u5d$$GT$5index17hdfcec65162b433bbE, 2600
_ZN4core6option15Option$LT$T$GT$14unwrap_or_else17hbe72ab915a6d47a8E, 2601
_ZN9crc32fast6Hasher16new_with_initial28_$u7b$$u7b$closure$u7d$$u7d$17h6bd0c2de5a612dd6E, 2602
_ZN9crc32fast6Hasher21internal_new_baseline17h663a1ac90d1fe9f5E, 2603
_ZN9crc32fast8baseline5State3new17he5a3e24bf0f0b84cE, 2604
_ZN63_$LT$I$u20$as$u20$core..iter..traits..collect..IntoIterator$GT$9into_iter17h79d59b9c75dc4158E, 2605
_ZN63_$LT$I$u20$as$u20$core..iter..traits..collect..IntoIterator$GT$9into_iter17hd387c68dfc7f31f1E, 2606
_ZN91_$LT$core..slice..iter..Iter$LT$T$GT$$u20$as$u20$core..iter..traits..iterator..Iterator$GT$4next17hb5e999992fae8605E, 2607
_ZN9crc32fast6Hasher3new17h4d41b0cd9212b477E, 2608
_ZN9crc32fast6Hasher16new_with_initial17hf9f8b52637ec8bd2E, 2609
_ZN9crc32fast6Hasher24internal_new_specialized17h2271b9f98349ada7E, 2610
_ZN9crc32fast11specialized5State3new17h06203cd099a55dd5E, 2611
_ZN9crc32fast6Hasher6update17hbedea2ed187174efE, 2612
_ZN9crc32fast8baseline5State6update17h8fce1ea7584a4111E, 2613
_ZN9crc32fast11specialized5State6update17h55f86bd1f8b2f080E, 2614
_ZN9crc32fast8baseline14update_fast_1617h657ec490b3557ee7E, 2615
_ZN9crc32fast8baseline11update_slow17hdbaef3dde4468e8aE, 2616
_ZN9crc32fast6Hasher8finalize17hf19f2c5fe7b879ddE, 2617
_ZN9crc32fast8baseline5State8finalize17hb3592b5ae6392e99E, 2618
_ZN9crc32fast11specialized5State8finalize17h3350b322592db378E, 2619
_ZN9crc32fast6Hasher5reset17h05674646c1859d20E, 2620
_ZN9crc32fast8baseline5State5reset17h4f3ac53919fb3a32E, 2621
_ZN9crc32fast11specialized5State5reset17h3e0edac912b3e5ebE, 2622
_ZN9crc32fast6Hasher7combine17h1151fe2b3d8f145eE, 2623
_ZN56_$LT$crc32fast..Hasher$u20$as$u20$core..clone..Clone$GT$5clone17h9f7ba9dc0a2c9710E, 2624
_ZN9crc32fast8baseline5State7combine17h09be894ace79e104E, 2625
_ZN9crc32fast11specialized5State7combine17h85ce3906f2bd509bE, 2626
_ZN9crc32fast7combine7combine17hbdde343c04b053c7E, 2627
_ZN9crc32fast7combine17gf2_matrix_square17h500630f7addc68d2E, 2628
_ZN9crc32fast7combine16gf2_matrix_times17h676855925fbed0c9E, 2629
_ZN4core5clone5impls52_$LT$impl$u20$core..clone..Clone$u20$for$u20$u64$GT$5clone17h6ae1cce7c5608091E, 2630
_ZN55_$LT$crc32fast..State$u20$as$u20$core..clone..Clone$GT$5clone17hf123e93a3efce731E, 2631
_ZN65_$LT$crc32fast..baseline..State$u20$as$u20$core..clone..Clone$GT$5clone17h76571d849f6c51bcE, 2632
_ZN68_$LT$crc32fast..specialized..State$u20$as$u20$core..clone..Clone$GT$5clone17h106acaf79877557fE, 2633
_ZN4core5clone5impls52_$LT$impl$u20$core..clone..Clone$u20$for$u20$u32$GT$5clone17h5b08921c8fb3ec4cE, 2634
_ZN54_$LT$crc32fast..Hasher$u20$as$u20$core..fmt..Debug$GT$3fmt17hfc10fbb5445e55a0E, 2635
_ZN60_$LT$crc32fast..Hasher$u20$as$u20$core..default..Default$GT$7default17h9d27600012c9d488E, 2636
_ZN56_$LT$crc32fast..Hasher$u20$as$u20$core..hash..Hasher$GT$5write17h6966e05136286a35E, 2637
_ZN56_$LT$crc32fast..Hasher$u20$as$u20$core..hash..Hasher$GT$6finish17h2586112bfb8ff25dE, 2638
_ZN4core7convert3num64_$LT$impl$u20$core..convert..From$LT$u32$GT$$u20$for$u20$u64$GT$4from17h15ed9a5e453c9ea2E, 2639
_ZN67_$LT$crossbeam_deque..deque..Flavor$u20$as$u20$core..fmt..Debug$GT$3fmt17hcbb04607bea3f4ddE, 2640
_ZN8num_cpus12get_num_cpus17hf945223529f68ecbE, 2641
_ZN101_$LT$crossbeam_epoch..atomic..Owned$LT$T$GT$$u20$as$u20$crossbeam_epoch..atomic..Pointer$LT$T$GT$$GT$10from_usize17h381ac2c571298085E, 2642
_ZN101_$LT$crossbeam_epoch..atomic..Owned$LT$T$GT$$u20$as$u20$crossbeam_epoch..atomic..Pointer$LT$T$GT$$GT$10into_usize17h8da66e1483a9f627E, 2643
_ZN4core3mem6forget17h67c71b1f3d9fbffbE, 2644
_ZN101_$LT$std..panic..AssertUnwindSafe$LT$F$GT$$u20$as$u20$core..ops..function..FnOnce$LT$$LP$$RP$$GT$$GT$9call_once17h18ade0ae9ddebfa1E, 2645
_ZN3std6thread7Builder15spawn_unchecked28_$u7b$$u7b$closure$u7d$$u7d$28_$u7b$$u7b$closure$u7d$$u7d$17he759814373d703c3E, 2646
_ZN3std10sys_common9backtrace28__rust_begin_short_backtrace17h3935c3786b5f0296E, 2647
_ZN10rayon_core3log6Logger3new28_$u7b$$u7b$closure$u7d$$u7d$17hba000d1af0eb9d87E, 2648
_ZN10rayon_core3log6Logger21profile_logger_thread17hfb3e5989a7d5ae91E, 2649
_ZN3std2fs4File6create17h0e9604969493ebbbE, 2650
_ZN4core6result19Result$LT$T$C$E$GT$14unwrap_or_else17heef1820340731613E, 2651
_ZN3std2io8buffered9bufwriter18BufWriter$LT$W$GT$3new17h595d1a045142bef0E, 2652
_ZN5alloc3vec12Vec$LT$T$GT$13with_capacity17h44ad5e9978f6533aE, 2653
_ZN10rayon_core3log14SimulatorState3new17hda1fcc9d21dd20e3E, 2654
_ZN4core4time8Duration9from_secs17hc102dafffdcb3856E, 2655
_ZN17crossbeam_channel7channel17Receiver$LT$T$GT$12recv_timeout17h045c3de6df8c074bE, 2656
_ZN5alloc3vec16Vec$LT$T$C$A$GT$5drain17h0a47776c4275a791E, 2657
_ZN5alloc3vec16Vec$LT$T$C$A$GT$4push17h7611bc7248018278E, 2658
_ZN5alloc3vec16Vec$LT$T$C$A$GT$3len17hd7afbdc869ee525bE, 2659
_ZN63_$LT$I$u20$as$u20$core..iter..traits..collect..IntoIterator$GT$9into_iter17h0f8d08f135b09f60E, 2660
_ZN96_$LT$alloc..vec..drain..Drain$LT$T$C$A$GT$$u20$as$u20$core..iter..traits..iterator..Iterator$GT$4next17h533d42f55f5399dfE, 2661
_ZN4core3ptr75drop_in_place$LT$alloc..vec..drain..Drain$LT$rayon_core..log..Event$GT$$GT$17h8001d2c197598a91E, 2662
_ZN10rayon_core3log14SimulatorState8simulate17h187d84b05fe9d24aE, 2663
_ZN10rayon_core3log14SimulatorState4dump17hea80ba221422f66cE, 2664
_ZN4core6result19Result$LT$T$C$E$GT$6unwrap17h28a7a9da4d89d64fE, 2665
_ZN83_$LT$std..io..buffered..bufwriter..BufWriter$LT$W$GT$$u20$as$u20$std..io..Write$GT$5flush17h74e3b5c4d68a8400E, 2666
_ZN3std2io8buffered9bufwriter18BufWriter$LT$W$GT$9flush_buf17hc6365a555dcee411E, 2667
_ZN4core6result19Result$LT$T$C$E$GT$8and_then17ha0ab80b2cdd4c604E, 2668
_ZN83_$LT$std..io..buffered..bufwriter..BufWriter$LT$W$GT$$u20$as$u20$std..io..Write$GT$5flush28_$u7b$$u7b$closure$u7d$$u7d$17h27f4a3055b40a58bE, 2669
_ZN3std2io8buffered9bufwriter18BufWriter$LT$W$GT$7get_mut17h291bb54007a4587bE, 2670
_ZN4core6option15Option$LT$T$GT$6as_mut17habc49e0e362bdd59E, 2671
_ZN4core6option15Option$LT$T$GT$6unwrap17h6bc6a1ab2955048dE, 2672
_ZN4core3ptr90drop_in_place$LT$std..io..buffered..bufwriter..BufWriter$LT$W$GT$..flush_buf..BufGuard$GT$17hc5f20fd054dc9740E, 2673
_ZN3std2io5error5Error4kind17h7e0425ff9502f84fE, 2674
_ZN66_$LT$std..io..error..ErrorKind$u20$as$u20$core..cmp..PartialEq$GT$2eq17hebf0c979d9066146E, 2675
_ZN3std2io5error5Error9new_const17h32847727e0d7839aE, 2676
_ZN4core3ptr42drop_in_place$LT$std..io..error..Error$GT$17h4641f2346a70986fE, 2677
_ZN4core3ptr41drop_in_place$LT$std..io..error..Repr$GT$17h0ed552d19f7cc40eE, 2678
_ZN4core3ptr68drop_in_place$LT$alloc..boxed..Box$LT$std..io..error..Custom$GT$$GT$17h20ff3c348495b826E, 2679
_ZN4core3ptr43drop_in_place$LT$std..io..error..Custom$GT$17h932f3b03441f8dffE, 2680
_ZN5alloc5alloc8box_free17hf3c1888794df752aE, 2681
_ZN4core3ptr6unique15Unique$LT$T$GT$6as_ref17hb3bdcb57172592dcE, 2682
_ZN4core5alloc6layout6Layout25from_size_align_unchecked17h1a7ccb5a793bea1cE, 2683
_ZN4core3ptr6unique15Unique$LT$T$GT$4cast17h673c60023e93ee0fE, 2684
_ZN63_$LT$alloc..alloc..Global$u20$as$u20$core..alloc..Allocator$GT$10deallocate17hbdb85829e6d64c78E, 2685
_ZN4core5alloc6layout6Layout4size17hf071d0243fd4bce0E, 2686
_ZN5alloc5alloc7dealloc17h982d02adc51eb3d4E, 2687
_ZN4core5alloc6layout6Layout5align17hd105e856c7286f2aE, 2688
_ZN4core3num7nonzero12NonZeroUsize3get17hca9cfaaddc22caabE, 2689
_ZN4core3ptr6unique15Unique$LT$T$GT$6as_ptr17h4f74983546e839d4E, 2690
_ZN4core3num7nonzero12NonZeroUsize13new_unchecked17h86647a6af0cbafe0E, 2691
_ZN4core3ptr117drop_in_place$LT$alloc..boxed..Box$LT$dyn$u20$std..error..Error$u2b$core..marker..Sync$u2b$core..marker..Send$GT$$GT$17ha608f82d0fbab541E, 2692
_ZN5alloc5alloc8box_free17h89d4ea716def2c52E, 2693
_ZN4core3ptr6unique15Unique$LT$T$GT$6as_ref17hec5d87167568a22aE, 2694
_ZN4core3ptr6unique15Unique$LT$T$GT$4cast17h3531136748b31693E, 2695
_ZN4core3ptr6unique15Unique$LT$T$GT$6as_ptr17h2ce55f44b609d064E, 2696
_ZN72_$LT$alloc..vec..Vec$LT$T$C$A$GT$$u20$as$u20$core..ops..deref..Deref$GT$5deref17h25d0a473c0b4604bE, 2697
_ZN4core5slice29_$LT$impl$u20$$u5b$T$u5d$$GT$4iter17hb3c78eba77784f48E, 2698
_ZN4core4iter6traits8iterator8Iterator6filter17ha2d5d6cff5cc485eE, 2699
_ZN108_$LT$core..iter..adapters..filter..Filter$LT$I$C$P$GT$$u20$as$u20$core..iter..traits..iterator..Iterator$GT$5count17h8865fce41701f330E, 2700
_ZN4core4iter6traits8iterator8Iterator6filter17h43b8b51b1d702c99E, 2701
_ZN108_$LT$core..iter..adapters..filter..Filter$LT$I$C$P$GT$$u20$as$u20$core..iter..traits..iterator..Iterator$GT$5count17hc87740f9cbb07159E, 2702
_ZN4core4iter6traits8iterator8Iterator6filter17h6a77a99504dce37fE, 2703
_ZN108_$LT$core..iter..adapters..filter..Filter$LT$I$C$P$GT$$u20$as$u20$core..iter..traits..iterator..Iterator$GT$5count17hc7a0b7fdfe14533aE, 2704
_ZN72_$LT$alloc..vec..Vec$LT$T$C$A$GT$$u20$as$u20$core..ops..deref..Deref$GT$5deref17he9f3bdf13ed7df80E, 2705
_ZN4core5slice29_$LT$impl$u20$$u5b$T$u5d$$GT$4iter17h424bd2675c789b5bE, 2706
_ZN4core4iter6traits8iterator8Iterator3sum17h55ba21e2de52b259E, 2707
_ZN4core3fmt9Arguments16new_v1_formatted17h2846d23e7720dcfcE, 2708
_ZN3std2io5Write9write_fmt17h411d9f86976452c5E, 2709
_ZN79_$LT$core..result..Result$LT$T$C$E$GT$$u20$as$u20$core..ops..try_trait..Try$GT$6branch17h6dadfc41f070e085E, 2710
_ZN153_$LT$core..result..Result$LT$T$C$F$GT$$u20$as$u20$core..ops..try_trait..FromResidual$LT$core..result..Result$LT$core..convert..Infallible$C$E$GT$$GT$$GT$13from_residual17h23e9a23727cb95afE, 2711
_ZN42_$LT$$RF$T$u20$as$u20$core..fmt..Debug$GT$3fmt17hd19d7d79c9576b16E, 2712
_ZN4core3fmt10ArgumentV13new17hb833e2e21a3d457aE, 2713
_ZN4core3fmt9Arguments6new_v117h2b4b03df796f4c82E, 2714
_ZN60_$LT$alloc..string..String$u20$as$u20$core..fmt..Display$GT$3fmt17hf0ba49f911ace5f5E, 2715
_ZN4core3fmt10ArgumentV13new17h9276724b226dddeeE, 2716
_ZN4core4iter6traits8iterator8Iterator3zip17h8eee5a7aa14594eaE, 2717
_ZN4core3ptr42drop_in_place$LT$alloc..string..String$GT$17ha5bd03142dff8261E, 2718
_ZN4core4iter6traits8iterator8Iterator3zip17hf31a9f1d3330d328E, 2719
_ZN63_$LT$I$u20$as$u20$core..iter..traits..collect..IntoIterator$GT$9into_iter17h5b4ea7062501a5bdE, 2720
_ZN102_$LT$core..iter..adapters..zip..Zip$LT$A$C$B$GT$$u20$as$u20$core..iter..traits..iterator..Iterator$GT$4next17h45236124ec3dea7dE, 2721
_ZN10rayon_core3log5State6letter17h8cfc818455e113a3E, 2722
_ZN4core3fmt10ArgumentV13new17h546409e3c84511d5E, 2723
_ZN4core3fmt10ArgumentV13new17h48614a71c1a18571E, 2724
_ZN44_$LT$$RF$T$u20$as$u20$core..fmt..Display$GT$3fmt17he54d05f2326115ebE, 2725
_ZN4core3fmt10ArgumentV13new17h3c7ceaf9d8a5afd9E, 2726
_ZN111_$LT$core..iter..adapters..zip..Zip$LT$A$C$B$GT$$u20$as$u20$core..iter..adapters..zip..ZipImpl$LT$A$C$B$GT$$GT$4next17h99470037bd05b62eE, 2727
_ZN102_$LT$core..iter..adapters..zip..Zip$LT$A$C$B$GT$$u20$as$u20$core..iter..traits..iterator..Iterator$GT$4next17h4d7ac35fec5d6013E, 2728
_ZN75_$LT$core..option..Option$LT$T$GT$$u20$as$u20$core..ops..try_trait..Try$GT$6branch17h8a206c4da6a1a28eE, 2729
_ZN91_$LT$core..slice..iter..Iter$LT$T$GT$$u20$as$u20$core..iter..traits..iterator..Iterator$GT$4next17h771144285e090667E, 2730
_ZN84_$LT$core..option..Option$LT$T$GT$$u20$as$u20$core..ops..try_trait..FromResidual$GT$13from_residual17h17a9af702f47efceE, 2731
_ZN75_$LT$core..option..Option$LT$T$GT$$u20$as$u20$core..ops..try_trait..Try$GT$6branch17h5c4af6e8b814c1aaE, 2732
_ZN4core3ptr9const_ptr33_$LT$impl$u20$$BP$const$u20$T$GT$7is_null17h46924e244e9b456fE, 2733
_ZN111_$LT$core..iter..adapters..zip..Zip$LT$A$C$B$GT$$u20$as$u20$core..iter..adapters..zip..ZipImpl$LT$A$C$B$GT$$GT$4next17hfed9b755d08c629fE, 2734
_ZN4core4iter5range105_$LT$impl$u20$core..iter..traits..iterator..Iterator$u20$for$u20$core..ops..range..RangeFrom$LT$A$GT$$GT$4next17h104afbfa8790fdbdE, 2735
_ZN75_$LT$core..option..Option$LT$T$GT$$u20$as$u20$core..ops..try_trait..Try$GT$6branch17hbc22f138d2a5941dE, 2736
_ZN91_$LT$core..slice..iter..Iter$LT$T$GT$$u20$as$u20$core..iter..traits..iterator..Iterator$GT$4next17h19eb7dbaa8f0549bE, 2737
_ZN84_$LT$core..option..Option$LT$T$GT$$u20$as$u20$core..ops..try_trait..FromResidual$GT$13from_residual17h51e0f8c8a00fb786E, 2738
_ZN75_$LT$core..option..Option$LT$T$GT$$u20$as$u20$core..ops..try_trait..Try$GT$6branch17hac1d76aa232955d1E, 2739
_ZN4core3ptr8non_null16NonNull$LT$T$GT$6as_ptr17h594b8f3b8ad8e9ebE, 2740
_ZN4core3ptr7mut_ptr31_$LT$impl$u20$$BP$mut$u20$T$GT$7is_null17he5b2a8b662ec5a51E, 2741
_ZN4core3ptr9const_ptr33_$LT$impl$u20$$BP$const$u20$T$GT$7is_null17h7e52c0b700967ec2E, 2742
_ZN4core3ptr8non_null16NonNull$LT$T$GT$13new_unchecked17h0c15039e2e01b3e0E, 2743
_ZN4core5clone5impls52_$LT$impl$u20$core..clone..Clone$u20$for$u20$i32$GT$5clone17h3dbb15b8b0da751aE, 2744
_ZN47_$LT$i32$u20$as$u20$core..iter..range..Step$GT$7forward17hcd7e90482a557f52E, 2745
_ZN47_$LT$i32$u20$as$u20$core..iter..range..Step$GT$15forward_checked17hcef6bf54cd3f1e74E, 2746
_ZN4core6option15Option$LT$T$GT$7is_none17h58fc05bde267157cE, 2747
_ZN4core6option15Option$LT$T$GT$7is_some17h7e51954678600939E, 2748
_ZN4core7convert3num18ptr_try_from_impls69_$LT$impl$u20$core..convert..TryFrom$LT$usize$GT$$u20$for$u20$u32$GT$8try_from17ha65bef4bdcf9e59dE, 2749
_ZN94_$LT$$RF$alloc..vec..Vec$LT$T$C$A$GT$$u20$as$u20$core..iter..traits..collect..IntoIterator$GT$9into_iter17hd93727af13639d16E, 2750
_ZN4core4iter8adapters3zip16Zip$LT$A$C$B$GT$3new17ha71128db7a7165ceE, 2751
_ZN111_$LT$core..iter..adapters..zip..Zip$LT$A$C$B$GT$$u20$as$u20$core..iter..adapters..zip..ZipImpl$LT$A$C$B$GT$$GT$3new17h028295cdf8f0ee2aE, 2752
_ZN4core3ptr46drop_in_place$LT$alloc..vec..Vec$LT$u8$GT$$GT$17he0f46321a31046aeE, 2753
_ZN70_$LT$alloc..vec..Vec$LT$T$C$A$GT$$u20$as$u20$core..ops..drop..Drop$GT$4drop17hf550a06bdd93f271E, 2754
_ZN4core3ptr53drop_in_place$LT$alloc..raw_vec..RawVec$LT$u8$GT$$GT$17hd090b420dc0cdf9bE, 2755
_ZN77_$LT$alloc..raw_vec..RawVec$LT$T$C$A$GT$$u20$as$u20$core..ops..drop..Drop$GT$4drop17hdfef2efa82bbabf8E, 2756
_ZN5alloc7raw_vec19RawVec$LT$T$C$A$GT$14current_memory17h070f02c5d312a4aeE, 2757
_ZN4core3ptr6unique15Unique$LT$T$GT$4cast17h8ca086541c721c7cE, 2758
_ZN5alloc3vec16Vec$LT$T$C$A$GT$10as_mut_ptr17h46d771e8a2121cc5E, 2759
_ZN5alloc7raw_vec19RawVec$LT$T$C$A$GT$3ptr17h97683c2e8aeebf54E, 2760
_ZN94_$LT$$RF$alloc..vec..Vec$LT$T$C$A$GT$$u20$as$u20$core..iter..traits..collect..IntoIterator$GT$9into_iter17h73bd7b372ece65a3E, 2761
_ZN4core4iter8adapters3zip16Zip$LT$A$C$B$GT$3new17h101bc8c9fbb5fa58E, 2762
_ZN111_$LT$core..iter..adapters..zip..Zip$LT$A$C$B$GT$$u20$as$u20$core..iter..adapters..zip..ZipImpl$LT$A$C$B$GT$$GT$3new17hca59ab88158576eeE, 2763
_ZN65_$LT$alloc..string..String$u20$as$u20$core..ops..deref..Deref$GT$5deref17h04341d51c1737213E, 2764
_ZN72_$LT$alloc..vec..Vec$LT$T$C$A$GT$$u20$as$u20$core..ops..deref..Deref$GT$5deref17h447a2a2c89b1de42E, 2765
_ZN4core3str8converts19from_utf8_unchecked17h0a7fbbddfa7745f1E, 2766
_ZN5alloc3vec16Vec$LT$T$C$A$GT$6as_ptr17h83ecd22315d7e1a5E, 2767
_ZN4core5slice3raw14from_raw_parts17ha2bb6c96097486b3E, 2768
_ZN4core3ptr20slice_from_raw_parts17hd7d904c713411b13E, 2769
_ZN4core3ptr9const_ptr33_$LT$impl$u20$$BP$const$u20$T$GT$4cast17hab8a48a817eeed87E, 2770
_ZN4core3ptr8metadata14from_raw_parts17h496a2108c6cc595aE, 2771
_ZN59_$LT$rayon_core..log..Event$u20$as$u20$core..fmt..Debug$GT$3fmt17hdec4876230dba488E, 2772
_ZN4core3ptr28drop_in_place$LT$$RF$u32$GT$17hd82c075048268b6cE, 2773
_ZN42_$LT$$RF$T$u20$as$u20$core..fmt..Debug$GT$3fmt17h0fdb2812ed1aa01cE, 2774
_ZN4core3fmt3num50_$LT$impl$u20$core..fmt..Debug$u20$for$u20$u32$GT$3fmt17he6a5e2a5b8337258E, 2775
_ZN4core3ptr28drop_in_place$LT$$RF$u16$GT$17hd531ca5b55fd9593E, 2776
_ZN42_$LT$$RF$T$u20$as$u20$core..fmt..Debug$GT$3fmt17h5ffaaccb220cf8d7E, 2777
_ZN4core3fmt3num50_$LT$impl$u20$core..fmt..Debug$u20$for$u20$u16$GT$3fmt17hf1befa9e92142213E, 2778
_ZN4core3ptr30drop_in_place$LT$$RF$usize$GT$17h3dd3053800c3bf82E, 2779
_ZN50_$LT$T$u20$as$u20$core..convert..From$LT$T$GT$$GT$4from17h6a884e6be07d4f03E, 2780
_ZN4core6result19Result$LT$T$C$E$GT$6is_err17hba8454dc5ec292a5E, 2781
_ZN4core3ptr81drop_in_place$LT$core..result..Result$LT$$LP$$RP$$C$std..io..error..Error$GT$$GT$17h4042097e42eace14E, 2782
_ZN4core6result19Result$LT$T$C$E$GT$5is_ok17hdbca39c3cd8fff3bE, 2783
_ZN4core3ptr123drop_in_place$LT$std..io..Write..write_fmt..Adaptor$LT$std..io..buffered..bufwriter..BufWriter$LT$std..fs..File$GT$$GT$$GT$17h7aa47df6aeb6b8ddE, 2784
_ZN80_$LT$std..io..Write..write_fmt..Adaptor$LT$T$GT$$u20$as$u20$core..fmt..Write$GT$9write_str17haae17176aaf7bd29E, 2785
_ZN4core3fmt5Write10write_char17h789836b5437c13d8E, 2786
_ZN4core3fmt5Write9write_fmt17he0b09b0b98181867E, 2787
_ZN4core3ptr135drop_in_place$LT$$RF$mut$u20$std..io..Write..write_fmt..Adaptor$LT$std..io..buffered..bufwriter..BufWriter$LT$std..fs..File$GT$$GT$$GT$17h7b1ca5fcdf238d1dE, 2788
_ZN50_$LT$$RF$mut$u20$W$u20$as$u20$core..fmt..Write$GT$9write_str17hb6d92099d2bc5909E, 2789
_ZN50_$LT$$RF$mut$u20$W$u20$as$u20$core..fmt..Write$GT$10write_char17ha4f440601f830e99E, 2790
_ZN50_$LT$$RF$mut$u20$W$u20$as$u20$core..fmt..Write$GT$9write_fmt17ha973df2361487a5aE, 2791
_ZN4core4char7methods22_$LT$impl$u20$char$GT$11encode_utf817hcc1cffc72d7e0f8fE, 2792
_ZN4core4char7methods15encode_utf8_raw17h204f384aec0e2f0cE, 2793
_ZN4core3str8converts23from_utf8_unchecked_mut17h3bb0fa52afa07756E, 2794
_ZN4core4char7methods8len_utf817h79e7414464adb274E, 2795
_ZN4core5slice5index77_$LT$impl$u20$core..ops..index..IndexMut$LT$I$GT$$u20$for$u20$$u5b$T$u5d$$GT$9index_mut17h98b6a76e9e1a0d31E, 2796
_ZN4core5slice5index77_$LT$impl$u20$core..ops..index..IndexMut$LT$I$GT$$u20$for$u20$$u5b$T$u5d$$GT$9index_mut17h6baea46ce98e6f5bE, 2797
_ZN4core3fmt10ArgumentV13new17ha5060ae9cffb0d1fE, 2798
_ZN108_$LT$core..ops..range..RangeTo$LT$usize$GT$$u20$as$u20$core..slice..index..SliceIndex$LT$$u5b$T$u5d$$GT$$GT$9index_mut17h55602b1ecf0ae030E, 2799
_ZN106_$LT$core..ops..range..Range$LT$usize$GT$$u20$as$u20$core..slice..index..SliceIndex$LT$$u5b$T$u5d$$GT$$GT$9index_mut17h4741f34011fffa50E, 2800
_ZN106_$LT$core..ops..range..Range$LT$usize$GT$$u20$as$u20$core..slice..index..SliceIndex$LT$$u5b$T$u5d$$GT$$GT$17get_unchecked_mut17h1c33cf6f6b569d0dE, 2801
_ZN97_$LT$core..ops..range..RangeFull$u20$as$u20$core..slice..index..SliceIndex$LT$$u5b$T$u5d$$GT$$GT$9index_mut17h9d529745a4137299E, 2802
_ZN83_$LT$std..io..buffered..bufwriter..BufWriter$LT$W$GT$$u20$as$u20$std..io..Write$GT$9write_all17h5da0b003c797a43eE, 2803
_ZN3std2io8buffered9bufwriter18BufWriter$LT$W$GT$14spare_capacity17h4af69aff231e99b5E, 2804
_ZN3std2io8buffered9bufwriter18BufWriter$LT$W$GT$14write_all_cold17he9d9960d4ee688beE, 2805
_ZN3std2io8buffered9bufwriter18BufWriter$LT$W$GT$25write_to_buffer_unchecked17h2cc94daa070437efE, 2806
_ZN5alloc3vec16Vec$LT$T$C$A$GT$3len17h37caff4ae238efd2E, 2807
_ZN5alloc3vec16Vec$LT$T$C$A$GT$7set_len17h24c1de1fe807d927E, 2808
_ZN5alloc3vec16Vec$LT$T$C$A$GT$8capacity17h93e331f71a16e808E, 2809
_ZN3std2io5Write9write_all17haadb97fba2c381efE, 2810
_ZN4core5slice29_$LT$impl$u20$$u5b$T$u5d$$GT$8is_empty17h6d5a27e6480f4888E, 2811
_ZN4core5slice5index74_$LT$impl$u20$core..ops..index..Index$LT$I$GT$$u20$for$u20$$u5b$T$u5d$$GT$5index17h261a850431472930E, 2812
_ZN110_$LT$core..ops..range..RangeFrom$LT$usize$GT$$u20$as$u20$core..slice..index..SliceIndex$LT$$u5b$T$u5d$$GT$$GT$5index17h6eb9393de23d1742E, 2813
_ZN110_$LT$core..ops..range..RangeFrom$LT$usize$GT$$u20$as$u20$core..slice..index..SliceIndex$LT$$u5b$T$u5d$$GT$$GT$13get_unchecked17h865c3f9b54c2b512E, 2814
_ZN4core3ptr9const_ptr43_$LT$impl$u20$$BP$const$u20$$u5b$T$u5d$$GT$3len17h048e5e7c6fd75ccfE, 2815
_ZN106_$LT$core..ops..range..Range$LT$usize$GT$$u20$as$u20$core..slice..index..SliceIndex$LT$$u5b$T$u5d$$GT$$GT$13get_unchecked17h86d6872f4da550c1E, 2816
_ZN73_$LT$usize$u20$as$u20$core..iter..traits..accum..Sum$LT$$RF$usize$GT$$GT$3sum17hf4f2641147b4841bE, 2817
_ZN4core4iter6traits8iterator8Iterator4fold17h9f44155362003540E, 2818
_ZN73_$LT$usize$u20$as$u20$core..iter..traits..accum..Sum$LT$$RF$usize$GT$$GT$3sum28_$u7b$$u7b$closure$u7d$$u7d$17h3ac89ce650267249E, 2819
_ZN64_$LT$usize$u20$as$u20$core..ops..arith..Add$LT$$RF$usize$GT$$GT$3add17h421daa3ea6d8aebdE, 2820
_ZN47_$LT$usize$u20$as$u20$core..ops..arith..Add$GT$3add17h505a279e2d27d92bE, 2821
_ZN4core5slice4iter13Iter$LT$T$GT$3new17h885e3ba936a4fcafE, 2822
_ZN4core5slice29_$LT$impl$u20$$u5b$T$u5d$$GT$6as_ptr17h6ceb479241066e9cE, 2823
_ZN4core5slice29_$LT$impl$u20$$u5b$T$u5d$$GT$3len17h07849333f3aeeef4E, 2824
_ZN4core5slice3raw14from_raw_parts17h0d47bfeeff1e21afE, 2825
_ZN4core3ptr20slice_from_raw_parts17h229781f53a5c9cadE, 2826
_ZN4core3ptr9const_ptr33_$LT$impl$u20$$BP$const$u20$T$GT$4cast17h669254968e3c1d01E, 2827
_ZN4core3ptr8metadata14from_raw_parts17h57cbec9646fa86f1E, 2828
_ZN108_$LT$core..iter..adapters..filter..Filter$LT$I$C$P$GT$$u20$as$u20$core..iter..traits..iterator..Iterator$GT$5count8to_usize17h37dab6a0ae1c1fb6E, 2829
_ZN4core4iter6traits8iterator8Iterator3map17hbd69ed77760bdf3fE, 2830
_ZN4core4iter6traits8iterator8Iterator3sum17h1408349e5fcb33d8E, 2831
_ZN56_$LT$usize$u20$as$u20$core..iter..traits..accum..Sum$GT$3sum17h055a67e931d2b389E, 2832
_ZN102_$LT$core..iter..adapters..map..Map$LT$I$C$F$GT$$u20$as$u20$core..iter..traits..iterator..Iterator$GT$4fold17h56d2a863f551032eE, 2833
_ZN4core4iter8adapters3map8map_fold17h146abdb1a08b6c48E, 2834
_ZN4core4iter6traits8iterator8Iterator4fold17hd47e7ad035ff026eE, 2835
_ZN4core4iter8adapters3map8map_fold28_$u7b$$u7b$closure$u7d$$u7d$17hac9863cfaceaecf2E, 2836
_ZN108_$LT$core..iter..adapters..filter..Filter$LT$I$C$P$GT$$u20$as$u20$core..iter..traits..iterator..Iterator$GT$5count8to_usize28_$u7b$$u7b$closure$u7d$$u7d$17hbe4da1bcd42eb2dfE, 2837
_ZN56_$LT$usize$u20$as$u20$core..iter..traits..accum..Sum$GT$3sum28_$u7b$$u7b$closure$u7d$$u7d$17h846228d9585f97e7E, 2838
_ZN10rayon_core3log14SimulatorState4dump28_$u7b$$u7b$closure$u7d$$u7d$17h29296f004a71deaaE, 2839
_ZN63_$LT$rayon_core..log..State$u20$as$u20$core..cmp..PartialEq$GT$2eq17h79cba507f2bb8571E, 2840
_ZN4core4iter8adapters3map16Map$LT$I$C$F$GT$3new17h2a5ee9fe005ea363E, 2841
_ZN4core4iter8adapters6filter19Filter$LT$I$C$P$GT$3new17h7d4b2b6bfc7976e8E, 2842
_ZN108_$LT$core..iter..adapters..filter..Filter$LT$I$C$P$GT$$u20$as$u20$core..iter..traits..iterator..Iterator$GT$5count8to_usize17he49491053ec06051E, 2843
_ZN4core4iter6traits8iterator8Iterator3map17h5b76129fc8a0e604E, 2844
_ZN4core4iter6traits8iterator8Iterator3sum17hf41e015f4cefc2c9E, 2845
_ZN56_$LT$usize$u20$as$u20$core..iter..traits..accum..Sum$GT$3sum17h9cb6b7d54184d159E, 2846
_ZN102_$LT$core..iter..adapters..map..Map$LT$I$C$F$GT$$u20$as$u20$core..iter..traits..iterator..Iterator$GT$4fold17hb9bc0e900a1f8787E, 2847
_ZN4core4iter8adapters3map8map_fold17h3ee8a8ad813bcd27E, 2848
_ZN4core4iter6traits8iterator8Iterator4fold17hd7363c785774c43cE, 2849
_ZN4core4iter8adapters3map8map_fold28_$u7b$$u7b$closure$u7d$$u7d$17h448c5ff2263a129eE, 2850
_ZN108_$LT$core..iter..adapters..filter..Filter$LT$I$C$P$GT$$u20$as$u20$core..iter..traits..iterator..Iterator$GT$5count8to_usize28_$u7b$$u7b$closure$u7d$$u7d$17hdef1165e580a539cE, 2851
_ZN56_$LT$usize$u20$as$u20$core..iter..traits..accum..Sum$GT$3sum28_$u7b$$u7b$closure$u7d$$u7d$17h943fde2c25634fa0E, 2852
_ZN10rayon_core3log14SimulatorState4dump28_$u7b$$u7b$closure$u7d$$u7d$17h8586d3f80baf75d3E, 2853
_ZN4core4iter8adapters3map16Map$LT$I$C$F$GT$3new17h7ef21d99bae43cbaE, 2854
_ZN4core4iter8adapters6filter19Filter$LT$I$C$P$GT$3new17hc2bbe2a5e862c153E, 2855
_ZN108_$LT$core..iter..adapters..filter..Filter$LT$I$C$P$GT$$u20$as$u20$core..iter..traits..iterator..Iterator$GT$5count8to_usize17hd442fd36dd19dbe2E, 2856
_ZN4core4iter6traits8iterator8Iterator3map17h85bfcaa2d6e41021E, 2857
_ZN4core4iter6traits8iterator8Iterator3sum17h9ad59b8bc46001e1E, 2858
_ZN56_$LT$usize$u20$as$u20$core..iter..traits..accum..Sum$GT$3sum17h8554d6c168d1ccd9E, 2859
_ZN102_$LT$core..iter..adapters..map..Map$LT$I$C$F$GT$$u20$as$u20$core..iter..traits..iterator..Iterator$GT$4fold17h31281ef347e6dcb4E, 2860
_ZN4core4iter8adapters3map8map_fold17h2918066d5dc30375E, 2861
_ZN4core4iter6traits8iterator8Iterator4fold17h782c1180b605b68cE, 2862
_ZN4core4iter8adapters3map8map_fold28_$u7b$$u7b$closure$u7d$$u7d$17h452163a098eff399E, 2863
_ZN108_$LT$core..iter..adapters..filter..Filter$LT$I$C$P$GT$$u20$as$u20$core..iter..traits..iterator..Iterator$GT$5count8to_usize28_$u7b$$u7b$closure$u7d$$u7d$17h3827abf68ad7764fE, 2864
_ZN56_$LT$usize$u20$as$u20$core..iter..traits..accum..Sum$GT$3sum28_$u7b$$u7b$closure$u7d$$u7d$17h5c0c7dff9ff86bbbE, 2865
_ZN10rayon_core3log14SimulatorState4dump28_$u7b$$u7b$closure$u7d$$u7d$17h6a157eba579af30cE, 2866
_ZN4core4iter8adapters3map16Map$LT$I$C$F$GT$3new17h5e7045a627a8cf30E, 2867
_ZN4core4iter8adapters6filter19Filter$LT$I$C$P$GT$3new17h6cdb4170688a7dc2E, 2868
_ZN4core5slice4iter13Iter$LT$T$GT$3new17h22129009a3fff54aE, 2869
_ZN4core5slice29_$LT$impl$u20$$u5b$T$u5d$$GT$6as_ptr17h9015bbc44bcba7d4E, 2870
_ZN4core5slice29_$LT$impl$u20$$u5b$T$u5d$$GT$3len17h9dc0bf419ff483a2E, 2871
_ZN5alloc3vec16Vec$LT$T$C$A$GT$6as_ptr17h74ac9930d23bbdcbE, 2872
_ZN4core5slice3raw14from_raw_parts17hf3acf405ac3ae8caE, 2873
_ZN4core3ptr20slice_from_raw_parts17h19c327fc02ab65ebE, 2874
_ZN4core3ptr9const_ptr33_$LT$impl$u20$$BP$const$u20$T$GT$4cast17hf737fe8c3a48d76cE, 2875
_ZN4core3ptr8metadata14from_raw_parts17h7750d45a06e7abbcE, 2876
_ZN5alloc7raw_vec19RawVec$LT$T$C$A$GT$3ptr17h64faf9685c83e3d8E, 2877
_ZN4core3ptr6unique15Unique$LT$T$GT$6as_ptr17had10109354fcd41bE, 2878
_ZN84_$LT$alloc..vec..Vec$LT$T$C$A$GT$$u20$as$u20$core..ops..index..IndexMut$LT$I$GT$$GT$9index_mut17h1d27ff15f2345629E, 2879
_ZN81_$LT$alloc..vec..Vec$LT$T$C$A$GT$$u20$as$u20$core..ops..index..Index$LT$I$GT$$GT$5index17h541687cfa26936fdE, 2880
_ZN84_$LT$alloc..vec..Vec$LT$T$C$A$GT$$u20$as$u20$core..ops..index..IndexMut$LT$I$GT$$GT$9index_mut17hba0d2ed8d3b11f85E, 2881
_ZN4core9panicking13assert_failed17h1cf062e3bfa9a095E, 2882
_ZN4core3ptr47drop_in_place$LT$$RF$rayon_core..log..State$GT$17he0d780a7d1981b8fE, 2883
_ZN42_$LT$$RF$T$u20$as$u20$core..fmt..Debug$GT$3fmt17h259de8b6bc982cd6E, 2884
_ZN59_$LT$rayon_core..log..State$u20$as$u20$core..fmt..Debug$GT$3fmt17h48e343273f655dd1E, 2885
_ZN75_$LT$alloc..vec..Vec$LT$T$C$A$GT$$u20$as$u20$core..ops..deref..DerefMut$GT$9deref_mut17hd0fbd3043ba8d431E, 2886
_ZN4core5slice5index77_$LT$impl$u20$core..ops..index..IndexMut$LT$I$GT$$u20$for$u20$$u5b$T$u5d$$GT$9index_mut17h60e3e4488b69282cE, 2887
_ZN75_$LT$usize$u20$as$u20$core..slice..index..SliceIndex$LT$$u5b$T$u5d$$GT$$GT$9index_mut17h7aa1875aac234870E, 2888
_ZN4core5slice3raw18from_raw_parts_mut17ha63a46eebaf7c521E, 2889
_ZN4core5slice5index74_$LT$impl$u20$core..ops..index..Index$LT$I$GT$$u20$for$u20$$u5b$T$u5d$$GT$5index17h0e5815eef2e0e53dE, 2890
_ZN75_$LT$usize$u20$as$u20$core..slice..index..SliceIndex$LT$$u5b$T$u5d$$GT$$GT$5index17hd2e160b49d04a92fE, 2891
_ZN75_$LT$alloc..vec..Vec$LT$T$C$A$GT$$u20$as$u20$core..ops..deref..DerefMut$GT$9deref_mut17h5fae94055a58079dE, 2892
_ZN4core5slice5index77_$LT$impl$u20$core..ops..index..IndexMut$LT$I$GT$$u20$for$u20$$u5b$T$u5d$$GT$9index_mut17h159b375054099ba5E, 2893
_ZN75_$LT$usize$u20$as$u20$core..slice..index..SliceIndex$LT$$u5b$T$u5d$$GT$$GT$9index_mut17h6578d47936989cc9E, 2894
_ZN5alloc3vec16Vec$LT$T$C$A$GT$10as_mut_ptr17ha91a00f0a05aa3b5E, 2895
_ZN4core5slice3raw18from_raw_parts_mut17h6ce0e3035a14683aE, 2896
_ZN4core3ptr24slice_from_raw_parts_mut17h197b237750bb29a0E, 2897
_ZN4core3ptr8metadata18from_raw_parts_mut17ha3885a3bb5b449a7E, 2898
_ZN79_$LT$alloc..vec..drain..Drain$LT$T$C$A$GT$$u20$as$u20$core..ops..drop..Drop$GT$4drop17he8c254a403f46a0aE, 2899
_ZN4core3mem4drop17h2c9fa4bf9a0dd309E, 2900
_ZN4core3ptr169drop_in_place$LT$$LT$alloc..vec..drain..Drain$LT$T$C$A$GT$$u20$as$u20$core..ops..drop..Drop$GT$..drop..DropGuard$LT$rayon_core..log..Event$C$alloc..alloc..Global$GT$$GT$17hf95f6560031bdd10E, 2901
_ZN4core3mem6forget17had4f58bdec388508E, 2902
_ZN150_$LT$$LT$alloc..vec..drain..Drain$LT$T$C$A$GT$$u20$as$u20$core..ops..drop..Drop$GT$..drop..DropGuard$LT$T$C$A$GT$$u20$as$u20$core..ops..drop..Drop$GT$4drop17hf41922870931b2a3E, 2903
_ZN4core4iter6traits8iterator8Iterator8for_each17h7d1e0dd7bb212d2aE, 2904
_ZN4core3ptr8non_null16NonNull$LT$T$GT$6as_mut17h2594153ca58861a5E, 2905
_ZN5alloc3vec16Vec$LT$T$C$A$GT$6as_ptr17hcf709d4f32300e30E, 2906
_ZN5alloc3vec16Vec$LT$T$C$A$GT$10as_mut_ptr17h8e4d17d52b73ae2cE, 2907
_ZN4core10intrinsics4copy17h6d2a78d8a5bd8733E, 2908
_ZN5alloc3vec16Vec$LT$T$C$A$GT$7set_len17h42122d705fffcb2dE, 2909
_ZN5alloc7raw_vec19RawVec$LT$T$C$A$GT$3ptr17h11954d6ebf5906ecE, 2910
_ZN4core3ptr7mut_ptr31_$LT$impl$u20$$BP$mut$u20$T$GT$7is_null17he1e59b43f42c153dE, 2911
_ZN4core3ptr6unique15Unique$LT$T$GT$6as_ptr17h8d08a963fc4d30dfE, 2912
_ZN4core3ptr8non_null16NonNull$LT$T$GT$6as_ptr17h19ee31b6d9721384E, 2913
_ZN4core4iter6traits8iterator8Iterator8for_each4call17haae46d13f927f9bcE, 2914
_ZN4core4iter6traits8iterator8Iterator4fold17h2bf83855299c6cd0E, 2915
_ZN72_$LT$$RF$mut$u20$I$u20$as$u20$core..iter..traits..iterator..Iterator$GT$4next17h89cf928cf6ae6e6dE, 2916
_ZN4core4iter6traits8iterator8Iterator8for_each4call28_$u7b$$u7b$closure$u7d$$u7d$17h698ffe58fdfae140E, 2917
_ZN4core3ops8function5FnMut8call_mut17h3974249920d1b44bE, 2918
_ZN91_$LT$core..slice..iter..Iter$LT$T$GT$$u20$as$u20$core..iter..traits..iterator..Iterator$GT$4next17he9a0a0c64f9ff86aE, 2919
_ZN4core6option15Option$LT$T$GT$3map17h4eb5b09cea0a2c7bE, 2920
_ZN96_$LT$alloc..vec..drain..Drain$LT$T$C$A$GT$$u20$as$u20$core..iter..traits..iterator..Iterator$GT$4next28_$u7b$$u7b$closure$u7d$$u7d$17hb2ec3c3820443114E, 2921
_ZN4core3ptr4read17h946c26ee65294381E, 2922
_ZN4core10intrinsics19copy_nonoverlapping17h2a85564c28baf602E, 2923
_ZN4core3ptr8non_null16NonNull$LT$T$GT$6as_ptr17hd4607893fe668aa5E, 2924
_ZN4core3ptr9const_ptr33_$LT$impl$u20$$BP$const$u20$T$GT$7is_null17hc21ed34126b625f4E, 2925
_ZN4core3ptr8non_null16NonNull$LT$T$GT$13new_unchecked17h549e6eba46c5ecf3E, 2926
_ZN5alloc3vec16Vec$LT$T$C$A$GT$7reserve17h2ac9aeb90a257e35E, 2927
_ZN4core3ptr5write17h052997af205c39d1E, 2928
_ZN5alloc7raw_vec19RawVec$LT$T$C$A$GT$7reserve17h6ff68e44657086cfE, 2929
_ZN5alloc7raw_vec19RawVec$LT$T$C$A$GT$13needs_to_grow17hca58bcb46261f1f2E, 2930
_ZN5alloc7raw_vec19RawVec$LT$T$C$A$GT$7reserve21do_reserve_and_handle17haa51e19ba5c09ba3E, 2931
_ZN5alloc7raw_vec19RawVec$LT$T$C$A$GT$14grow_amortized17h6b5144e779f78f33E, 2932
_ZN5alloc7raw_vec14handle_reserve17h4f811f25b3bac7a3E, 2933
_ZN4core3num23_$LT$impl$u20$usize$GT$11checked_add17hc230b9fbb815d57eE, 2934
_ZN4core5alloc6layout6Layout5array17hc2f9df73ec92b33aE, 2935
_ZN5alloc7raw_vec19RawVec$LT$T$C$A$GT$14current_memory17haaac87a7e7e64443E, 2936
_ZN5alloc7raw_vec19RawVec$LT$T$C$A$GT$7set_ptr17h7ba02fdb9bf39042E, 2937
_ZN4core3ptr8non_null16NonNull$LT$T$GT$4cast17h2097b6a5d79287c7E, 2938
_ZN4core3ptr6unique15Unique$LT$T$GT$13new_unchecked17h2a0285aba42cb224E, 2939
_ZN5alloc7raw_vec19RawVec$LT$T$C$A$GT$19capacity_from_bytes17h4007ed460de2bc53E, 2940
_ZN4core3ptr6unique15Unique$LT$T$GT$4cast17h60d26acb57958894E, 2941
_ZN4core5alloc6layout6Layout3new17hc7b4ee8f3a4949ceE, 2942
_ZN4core5alloc6layout6Layout6repeat17hc13cde513e3b1fddE, 2943
_ZN4core5alloc6layout6Layout12pad_to_align17h1ac8f6f87f4a9dd3E, 2944
_ZN4core5alloc6layout6Layout18padding_needed_for17h14bc529e203508eeE, 2945
_ZN4core5alloc6layout6Layout15from_size_align17h1ca7c487c610dd01E, 2946
_ZN4core3num23_$LT$impl$u20$usize$GT$11checked_mul17hfc263fcd085b3ca5E, 2947
_ZN4core5alloc6layout10size_align17h01a65993203ba67cE, 2948
_ZN4core5slice5index5range17h8eb4107f1bf03682E, 2949
_ZN4core5slice3raw18from_raw_parts_mut17hf5a236dcd4105316E, 2950
_ZN4core5slice29_$LT$impl$u20$$u5b$T$u5d$$GT$4iter17h66d50c1451be09adE, 2951
_ZN98_$LT$core..ptr..non_null..NonNull$LT$T$GT$$u20$as$u20$core..convert..From$LT$$RF$mut$u20$T$GT$$GT$4from17h115ccb8013a2268aE, 2952
_ZN4core5slice4iter13Iter$LT$T$GT$3new17h1377c1016fec8229E, 2953
_ZN4core5slice29_$LT$impl$u20$$u5b$T$u5d$$GT$6as_ptr17hbc385367c79aae00E, 2954
_ZN4core5slice29_$LT$impl$u20$$u5b$T$u5d$$GT$3len17h073a929c3264ff0eE, 2955
_ZN4core3ptr24slice_from_raw_parts_mut17h46b4745c15b3d28fE, 2956
_ZN4core3ptr8metadata18from_raw_parts_mut17h24559086a94ab203E, 2957
_ZN86_$LT$core..ops..range..RangeFull$u20$as$u20$core..ops..range..RangeBounds$LT$T$GT$$GT$11start_bound17h448a4418429b7a3bE, 2958
_ZN86_$LT$core..ops..range..RangeFull$u20$as$u20$core..ops..range..RangeBounds$LT$T$GT$$GT$9end_bound17h3218fcdb3a98f19fE, 2959
_ZN4core6option15Option$LT$T$GT$14unwrap_or_else17h812103b930777701E, 2960
_ZN4core6option15Option$LT$T$GT$14unwrap_or_else17h62222f4f295b26a3E, 2961
_ZN4core5slice5index5range28_$u7b$$u7b$closure$u7d$$u7d$17h709f5c6065503ff6E, 2962
_ZN4core5slice5index5range28_$u7b$$u7b$closure$u7d$$u7d$17h6f6afaf96223c2c4E, 2963
_ZN17crossbeam_channel7channel17Receiver$LT$T$GT$13recv_deadline17h1eee6c2a27bdd895E, 2964
_ZN89_$LT$crossbeam_channel..counter..Receiver$LT$C$GT$$u20$as$u20$core..ops..deref..Deref$GT$5deref17hccada4f7773fbc42E, 2965
_ZN89_$LT$crossbeam_channel..counter..Receiver$LT$C$GT$$u20$as$u20$core..ops..deref..Deref$GT$5deref17ha8e77fb200e2a6b2E, 2966
_ZN89_$LT$crossbeam_channel..counter..Receiver$LT$C$GT$$u20$as$u20$core..ops..deref..Deref$GT$5deref17h514b997133781467E, 2967
_ZN69_$LT$alloc..sync..Arc$LT$T$GT$$u20$as$u20$core..ops..deref..Deref$GT$5deref17hc9ba520412d3bec7E, 2968
_ZN69_$LT$alloc..sync..Arc$LT$T$GT$$u20$as$u20$core..ops..deref..Deref$GT$5deref17h9691a36f95386e91E, 2969
_ZN17crossbeam_channel7flavors5never16Channel$LT$T$GT$4recv17h6deb9bab9a54825bE, 2970
_ZN17crossbeam_channel7flavors4tick7Channel4recv17h545a0b278e47bde2E, 2971
_ZN4core3mem14transmute_copy17hc48446cdaac71c6fE, 2972
_ZN17crossbeam_channel7flavors2at7Channel4recv17hcfbe7b6e4c23a740E, 2973
_ZN17crossbeam_channel7flavors4zero16Channel$LT$T$GT$4recv17h8ff374e4e206d8f6E, 2974
_ZN17crossbeam_channel7flavors4list16Channel$LT$T$GT$4recv17hebaef531bec6d4c9E, 2975
_ZN17crossbeam_channel7flavors5array16Channel$LT$T$GT$4recv17hf251290f044d4c0bE, 2976
_ZN75_$LT$crossbeam_channel..select..Token$u20$as$u20$core..default..Default$GT$7default17hafa47291e162c8a3E, 2977
_ZN15crossbeam_utils7backoff7Backoff3new17h67254aec8d631297E, 2978
_ZN17crossbeam_channel7flavors5array16Channel$LT$T$GT$10start_recv17h3cc420e9349f963bE, 2979
_ZN15crossbeam_utils7backoff7Backoff12is_completed17hd4865fe374e29c05E, 2980
_ZN17crossbeam_channel7flavors5array16Channel$LT$T$GT$4read17h5a39dc09c20d9e53E, 2981
_ZN4core6result19Result$LT$T$C$E$GT$7map_err17hdfcfa68079d656d4E, 2982
_ZN15crossbeam_utils7backoff7Backoff6snooze17h88cba2ba282d6e72E, 2983
_ZN17crossbeam_channel7context7Context4with17hf6ab41e1147755f8E, 2984
_ZN3std6thread5local17LocalKey$LT$T$GT$8try_with17h69d2fe72e361c130E, 2985
_ZN4core6result19Result$LT$T$C$E$GT$14unwrap_or_else17h59205f157c447e1dE, 2986
_ZN17crossbeam_channel7context7Context4with28_$u7b$$u7b$closure$u7d$$u7d$17hb4f29b075ea35f4bE, 2987
_ZN17crossbeam_channel7context7Context4with28_$u7b$$u7b$closure$u7d$$u7d$17hb89f5731824dd43fE, 2988
_ZN4core6option15Option$LT$T$GT$4take17h30872876b6e89726E, 2989
_ZN4core6option15Option$LT$T$GT$6unwrap17h153fb3bdf514d83eE, 2990
_ZN17crossbeam_channel7flavors5array16Channel$LT$T$GT$4recv28_$u7b$$u7b$closure$u7d$$u7d$17h202be7e7ec8c83adE, 2991
_ZN17crossbeam_channel6select9Operation4hook17h7954cdfcf63e0d63E, 2992
_ZN17crossbeam_channel5waker9SyncWaker8register17hd3d9d497c6e86b5dE, 2993
_ZN17crossbeam_channel7flavors5array16Channel$LT$T$GT$8is_empty17h57e1e1ebf2d7000bE, 2994
_ZN17crossbeam_channel7flavors5array16Channel$LT$T$GT$15is_disconnected17hbd4fc4f90f798556E, 2995
_ZN17crossbeam_channel7context7Context10try_select17h3e740f69f0e6b301E, 2996
_ZN17crossbeam_channel7context7Context10wait_until17hc25a888051db7760E, 2997
_ZN17crossbeam_channel5waker9SyncWaker10unregister17h25441563377bbdd2E, 2998
_ZN4core6option15Option$LT$T$GT$6unwrap17h28934efc57f2c0ecE, 2999
_ZN4core3ptr52drop_in_place$LT$crossbeam_channel..waker..Entry$GT$17hbb4988d3d343f778E, 3000
_ZN17crossbeam_channel5utils17Spinlock$LT$T$GT$4lock17h4883deb343bfc5fdE, 3001
_ZN95_$LT$crossbeam_channel..utils..SpinlockGuard$LT$T$GT$$u20$as$u20$core..ops..deref..DerefMut$GT$9deref_mut17he06a282265a6ccd9E, 3002
_ZN17crossbeam_channel5waker5Waker10unregister17h7d0442d2b0c60a6eE, 3003
_ZN92_$LT$crossbeam_channel..utils..SpinlockGuard$LT$T$GT$$u20$as$u20$core..ops..deref..Deref$GT$5deref17h07ddb32679e8dd22E, 3004
_ZN5alloc3vec16Vec$LT$T$C$A$GT$8is_empty17h2a7d915f7a889d61E, 3005
_ZN4core4sync6atomic10AtomicBool5store17h23956e74c0cf4f95E, 3006
_ZN4core3ptr99drop_in_place$LT$crossbeam_channel..utils..SpinlockGuard$LT$crossbeam_channel..waker..Waker$GT$$GT$17h3cec722d2ead79abE, 3007
_ZN90_$LT$crossbeam_channel..utils..SpinlockGuard$LT$T$GT$$u20$as$u20$core..ops..drop..Drop$GT$4drop17h15d7200f115a1965E, 3008
_ZN5alloc3vec16Vec$LT$T$C$A$GT$3len17h79ddb42c5ac20080E, 3009
_ZN72_$LT$alloc..vec..Vec$LT$T$C$A$GT$$u20$as$u20$core..ops..deref..Deref$GT$5deref17hed37a29d5a1b384dE, 3010
_ZN4core5slice29_$LT$impl$u20$$u5b$T$u5d$$GT$4iter17h893edbd743fa59cfE, 3011
_ZN4core4iter6traits8iterator8Iterator9enumerate17h8efb13f925a3d59cE, 3012
_ZN4core4iter6traits8iterator8Iterator4find17ha0553ee94034426aE, 3013
_ZN5alloc3vec16Vec$LT$T$C$A$GT$6remove17h9ca982325328c2d7E, 3014
_ZN5alloc3vec16Vec$LT$T$C$A$GT$10as_mut_ptr17h753d19e624c04526E, 3015
_ZN4core3ptr4read17hd59c4eecc0247f79E, 3016
_ZN4core10intrinsics4copy17hcd2ce9ea9013c5c9E, 3017
_ZN5alloc3vec16Vec$LT$T$C$A$GT$7set_len17hdaebdc73fe024bb7E, 3018
_ZN4core10intrinsics19copy_nonoverlapping17hdf9e6ed15c104aacE, 3019
_ZN5alloc7raw_vec19RawVec$LT$T$C$A$GT$3ptr17h3a2b070c3cc1a58cE, 3020
_ZN4core3ptr7mut_ptr31_$LT$impl$u20$$BP$mut$u20$T$GT$7is_null17ha1c43e4187ffa50bE, 3021
_ZN4core3ptr6unique15Unique$LT$T$GT$6as_ptr17h0ef9c01c02127935E, 3022
_ZN4core4iter6traits8iterator8Iterator4find5check17h90cef26f84c90b72E, 3023
_ZN110_$LT$core..iter..adapters..enumerate..Enumerate$LT$I$GT$$u20$as$u20$core..iter..traits..iterator..Iterator$GT$8try_fold17h7105508a4ce98fd4E, 3024
_ZN4core3ops12control_flow24ControlFlow$LT$B$C$C$GT$11break_value17h121a14ed2b761a76E, 3025
_ZN110_$LT$core..iter..adapters..enumerate..Enumerate$LT$I$GT$$u20$as$u20$core..iter..traits..iterator..Iterator$GT$8try_fold9enumerate17h9f155886cbce571fE, 3026
_ZN4core4iter6traits8iterator8Iterator8try_fold17h142938a659033a67E, 3027
_ZN91_$LT$core..slice..iter..Iter$LT$T$GT$$u20$as$u20$core..iter..traits..iterator..Iterator$GT$4next17hcd5baffe7787de3eE, 3028
_ZN110_$LT$core..iter..adapters..enumerate..Enumerate$LT$I$GT$$u20$as$u20$core..iter..traits..iterator..Iterator$GT$8try_fold9enumerate28_$u7b$$u7b$closure$u7d$$u7d$17hdf0db4f582edc3d2E, 3029
_ZN95_$LT$core..ops..control_flow..ControlFlow$LT$B$C$C$GT$$u20$as$u20$core..ops..try_trait..Try$GT$11from_output17h19e2e9201fcefcc7E, 3030
_ZN95_$LT$core..ops..control_flow..ControlFlow$LT$B$C$C$GT$$u20$as$u20$core..ops..try_trait..Try$GT$6branch17h4d857b95e0ffda8cE, 3031
_ZN104_$LT$core..ops..control_flow..ControlFlow$LT$B$C$C$GT$$u20$as$u20$core..ops..try_trait..FromResidual$GT$13from_residual17hac7ba17a551f85e0E, 3032
_ZN4core4iter6traits8iterator8Iterator4find5check28_$u7b$$u7b$closure$u7d$$u7d$17h392ae90ad2099b69E, 3033
_ZN17crossbeam_channel5waker5Waker10unregister28_$u7b$$u7b$closure$u7d$$u7d$17h5e73387d5a8dec19E, 3034
_ZN77_$LT$crossbeam_channel..select..Operation$u20$as$u20$core..cmp..PartialEq$GT$2eq17hfdb8532299ae4897E, 3035
_ZN4core3ptr8non_null16NonNull$LT$T$GT$6as_ptr17hb28d84dcca45d417E, 3036
_ZN4core3ptr9const_ptr33_$LT$impl$u20$$BP$const$u20$T$GT$7is_null17h6c89d028eedb04a9E, 3037
_ZN4core3ptr8non_null16NonNull$LT$T$GT$13new_unchecked17h387bab5026e3483eE, 3038
_ZN4core4iter8adapters9enumerate18Enumerate$LT$I$GT$3new17h07673d3692bbf231E, 3039
_ZN4core5slice4iter13Iter$LT$T$GT$3new17h5dacb8864ee0abf3E, 3040
_ZN4core5slice29_$LT$impl$u20$$u5b$T$u5d$$GT$6as_ptr17had40ce8ef9c7c7e7E, 3041
_ZN4core5slice29_$LT$impl$u20$$u5b$T$u5d$$GT$3len17h511f7b2fc7a68360E, 3042
_ZN5alloc3vec16Vec$LT$T$C$A$GT$6as_ptr17h18a32b7dc23ac3bfE, 3043
_ZN4core5slice3raw14from_raw_parts17ha2b2950fa30c72baE, 3044
_ZN4core3ptr20slice_from_raw_parts17h00a91d09546e5915E, 3045
_ZN4core3ptr9const_ptr33_$LT$impl$u20$$BP$const$u20$T$GT$4cast17h5e814225b5e6ed02E, 3046
_ZN4core3ptr8metadata14from_raw_parts17h93b37bb25bde2e50E, 3047
_ZN4core4sync6atomic10AtomicBool4swap17h59b2d2cbbbcf227bE, 3048
_ZN4core4sync6atomic11atomic_swap17ha430b72017811b35E, 3049
_ZN4core4sync6atomic11AtomicUsize4load17h15b8fdc6d6248e5aE, 3050
_ZN88_$LT$crossbeam_channel..select..Selected$u20$as$u20$core..convert..From$LT$usize$GT$$GT$4from17h7de042161c8a2d7aE, 3051
_ZN76_$LT$crossbeam_channel..select..Selected$u20$as$u20$core..cmp..PartialEq$GT$2ne17h4e83082c44026509E, 3052
_ZN77_$LT$crossbeam_channel..select..Operation$u20$as$u20$core..cmp..PartialEq$GT$2ne17h2ffd5f4d779fdee4E, 3053
_ZN88_$LT$crossbeam_channel..select..Selected$u20$as$u20$core..convert..Into$LT$usize$GT$$GT$4into17h756c6a4cee02cc48E, 3054
_ZN4core4sync6atomic11AtomicUsize16compare_exchange17h5c0c9921f53cfb77E, 3055
_ZN95_$LT$crossbeam_utils..cache_padded..CachePadded$LT$T$GT$$u20$as$u20$core..ops..deref..Deref$GT$5deref17hf49ddb9e8a89a2f0E, 3056
_ZN17crossbeam_channel5waker5Waker8register17hcd557fbee72c9d2fE, 3057
_ZN17crossbeam_channel5waker5Waker20register_with_packet17h2e203eb37edaa715E, 3058
_ZN74_$LT$crossbeam_channel..context..Context$u20$as$u20$core..clone..Clone$GT$5clone17h615fb4e8a3086cb9E, 3059
_ZN5alloc3vec16Vec$LT$T$C$A$GT$4push17hda722f406d3430a3E, 3060
_ZN5alloc3vec16Vec$LT$T$C$A$GT$7reserve17h879ea1cd7b151c0cE, 3061
_ZN4core3ptr5write17hd629b0bdb3771ad0E, 3062
_ZN5alloc7raw_vec19RawVec$LT$T$C$A$GT$7reserve17h6ccf9843d8e4bb36E, 3063
_ZN5alloc7raw_vec19RawVec$LT$T$C$A$GT$13needs_to_grow17h4deda8ed2644078dE, 3064
_ZN5alloc7raw_vec19RawVec$LT$T$C$A$GT$7reserve21do_reserve_and_handle17hacb1dff901f736a2E, 3065
_ZN5alloc7raw_vec19RawVec$LT$T$C$A$GT$14grow_amortized17h3a667200ad229e3fE, 3066
_ZN4core5alloc6layout6Layout5array17h666eb9319c76ab3fE, 3067
_ZN5alloc7raw_vec19RawVec$LT$T$C$A$GT$14current_memory17h730c0e43827ed174E, 3068
_ZN5alloc7raw_vec19RawVec$LT$T$C$A$GT$7set_ptr17h74207bfdbb8cd013E, 3069
_ZN4core3ptr8non_null16NonNull$LT$T$GT$4cast17hdac31e3fcf4c78ccE, 3070
_ZN4core3ptr6unique15Unique$LT$T$GT$13new_unchecked17hfdd87891a879b7a5E, 3071
_ZN5alloc7raw_vec19RawVec$LT$T$C$A$GT$19capacity_from_bytes17h6158c38d618200d0E, 3072
_ZN4core3ptr6unique15Unique$LT$T$GT$4cast17h49ea705bb1f9ee53E, 3073
_ZN4core5alloc6layout6Layout3new17hf48bfd11499520fcE, 3074
_ZN4core5alloc6layout10size_align17h2156dd9622c8289aE, 3075
_ZN64_$LT$alloc..sync..Arc$LT$T$GT$$u20$as$u20$core..clone..Clone$GT$5clone17h62826a96c89860e6E, 3076
_ZN4core4sync6atomic11AtomicUsize9fetch_add17hd1722608756d907eE, 3077
_ZN4core3mem4take17ha22268c919514e66E, 3078
_ZN72_$LT$core..option..Option$LT$T$GT$$u20$as$u20$core..default..Default$GT$7default17h29aaeef4495ed98eE, 3079
_ZN4core3mem7replace17h02f6dddb2877f0acE, 3080
_ZN4core3ptr4read17h35000519aa01c877E, 3081
_ZN4core3ptr5write17h2d5028f9d8a87542E, 3082
_ZN4core10intrinsics19copy_nonoverlapping17h9d139c6976e366bcE, 3083
_ZN17crossbeam_channel7context7Context4with28_$u7b$$u7b$closure$u7d$$u7d$17h84b49a7fcd932380E, 3084
_ZN17crossbeam_channel7context7Context5reset17h53ea8ac411c6b97dE, 3085
_ZN4core4sync6atomic11AtomicUsize5store17h168e6f5c28dca029E, 3086
_ZN17crossbeam_channel7context7Context4with7CONTEXT7__getit17h0009b586769c80aaE, 3087
_ZN17crossbeam_channel7context7Context4with7CONTEXT6__init17hf0306b671d193b45E, 3088
_ZN4core4sync6atomic14spin_loop_hint17h8ae1517e8811c6a2E, 3089
_ZN4core4hint9spin_loop17h49a823e5bc4ca0afE, 3090
_ZN17crossbeam_channel7flavors5array16Channel$LT$T$GT$4recv28_$u7b$$u7b$closure$u7d$$u7d$17hf407c6da04e0daf0E, 3091
_ZN4core3ptr9const_ptr33_$LT$impl$u20$$BP$const$u20$T$GT$7is_null17h885a42c3f5689317E, 3092
_ZN4core3ptr4read17haac23d66b7dc4b98E, 3093
_ZN17crossbeam_channel5waker9SyncWaker6notify17ha8d4e2d19260e4bfE, 3094
_ZN4core4sync6atomic10AtomicBool4load17hc3d1b092b7556d6aE, 3095
_ZN17crossbeam_channel5waker5Waker10try_select17h3acc7ffc4821fd85E, 3096
_ZN4core3ptr80drop_in_place$LT$core..option..Option$LT$crossbeam_channel..waker..Entry$GT$$GT$17hb6089cf2ff9215d5E, 3097
_ZN17crossbeam_channel5waker5Waker6notify17h7894bfce308635cbE, 3098
_ZN5alloc3vec16Vec$LT$T$C$A$GT$5drain17h5497724e641f80e5E, 3099
_ZN63_$LT$I$u20$as$u20$core..iter..traits..collect..IntoIterator$GT$9into_iter17h4293973718dcedfaE, 3100
_ZN96_$LT$alloc..vec..drain..Drain$LT$T$C$A$GT$$u20$as$u20$core..iter..traits..iterator..Iterator$GT$4next17hbb83fa7cc81e9461E, 3101
_ZN4core3ptr84drop_in_place$LT$alloc..vec..drain..Drain$LT$crossbeam_channel..waker..Entry$GT$$GT$17ha5415dc1285181edE, 3102
_ZN4core6result19Result$LT$T$C$E$GT$5is_ok17h816dce0779127e20E, 3103
_ZN17crossbeam_channel7context7Context6unpark17h81dbba9cb095dea7E, 3104
_ZN3std6thread6Thread6unpark17h9d9d87e8a271fddfE, 3105
_ZN69_$LT$alloc..sync..Arc$LT$T$GT$$u20$as$u20$core..ops..deref..Deref$GT$5deref17hb21bcc71baf03ed6E, 3106
_ZN79_$LT$alloc..vec..drain..Drain$LT$T$C$A$GT$$u20$as$u20$core..ops..drop..Drop$GT$4drop17h1eb17e46fc73ff4eE, 3107
_ZN4core3mem4drop17hada7e29e83a0bc13E, 3108
_ZN4core3ptr178drop_in_place$LT$$LT$alloc..vec..drain..Drain$LT$T$C$A$GT$$u20$as$u20$core..ops..drop..Drop$GT$..drop..DropGuard$LT$crossbeam_channel..waker..Entry$C$alloc..alloc..Global$GT$$GT$17h25ac657fe5ef6588E, 3109
_ZN4core3mem6forget17h62ead2d1c459caa3E, 3110
_ZN150_$LT$$LT$alloc..vec..drain..Drain$LT$T$C$A$GT$$u20$as$u20$core..ops..drop..Drop$GT$..drop..DropGuard$LT$T$C$A$GT$$u20$as$u20$core..ops..drop..Drop$GT$4drop17h356ec420b99d6a28E, 3111
_ZN4core4iter6traits8iterator8Iterator8for_each17h8058e5ba40cfb0ceE, 3112
_ZN4core3ptr8non_null16NonNull$LT$T$GT$6as_mut17h8ccaa494bc6ab7c2E, 3113
_ZN4core3ptr8non_null16NonNull$LT$T$GT$6as_ptr17h28e89b9f8c810cb5E, 3114
_ZN4core4iter6traits8iterator8Iterator8for_each4call17hab7d62a8ac95b6a7E, 3115
_ZN4core4iter6traits8iterator8Iterator4fold17h5e50466325332e17E, 3116
_ZN72_$LT$$RF$mut$u20$I$u20$as$u20$core..iter..traits..iterator..Iterator$GT$4next17hd57c7bb1e1fa041eE, 3117
_ZN4core4iter6traits8iterator8Iterator8for_each4call28_$u7b$$u7b$closure$u7d$$u7d$17h356686c1b959eb21E, 3118
_ZN4core3ops8function5FnMut8call_mut17h1939aad346f449afE, 3119
_ZN4core6option15Option$LT$T$GT$3map17h79809302e79ac2ddE, 3120
_ZN96_$LT$alloc..vec..drain..Drain$LT$T$C$A$GT$$u20$as$u20$core..iter..traits..iterator..Iterator$GT$4next28_$u7b$$u7b$closure$u7d$$u7d$17hcbfad9ba2183817fE, 3121
_ZN4core5slice3raw18from_raw_parts_mut17h67b89e9cb057edd6E, 3122
_ZN98_$LT$core..ptr..non_null..NonNull$LT$T$GT$$u20$as$u20$core..convert..From$LT$$RF$mut$u20$T$GT$$GT$4from17h1e4789aa2b8df7baE, 3123
_ZN4core3ptr24slice_from_raw_parts_mut17h35d8ea095115664eE, 3124
_ZN4core3ptr8metadata18from_raw_parts_mut17he79b870a7195a892E, 3125
_ZN17crossbeam_channel5waker17current_thread_id17h2220fa700b2aaafbE, 3126
_ZN81_$LT$alloc..vec..Vec$LT$T$C$A$GT$$u20$as$u20$core..ops..index..Index$LT$I$GT$$GT$5index17h73ff9b8dc0a9765bE, 3127
_ZN17crossbeam_channel7context7Context9thread_id17h05696cdc3ace693bE, 3128
_ZN62_$LT$std..thread..ThreadId$u20$as$u20$core..cmp..PartialEq$GT$2ne17hbfd781d33bf34138E, 3129
_ZN17crossbeam_channel7context7Context12store_packet17h712b0bb59dff3d41E, 3130
_ZN71_$LT$core..num..nonzero..NonZeroU64$u20$as$u20$core..cmp..PartialEq$GT$2ne17h26dd690e4215d2eaE, 3131
_ZN4core5slice5index74_$LT$impl$u20$core..ops..index..Index$LT$I$GT$$u20$for$u20$$u5b$T$u5d$$GT$5index17h5529ab41057a1563E, 3132
_ZN75_$LT$usize$u20$as$u20$core..slice..index..SliceIndex$LT$$u5b$T$u5d$$GT$$GT$5index17h6a017a973c04e5a8E, 3133
_ZN3std6thread5local17LocalKey$LT$T$GT$8try_with17h6a28c63e70abea6aE, 3134
_ZN4core6result19Result$LT$T$C$E$GT$14unwrap_or_else17he5d8ad9a9d474ca1E, 3135
_ZN17crossbeam_channel5waker17current_thread_id28_$u7b$$u7b$closure$u7d$$u7d$17h5b7cc1f9b4088c72E, 3136
_ZN4core6option15Option$LT$T$GT$5ok_or17h561597e4a65a84a0E, 3137
_ZN79_$LT$core..result..Result$LT$T$C$E$GT$$u20$as$u20$core..ops..try_trait..Try$GT$6branch17h37fe4fa13dadb387E, 3138
_ZN17crossbeam_channel5waker17current_thread_id28_$u7b$$u7b$closure$u7d$$u7d$17hfce95cb6750bbe36E, 3139
_ZN153_$LT$core..result..Result$LT$T$C$F$GT$$u20$as$u20$core..ops..try_trait..FromResidual$LT$core..result..Result$LT$core..convert..Infallible$C$E$GT$$GT$$GT$13from_residual17h17fb93a557815228E, 3140
_ZN17crossbeam_channel5waker17current_thread_id9THREAD_ID7__getit17h4c70fb1bb56d6d8eE, 3141
_ZN17crossbeam_channel5waker17current_thread_id9THREAD_ID6__init17he7c3339ef03d30b2E, 3142
_ZN4core10intrinsics19copy_nonoverlapping17hba8ff42e6380a5f6E, 3143
_ZN4core4sync6atomic11AtomicUsize21compare_exchange_weak17h213776b03790ba55E, 3144
_ZN15crossbeam_utils7backoff7Backoff4spin17hb8c31212b24dc9f3E, 3145
_ZN4core4sync6atomic5fence17h237fb499fe20e466E, 3146
_ZN4core3cmp3Ord3min17h386969b0dc57135cE, 3147
_ZN4core3cmp6min_by17hdf431a73ecd1fb8dE, 3148
_ZN4core3ops8function6FnOnce9call_once17hd0cad13d2dca3f69E, 3149
_ZN4core3cmp5impls48_$LT$impl$u20$core..cmp..Ord$u20$for$u20$u32$GT$3cmp17hfa5e2b9b11c377c9E, 3150
_ZN88_$LT$crossbeam_channel..flavors..array..ArrayToken$u20$as$u20$core..default..Default$GT$7default17hf37ee2989f3cecd9E, 3151
_ZN86_$LT$crossbeam_channel..flavors..list..ListToken$u20$as$u20$core..default..Default$GT$7default17h1281e941b4ae9b90E, 3152
_ZN51_$LT$$LP$$RP$$u20$as$u20$core..default..Default$GT$7default17hcbdc102a2909050cE, 3153
_ZN48_$LT$usize$u20$as$u20$core..default..Default$GT$7default17h42df70163072f41cE, 3154
_ZN17crossbeam_channel7flavors4list16Channel$LT$T$GT$10start_recv17h6a74d8260ca7c729E, 3155
_ZN17crossbeam_channel7flavors4list16Channel$LT$T$GT$4read17hc9e3858f62562ad6E, 3156
_ZN4core6result19Result$LT$T$C$E$GT$7map_err17h45eb4d15ae6486d1E, 3157
_ZN17crossbeam_channel7context7Context4with17hc59ca4861c9630f7E, 3158
_ZN3std6thread5local17LocalKey$LT$T$GT$8try_with17h58adc836e2f8166aE, 3159
_ZN4core6result19Result$LT$T$C$E$GT$14unwrap_or_else17hd7b04b5442fac86bE, 3160
_ZN17crossbeam_channel7context7Context4with28_$u7b$$u7b$closure$u7d$$u7d$17he2c998bbcbb476a2E, 3161
_ZN17crossbeam_channel7context7Context4with28_$u7b$$u7b$closure$u7d$$u7d$17hdcdbb68375888213E, 3162
_ZN4core6option15Option$LT$T$GT$4take17hf62429968a6ecd6bE, 3163
_ZN4core6option15Option$LT$T$GT$6unwrap17hbce435245cf4ebecE, 3164
_ZN17crossbeam_channel7flavors4list16Channel$LT$T$GT$4recv28_$u7b$$u7b$closure$u7d$$u7d$17ha5d24949b7a2d38fE, 3165
_ZN17crossbeam_channel7flavors4list16Channel$LT$T$GT$8is_empty17h90d1712a8e9032caE, 3166
_ZN17crossbeam_channel7flavors4list16Channel$LT$T$GT$15is_disconnected17h03d10b6e78fdf998E, 3167
_ZN95_$LT$crossbeam_utils..cache_padded..CachePadded$LT$T$GT$$u20$as$u20$core..ops..deref..Deref$GT$5deref17hef3f01867ad638efE, 3168
_ZN4core3mem4take17h3cb2c83107ee12deE, 3169
_ZN72_$LT$core..option..Option$LT$T$GT$$u20$as$u20$core..default..Default$GT$7default17h77dbc52949b64c92E, 3170
_ZN4core3mem7replace17h30bbe00ca3d5f80fE, 3171
_ZN4core3ptr4read17hf6be99eb4754bb8bE, 3172
_ZN4core3ptr5write17h96a7ed5f1d3c72e4E, 3173
_ZN4core10intrinsics19copy_nonoverlapping17h2834b6aef833fc68E, 3174
_ZN17crossbeam_channel7context7Context4with28_$u7b$$u7b$closure$u7d$$u7d$17hd7a7bd6bb7f519b0E, 3175
_ZN17crossbeam_channel7flavors4list16Channel$LT$T$GT$4recv28_$u7b$$u7b$closure$u7d$$u7d$17h0b7e124548d4e61eE, 3176
_ZN4core5slice29_$LT$impl$u20$$u5b$T$u5d$$GT$13get_unchecked17h0dd3df1e7e1af95eE, 3177
_ZN17crossbeam_channel7flavors4list13Slot$LT$T$GT$10wait_write17h2fbca0aa7624ea97E, 3178
_ZN4core4sync6atomic11AtomicUsize8fetch_or17h3125097468db5229E, 3179
_ZN17crossbeam_channel7flavors4list14Block$LT$T$GT$7destroy17h104167d697006149E, 3180
_ZN5alloc5boxed12Box$LT$T$GT$8from_raw17h932de3020f106da9E, 3181
_ZN4core3mem4drop17h80c92c4c89b3bb5bE, 3182
_ZN4core3ptr115drop_in_place$LT$alloc..boxed..Box$LT$crossbeam_channel..flavors..list..Block$LT$rayon_core..log..Event$GT$$GT$$GT$17h759cbf0947e2006aE, 3183
_ZN5alloc5alloc8box_free17h8a179e8ff8dd3d2aE, 3184
_ZN4core3ptr6unique15Unique$LT$T$GT$6as_ref17h1d21ddcad19c09bdE, 3185
_ZN4core3ptr6unique15Unique$LT$T$GT$4cast17h1648fe14cc1d4ddcE, 3186
_ZN4core3ptr6unique15Unique$LT$T$GT$6as_ptr17h4c837034e0a395f8E, 3187
_ZN5alloc5boxed16Box$LT$T$C$A$GT$11from_raw_in17hec35c76b822441e9E, 3188
_ZN4core3ptr6unique15Unique$LT$T$GT$13new_unchecked17h57dd96c04b7323c4E, 3189
_ZN75_$LT$usize$u20$as$u20$core..slice..index..SliceIndex$LT$$u5b$T$u5d$$GT$$GT$13get_unchecked17h61e766bc82e6b218E, 3190
_ZN4core3ptr9const_ptr43_$LT$impl$u20$$BP$const$u20$$u5b$T$u5d$$GT$6as_ptr17h3fb864702a0c553cE, 3191
_ZN4core4sync6atomic18AtomicPtr$LT$T$GT$4load17hd3642b29593dd032E, 3192
_ZN4core3ptr7mut_ptr31_$LT$impl$u20$$BP$mut$u20$T$GT$7is_null17h46238498c1a47565E, 3193
_ZN17crossbeam_channel7flavors4list14Block$LT$T$GT$9wait_next17h151a7ac1edca93a7E, 3194
_ZN4core4sync6atomic18AtomicPtr$LT$T$GT$5store17h8b135ba52fdd5745E, 3195
_ZN4core4sync6atomic12atomic_store17ha4b95ffc59d04642E, 3196
_ZN4core4sync6atomic11atomic_load17hab3ce3a8cd9b1522E, 3197
_ZN17crossbeam_channel5utils17Spinlock$LT$T$GT$4lock17hea903ddf1126d063E, 3198
_ZN95_$LT$crossbeam_channel..utils..SpinlockGuard$LT$T$GT$$u20$as$u20$core..ops..deref..DerefMut$GT$9deref_mut17hc27d4d63848ff90dE, 3199
_ZN4core3mem4drop17haf196d337f72a3caE, 3200
_ZN92_$LT$crossbeam_channel..utils..SpinlockGuard$LT$T$GT$$u20$as$u20$core..ops..deref..Deref$GT$5deref17h25226ad097c930efE, 3201
_ZN17crossbeam_channel7context7Context4with17h1c853a59d95ae523E, 3202
_ZN17crossbeam_channel7flavors4zero16Channel$LT$T$GT$4read17he44109d23cb98f8cE, 3203
_ZN4core6result19Result$LT$T$C$E$GT$7map_err17haca2eaeafc506ddfE, 3204
_ZN4core3ptr107drop_in_place$LT$crossbeam_channel..utils..SpinlockGuard$LT$crossbeam_channel..flavors..zero..Inner$GT$$GT$17haeb5edfbe1ff3017E, 3205
_ZN90_$LT$crossbeam_channel..utils..SpinlockGuard$LT$T$GT$$u20$as$u20$core..ops..drop..Drop$GT$4drop17h7277c043c6a2bbc4E, 3206
_ZN17crossbeam_channel7flavors4zero16Channel$LT$T$GT$4recv28_$u7b$$u7b$closure$u7d$$u7d$17hdd1b76bbb9f2a799E, 3207
_ZN17crossbeam_channel7flavors4zero15Packet$LT$T$GT$10wait_ready17h55d5408aace5d8efE, 3208
_ZN4core3ptr7replace17h6bfee598ae9473aaE, 3209
_ZN4core6option15Option$LT$T$GT$6unwrap17hafa38f037881adebE, 3210
_ZN5alloc5boxed12Box$LT$T$GT$8from_raw17hb4d5b72bdaf06a6eE, 3211
_ZN4core3mem4drop17h02b0eeced019adddE, 3212
_ZN4core3ptr116drop_in_place$LT$alloc..boxed..Box$LT$crossbeam_channel..flavors..zero..Packet$LT$rayon_core..log..Event$GT$$GT$$GT$17h923a3421a0190caeE, 3213
_ZN5alloc5alloc8box_free17hb03059cd433c1791E, 3214
_ZN4core3ptr6unique15Unique$LT$T$GT$6as_ref17hba85ccd75f6ec893E, 3215
_ZN4core3ptr6unique15Unique$LT$T$GT$4cast17h6ebc480333b39b0aE, 3216
_ZN4core3ptr6unique15Unique$LT$T$GT$6as_ptr17h26d1adf742c60694E, 3217
_ZN5alloc5boxed16Box$LT$T$C$A$GT$11from_raw_in17h95950c01d9523389E, 3218
_ZN4core3ptr6unique15Unique$LT$T$GT$13new_unchecked17h666ae66a96919811E, 3219
_ZN4core3mem4swap17habb8b8ec906e3035E, 3220
_ZN4core3ptr23swap_nonoverlapping_one17hc5450b160d7a41cfE, 3221
_ZN4core3ptr4read17h183545f92cc2db53E, 3222
_ZN4core3ptr19swap_nonoverlapping17h5cf79eb1ac65a07cE, 3223
_ZN4core10intrinsics19copy_nonoverlapping17hfe3d4fc1d63c158cE, 3224
_ZN4core3ptr5write17h1b4ac57a62f3598dE, 3225
_ZN4core3ptr25swap_nonoverlapping_bytes17heda1816f519e485bE, 3226
_ZN3std6thread5local17LocalKey$LT$T$GT$8try_with17hf3ee7e533cffa57fE, 3227
_ZN4core6result19Result$LT$T$C$E$GT$14unwrap_or_else17h7d1644fd6eb0a3dfE, 3228
_ZN4core3ptr301drop_in_place$LT$crossbeam_channel..context..Context..with$LT$crossbeam_channel..flavors..zero..Channel$LT$rayon_core..log..Event$GT$..recv..$u7b$$u7b$closure$u7d$$u7d$$C$core..result..Result$LT$rayon_core..log..Event$C$crossbeam_channel..err..RecvTimeoutError$GT$$GT$..$u7b$$u7b$closure$u7d$$u7d$$GT$17h7b0ad59710c0b06bE, 3229
_ZN4core3ptr155drop_in_place$LT$core..option..Option$LT$crossbeam_channel..flavors..zero..Channel$LT$rayon_core..log..Event$GT$..recv..$u7b$$u7b$closure$u7d$$u7d$$GT$$GT$17h18d2bc11edddb362E, 3230
_ZN4core3ptr127drop_in_place$LT$crossbeam_channel..flavors..zero..Channel$LT$rayon_core..log..Event$GT$..recv..$u7b$$u7b$closure$u7d$$u7d$$GT$17h0819d02cef73ac3bE, 3231
_ZN17crossbeam_channel7context7Context4with28_$u7b$$u7b$closure$u7d$$u7d$17h6c55d8a18ddd4213E, 3232
_ZN17crossbeam_channel7context7Context4with28_$u7b$$u7b$closure$u7d$$u7d$17h06bd07fd0e11b09fE, 3233
_ZN4core6option15Option$LT$T$GT$4take17h77f8d81d71542b4aE, 3234
_ZN4core6option15Option$LT$T$GT$6unwrap17hd549aae93af65817E, 3235
_ZN17crossbeam_channel7flavors4zero16Channel$LT$T$GT$4recv28_$u7b$$u7b$closure$u7d$$u7d$17hb0800ab5ac363420E, 3236
_ZN17crossbeam_channel7flavors4zero15Packet$LT$T$GT$14empty_on_stack17h91d2b9013d62e4c8E, 3237
_ZN4core4sync6atomic10AtomicBool3new17he9854a319cedb834E, 3238
_ZN4core3mem4take17hbbb37b4eaa9f389aE, 3239
_ZN72_$LT$core..option..Option$LT$T$GT$$u20$as$u20$core..default..Default$GT$7default17hd86b9048e1d77e16E, 3240
_ZN4core3mem7replace17h2467096701655748E, 3241
_ZN4core3ptr4read17hd72226c61f1a4a22E, 3242
_ZN4core3ptr5write17h65733e6a6579e614E, 3243
_ZN4core10intrinsics19copy_nonoverlapping17hc6cfd1b0225ed3b5E, 3244
_ZN17crossbeam_channel7context7Context4with28_$u7b$$u7b$closure$u7d$$u7d$17hd0e9220787486511E_original, 3245
_ZN153_$LT$core..result..Result$LT$T$C$F$GT$$u20$as$u20$core..ops..try_trait..FromResidual$LT$core..result..Result$LT$core..convert..Infallible$C$E$GT$$GT$$GT$13from_residual17hd87c5df9c2768b40E, 3246
_ZN4core3ptr4read17hd0db48bfc396a165E, 3247
_ZN4core3ptr14read_unaligned17h6cc4716f7433251eE, 3248
_ZN4core10intrinsics19copy_nonoverlapping17h8df103864b1de631E, 3249
_ZN15crossbeam_utils6atomic11atomic_cell19AtomicCell$LT$T$GT$4load17h2dcbc0b623b72209E, 3250
_ZN4core3cmp3Ord3max17h0e27dd2d6fb7d69eE, 3251
_ZN15crossbeam_utils6atomic11atomic_cell19AtomicCell$LT$T$GT$16compare_exchange17he47fcbbb13dae36cE, 3252
_ZN4core6result19Result$LT$T$C$E$GT$5is_ok17hc331d8868ec7d1c2E, 3253
_ZN15crossbeam_utils6atomic11atomic_cell28atomic_compare_exchange_weak17h6a40cde256d7a10aE, 3254
_ZN15crossbeam_utils6atomic11atomic_cell13can_transmute17hdc8a9966beb14d0dE, 3255
_ZN15crossbeam_utils6atomic11atomic_cell13can_transmute17h711b9c939571808fE, 3256
_ZN4core3mem14transmute_copy17hce91df0024bae75aE, 3257
_ZN15crossbeam_utils6atomic11atomic_cell10AtomicUnit21compare_exchange_weak17h767c42e8af56817dE, 3258
_ZN4core3mem14transmute_copy17hf45be901242c5792E, 3259
_ZN59_$LT$std..time..Instant$u20$as$u20$core..cmp..PartialEq$GT$2eq17h616928a16e26e8d6E, 3260
_ZN15crossbeam_utils6atomic11atomic_cell13can_transmute17h5db98ec9a6958117E, 3261
_ZN4core3mem14transmute_copy17h49595d050df31312E, 3262
_ZN4core3mem14transmute_copy17h1426fcdfbf65dd1bE, 3263
_ZN15crossbeam_utils6atomic11atomic_cell13can_transmute17h2fc68c52c9f764c8E, 3264
_ZN4core3mem14transmute_copy17hcd80cc2df6b5220eE, 3265
_ZN4core4sync6atomic8AtomicU821compare_exchange_weak17h492c90b5849f36f7E, 3266
_ZN4core3mem14transmute_copy17ha8bbb6878b69aa55E, 3267
_ZN15crossbeam_utils6atomic11atomic_cell13can_transmute17h35eb40d21b596fe6E, 3268
_ZN4core3mem14transmute_copy17h3a8de15976926975E, 3269
_ZN4core4sync6atomic9AtomicU1621compare_exchange_weak17h1b140160f78dca52E, 3270
_ZN4core3mem14transmute_copy17hc4a9e46eea8a9509E, 3271
_ZN15crossbeam_utils6atomic11atomic_cell13can_transmute17h7c5b6bf5427f21abE, 3272
_ZN4core3mem14transmute_copy17hcbc220347a9535ceE, 3273
_ZN4core4sync6atomic9AtomicU3221compare_exchange_weak17h8a71b3550d16c993E, 3274
_ZN4core3mem14transmute_copy17hba6504b38600d01dE, 3275
_ZN15crossbeam_utils6atomic11atomic_cell4lock17h57275929e2649986E, 3276
_ZN4core3mem14transmute_copy17hde767bcef96cb0bfE, 3277
_ZN4core4sync6atomic9AtomicU6421compare_exchange_weak17hcbe2cac870f0b310E, 3278
_ZN4core3mem14transmute_copy17hb1d6a831dd486ea3E, 3279
_ZN15crossbeam_utils6atomic8seq_lock7SeqLock5write17he39da292096dc41aE, 3280
_ZN4core3ptr4read17h7712b06fdb0e86b1E, 3281
_ZN4core3ptr7replace17h3ccc27c8815c31f3E, 3282
_ZN15crossbeam_utils6atomic8seq_lock17SeqLockWriteGuard5abort17h047ea78b18fb5eedE, 3283
_ZN4core3ptr73drop_in_place$LT$crossbeam_utils..atomic..seq_lock..SeqLockWriteGuard$GT$17hf44ba2ccae7b14d6E, 3284
_ZN94_$LT$crossbeam_utils..atomic..seq_lock..SeqLockWriteGuard$u20$as$u20$core..ops..drop..Drop$GT$4drop17h679168c82a6f0688E, 3285
_ZN4core3mem6forget17he51fa6dbcbff7edfE, 3286
_ZN4core3mem4swap17hfbb1cb6991e6aa2eE, 3287
_ZN4core3ptr23swap_nonoverlapping_one17h38a8b9f3c52b5e31E, 3288
_ZN4core3ptr19swap_nonoverlapping17h7a3ca77030317e8eE, 3289
_ZN4core10intrinsics19copy_nonoverlapping17h25df1bdec1ea2cceE, 3290
_ZN4core3ptr5write17h924b75ed956f527aE, 3291
_ZN4core4sync6atomic11AtomicUsize4swap17hc418116e59d66dcdE, 3292
_ZN4core3ptr14read_unaligned17h9fcc70fa7395aab7E, 3293
_ZN4core4sync6atomic28atomic_compare_exchange_weak17hd0dfdcabdec4ef30E, 3294
_ZN4core3ptr4read17hd236b3a4e632fdf9E, 3295
_ZN4core3ptr14read_unaligned17he2fc9360ff613abeE, 3296
_ZN4core10intrinsics19copy_nonoverlapping17h6cf92d9b284ed7e1E, 3297
_ZN4core4sync6atomic28atomic_compare_exchange_weak17he15757f18609a79eE, 3298
_ZN4core4sync6atomic28atomic_compare_exchange_weak17hb91901d5b3bd8645E, 3299
_ZN4core3ptr4read17h858258abb87806b2E, 3300
_ZN4core3ptr14read_unaligned17h942a817929ddfadbE, 3301
_ZN4core10intrinsics19copy_nonoverlapping17hc42f10f8927f5981E, 3302
_ZN4core4sync6atomic28atomic_compare_exchange_weak17h47d9f5571a742864E, 3303
_ZN4core3ptr4read17hf9dfef118d010277E, 3304
_ZN4core3ptr14read_unaligned17hed8bab979eed1ac4E, 3305
_ZN4core3ptr14read_unaligned17hf714b8d4d023b324E, 3306
_ZN70_$LT$std..sys..wasi..time..Instant$u20$as$u20$core..cmp..PartialEq$GT$2eq17hfdefbf791a6cec6aE, 3307
_ZN61_$LT$core..time..Duration$u20$as$u20$core..cmp..PartialEq$GT$2eq17ha7159b203a5e5a96E, 3308
_ZN4core3ptr4read17h8c8cb6a374ffec42E, 3309
_ZN4core3ptr14read_unaligned17h062bb574c23891d2E, 3310
_ZN4core10intrinsics19copy_nonoverlapping17hae8ed9296c74110cE, 3311
_ZN4core3cmp6max_by17h57bcda5380ce7c19E, 3312
_ZN4core3ops8function6FnOnce9call_once17h27e4abcc24aa8520E, 3313
_ZN53_$LT$std..time..Instant$u20$as$u20$core..cmp..Ord$GT$3cmp17h3188054c04e9d39dE, 3314
_ZN64_$LT$std..sys..wasi..time..Instant$u20$as$u20$core..cmp..Ord$GT$3cmp17he482a070f6339bf8E, 3315
_ZN55_$LT$core..time..Duration$u20$as$u20$core..cmp..Ord$GT$3cmp17h88f6f4ed88c37298E, 3316
_ZN4core3cmp5impls48_$LT$impl$u20$core..cmp..Ord$u20$for$u20$u64$GT$3cmp17h4b0fcf5810281d93E, 3317
_ZN15crossbeam_utils6atomic11atomic_cell11atomic_load17h45bf0b17e237b43eE, 3318
_ZN15crossbeam_utils6atomic11atomic_cell10AtomicUnit4load17h4554d55f52626f9fE, 3319
_ZN4core4sync6atomic8AtomicU84load17h95a682656656d9cbE, 3320
_ZN4core4sync6atomic9AtomicU164load17h08c4b54f5e7bea7dE, 3321
_ZN4core4sync6atomic9AtomicU324load17h21eb4db47bc881e0E, 3322
_ZN4core4sync6atomic9AtomicU644load17h0cc50061a17e0ebaE, 3323
_ZN15crossbeam_utils6atomic8seq_lock7SeqLock15optimistic_read17h77e5beff2931b2a0E, 3324
_ZN4core3ptr13read_volatile17hb34f91222390de3cE, 3325
_ZN15crossbeam_utils6atomic8seq_lock7SeqLock13validate_read17h388e2ade127953f5E, 3326
_ZN4core5tuple64_$LT$impl$u20$core..cmp..PartialEq$u20$for$u20$$LP$A$C$B$RP$$GT$2eq17hbc76265608eedfb0E, 3327
_ZN4core3cmp5impls56_$LT$impl$u20$core..cmp..PartialEq$u20$for$u20$usize$GT$2eq17h9a046af4b7d367b6E, 3328
_ZN4core4sync6atomic11atomic_load17h5d6f5c6f43f77670E, 3329
_ZN4core4sync6atomic11atomic_load17h49143aef37249360E, 3330
_ZN4core4sync6atomic11atomic_load17h1bc204d7de872f28E, 3331
_ZN5alloc4sync12Arc$LT$T$GT$5inner17h874c3969598289d1E, 3332
_ZN4core3ptr8non_null16NonNull$LT$T$GT$6as_ref17hf409bd1a93cc3c99E, 3333
_ZN4core3ptr8non_null16NonNull$LT$T$GT$6as_ptr17h7eeef194132cd6a1E, 3334
_ZN5alloc4sync12Arc$LT$T$GT$5inner17h0b3ba8894af5bd85E, 3335
_ZN4core3ptr8non_null16NonNull$LT$T$GT$6as_ref17hf82a6729aa3e4e4cE, 3336
_ZN4core3ptr8non_null16NonNull$LT$T$GT$6as_ptr17hda70e7d80bbe878dE, 3337
_ZN17crossbeam_channel7counter17Receiver$LT$C$GT$7counter17h8325b072393d8ccdE, 3338
_ZN17crossbeam_channel7counter17Receiver$LT$C$GT$7counter17h40ccaae3c7a401c0E, 3339
_ZN17crossbeam_channel7counter17Receiver$LT$C$GT$7counter17h3ab7029f5ccd6305E, 3340
_ZN4core4iter6traits8iterator8Iterator3map17hf6aeb1543af77d95E, 3341
_ZN4core4iter6traits8iterator8Iterator7collect17h2bbbb3e65a660672E, 3342
_ZN4core4iter6traits8iterator8Iterator3map17h6ecdfbf11644bca2E, 3343
_ZN4core4iter6traits8iterator8Iterator7collect17h52ee871ab07f1e31E, 3344
_ZN95_$LT$alloc..vec..Vec$LT$T$GT$$u20$as$u20$core..iter..traits..collect..FromIterator$LT$T$GT$$GT$9from_iter17hf3cdd981f6eaf4d3E, 3345
_ZN63_$LT$I$u20$as$u20$core..iter..traits..collect..IntoIterator$GT$9into_iter17h467dfa575b230852E, 3346
_ZN98_$LT$alloc..vec..Vec$LT$T$GT$$u20$as$u20$alloc..vec..spec_from_iter..SpecFromIter$LT$T$C$I$GT$$GT$9from_iter17h73e17bf5afd32ccfE, 3347
_ZN111_$LT$alloc..vec..Vec$LT$T$GT$$u20$as$u20$alloc..vec..spec_from_iter_nested..SpecFromIterNested$LT$T$C$I$GT$$GT$9from_iter17had151b9a15a0ff4fE, 3348
_ZN102_$LT$core..iter..adapters..map..Map$LT$I$C$F$GT$$u20$as$u20$core..iter..traits..iterator..Iterator$GT$9size_hint17h6b3a66bbc07b0a42E, 3349
_ZN5alloc3vec12Vec$LT$T$GT$13with_capacity17h96d786a9e3c3bdbeE, 3350
_ZN97_$LT$alloc..vec..Vec$LT$T$C$A$GT$$u20$as$u20$alloc..vec..spec_extend..SpecExtend$LT$T$C$I$GT$$GT$11spec_extend17h8e683fb03a1983ceE, 3351
_ZN5alloc3vec16Vec$LT$T$C$A$GT$7reserve17h652e2b4f7f8400baE, 3352
_ZN5alloc3vec16Vec$LT$T$C$A$GT$3len17hac6b02b9a9f67dc0E, 3353
_ZN5alloc3vec15set_len_on_drop12SetLenOnDrop3new17h38cc8e636afb307fE, 3354
_ZN4core4iter6traits8iterator8Iterator8for_each17h928591281552e975E, 3355
_ZN4core4iter6traits8iterator8Iterator8for_each4call17ha98186570b37706cE, 3356
_ZN102_$LT$core..iter..adapters..map..Map$LT$I$C$F$GT$$u20$as$u20$core..iter..traits..iterator..Iterator$GT$4fold17h875a68fa80397e9dE, 3357
_ZN4core4iter8adapters3map8map_fold17h3b70d5765692a8c2E, 3358
_ZN4core4iter6traits8iterator8Iterator4fold17h6959cd6ba9fd4329E, 3359
_ZN4core4iter8adapters3map8map_fold28_$u7b$$u7b$closure$u7d$$u7d$17hdc4a17fb5d818531E, 3360
_ZN4core3ptr638drop_in_place$LT$core..iter..adapters..map..map_fold$LT$usize$C$rayon_core..log..State$C$$LP$$RP$$C$rayon_core..log..SimulatorState..new..$u7b$$u7b$closure$u7d$$u7d$$C$core..iter..traits..iterator..Iterator..for_each..call$LT$rayon_core..log..State$C$$LT$alloc..vec..Vec$LT$rayon_core..log..State$GT$$u20$as$u20$alloc..vec..spec_extend..SpecExtend$LT$rayon_core..log..State$C$core..iter..adapters..map..Map$LT$core..ops..range..Range$LT$usize$GT$$C$rayon_core..log..SimulatorState..new..$u7b$$u7b$closure$u7d$$u7d$$GT$$GT$$GT$..spec_extend..$u7b$$u7b$closure$u7d$$u7d$$GT$..$u7b$$u7b$closure$u7d$$u7d$$GT$..$u7b$$u7b$closure$u7d$$u7d$$GT$17h77380a9a88a06662E, 3361
_ZN4core3ptr454drop_in_place$LT$core..iter..traits..iterator..Iterator..for_each..call$LT$rayon_core..log..State$C$$LT$alloc..vec..Vec$LT$rayon_core..log..State$GT$$u20$as$u20$alloc..vec..spec_extend..SpecExtend$LT$rayon_core..log..State$C$core..iter..adapters..map..Map$LT$core..ops..range..Range$LT$usize$GT$$C$rayon_core..log..SimulatorState..new..$u7b$$u7b$closure$u7d$$u7d$$GT$$GT$$GT$..spec_extend..$u7b$$u7b$closure$u7d$$u7d$$GT$..$u7b$$u7b$closure$u7d$$u7d$$GT$17hbd85b906c55cad94E, 3362
_ZN4core3ptr338drop_in_place$LT$$LT$alloc..vec..Vec$LT$rayon_core..log..State$GT$$u20$as$u20$alloc..vec..spec_extend..SpecExtend$LT$rayon_core..log..State$C$core..iter..adapters..map..Map$LT$core..ops..range..Range$LT$usize$GT$$C$rayon_core..log..SimulatorState..new..$u7b$$u7b$closure$u7d$$u7d$$GT$$GT$$GT$..spec_extend..$u7b$$u7b$closure$u7d$$u7d$$GT$17hc992b78a6fa76fe5E, 3363
_ZN4core3ptr62drop_in_place$LT$alloc..vec..set_len_on_drop..SetLenOnDrop$GT$17heaaab0cc50e7373bE, 3364
_ZN83_$LT$alloc..vec..set_len_on_drop..SetLenOnDrop$u20$as$u20$core..ops..drop..Drop$GT$4drop17hcf7070d5ebdcdea4E, 3365
_ZN10rayon_core3log14SimulatorState3new28_$u7b$$u7b$closure$u7d$$u7d$17h26aecc435ca3d8e4E, 3366
_ZN4core4iter6traits8iterator8Iterator8for_each4call28_$u7b$$u7b$closure$u7d$$u7d$17hda9aeae97e71c2d8E, 3367
_ZN97_$LT$alloc..vec..Vec$LT$T$C$A$GT$$u20$as$u20$alloc..vec..spec_extend..SpecExtend$LT$T$C$I$GT$$GT$11spec_extend28_$u7b$$u7b$closure$u7d$$u7d$17h5576cd3be474c1d6E, 3368
_ZN4core3ptr5write17hbf802a0f56a2d198E, 3369
_ZN5alloc3vec15set_len_on_drop12SetLenOnDrop13increment_len17h82848b2c54f598a1E, 3370
_ZN5alloc7raw_vec19RawVec$LT$T$C$A$GT$7reserve17heea3658ef1e8640aE, 3371
_ZN5alloc7raw_vec19RawVec$LT$T$C$A$GT$13needs_to_grow17h97be178af79d6dffE, 3372
_ZN5alloc7raw_vec19RawVec$LT$T$C$A$GT$7reserve21do_reserve_and_handle17hac5611f543c8ab5bE, 3373
_ZN5alloc7raw_vec19RawVec$LT$T$C$A$GT$14grow_amortized17hfe2c2ed8883b40f2E, 3374
_ZN4core5alloc6layout6Layout5array17hf466f743735e289cE, 3375
_ZN5alloc7raw_vec19RawVec$LT$T$C$A$GT$14current_memory17h66cfc6f244bbfa8aE, 3376
_ZN5alloc7raw_vec19RawVec$LT$T$C$A$GT$7set_ptr17ha5f1186439ff5cccE, 3377
_ZN4core3ptr8non_null16NonNull$LT$T$GT$4cast17hf0c8955f12c6b403E, 3378
_ZN4core3ptr6unique15Unique$LT$T$GT$13new_unchecked17h9aedf811b5d7582eE, 3379
_ZN5alloc7raw_vec19RawVec$LT$T$C$A$GT$19capacity_from_bytes17hb6a543ffc12b8b03E, 3380
_ZN4core3ptr6unique15Unique$LT$T$GT$4cast17he0ed1638c28f389eE, 3381
_ZN4core5alloc6layout6Layout3new17h8b7ee80515282dfeE, 3382
_ZN4core5alloc6layout10size_align17h06abe1c1f0c9f59eE, 3383
_ZN5alloc3vec16Vec$LT$T$C$A$GT$16with_capacity_in17ha1fd81093325729dE, 3384
_ZN5alloc7raw_vec19RawVec$LT$T$C$A$GT$16with_capacity_in17h0c92702b7fd856e8E, 3385
_ZN5alloc7raw_vec19RawVec$LT$T$C$A$GT$11allocate_in17hc7831a125b96eeb2E, 3386
_ZN5alloc7raw_vec19RawVec$LT$T$C$A$GT$6new_in17h80bc58be051b9abdE, 3387
_ZN5alloc7raw_vec11alloc_guard17h9c36e5f47e48ef20E, 3388
_ZN63_$LT$alloc..alloc..Global$u20$as$u20$core..alloc..Allocator$GT$8allocate17hec16d39a61aee574E, 3389
_ZN63_$LT$alloc..alloc..Global$u20$as$u20$core..alloc..Allocator$GT$15allocate_zeroed17h012e7a87c449b890E, 3390
_ZN5alloc5alloc6Global10alloc_impl17h290ed7975974ad13E, 3391
_ZN4core5alloc6layout6Layout8dangling17he9f3a20c50534f03E, 3392
_ZN5alloc5alloc5alloc17h145050aeeb82ede3E, 3393
_ZN5alloc5alloc12alloc_zeroed17h59f95fbbbbd73294E, 3394
_ZN4core3ptr6unique15Unique$LT$T$GT$8dangling17h95680b9477c51f98E, 3395
_ZN4core4iter5range101_$LT$impl$u20$core..iter..traits..iterator..Iterator$u20$for$u20$core..ops..range..Range$LT$A$GT$$GT$9size_hint17h92eb5096373e1691E, 3396
_ZN4core3cmp5impls57_$LT$impl$u20$core..cmp..PartialOrd$u20$for$u20$usize$GT$2lt17h5f83ce69a6a8f696E, 3397
_ZN49_$LT$usize$u20$as$u20$core..iter..range..Step$GT$13steps_between17h16c60c3dc419356eE, 3398
_ZN4core6option15Option$LT$T$GT$9unwrap_or17h7a584e9fa017fbacE, 3399
_ZN4core4iter8adapters3map16Map$LT$I$C$F$GT$3new17h1c3f7992f1dcde97E, 3400
_ZN95_$LT$alloc..vec..Vec$LT$T$GT$$u20$as$u20$core..iter..traits..collect..FromIterator$LT$T$GT$$GT$9from_iter17hf1a6382a3a9e8251E, 3401
_ZN63_$LT$I$u20$as$u20$core..iter..traits..collect..IntoIterator$GT$9into_iter17h771553a18e4a5e80E, 3402
_ZN98_$LT$alloc..vec..Vec$LT$T$GT$$u20$as$u20$alloc..vec..spec_from_iter..SpecFromIter$LT$T$C$I$GT$$GT$9from_iter17h64082d9f26a966dfE, 3403
_ZN111_$LT$alloc..vec..Vec$LT$T$GT$$u20$as$u20$alloc..vec..spec_from_iter_nested..SpecFromIterNested$LT$T$C$I$GT$$GT$9from_iter17hf0977fa20b40cddaE, 3404
_ZN102_$LT$core..iter..adapters..map..Map$LT$I$C$F$GT$$u20$as$u20$core..iter..traits..iterator..Iterator$GT$9size_hint17h488de3f84e48bd9bE, 3405
_ZN5alloc3vec12Vec$LT$T$GT$13with_capacity17h5fd6ba850d19ea35E, 3406
_ZN97_$LT$alloc..vec..Vec$LT$T$C$A$GT$$u20$as$u20$alloc..vec..spec_extend..SpecExtend$LT$T$C$I$GT$$GT$11spec_extend17h14732cc51e8462f8E, 3407
_ZN4core4iter6traits8iterator8Iterator8for_each17h19d97dde086c2e2fE, 3408
_ZN4core4iter6traits8iterator8Iterator8for_each4call17h2f637229a24b57d5E, 3409
_ZN102_$LT$core..iter..adapters..map..Map$LT$I$C$F$GT$$u20$as$u20$core..iter..traits..iterator..Iterator$GT$4fold17h6581fcb28bb461e8E, 3410
_ZN4core4iter8adapters3map8map_fold17h479da1bc5329c86aE, 3411
_ZN4core4iter6traits8iterator8Iterator4fold17hac2923c14ae6fa48E, 3412
_ZN4core4iter8adapters3map8map_fold28_$u7b$$u7b$closure$u7d$$u7d$17h41637b9d6cd5810dE, 3413
_ZN4core3ptr570drop_in_place$LT$core..iter..adapters..map..map_fold$LT$usize$C$usize$C$$LP$$RP$$C$rayon_core..log..SimulatorState..new..$u7b$$u7b$closure$u7d$$u7d$$C$core..iter..traits..iterator..Iterator..for_each..call$LT$usize$C$$LT$alloc..vec..Vec$LT$usize$GT$$u20$as$u20$alloc..vec..spec_extend..SpecExtend$LT$usize$C$core..iter..adapters..map..Map$LT$core..ops..range..Range$LT$usize$GT$$C$rayon_core..log..SimulatorState..new..$u7b$$u7b$closure$u7d$$u7d$$GT$$GT$$GT$..spec_extend..$u7b$$u7b$closure$u7d$$u7d$$GT$..$u7b$$u7b$closure$u7d$$u7d$$GT$..$u7b$$u7b$closure$u7d$$u7d$$GT$17h6d59fef3c1970429E, 3414
_ZN4core3ptr403drop_in_place$LT$core..iter..traits..iterator..Iterator..for_each..call$LT$usize$C$$LT$alloc..vec..Vec$LT$usize$GT$$u20$as$u20$alloc..vec..spec_extend..SpecExtend$LT$usize$C$core..iter..adapters..map..Map$LT$core..ops..range..Range$LT$usize$GT$$C$rayon_core..log..SimulatorState..new..$u7b$$u7b$closure$u7d$$u7d$$GT$$GT$$GT$..spec_extend..$u7b$$u7b$closure$u7d$$u7d$$GT$..$u7b$$u7b$closure$u7d$$u7d$$GT$17h594d95be22a8d684E, 3415
_ZN4core3ptr304drop_in_place$LT$$LT$alloc..vec..Vec$LT$usize$GT$$u20$as$u20$alloc..vec..spec_extend..SpecExtend$LT$usize$C$core..iter..adapters..map..Map$LT$core..ops..range..Range$LT$usize$GT$$C$rayon_core..log..SimulatorState..new..$u7b$$u7b$closure$u7d$$u7d$$GT$$GT$$GT$..spec_extend..$u7b$$u7b$closure$u7d$$u7d$$GT$17h67842babf04d62d3E, 3416
_ZN10rayon_core3log14SimulatorState3new28_$u7b$$u7b$closure$u7d$$u7d$17h4b066177a3ed19e1E, 3417
_ZN4core4iter6traits8iterator8Iterator8for_each4call28_$u7b$$u7b$closure$u7d$$u7d$17h7c1b81d6270c6f4eE, 3418
_ZN97_$LT$alloc..vec..Vec$LT$T$C$A$GT$$u20$as$u20$alloc..vec..spec_extend..SpecExtend$LT$T$C$I$GT$$GT$11spec_extend28_$u7b$$u7b$closure$u7d$$u7d$17ha2c61f063e2e553dE, 3419
_ZN5alloc3vec16Vec$LT$T$C$A$GT$16with_capacity_in17h426b8b22d83c471bE, 3420
_ZN5alloc7raw_vec19RawVec$LT$T$C$A$GT$16with_capacity_in17h2226271b35a92e57E, 3421
_ZN5alloc7raw_vec19RawVec$LT$T$C$A$GT$11allocate_in17hf7656cdb5e51b9dfE, 3422
_ZN5alloc7raw_vec19RawVec$LT$T$C$A$GT$6new_in17h03f452ee2d038e00E, 3423
_ZN4core3ptr6unique15Unique$LT$T$GT$8dangling17h229f81df4d61548bE, 3424
_ZN4core4iter8adapters3map16Map$LT$I$C$F$GT$3new17hb3436378141718d4E, 3425
_ZN5alloc3vec16Vec$LT$T$C$A$GT$16with_capacity_in17hec331976f990464cE, 3426
_ZN5alloc7raw_vec19RawVec$LT$T$C$A$GT$16with_capacity_in17h6857469d15af8133E, 3427
_ZN5alloc7raw_vec19RawVec$LT$T$C$A$GT$11allocate_in17ha251b570f32c70eaE, 3428
_ZN5alloc7raw_vec19RawVec$LT$T$C$A$GT$6new_in17hb201d40a40fe77bdE, 3429
_ZN4core3ptr6unique15Unique$LT$T$GT$8dangling17hf84f02eb46c4a94fE, 3430
_ZN3std2io8buffered9bufwriter18BufWriter$LT$W$GT$13with_capacity17hc8b0688f58ee3d34E, 3431
_ZN5alloc3vec12Vec$LT$T$GT$13with_capacity17h69bcb04b0fff52c5E, 3432
_ZN5alloc3vec16Vec$LT$T$C$A$GT$16with_capacity_in17h41803e31dcc2778eE, 3433
_ZN5alloc7raw_vec19RawVec$LT$T$C$A$GT$16with_capacity_in17hf60b1685f361b967E, 3434
_ZN5alloc7raw_vec19RawVec$LT$T$C$A$GT$11allocate_in17hec13bb758de9653cE, 3435
_ZN5alloc7raw_vec19RawVec$LT$T$C$A$GT$6new_in17hb6d05b08c051708dE, 3436
_ZN4core5alloc6layout6Layout5array17h81e5360909a718b1E, 3437
_ZN4core3ptr8non_null16NonNull$LT$T$GT$4cast17haea3996aafaf4a3eE, 3438
_ZN5alloc7raw_vec19RawVec$LT$T$C$A$GT$19capacity_from_bytes17h45ab8df9cecb5c8aE, 3439
_ZN4core5alloc6layout6Layout3new17h93699bfd107fc904E, 3440
_ZN4core5alloc6layout10size_align17hbd52c2d22c29a0e3E, 3441
_ZN4core3ptr6unique15Unique$LT$T$GT$8dangling17h26b0e8b159915281E, 3442
_ZN10rayon_core3log6Logger21profile_logger_thread28_$u7b$$u7b$closure$u7d$$u7d$17h53f8a60ba5611d30E, 3443
_ZN4core3fmt10ArgumentV13new17h14422b9b9703cbceE, 3444
_ZN55_$LT$$RF$T$u20$as$u20$core..convert..AsRef$LT$U$GT$$GT$6as_ref17ha54b3bde12ddac2dE, 3445
_ZN3std2fs11OpenOptions4open17h9bfedd04b722a04aE, 3446
_ZN55_$LT$$RF$T$u20$as$u20$core..convert..AsRef$LT$U$GT$$GT$6as_ref17hf5c270826ca433bbE, 3447
_ZN79_$LT$std..path..Path$u20$as$u20$core..convert..AsRef$LT$std..path..Path$GT$$GT$6as_ref17ha46785ad9c7d03cfE, 3448
_ZN3std4path95_$LT$impl$u20$core..convert..AsRef$LT$std..path..Path$GT$$u20$for$u20$alloc..string..String$GT$6as_ref17hb37b969e5e475be8E, 3449
_ZN3std4path4Path3new17he407f3a8600143f8E, 3450
_ZN3std3ffi6os_str103_$LT$impl$u20$core..convert..AsRef$LT$std..ffi..os_str..OsStr$GT$$u20$for$u20$alloc..string..String$GT$6as_ref17he67a5522ca9f01c5E, 3451
_ZN3std3ffi6os_str85_$LT$impl$u20$core..convert..AsRef$LT$std..ffi..os_str..OsStr$GT$$u20$for$u20$str$GT$6as_ref17hcb977c48ab5456f2E, 3452
_ZN3std10sys_common12os_str_bytes5Slice8from_str17hbffedd712c2dceccE, 3453
_ZN3std3ffi6os_str5OsStr10from_inner17h503764204fccfd70E, 3454
_ZN3std10sys_common12os_str_bytes5Slice13from_u8_slice17h53dc7835b2bd505eE, 3455
_ZN101_$LT$std..panic..AssertUnwindSafe$LT$F$GT$$u20$as$u20$core..ops..function..FnOnce$LT$$LP$$RP$$GT$$GT$9call_once17h5007a9cb21311f62E, 3456
_ZN10rayon_core8registry9main_loop28_$u7b$$u7b$closure$u7d$$u7d$17hc5d9ddf60935ae1bE, 3457
_ZN86_$LT$alloc..boxed..Box$LT$F$C$A$GT$$u20$as$u20$core..ops..function..Fn$LT$Args$GT$$GT$4call17h3d27643ef88c35b0E, 3458
_ZN101_$LT$std..panic..AssertUnwindSafe$LT$F$GT$$u20$as$u20$core..ops..function..FnOnce$LT$$LP$$RP$$GT$$GT$9call_once17h81f856729e0c68e2E, 3459
_ZN3std6thread7Builder15spawn_unchecked28_$u7b$$u7b$closure$u7d$$u7d$28_$u7b$$u7b$closure$u7d$$u7d$17h36906d9603146fbbE, 3460
_ZN3std10sys_common9backtrace28__rust_begin_short_backtrace17hfd02fa089fbb57dfE, 3461
_ZN10rayon_core3log6Logger3new28_$u7b$$u7b$closure$u7d$$u7d$17hd11cabda3391126dE, 3462
_ZN10rayon_core3log6Logger17all_logger_thread17h68430da93c5d6fd7E, 3463
_ZN107_$LT$crossbeam_channel..channel..Receiver$LT$T$GT$$u20$as$u20$core..iter..traits..collect..IntoIterator$GT$9into_iter17ha608661a4330bb53E, 3464
_ZN104_$LT$crossbeam_channel..channel..IntoIter$LT$T$GT$$u20$as$u20$core..iter..traits..iterator..Iterator$GT$4next17hd24a0ce32ba180f6E, 3465
_ZN4core3ptr87drop_in_place$LT$crossbeam_channel..channel..IntoIter$LT$rayon_core..log..Event$GT$$GT$17h316b54900d9b4057E, 3466
_ZN3std2io8buffered9bufwriter18BufWriter$LT$W$GT$3new17hb43f2f9f3d6ae196E, 3467
_ZN10rayon_core3log14SimulatorState4dump17h182461d209e3e8c0E, 3468
_ZN83_$LT$std..io..buffered..bufwriter..BufWriter$LT$W$GT$$u20$as$u20$std..io..Write$GT$5flush17h2e6268a16152e6e3E, 3469
_ZN4core3ptr94drop_in_place$LT$std..io..buffered..bufwriter..BufWriter$LT$std..io..stdio..StderrLock$GT$$GT$17h747e7f58c6a6a943E, 3470
_ZN4core3ptr52drop_in_place$LT$rayon_core..log..SimulatorState$GT$17hf11e71e393fd5c90E, 3471
_ZN4core3ptr66drop_in_place$LT$alloc..vec..Vec$LT$rayon_core..log..State$GT$$GT$17h2002ccd738506c2bE, 3472
_ZN70_$LT$alloc..vec..Vec$LT$T$C$A$GT$$u20$as$u20$core..ops..drop..Drop$GT$4drop17he07437045fdd05ceE, 3473
_ZN4core3ptr73drop_in_place$LT$alloc..raw_vec..RawVec$LT$rayon_core..log..State$GT$$GT$17h338c940b45ea2334E, 3474
_ZN77_$LT$alloc..raw_vec..RawVec$LT$T$C$A$GT$$u20$as$u20$core..ops..drop..Drop$GT$4drop17h47d03f7e1205b014E, 3475
_ZN90_$LT$std..io..buffered..bufwriter..BufWriter$LT$W$GT$$u20$as$u20$core..ops..drop..Drop$GT$4drop17hb13c1f48bc550524E, 3476
_ZN4core3ptr75drop_in_place$LT$core..option..Option$LT$std..io..stdio..StderrLock$GT$$GT$17h8b8e92119ccd076bE, 3477
_ZN4core3ptr47drop_in_place$LT$std..io..stdio..StderrLock$GT$17hedf977d27eb7940aE, 3478
_ZN4core3ptr126drop_in_place$LT$std..sys_common..remutex..ReentrantMutexGuard$LT$core..cell..RefCell$LT$std..io..stdio..StderrRaw$GT$$GT$$GT$17he3c43d12e5383c98E, 3479
_ZN96_$LT$std..sys_common..remutex..ReentrantMutexGuard$LT$T$GT$$u20$as$u20$core..ops..drop..Drop$GT$4drop17h5b110d160eabcd46E, 3480
_ZN67_$LT$core..pin..Pin$LT$P$GT$$u20$as$u20$core..ops..deref..Deref$GT$5deref17h11f0271f52455cabE, 3481
_ZN49_$LT$$RF$T$u20$as$u20$core..ops..deref..Deref$GT$5deref17hb49a3b0dcb3d9ae0E, 3482
_ZN4core6option15Option$LT$T$GT$7is_some17h83a00a79f3051c8eE, 3483
_ZN3std2io8buffered9bufwriter18BufWriter$LT$W$GT$9flush_buf17h206f072e9cf21c1bE, 3484
_ZN4core6option15Option$LT$T$GT$6as_mut17h2777cb7a787c7c32E, 3485
_ZN4core6option15Option$LT$T$GT$6unwrap17h197be9c084ac5a9cE, 3486
_ZN4core6result19Result$LT$T$C$E$GT$8and_then17hd42de7a5269c4becE, 3487
_ZN83_$LT$std..io..buffered..bufwriter..BufWriter$LT$W$GT$$u20$as$u20$std..io..Write$GT$5flush28_$u7b$$u7b$closure$u7d$$u7d$17h239ceeeb122b31aaE, 3488
_ZN3std2io8buffered9bufwriter18BufWriter$LT$W$GT$7get_mut17h59a0e43d32b547edE, 3489
_ZN4core4iter6traits8iterator8Iterator6filter17hf3d8d03a1c372276E, 3490
_ZN108_$LT$core..iter..adapters..filter..Filter$LT$I$C$P$GT$$u20$as$u20$core..iter..traits..iterator..Iterator$GT$5count17h827a8038964d1febE, 3491
_ZN4core4iter6traits8iterator8Iterator6filter17h808183918d13007bE, 3492
_ZN108_$LT$core..iter..adapters..filter..Filter$LT$I$C$P$GT$$u20$as$u20$core..iter..traits..iterator..Iterator$GT$5count17h6d26f49d8332cd42E, 3493
_ZN4core4iter6traits8iterator8Iterator6filter17h18c0468b89b13b8cE, 3494
_ZN108_$LT$core..iter..adapters..filter..Filter$LT$I$C$P$GT$$u20$as$u20$core..iter..traits..iterator..Iterator$GT$5count17hde7bc07b8a7489f9E, 3495
_ZN3std2io5Write9write_fmt17hbb2db58bd6e8dd40E, 3496
_ZN4core3ptr136drop_in_place$LT$std..io..Write..write_fmt..Adaptor$LT$std..io..buffered..bufwriter..BufWriter$LT$std..io..stdio..StderrLock$GT$$GT$$GT$17hbd91ace69422b5f1E, 3497
_ZN80_$LT$std..io..Write..write_fmt..Adaptor$LT$T$GT$$u20$as$u20$core..fmt..Write$GT$9write_str17h3740f49715d16955E, 3498
_ZN4core3fmt5Write10write_char17h4d7fe573ba0fa50cE, 3499
_ZN4core3fmt5Write9write_fmt17h6ceabd10ae643b0fE, 3500
_ZN4core3ptr148drop_in_place$LT$$RF$mut$u20$std..io..Write..write_fmt..Adaptor$LT$std..io..buffered..bufwriter..BufWriter$LT$std..io..stdio..StderrLock$GT$$GT$$GT$17hb715368f3230a33aE, 3501
_ZN50_$LT$$RF$mut$u20$W$u20$as$u20$core..fmt..Write$GT$9write_str17he305043f0bd25fd6E, 3502
_ZN50_$LT$$RF$mut$u20$W$u20$as$u20$core..fmt..Write$GT$10write_char17hea7c1805c291f830E, 3503
_ZN50_$LT$$RF$mut$u20$W$u20$as$u20$core..fmt..Write$GT$9write_fmt17h24e4294df7c1127fE, 3504
_ZN83_$LT$std..io..buffered..bufwriter..BufWriter$LT$W$GT$$u20$as$u20$std..io..Write$GT$9write_all17hc9c35d720cb404d1E, 3505
_ZN3std2io8buffered9bufwriter18BufWriter$LT$W$GT$14spare_capacity17h3e9c4f00c9304296E, 3506
_ZN3std2io8buffered9bufwriter18BufWriter$LT$W$GT$14write_all_cold17h3c975c51febd8ea9E, 3507
_ZN3std2io8buffered9bufwriter18BufWriter$LT$W$GT$25write_to_buffer_unchecked17ha8a8d87c9b3dfb1eE, 3508
_ZN108_$LT$core..iter..adapters..filter..Filter$LT$I$C$P$GT$$u20$as$u20$core..iter..traits..iterator..Iterator$GT$5count8to_usize17hff145cfa1347b0b3E, 3509
_ZN4core4iter6traits8iterator8Iterator3map17h020ef392d26e1275E, 3510
_ZN4core4iter6traits8iterator8Iterator3sum17ha3ac5e2af3adcb5eE, 3511
_ZN56_$LT$usize$u20$as$u20$core..iter..traits..accum..Sum$GT$3sum17h7fc814aa4bd177e1E, 3512
_ZN102_$LT$core..iter..adapters..map..Map$LT$I$C$F$GT$$u20$as$u20$core..iter..traits..iterator..Iterator$GT$4fold17hefa4acdf6cc3129fE, 3513
_ZN4core4iter8adapters3map8map_fold17h550f8e5d062dba41E, 3514
_ZN4core4iter6traits8iterator8Iterator4fold17h787e84373a56ea91E, 3515
_ZN4core4iter8adapters3map8map_fold28_$u7b$$u7b$closure$u7d$$u7d$17hf577504983f2f50aE, 3516
_ZN108_$LT$core..iter..adapters..filter..Filter$LT$I$C$P$GT$$u20$as$u20$core..iter..traits..iterator..Iterator$GT$5count8to_usize28_$u7b$$u7b$closure$u7d$$u7d$17h3e02f305ec881d80E, 3517
_ZN56_$LT$usize$u20$as$u20$core..iter..traits..accum..Sum$GT$3sum28_$u7b$$u7b$closure$u7d$$u7d$17h358604b5e9a7b5f5E, 3518
_ZN10rayon_core3log14SimulatorState4dump28_$u7b$$u7b$closure$u7d$$u7d$17he31f9b4445a5315eE, 3519
_ZN4core4iter8adapters3map16Map$LT$I$C$F$GT$3new17h37635759134dce96E, 3520
_ZN4core4iter8adapters6filter19Filter$LT$I$C$P$GT$3new17h74ed52dc8cac7cc4E, 3521
_ZN108_$LT$core..iter..adapters..filter..Filter$LT$I$C$P$GT$$u20$as$u20$core..iter..traits..iterator..Iterator$GT$5count8to_usize17ha158cfe686664592E, 3522
_ZN4core4iter6traits8iterator8Iterator3map17h65d57236a4301848E, 3523
_ZN4core4iter6traits8iterator8Iterator3sum17hd84698a12bdf5873E, 3524
_ZN56_$LT$usize$u20$as$u20$core..iter..traits..accum..Sum$GT$3sum17h8b17e7c209c50593E, 3525
_ZN102_$LT$core..iter..adapters..map..Map$LT$I$C$F$GT$$u20$as$u20$core..iter..traits..iterator..Iterator$GT$4fold17h667a427335419d5fE, 3526
_ZN4core4iter8adapters3map8map_fold17h55a2762c02abd74aE, 3527
_ZN4core4iter6traits8iterator8Iterator4fold17h4a741e8025db2c51E, 3528
_ZN4core4iter8adapters3map8map_fold28_$u7b$$u7b$closure$u7d$$u7d$17he7dd1112d8b43296E, 3529
_ZN108_$LT$core..iter..adapters..filter..Filter$LT$I$C$P$GT$$u20$as$u20$core..iter..traits..iterator..Iterator$GT$5count8to_usize28_$u7b$$u7b$closure$u7d$$u7d$17hfd4fac6c36810bd4E, 3530
_ZN56_$LT$usize$u20$as$u20$core..iter..traits..accum..Sum$GT$3sum28_$u7b$$u7b$closure$u7d$$u7d$17h749fe4b0291a774bE, 3531
_ZN10rayon_core3log14SimulatorState4dump28_$u7b$$u7b$closure$u7d$$u7d$17he413c42f0fb4c96aE, 3532
_ZN4core4iter8adapters3map16Map$LT$I$C$F$GT$3new17h04970c5a0163902eE, 3533
_ZN4core4iter8adapters6filter19Filter$LT$I$C$P$GT$3new17hc3bf98a6f9884042E, 3534
_ZN108_$LT$core..iter..adapters..filter..Filter$LT$I$C$P$GT$$u20$as$u20$core..iter..traits..iterator..Iterator$GT$5count8to_usize17hba1ae2d93d9f6771E, 3535
_ZN4core4iter6traits8iterator8Iterator3map17hfd4d5bcb809a6819E, 3536
_ZN4core4iter6traits8iterator8Iterator3sum17hf9efa7a366d23a33E, 3537
_ZN56_$LT$usize$u20$as$u20$core..iter..traits..accum..Sum$GT$3sum17hab52d41d1f933efbE, 3538
_ZN102_$LT$core..iter..adapters..map..Map$LT$I$C$F$GT$$u20$as$u20$core..iter..traits..iterator..Iterator$GT$4fold17h1010ffab818b8188E, 3539
_ZN4core4iter8adapters3map8map_fold17h88cf99ca160f415fE, 3540
_ZN4core4iter6traits8iterator8Iterator4fold17h5ee645be43c2bd96E, 3541
_ZN4core4iter8adapters3map8map_fold28_$u7b$$u7b$closure$u7d$$u7d$17h9f2f79a88976c000E, 3542
_ZN108_$LT$core..iter..adapters..filter..Filter$LT$I$C$P$GT$$u20$as$u20$core..iter..traits..iterator..Iterator$GT$5count8to_usize28_$u7b$$u7b$closure$u7d$$u7d$17haaf0e2dc10d28bccE, 3543
_ZN56_$LT$usize$u20$as$u20$core..iter..traits..accum..Sum$GT$3sum28_$u7b$$u7b$closure$u7d$$u7d$17h61f285ba47c30c44E, 3544
_ZN10rayon_core3log14SimulatorState4dump28_$u7b$$u7b$closure$u7d$$u7d$17h80fc3181c68d5d1eE, 3545
_ZN4core4iter8adapters3map16Map$LT$I$C$F$GT$3new17h707b3603e2f52678E, 3546
_ZN4core4iter8adapters6filter19Filter$LT$I$C$P$GT$3new17hb31d19105b8bfa08E, 3547
_ZN3std2io8buffered9bufwriter18BufWriter$LT$W$GT$13with_capacity17hc622699333679032E, 3548
_ZN4core3ptr87drop_in_place$LT$crossbeam_channel..channel..Receiver$LT$rayon_core..log..Event$GT$$GT$17h375bb8a463241e02E, 3549
_ZN87_$LT$crossbeam_channel..channel..Receiver$LT$T$GT$$u20$as$u20$core..ops..drop..Drop$GT$4drop17haff55e7b2d815439E, 3550
_ZN4core3ptr93drop_in_place$LT$crossbeam_channel..channel..ReceiverFlavor$LT$rayon_core..log..Event$GT$$GT$17h4ae61b9797cfc3cdE, 3551
_ZN4core3ptr84drop_in_place$LT$alloc..sync..Arc$LT$crossbeam_channel..flavors..at..Channel$GT$$GT$17h70440452e3d83aa2E, 3552
_ZN4core3ptr86drop_in_place$LT$alloc..sync..Arc$LT$crossbeam_channel..flavors..tick..Channel$GT$$GT$17hcb44912da6c841e5E, 3553
_ZN67_$LT$alloc..sync..Arc$LT$T$GT$$u20$as$u20$core..ops..drop..Drop$GT$4drop17hb2ce3f3a4844fa53E, 3554
_ZN4core4sync6atomic11AtomicUsize9fetch_sub17h410f3e72939b3631E, 3555
_ZN5alloc4sync12Arc$LT$T$GT$9drop_slow17h83a61201b791530fE, 3556
_ZN5alloc4sync12Arc$LT$T$GT$17get_mut_unchecked17hc45ccc546aa3a133E, 3557
_ZN4core3mem4drop17h34dd9f00b5860f9eE, 3558
_ZN4core3ptr87drop_in_place$LT$alloc..sync..Weak$LT$crossbeam_channel..flavors..tick..Channel$GT$$GT$17h41c168917646f9b2E, 3559
_ZN68_$LT$alloc..sync..Weak$LT$T$GT$$u20$as$u20$core..ops..drop..Drop$GT$4drop17h01870c1a4cab5788E, 3560
_ZN5alloc4sync13Weak$LT$T$GT$5inner17h86157e6cedbcd462E, 3561
_ZN4core3ptr8non_null16NonNull$LT$T$GT$4cast17h0bd132643e6e1926E, 3562
_ZN4core5alloc6layout6Layout13for_value_raw17h641810254d4c749fE, 3563
_ZN4core3mem15size_of_val_raw17hd67eae6e0d363b09E, 3564
_ZN4core3mem16align_of_val_raw17h00fab685585aad0bE, 3565
_ZN5alloc2rc11is_dangling17hfe1089a1d00c3302E, 3566
_ZN67_$LT$alloc..sync..Arc$LT$T$GT$$u20$as$u20$core..ops..drop..Drop$GT$4drop17h70ae9c726878ffacE, 3567
_ZN5alloc4sync12Arc$LT$T$GT$9drop_slow17h27b4b75c35e7da74E, 3568
_ZN5alloc4sync12Arc$LT$T$GT$17get_mut_unchecked17h3a1dcfedc64dbedaE, 3569
_ZN4core3mem4drop17h2a78aa57ce9535a8E, 3570
_ZN4core3ptr85drop_in_place$LT$alloc..sync..Weak$LT$crossbeam_channel..flavors..at..Channel$GT$$GT$17h066a52c28c619406E, 3571
_ZN68_$LT$alloc..sync..Weak$LT$T$GT$$u20$as$u20$core..ops..drop..Drop$GT$4drop17haf033662de1b1104E, 3572
_ZN5alloc4sync13Weak$LT$T$GT$5inner17h33e4ac514cfacd6bE, 3573
_ZN4core3ptr8non_null16NonNull$LT$T$GT$4cast17h2124c25356e0426aE, 3574
_ZN4core5alloc6layout6Layout13for_value_raw17h20443546c4074f86E, 3575
_ZN4core3mem15size_of_val_raw17hf58382f9dc87bd02E, 3576
_ZN4core3mem16align_of_val_raw17h1585cb7f5381369eE, 3577
_ZN5alloc2rc11is_dangling17h569cc3faf2b0a233E, 3578
_ZN17crossbeam_channel7counter17Receiver$LT$C$GT$7release17h28c31eac6acd5fb1E, 3579
_ZN17crossbeam_channel7counter17Receiver$LT$C$GT$7release17h12a799f8e82417e5E, 3580
_ZN17crossbeam_channel7counter17Receiver$LT$C$GT$7release17h84d63b395cf32bdbE, 3581
_ZN87_$LT$crossbeam_channel..channel..Receiver$LT$T$GT$$u20$as$u20$core..ops..drop..Drop$GT$4drop28_$u7b$$u7b$closure$u7d$$u7d$17hd732eb6ec1982c8cE, 3582
_ZN5alloc5boxed12Box$LT$T$GT$8from_raw17h2ef7198cfb6ee52eE, 3583
_ZN4core3mem4drop17h2ba5dcad017f2070E, 3584
_ZN4core3ptr160drop_in_place$LT$alloc..boxed..Box$LT$crossbeam_channel..counter..Counter$LT$crossbeam_channel..flavors..zero..Channel$LT$rayon_core..log..Event$GT$$GT$$GT$$GT$17hf50f2e61eb2dc5f8E, 3585
_ZN4core3ptr135drop_in_place$LT$crossbeam_channel..counter..Counter$LT$crossbeam_channel..flavors..zero..Channel$LT$rayon_core..log..Event$GT$$GT$$GT$17h63dac1f5c5964adbE, 3586
_ZN5alloc5alloc8box_free17h19c7cdc0a3a1eb7bE, 3587
_ZN4core3ptr6unique15Unique$LT$T$GT$6as_ref17hb13bba8fa124b66cE, 3588
_ZN4core3ptr6unique15Unique$LT$T$GT$4cast17h2950491754536ad0E, 3589
_ZN4core3ptr6unique15Unique$LT$T$GT$6as_ptr17haaba231b279f7b77E, 3590
_ZN4core3ptr92drop_in_place$LT$crossbeam_channel..flavors..zero..Channel$LT$rayon_core..log..Event$GT$$GT$17h19e4f037d45b0d7dE, 3591
_ZN4core3ptr102drop_in_place$LT$crossbeam_channel..utils..Spinlock$LT$crossbeam_channel..flavors..zero..Inner$GT$$GT$17hea837a57ea6db1a3E, 3592
_ZN4core3ptr90drop_in_place$LT$core..cell..UnsafeCell$LT$crossbeam_channel..flavors..zero..Inner$GT$$GT$17hee184b1b611f4d3bE, 3593
_ZN4core3ptr60drop_in_place$LT$crossbeam_channel..flavors..zero..Inner$GT$17h95fcf4ca31d627e6E, 3594
_ZN4core3ptr52drop_in_place$LT$crossbeam_channel..waker..Waker$GT$17h5b90f7071141223fE, 3595
_ZN73_$LT$crossbeam_channel..waker..Waker$u20$as$u20$core..ops..drop..Drop$GT$4drop17hf81ea984573e64d9E, 3596
_ZN4core3ptr75drop_in_place$LT$alloc..vec..Vec$LT$crossbeam_channel..waker..Entry$GT$$GT$17h8a19cf8c490c2631E, 3597
_ZN70_$LT$alloc..vec..Vec$LT$T$C$A$GT$$u20$as$u20$core..ops..drop..Drop$GT$4drop17hf03bc0694ba2d56cE, 3598
_ZN4core3ptr82drop_in_place$LT$alloc..raw_vec..RawVec$LT$crossbeam_channel..waker..Entry$GT$$GT$17h8a67fa58de319c16E, 3599
_ZN77_$LT$alloc..raw_vec..RawVec$LT$T$C$A$GT$$u20$as$u20$core..ops..drop..Drop$GT$4drop17h3d726f7fe635edcaE, 3600
_ZN4core3ptr62drop_in_place$LT$$u5b$crossbeam_channel..waker..Entry$u5d$$GT$17h70700666c6c48b21E, 3601
_ZN5alloc5boxed16Box$LT$T$C$A$GT$11from_raw_in17h87ed100561d22901E, 3602
_ZN4core3ptr6unique15Unique$LT$T$GT$13new_unchecked17hbe32b17bdbb2b73aE, 3603
_ZN17crossbeam_channel7flavors4zero16Channel$LT$T$GT$10disconnect17hc349da446681d2d5E, 3604
_ZN17crossbeam_channel5waker5Waker10disconnect17h4e0c04bda3c70476E, 3605
_ZN63_$LT$I$u20$as$u20$core..iter..traits..collect..IntoIterator$GT$9into_iter17ha15aa53c5a5f4603E, 3606
_ZN87_$LT$crossbeam_channel..channel..Receiver$LT$T$GT$$u20$as$u20$core..ops..drop..Drop$GT$4drop28_$u7b$$u7b$closure$u7d$$u7d$17h35f2a9d31e2d0ddeE, 3607
_ZN5alloc5boxed12Box$LT$T$GT$8from_raw17hfafe2c76dfea8786E, 3608
_ZN4core3mem4drop17h367dec55dd7dc55aE, 3609
_ZN4core3ptr160drop_in_place$LT$alloc..boxed..Box$LT$crossbeam_channel..counter..Counter$LT$crossbeam_channel..flavors..list..Channel$LT$rayon_core..log..Event$GT$$GT$$GT$$GT$17h9cccdf3776d86614E, 3610
_ZN4core3ptr135drop_in_place$LT$crossbeam_channel..counter..Counter$LT$crossbeam_channel..flavors..list..Channel$LT$rayon_core..log..Event$GT$$GT$$GT$17h08db34830818c50cE, 3611
_ZN5alloc5alloc8box_free17h5b6ccd3855fb62eaE, 3612
_ZN4core3ptr6unique15Unique$LT$T$GT$6as_ref17h3d936b3d8a67badfE, 3613
_ZN4core3ptr6unique15Unique$LT$T$GT$4cast17h5298d8a60b7ca185E, 3614
_ZN4core3ptr6unique15Unique$LT$T$GT$6as_ptr17h8b6d353012af056cE, 3615
_ZN4core3ptr92drop_in_place$LT$crossbeam_channel..flavors..list..Channel$LT$rayon_core..log..Event$GT$$GT$17hcf2c0d8e499d0b9aE, 3616
_ZN92_$LT$crossbeam_channel..flavors..list..Channel$LT$T$GT$$u20$as$u20$core..ops..drop..Drop$GT$4drop17h8a2786451ffe03c0E, 3617
_ZN4core3ptr56drop_in_place$LT$crossbeam_channel..waker..SyncWaker$GT$17h5895c0e89e247c20E, 3618
_ZN77_$LT$crossbeam_channel..waker..SyncWaker$u20$as$u20$core..ops..drop..Drop$GT$4drop17hd7161dd21bfe2f1dE, 3619
_ZN4core3ptr94drop_in_place$LT$crossbeam_channel..utils..Spinlock$LT$crossbeam_channel..waker..Waker$GT$$GT$17h62e15147f1858b44E, 3620
_ZN4core3ptr82drop_in_place$LT$core..cell..UnsafeCell$LT$crossbeam_channel..waker..Waker$GT$$GT$17h93790e87ef23c97eE, 3621
_ZN5alloc5boxed16Box$LT$T$C$A$GT$11from_raw_in17h73ede1d5d95f6fd6E, 3622
_ZN4core3ptr6unique15Unique$LT$T$GT$13new_unchecked17h1f2346e55d52b219E, 3623
_ZN17crossbeam_channel7flavors4list16Channel$LT$T$GT$20disconnect_receivers17hc3b47ae66ac9e47aE, 3624
_ZN17crossbeam_channel7flavors4list16Channel$LT$T$GT$20discard_all_messages17hdf555ea3fb0d0388E, 3625
_ZN87_$LT$crossbeam_channel..channel..Receiver$LT$T$GT$$u20$as$u20$core..ops..drop..Drop$GT$4drop28_$u7b$$u7b$closure$u7d$$u7d$17hea50d6f33b722808E, 3626
_ZN5alloc5boxed12Box$LT$T$GT$8from_raw17h747f9301a10a39f5E, 3627
_ZN4core3mem4drop17hac779c09fc84e9e7E, 3628
_ZN4core3ptr161drop_in_place$LT$alloc..boxed..Box$LT$crossbeam_channel..counter..Counter$LT$crossbeam_channel..flavors..array..Channel$LT$rayon_core..log..Event$GT$$GT$$GT$$GT$17hc980ca51e3d35ffaE, 3629
_ZN4core3ptr136drop_in_place$LT$crossbeam_channel..counter..Counter$LT$crossbeam_channel..flavors..array..Channel$LT$rayon_core..log..Event$GT$$GT$$GT$17h68faf0e83fe07e70E, 3630
_ZN5alloc5alloc8box_free17hf4fa35a03736f2a0E, 3631
_ZN4core3ptr6unique15Unique$LT$T$GT$6as_ref17he5857a8bac69b3e7E, 3632
_ZN4core3ptr6unique15Unique$LT$T$GT$4cast17hcfab574c52d5a47cE, 3633
_ZN4core3ptr6unique15Unique$LT$T$GT$6as_ptr17hafd1e91990dd4abbE, 3634
_ZN4core3ptr93drop_in_place$LT$crossbeam_channel..flavors..array..Channel$LT$rayon_core..log..Event$GT$$GT$17h7cfedaed696c0054E, 3635
_ZN93_$LT$crossbeam_channel..flavors..array..Channel$LT$T$GT$$u20$as$u20$core..ops..drop..Drop$GT$4drop17h1816b26fe4d807cdE, 3636
_ZN17crossbeam_channel7flavors5array16Channel$LT$T$GT$3len17h1eda769823497ba4E, 3637
_ZN4core5slice3raw18from_raw_parts_mut17h856ce2880157cfd8E, 3638
_ZN5alloc5boxed12Box$LT$T$GT$8from_raw17h848185c4e673c364E, 3639
_ZN4core3ptr125drop_in_place$LT$alloc..boxed..Box$LT$$u5b$crossbeam_channel..flavors..array..Slot$LT$rayon_core..log..Event$GT$$u5d$$GT$$GT$17h1fe64a349c15b2bfE, 3640
_ZN5alloc5alloc8box_free17hb8f7f5cfd0744f89E, 3641
_ZN4core3ptr6unique15Unique$LT$T$GT$6as_ref17h1212832ca30126c3E, 3642
_ZN4core3ptr6unique15Unique$LT$T$GT$4cast17h19260c58ef1bd4eeE, 3643
_ZN4core3ptr6unique15Unique$LT$T$GT$6as_ptr17h59aed09e41358121E, 3644
_ZN5alloc5boxed16Box$LT$T$C$A$GT$11from_raw_in17h262286ec43686a99E, 3645
_ZN4core3ptr6unique15Unique$LT$T$GT$13new_unchecked17h18b443e7fa24ce71E, 3646
_ZN4core3ptr24slice_from_raw_parts_mut17h5eab729e0afa8861E, 3647
_ZN4core3ptr8metadata18from_raw_parts_mut17hc75371ad3386170cE, 3648
_ZN5alloc5boxed16Box$LT$T$C$A$GT$11from_raw_in17ha61da9d35a6f3c16E, 3649
_ZN4core3ptr6unique15Unique$LT$T$GT$13new_unchecked17h89c716e27bfe64a7E, 3650
_ZN17crossbeam_channel7flavors5array16Channel$LT$T$GT$10disconnect17hdb2a699cfc1eaf73E, 3651
_ZN17crossbeam_channel5waker9SyncWaker10disconnect17h74329aba8e519b20E, 3652
_ZN17crossbeam_channel7channel17Receiver$LT$T$GT$4recv17h019d4d35aec5f060E, 3653
_ZN4core6result19Result$LT$T$C$E$GT$2ok17hc792a1e46d08f3d1E, 3654
_ZN4core6result19Result$LT$T$C$E$GT$7map_err17h95522bb2fc082545E, 3655
_ZN17crossbeam_channel7channel17Receiver$LT$T$GT$4recv28_$u7b$$u7b$closure$u7d$$u7d$17h727db2223fcf5e4bE, 3656
_ZN101_$LT$std..panic..AssertUnwindSafe$LT$F$GT$$u20$as$u20$core..ops..function..FnOnce$LT$$LP$$RP$$GT$$GT$9call_once17h8783512d6efdc80dE, 3657
_ZN3std6thread7Builder15spawn_unchecked28_$u7b$$u7b$closure$u7d$$u7d$28_$u7b$$u7b$closure$u7d$$u7d$17h94d7c9a383cd6dfdE, 3658
_ZN3std10sys_common9backtrace28__rust_begin_short_backtrace17h3ba87889c4c6642cE, 3659
_ZN10rayon_core3log6Logger3new28_$u7b$$u7b$closure$u7d$$u7d$17heaacc13e35295a8fE, 3660
_ZN10rayon_core3log6Logger18tail_logger_thread17h8fb3a7fb8a395bceE, 3661
_ZN4core6result19Result$LT$T$C$E$GT$14unwrap_or_else17h681d03ef7478b3c7E, 3662
_ZN5alloc11collections9vec_deque17VecDeque$LT$T$GT$13with_capacity17hf07b795eff454673E, 3663
_ZN5alloc11collections9vec_deque17VecDeque$LT$T$GT$5drain17h190a7c1da8511be2E, 3664
_ZN63_$LT$I$u20$as$u20$core..iter..traits..collect..IntoIterator$GT$9into_iter17hb00c2d347f45c385E, 3665
_ZN111_$LT$alloc..collections..vec_deque..drain..Drain$LT$T$GT$$u20$as$u20$core..iter..traits..iterator..Iterator$GT$4next17h813f8baada57c21fE, 3666
_ZN4core3ptr94drop_in_place$LT$alloc..collections..vec_deque..drain..Drain$LT$rayon_core..log..Event$GT$$GT$17h244e594d1243e2f3E, 3667
_ZN5alloc11collections9vec_deque17VecDeque$LT$T$GT$3len17hadbcd964f7b64678E, 3668
_ZN5alloc11collections9vec_deque17VecDeque$LT$T$GT$9pop_front17hcc4ef2d33498cafeE, 3669
_ZN5alloc11collections9vec_deque17VecDeque$LT$T$GT$9push_back17h96c55e5f882bb133E, 3670
_ZN5alloc11collections9vec_deque17VecDeque$LT$T$GT$7is_full17hae53fdab4f4db94aE, 3671
_ZN5alloc11collections9vec_deque17VecDeque$LT$T$GT$4grow17h56efe52d3208c3ecE, 3672
_ZN5alloc11collections9vec_deque17VecDeque$LT$T$GT$8wrap_add17hdfd64c8df36c11f7E, 3673
_ZN5alloc11collections9vec_deque17VecDeque$LT$T$GT$12buffer_write17hbda2e83e48117d9eE, 3674
_ZN5alloc11collections9vec_deque17VecDeque$LT$T$GT$3ptr17h68b08df309d9f167E, 3675
_ZN5alloc11collections9vec_deque17VecDeque$LT$T$GT$3cap17hfcd5501754aa0a26E, 3676
_ZN5alloc11collections9vec_deque10wrap_index17h3d5fa642fb1beb8fE, 3677
_ZN5alloc7raw_vec19RawVec$LT$T$C$A$GT$13reserve_exact17h7aac94443119f6b8E, 3678
_ZN5alloc11collections9vec_deque17VecDeque$LT$T$GT$24handle_capacity_increase17h1191a2cb3cc65fbbE, 3679
_ZN5alloc11collections9vec_deque17VecDeque$LT$T$GT$19copy_nonoverlapping17h81d1e6e45f4247deE, 3680
_ZN5alloc7raw_vec19RawVec$LT$T$C$A$GT$17try_reserve_exact17h1d2d459ac0c98559E, 3681
_ZN5alloc7raw_vec19RawVec$LT$T$C$A$GT$10grow_exact17hfd65dd558d4e6fe0E, 3682
_ZN5alloc11collections9vec_deque17VecDeque$LT$T$GT$8is_empty17h8c570f97e5e9709fE, 3683
_ZN5alloc11collections9vec_deque17VecDeque$LT$T$GT$11buffer_read17h39b647858e7c7b82E, 3684
_ZN5alloc11collections9vec_deque5count17h33ebb7d6d4498e20E, 3685
_ZN94_$LT$alloc..collections..vec_deque..drain..Drain$LT$T$GT$$u20$as$u20$core..ops..drop..Drop$GT$4drop17h8f30cbfced0f3f73E, 3686
_ZN4core3ptr161drop_in_place$LT$$LT$alloc..collections..vec_deque..drain..Drain$LT$T$GT$$u20$as$u20$core..ops..drop..Drop$GT$..drop..DropGuard$LT$rayon_core..log..Event$GT$$GT$17h4f9745e13c1f8590E, 3687
_ZN4core3mem6forget17habf3e4bf66277838E, 3688
_ZN161_$LT$$LT$alloc..collections..vec_deque..drain..Drain$LT$T$GT$$u20$as$u20$core..ops..drop..Drop$GT$..drop..DropGuard$LT$T$GT$$u20$as$u20$core..ops..drop..Drop$GT$4drop17h2262c209169b981aE, 3689
_ZN4core4iter6traits8iterator8Iterator8for_each17hb38aaf364d8a64c2E, 3690
_ZN4core3ptr8non_null16NonNull$LT$T$GT$6as_mut17h7d1166939bc4ececE, 3691
_ZN5alloc11collections9vec_deque17VecDeque$LT$T$GT$8wrap_sub17h662a1f3f83a772a3E, 3692
_ZN5alloc11collections9vec_deque17VecDeque$LT$T$GT$9wrap_copy17h200f775b3518c375E, 3693
_ZN5alloc11collections9vec_deque17VecDeque$LT$T$GT$4copy17hab45f411857e1118E, 3694
_ZN4core3ptr8non_null16NonNull$LT$T$GT$6as_ptr17hcad22822c0a8e88cE, 3695
_ZN4core4iter6traits8iterator8Iterator4fold17h90349e9c691374d8E, 3696
_ZN72_$LT$$RF$mut$u20$I$u20$as$u20$core..iter..traits..iterator..Iterator$GT$4next17hd9b0ac6cae4e37d6E, 3697
_ZN109_$LT$alloc..collections..vec_deque..iter..Iter$LT$T$GT$$u20$as$u20$core..iter..traits..iterator..Iterator$GT$4next17h50f14a9ef4e06db5E, 3698
_ZN4core6option15Option$LT$T$GT$3map17h3ecf442439b3c775E, 3699
_ZN111_$LT$alloc..collections..vec_deque..drain..Drain$LT$T$GT$$u20$as$u20$core..iter..traits..iterator..Iterator$GT$4next28_$u7b$$u7b$closure$u7d$$u7d$17he3b69b5a7887252dE, 3700
_ZN4core5slice29_$LT$impl$u20$$u5b$T$u5d$$GT$13get_unchecked17h4c78084eab1436fbE, 3701
_ZN75_$LT$usize$u20$as$u20$core..slice..index..SliceIndex$LT$$u5b$T$u5d$$GT$$GT$13get_unchecked17h02951c64fe34da7cE, 3702
_ZN4core3ptr9const_ptr43_$LT$impl$u20$$BP$const$u20$$u5b$T$u5d$$GT$6as_ptr17h8dfdfe446863f766E, 3703
_ZN5alloc11collections9vec_deque17VecDeque$LT$T$GT$15range_tail_head17h5d910405e9592b54E, 3704
_ZN98_$LT$core..ptr..non_null..NonNull$LT$T$GT$$u20$as$u20$core..convert..From$LT$$RF$mut$u20$T$GT$$GT$4from17h636fc04d90af635cE, 3705
_ZN5alloc11collections9vec_deque17VecDeque$LT$T$GT$15buffer_as_slice17h342fa679ca55c652E, 3706
_ZN4core5slice3raw14from_raw_parts17ha254961702a20812E, 3707
_ZN4core3ptr20slice_from_raw_parts17h31c9f8e7ace4be38E, 3708
_ZN4core3ptr9const_ptr33_$LT$impl$u20$$BP$const$u20$T$GT$4cast17h1d8278e18195353bE, 3709
_ZN4core3ptr8metadata14from_raw_parts17h769d819a37c8f860E, 3710
_ZN4core3num23_$LT$impl$u20$usize$GT$17next_power_of_two17h096202e6f2c7df1aE, 3711
_ZN5alloc7raw_vec15RawVec$LT$T$GT$13with_capacity17hc3f6b30a2b17a98cE, 3712
_ZN4core3num23_$LT$impl$u20$usize$GT$31one_less_than_next_power_of_two17h8d925626b7ea2e3dE, 3713
_ZN10rayon_core3log6Logger18tail_logger_thread28_$u7b$$u7b$closure$u7d$$u7d$17hf7b94fb84587d2acE, 3714
_ZN101_$LT$std..panic..AssertUnwindSafe$LT$F$GT$$u20$as$u20$core..ops..function..FnOnce$LT$$LP$$RP$$GT$$GT$9call_once17hc410ba026c0317e3E, 3715
_ZN10rayon_core8registry9main_loop28_$u7b$$u7b$closure$u7d$$u7d$17h75794eb61abb5d81E, 3716
_ZN101_$LT$std..panic..AssertUnwindSafe$LT$F$GT$$u20$as$u20$core..ops..function..FnOnce$LT$$LP$$RP$$GT$$GT$9call_once17hdb519908fccc98e1E, 3717
_ZN3std6thread7Builder15spawn_unchecked28_$u7b$$u7b$closure$u7d$$u7d$28_$u7b$$u7b$closure$u7d$$u7d$17h9e21ce6704e4b7fcE, 3718
_ZN3std10sys_common9backtrace28__rust_begin_short_backtrace17h320d43097b10a6a3E, 3719
_ZN88_$LT$rayon_core..registry..DefaultSpawn$u20$as$u20$rayon_core..registry..ThreadSpawn$GT$5spawn28_$u7b$$u7b$closure$u7d$$u7d$17h67abbc3f251f0cdbE, 3720
_ZN10rayon_core8registry13ThreadBuilder3run17h6d1492cb46c2764cE, 3721
_ZN10rayon_core8registry9main_loop17hf2062b10abca352aE, 3722
_ZN4core3ptr70drop_in_place$LT$core..option..Option$LT$alloc..string..String$GT$$GT$17hf8be14fd207226c2E, 3723
_ZN10rayon_core3job7JobFifo3new17hd2969a7116bfc388E, 3724
_ZN10rayon_core8registry14XorShift64Star3new17heb18258b29a2d6c5E, 3725
_ZN64_$LT$alloc..sync..Arc$LT$T$GT$$u20$as$u20$core..clone..Clone$GT$5clone17h9e9fc2c38e88d725E, 3726
_ZN10rayon_core8registry12WorkerThread11set_current17h2d51faa9909ed800E, 3727
_ZN69_$LT$alloc..sync..Arc$LT$T$GT$$u20$as$u20$core..ops..deref..Deref$GT$5deref17h0884457a857b5a5aE, 3728
_ZN81_$LT$alloc..vec..Vec$LT$T$C$A$GT$$u20$as$u20$core..ops..index..Index$LT$I$GT$$GT$5index17h99671be6fcd001d0E, 3729
_ZN73_$LT$rayon_core..latch..LockLatch$u20$as$u20$rayon_core..latch..Latch$GT$3set17h6cd2804dcf1771cdE, 3730
_ZN10rayon_core6unwind14halt_unwinding17h1efb4eae1da3d432E, 3731
_ZN10rayon_core8registry8Registry12handle_panic17hdbb56ac6f440a79cE, 3732
_ZN4core3ptr75drop_in_place$LT$alloc..sync..Arc$LT$rayon_core..registry..Registry$GT$$GT$17hb7f7fb3f0ef0dd3eE, 3733
_ZN10rayon_core8registry12WorkerThread3log17h03dc7023fe1cda4cE, 3734
_ZN10rayon_core8registry12WorkerThread10wait_until17h776a9f3aad6110d1E, 3735
_ZN10rayon_core8registry12WorkerThread14take_local_job17hc4e49e0e3b8c4d16E, 3736
_ZN4core6option15Option$LT$T$GT$7is_none17h1076c3c7353622efE, 3737
_ZN4core3mem6forget17hcd86f90bad69ab02E, 3738
_ZN10rayon_core8registry12WorkerThread3log17hea488eab106f78bcE, 3739
_ZN4core3ptr55drop_in_place$LT$rayon_core..registry..WorkerThread$GT$17h3ba8f1a9c6f00257E, 3740
_ZN10rayon_core6unwind14halt_unwinding17h6fa7d10c1c8736deE, 3741
_ZN3std5panic12catch_unwind17h0c36b0e76e29a836E, 3742
_ZN3std9panicking3try17hbfc0b455a3dabe14E, 3743
_ZN3std9panicking3try7do_call17h7cfc62fa6074be25E, 3744
_ZN4core3mem13manually_drop21ManuallyDrop$LT$T$GT$4take17hf51a2dfa96971ef4E, 3745
_ZN4core3ptr4read17hef599a75f7fec29fE, 3746
_ZN4core10intrinsics19copy_nonoverlapping17ha2d5f970233418c9E, 3747
_ZN76_$LT$rayon_core..registry..WorkerThread$u20$as$u20$core..ops..drop..Drop$GT$4drop17h07309737f49a1c91E, 3748
_ZN4core3ptr82drop_in_place$LT$crossbeam_deque..deque..Worker$LT$rayon_core..job..JobRef$GT$$GT$17h0a4bde8bfae4810dE, 3749
_ZN4core3ptr45drop_in_place$LT$rayon_core..job..JobFifo$GT$17h5fe1cfb2bdf4b812E, 3750
_ZN4core3ptr84drop_in_place$LT$crossbeam_deque..deque..Injector$LT$rayon_core..job..JobRef$GT$$GT$17hce7ee3e2816a4fb8E, 3751
_ZN83_$LT$crossbeam_deque..deque..Injector$LT$T$GT$$u20$as$u20$core..ops..drop..Drop$GT$4drop17hf37e41ab169925c2E, 3752
_ZN95_$LT$crossbeam_utils..cache_padded..CachePadded$LT$T$GT$$u20$as$u20$core..ops..deref..Deref$GT$5deref17hb7ed77086ce55286E, 3753
_ZN4core4sync6atomic18AtomicPtr$LT$T$GT$4load17h28e094ae9952d944E, 3754
_ZN5alloc5boxed12Box$LT$T$GT$8from_raw17hdaa3036f25f58498E, 3755
_ZN4core5slice29_$LT$impl$u20$$u5b$T$u5d$$GT$13get_unchecked17h66737361224724c0E, 3756
_ZN4core3mem4drop17h01d73bb1b83cc42fE, 3757
_ZN4core3ptr106drop_in_place$LT$alloc..boxed..Box$LT$crossbeam_deque..deque..Block$LT$rayon_core..job..JobRef$GT$$GT$$GT$17h68143d9eaa8e24adE, 3758
_ZN5alloc5alloc8box_free17hbcdd301a3bd18bcfE, 3759
_ZN4core3ptr6unique15Unique$LT$T$GT$6as_ref17h57c16b465f324bf3E, 3760
_ZN4core3ptr6unique15Unique$LT$T$GT$4cast17hda79af613147115fE, 3761
_ZN4core3ptr6unique15Unique$LT$T$GT$6as_ptr17h7af8727b5dd01f05E, 3762
_ZN75_$LT$usize$u20$as$u20$core..slice..index..SliceIndex$LT$$u5b$T$u5d$$GT$$GT$13get_unchecked17hef501310dc42399bE, 3763
_ZN4core3ptr9const_ptr43_$LT$impl$u20$$BP$const$u20$$u5b$T$u5d$$GT$6as_ptr17h803c5a6c868374c4E, 3764
_ZN5alloc5boxed16Box$LT$T$C$A$GT$11from_raw_in17hdd88ae38fa3e4e40E, 3765
_ZN4core3ptr6unique15Unique$LT$T$GT$13new_unchecked17hae7d62c62f03381cE, 3766
_ZN4core4sync6atomic11atomic_load17h9797d434ddabe8cdE, 3767
_ZN4core3ptr155drop_in_place$LT$alloc..sync..Arc$LT$crossbeam_utils..cache_padded..CachePadded$LT$crossbeam_deque..deque..Inner$LT$rayon_core..job..JobRef$GT$$GT$$GT$$GT$17h143f5ed6c9c42dd4E, 3768
_ZN67_$LT$alloc..sync..Arc$LT$T$GT$$u20$as$u20$core..ops..drop..Drop$GT$4drop17ha16f61ae3b9eaef5E, 3769
_ZN5alloc4sync12Arc$LT$T$GT$5inner17hfc26319343d2cd48E, 3770
_ZN5alloc4sync12Arc$LT$T$GT$9drop_slow17h4d32de70db0cbf4aE, 3771
_ZN5alloc4sync12Arc$LT$T$GT$17get_mut_unchecked17h2129cd67b5d44a95E, 3772
_ZN4core3ptr131drop_in_place$LT$crossbeam_utils..cache_padded..CachePadded$LT$crossbeam_deque..deque..Inner$LT$rayon_core..job..JobRef$GT$$GT$$GT$17h0632a98384ad2429E, 3773
_ZN4core3mem4drop17h902389fae982bddeE, 3774
_ZN4core3ptr156drop_in_place$LT$alloc..sync..Weak$LT$crossbeam_utils..cache_padded..CachePadded$LT$crossbeam_deque..deque..Inner$LT$rayon_core..job..JobRef$GT$$GT$$GT$$GT$17h11f92f15057364faE, 3775
_ZN68_$LT$alloc..sync..Weak$LT$T$GT$$u20$as$u20$core..ops..drop..Drop$GT$4drop17h8c78648bb9f9d643E, 3776
_ZN5alloc4sync13Weak$LT$T$GT$5inner17hc5c532d234a60cceE, 3777
_ZN4core3ptr8non_null16NonNull$LT$T$GT$4cast17hb5873a9f930958c7E, 3778
_ZN4core3ptr8non_null16NonNull$LT$T$GT$6as_ptr17h60cae478de3aabbbE, 3779
_ZN4core5alloc6layout6Layout13for_value_raw17he9392b091b59578bE, 3780
_ZN4core3mem15size_of_val_raw17h9cf389d74eb10ef3E, 3781
_ZN4core3mem16align_of_val_raw17h2e54ece9894040c9E, 3782
_ZN5alloc2rc11is_dangling17h15c381cd45c3ee65E, 3783
_ZN4core3ptr81drop_in_place$LT$crossbeam_deque..deque..Inner$LT$rayon_core..job..JobRef$GT$$GT$17h75a5e3d637d6b2d8E, 3784
_ZN80_$LT$crossbeam_deque..deque..Inner$LT$T$GT$$u20$as$u20$core..ops..drop..Drop$GT$4drop17h9af220c041aa3d41E, 3785
_ZN4core4sync6atomic11AtomicIsize4load17hfff55a64c9f13c7dE, 3786
_ZN95_$LT$crossbeam_utils..cache_padded..CachePadded$LT$T$GT$$u20$as$u20$core..ops..deref..Deref$GT$5deref17he4ed71cc702a15dcE, 3787
_ZN15crossbeam_epoch5guard11unprotected17h179b4fd782c87f03E, 3788
_ZN15crossbeam_epoch6atomic15Atomic$LT$T$GT$4load17h987091e8ef5e259bE, 3789
_ZN15crossbeam_epoch6atomic15Shared$LT$T$GT$10into_owned17hf3359966b0886d4cE, 3790
_ZN15crossbeam_epoch6atomic15Shared$LT$T$GT$5deref17h6e4dc241c30daf72E, 3791
_ZN15crossbeam_deque5deque15Buffer$LT$T$GT$2at17hf27b3d314da26a08E, 3792
_ZN15crossbeam_epoch6atomic14Owned$LT$T$GT$8into_box17h73c8cf30d295f78fE, 3793
_ZN15crossbeam_deque5deque15Buffer$LT$T$GT$7dealloc17h0862f4a015a054b0E, 3794
_ZN4core3ptr107drop_in_place$LT$alloc..boxed..Box$LT$crossbeam_deque..deque..Buffer$LT$rayon_core..job..JobRef$GT$$GT$$GT$17hdd7eebef2ad6660fE, 3795
_ZN5alloc5alloc8box_free17hdf3cee5ebd9c678cE, 3796
_ZN4core3ptr6unique15Unique$LT$T$GT$6as_ref17hb52cf59894561cbfE, 3797
_ZN4core3ptr6unique15Unique$LT$T$GT$4cast17h7ac4677bf607c6b8E, 3798
_ZN4core3ptr6unique15Unique$LT$T$GT$6as_ptr17he0301f12a2cd9e05E, 3799
_ZN5alloc3vec12Vec$LT$T$GT$14from_raw_parts17h3e5d2412af60db0eE, 3800
_ZN4core3mem4drop17h7a559df4fee63ebbE, 3801
_ZN4core3ptr67drop_in_place$LT$alloc..vec..Vec$LT$rayon_core..job..JobRef$GT$$GT$17h901f07580ea1506cE, 3802
_ZN70_$LT$alloc..vec..Vec$LT$T$C$A$GT$$u20$as$u20$core..ops..drop..Drop$GT$4drop17h8c261879962cd018E, 3803
_ZN4core3ptr74drop_in_place$LT$alloc..raw_vec..RawVec$LT$rayon_core..job..JobRef$GT$$GT$17hda7930dea516ac88E, 3804
_ZN77_$LT$alloc..raw_vec..RawVec$LT$T$C$A$GT$$u20$as$u20$core..ops..drop..Drop$GT$4drop17hf820cc62985572abE, 3805
_ZN5alloc7raw_vec19RawVec$LT$T$C$A$GT$14current_memory17haed48c60dfd07d36E, 3806
_ZN4core3ptr6unique15Unique$LT$T$GT$4cast17hcd934d7056317113E, 3807
_ZN4core3ptr6unique15Unique$LT$T$GT$6as_ptr17h1198f7bcdfe59fd6E, 3808
_ZN5alloc3vec16Vec$LT$T$C$A$GT$10as_mut_ptr17h81648a37b4812750E, 3809
_ZN4core3ptr24slice_from_raw_parts_mut17h0a39c871d1a59f83E, 3810
_ZN4core3ptr8metadata18from_raw_parts_mut17h1790a525624d5284E, 3811
_ZN5alloc7raw_vec19RawVec$LT$T$C$A$GT$3ptr17h25e590e7b3f821b7E, 3812
_ZN4core3ptr7mut_ptr31_$LT$impl$u20$$BP$mut$u20$T$GT$7is_null17h6f186a828d04fd6eE, 3813
_ZN5alloc3vec16Vec$LT$T$C$A$GT$17from_raw_parts_in17h26f297addc17dbecE, 3814
_ZN5alloc7raw_vec19RawVec$LT$T$C$A$GT$17from_raw_parts_in17hf768492604a77efbE, 3815
_ZN4core3ptr6unique15Unique$LT$T$GT$13new_unchecked17h408d3e92530bc0f1E, 3816
_ZN15crossbeam_epoch6atomic13decompose_tag17h4c00bfcb89a7aa7fE, 3817
_ZN5alloc5boxed12Box$LT$T$GT$8from_raw17h5f236b8fd1670540E, 3818
_ZN5alloc5boxed16Box$LT$T$C$A$GT$11from_raw_in17hf47383f7458fc7e6E, 3819
_ZN4core3ptr6unique15Unique$LT$T$GT$13new_unchecked17hfd5e14b7b7e79cb7E, 3820
_ZN15crossbeam_epoch6atomic8low_bits17h3579c237fd6a74c7E, 3821
_ZN56_$LT$T$u20$as$u20$crossbeam_epoch..atomic..Pointable$GT$5deref17h9c73f3ff3d9229bcE, 3822
_ZN15crossbeam_epoch6atomic15Shared$LT$T$GT$7is_null17hd97b1f5d767b6797E, 3823
_ZN102_$LT$crossbeam_epoch..atomic..Shared$LT$T$GT$$u20$as$u20$crossbeam_epoch..atomic..Pointer$LT$T$GT$$GT$10from_usize17hd3efe7af4fbecf87E, 3824
_ZN4core4sync6atomic11atomic_load17h3ad95fe5d22d045eE, 3825
_ZN4core3ptr8non_null16NonNull$LT$T$GT$6as_ref17he0d217eee1c70f20E, 3826
_ZN3std6thread5local17LocalKey$LT$T$GT$4with17ha8749938ca83a720E, 3827
_ZN3std6thread5local17LocalKey$LT$T$GT$8try_with17hb0b2a6f1b1d5683fE, 3828
_ZN4core6result19Result$LT$T$C$E$GT$6expect17h8d425cd83ebabd91E, 3829
_ZN4core3ptr52drop_in_place$LT$std..thread..local..AccessError$GT$17hfdddac41e8cd29c7E, 3830
_ZN4core6option15Option$LT$T$GT$5ok_or17h54165c3e08c0d409E, 3831
_ZN79_$LT$core..result..Result$LT$T$C$E$GT$$u20$as$u20$core..ops..try_trait..Try$GT$6branch17h7854b1b9c663be1aE, 3832
_ZN76_$LT$rayon_core..registry..WorkerThread$u20$as$u20$core..ops..drop..Drop$GT$4drop28_$u7b$$u7b$closure$u7d$$u7d$17hb84bb584a805a7e1E, 3833
_ZN4core4cell13Cell$LT$T$GT$3get17h93cba0e05086d43bE, 3834
_ZN4core3ptr9const_ptr66_$LT$impl$u20$core..cmp..PartialEq$u20$for$u20$$BP$const$u20$T$GT$2eq17hff019efc417d70edE, 3835
_ZN4core4cell13Cell$LT$T$GT$3set17he610ca3bdf780377E, 3836
_ZN4core4cell13Cell$LT$T$GT$7replace17h303580f774a55660E, 3837
_ZN4core3mem4drop17h2841ebc35572b388E, 3838
_ZN4core3mem7replace17hac318c6db2f38d23E, 3839
_ZN4core3ptr4read17hbdf5ec287a5096d7E, 3840
_ZN4core3ptr5write17h6acaab7bfaa30e4fE, 3841
_ZN4core10intrinsics19copy_nonoverlapping17hde4f5cda3e46f472E, 3842
_ZN10rayon_core8registry19WORKER_THREAD_STATE7__getit17h16d46317654c6cbcE, 3843
_ZN10rayon_core8registry19WORKER_THREAD_STATE6__init17h95b433aa838e78e9E, 3844
_ZN3std6thread5local6statik12Key$LT$T$GT$3get17hc8d46abfbf0674b6E, 3845
_ZN3std6thread5local4lazy21LazyKeyInner$LT$T$GT$3get17h635d24f984e3bdeeE, 3846
_ZN3std6thread5local4lazy21LazyKeyInner$LT$T$GT$10initialize17he8f8454ec172fd7aE, 3847
_ZN4core3ops8function6FnOnce9call_once17h2d8680dc4780395cE, 3848
_ZN4core3mem7replace17h1bb2dd8a935f5be2E, 3849
_ZN4core4hint21unreachable_unchecked17h35aadd8ce8a1ebf6E, 3850
_ZN4core3ptr4read17h7d3d4ed3ba1c721fE, 3851
_ZN4core3ptr5write17h45f70f96977dab7bE, 3852
_ZN4core10intrinsics19copy_nonoverlapping17hfa108d34baa3c2b5E, 3853
_ZN4core6option15Option$LT$T$GT$6as_ref17hece88644ca1582b2E, 3854
_ZN4core4cell13Cell$LT$T$GT$3new17hd70d7724ac246f94E, 3855
_ZN10rayon_core3log6Logger3log17h779c56cecf02f5d4E, 3856
_ZN10rayon_core8registry9main_loop28_$u7b$$u7b$closure$u7d$$u7d$17h3a4af50a0a933e76E, 3857
_ZN17crossbeam_channel7channel15Sender$LT$T$GT$4send17h590eddb6166e5b88E, 3858
_ZN4core6result19Result$LT$T$C$E$GT$6unwrap17hd48d43eaeefce3aeE, 3859
_ZN4core3ptr84drop_in_place$LT$crossbeam_channel..err..SendError$LT$rayon_core..log..Event$GT$$GT$17h54878f5639fb6c53E, 3860
_ZN79_$LT$crossbeam_channel..err..SendError$LT$T$GT$$u20$as$u20$core..fmt..Debug$GT$3fmt17h11635a98dce5d8c2E, 3861
_ZN87_$LT$crossbeam_channel..counter..Sender$LT$C$GT$$u20$as$u20$core..ops..deref..Deref$GT$5deref17hafbb4697dc9df6f8E, 3862
_ZN87_$LT$crossbeam_channel..counter..Sender$LT$C$GT$$u20$as$u20$core..ops..deref..Deref$GT$5deref17he177ef2fb0306502E, 3863
_ZN87_$LT$crossbeam_channel..counter..Sender$LT$C$GT$$u20$as$u20$core..ops..deref..Deref$GT$5deref17hffa140dd4822f862E, 3864
_ZN17crossbeam_channel7flavors4zero16Channel$LT$T$GT$4send17h14c998e371c16131E, 3865
_ZN4core6result19Result$LT$T$C$E$GT$7map_err17hd414c754f8e916edE, 3866
_ZN17crossbeam_channel7flavors4list16Channel$LT$T$GT$4send17h46b3add8c16e045fE, 3867
_ZN17crossbeam_channel7flavors5array16Channel$LT$T$GT$4send17h322feb0f79c3b006E, 3868
_ZN17crossbeam_channel7flavors5array16Channel$LT$T$GT$10start_send17h41623de3df393647E, 3869
_ZN17crossbeam_channel7flavors5array16Channel$LT$T$GT$5write17hced835d95771af59E, 3870
_ZN4core6result19Result$LT$T$C$E$GT$7map_err17hf8aa83808c05c271E, 3871
_ZN17crossbeam_channel7context7Context4with17hafe7626fa81411f9E, 3872
_ZN3std6thread5local17LocalKey$LT$T$GT$8try_with17h8ddb0cb20b102601E, 3873
_ZN4core6result19Result$LT$T$C$E$GT$14unwrap_or_else17h912528b440a78b26E, 3874
_ZN17crossbeam_channel7context7Context4with28_$u7b$$u7b$closure$u7d$$u7d$17h4414a4660d4278f8E, 3875
_ZN17crossbeam_channel7context7Context4with28_$u7b$$u7b$closure$u7d$$u7d$17h7fea2f5a13de81a6E, 3876
_ZN4core6option15Option$LT$T$GT$4take17h5d97079225214883E, 3877
_ZN4core6option15Option$LT$T$GT$6unwrap17hae2d792c00002affE, 3878
_ZN17crossbeam_channel7flavors5array16Channel$LT$T$GT$4send28_$u7b$$u7b$closure$u7d$$u7d$17h2440247be6532970E, 3879
_ZN17crossbeam_channel7flavors5array16Channel$LT$T$GT$7is_full17hfa1913ff938108c4E, 3880
_ZN4core3mem4take17h2215306568876a7dE, 3881
_ZN72_$LT$core..option..Option$LT$T$GT$$u20$as$u20$core..default..Default$GT$7default17he10cacdbaf1d563bE, 3882
_ZN4core3mem7replace17h97be2f6f50d92212E, 3883
_ZN4core3ptr4read17h350174ff7478c01bE, 3884
_ZN4core3ptr5write17hfa626a7051d19e89E, 3885
_ZN4core10intrinsics19copy_nonoverlapping17h94c58062bd893200E, 3886
_ZN17crossbeam_channel7context7Context4with28_$u7b$$u7b$closure$u7d$$u7d$17h49798ca94d217fa5E, 3887
_ZN4core3ops8function6FnOnce9call_once17h533922c25b3ecb9eE, 3888
_ZN17crossbeam_channel3err16SendTimeoutError12Disconnected17h8f4f48f57747d01aE, 3889
_ZN4core3ptr5write17hf2adc29715a88b32E, 3890
_ZN17crossbeam_channel7flavors4list16Channel$LT$T$GT$10start_send17h91d7d2ca0b67aa46E, 3891
_ZN17crossbeam_channel7flavors4list16Channel$LT$T$GT$5write17hcea9f68ff7223232E, 3892
_ZN4core6option15Option$LT$T$GT$7is_none17hcc55b2f5ea2d18b1E, 3893
_ZN17crossbeam_channel7flavors4list14Block$LT$T$GT$3new17h2c6e5c6839f88398E, 3894
_ZN5alloc5alloc15exchange_malloc17h19955aba7466f84eE, 3895
_ZN4core3ptr143drop_in_place$LT$core..option..Option$LT$alloc..boxed..Box$LT$crossbeam_channel..flavors..list..Block$LT$rayon_core..log..Event$GT$$GT$$GT$$GT$17ha431b91e73cdcfacE, 3896
_ZN5alloc5boxed16Box$LT$T$C$A$GT$8into_raw17hda552896bd37e6e3E, 3897
_ZN4core4sync6atomic18AtomicPtr$LT$T$GT$16compare_exchange17h2979a923757cdaf7E, 3898
_ZN4core6result19Result$LT$T$C$E$GT$5is_ok17h57da10d9539c6357E, 3899
_ZN4core6option15Option$LT$T$GT$6unwrap17h5b27221bd29b6d29E, 3900
_ZN4core4sync6atomic23atomic_compare_exchange17hbf96bf939a44938bE, 3901
_ZN5alloc5boxed16Box$LT$T$C$A$GT$23into_raw_with_allocator17h3b4e70bed3b17724E, 3902
_ZN5alloc5boxed16Box$LT$T$C$A$GT$11into_unique17hf3e134cb8806fee8E, 3903
_ZN5alloc5boxed16Box$LT$T$C$A$GT$4leak17ha1b6e1d85aa1f1d5E, 3904
_ZN95_$LT$core..ptr..unique..Unique$LT$T$GT$$u20$as$u20$core..convert..From$LT$$RF$mut$u20$T$GT$$GT$4from17h55d89e64aab9119cE, 3905
_ZN4core3mem12maybe_uninit20MaybeUninit$LT$T$GT$6zeroed17hb85e9065d5a2a4f4E, 3906
_ZN4core10intrinsics11write_bytes17hc46e0d843b4439f8E, 3907
_ZN4core6option15Option$LT$T$GT$7is_some17h4aa427235468132aE, 3908
_ZN17crossbeam_channel7channel15Sender$LT$T$GT$4send28_$u7b$$u7b$closure$u7d$$u7d$17h66d8714550432023E, 3909
_ZN17crossbeam_channel7context7Context4with17hc2eebc50c37bc3ddE, 3910
_ZN17crossbeam_channel7flavors4zero16Channel$LT$T$GT$5write17h0a7328ae8f7216a8E, 3911
_ZN4core6result19Result$LT$T$C$E$GT$2ok17h39a15c5667fdec7cE, 3912
_ZN4core6option15Option$LT$T$GT$6unwrap17h48b4d8de6a54ce4eE, 3913
_ZN3std6thread5local17LocalKey$LT$T$GT$8try_with17hee4765fbc89bb1ebE, 3914
_ZN4core6result19Result$LT$T$C$E$GT$14unwrap_or_else17hf6e5b282389e429eE, 3915
_ZN4core3ptr317drop_in_place$LT$crossbeam_channel..context..Context..with$LT$crossbeam_channel..flavors..zero..Channel$LT$rayon_core..log..Event$GT$..send..$u7b$$u7b$closure$u7d$$u7d$$C$core..result..Result$LT$$LP$$RP$$C$crossbeam_channel..err..SendTimeoutError$LT$rayon_core..log..Event$GT$$GT$$GT$..$u7b$$u7b$closure$u7d$$u7d$$GT$17h534c298e66a14effE, 3916
_ZN4core3ptr155drop_in_place$LT$core..option..Option$LT$crossbeam_channel..flavors..zero..Channel$LT$rayon_core..log..Event$GT$..send..$u7b$$u7b$closure$u7d$$u7d$$GT$$GT$17h4805391b7ddf8ecbE, 3917
_ZN4core3ptr127drop_in_place$LT$crossbeam_channel..flavors..zero..Channel$LT$rayon_core..log..Event$GT$..send..$u7b$$u7b$closure$u7d$$u7d$$GT$17h511a209ca3086807E, 3918
_ZN17crossbeam_channel7context7Context4with28_$u7b$$u7b$closure$u7d$$u7d$17h6336942ebf57bd11E, 3919
_ZN17crossbeam_channel7context7Context4with28_$u7b$$u7b$closure$u7d$$u7d$17h4718a9112ef9a53eE, 3920
_ZN4core6option15Option$LT$T$GT$4take17h976af40483e42be1E, 3921
_ZN4core6option15Option$LT$T$GT$6unwrap17h2a06f2784a3c23cbE, 3922
_ZN17crossbeam_channel7flavors4zero16Channel$LT$T$GT$4send28_$u7b$$u7b$closure$u7d$$u7d$17h2fcd141b12744211E, 3923
_ZN17crossbeam_channel7flavors4zero15Packet$LT$T$GT$16message_on_stack17h0ca7100a742a0b4dE, 3924
_ZN4core3mem4take17h2fa9b64c23c8dc01E, 3925
_ZN72_$LT$core..option..Option$LT$T$GT$$u20$as$u20$core..default..Default$GT$7default17h9f07cec5f4f31c4fE, 3926
_ZN4core3mem7replace17h127d3231b9aeb857E, 3927
_ZN4core3ptr4read17h80af6cbbb9157539E, 3928
_ZN4core3ptr5write17hdb1b04634c9bc266E, 3929
_ZN4core10intrinsics19copy_nonoverlapping17h023282efdd635294E, 3930
_ZN17crossbeam_channel7context7Context4with28_$u7b$$u7b$closure$u7d$$u7d$17h4112c82798803e2dE, 3931
_ZN153_$LT$core..result..Result$LT$T$C$F$GT$$u20$as$u20$core..ops..try_trait..FromResidual$LT$core..result..Result$LT$core..convert..Infallible$C$E$GT$$GT$$GT$13from_residual17h629af064ca43712eE, 3932
_ZN17crossbeam_channel7counter15Sender$LT$C$GT$7counter17h6bf3c5ff7b21b1d4E, 3933
_ZN17crossbeam_channel7counter15Sender$LT$C$GT$7counter17hffe6e6e4ec89b037E, 3934
_ZN17crossbeam_channel7counter15Sender$LT$C$GT$7counter17hdbb4b3b36f19700dE, 3935
_ZN4core6option15Option$LT$T$GT$7is_some17h111b6b4ccd16706eE, 3936
_ZN15crossbeam_deque5deque15Worker$LT$T$GT$3pop17h6a9825a1d4b4c3f6E, 3937
_ZN10rayon_core8registry12WorkerThread3log17hc36ba2e81dc001c8E, 3938
_ZN10rayon_core3log6Logger3log17h1791bf41fb56e348E, 3939
_ZN10rayon_core8registry12WorkerThread14take_local_job28_$u7b$$u7b$closure$u7d$$u7d$17h5f82153734db1eacE, 3940
_ZN69_$LT$alloc..sync..Arc$LT$T$GT$$u20$as$u20$core..ops..deref..Deref$GT$5deref17h174d1f783aaeb7efE, 3941
_ZN95_$LT$crossbeam_utils..cache_padded..CachePadded$LT$T$GT$$u20$as$u20$core..ops..deref..Deref$GT$5deref17hfd29bcfd16a23357E, 3942
_ZN4core4sync6atomic11AtomicIsize5store17he956a185f401e209E, 3943
_ZN4core4cell13Cell$LT$T$GT$3get17h163ffe1e23f5311cE, 3944
_ZN15crossbeam_deque5deque15Buffer$LT$T$GT$4read17h97551f2f10f2247fE, 3945
_ZN15crossbeam_deque5deque15Worker$LT$T$GT$6resize17hb2808d76b2ca29a2E, 3946
_ZN4core4sync6atomic11AtomicIsize16compare_exchange17h8bc5610e9236ad5cE, 3947
_ZN4core6result19Result$LT$T$C$E$GT$6is_err17h9142960ca3b08db1E, 3948
_ZN4core6option15Option$LT$T$GT$4take17h893c6ef825c1dbaaE, 3949
_ZN4core3mem6forget17h96dab4c5f03a1bd5E, 3950
_ZN4core4sync6atomic11AtomicIsize9fetch_add17h96350b112c694c84E, 3951
_ZN4core4sync6atomic10atomic_add17h1cb78954d95b1450E, 3952
_ZN4core3mem4take17hce9981d7d7dfdf0eE, 3953
_ZN72_$LT$core..option..Option$LT$T$GT$$u20$as$u20$core..default..Default$GT$7default17h6e19f10d1692b0bcE, 3954
_ZN4core3mem7replace17hac1fba4e2d14cf4bE, 3955
_ZN4core3ptr4read17h101199fa02f29debE, 3956
_ZN4core3ptr5write17he1c9a76c4290d998E, 3957
_ZN4core10intrinsics19copy_nonoverlapping17h1ec5d3322e61994cE, 3958
_ZN4core6result19Result$LT$T$C$E$GT$5is_ok17hb27d15a02be92340E, 3959
_ZN4core4sync6atomic23atomic_compare_exchange17h7afd3e6a0ea8b4edE, 3960
_ZN15crossbeam_deque5deque15Buffer$LT$T$GT$5alloc17h33fc7ee9d258b197E, 3961
_ZN15crossbeam_epoch7default3pin17h5833c0fd99960097E, 3962
_ZN4core10intrinsics19copy_nonoverlapping17hd0231bb2e9bf162aE, 3963
_ZN4core4cell13Cell$LT$T$GT$7replace17hf1af680d2613fac2E, 3964
_ZN15crossbeam_epoch6atomic14Owned$LT$T$GT$3new17h8ebccb0dfad68c53E, 3965
_ZN15crossbeam_epoch6atomic14Owned$LT$T$GT$11into_shared17h8eb3506c2215fe2dE, 3966
_ZN15crossbeam_epoch6atomic15Atomic$LT$T$GT$4swap17he655b3e24164ca5bE, 3967
_ZN15crossbeam_epoch5guard5Guard15defer_unchecked17h6a508cc125437b64E, 3968
_ZN15crossbeam_epoch8deferred8Deferred3new17h4220302005788603E, 3969
_ZN15crossbeam_deque5deque15Worker$LT$T$GT$6resize28_$u7b$$u7b$closure$u7d$$u7d$17h9a2276e1936ca1e9E, 3970
_ZN4core3mem4drop17hd763b37486c862d4E, 3971
_ZN4core3ptr5write17h38353aa6053768adE, 3972
_ZN15crossbeam_epoch8deferred8Deferred3new4call17h959387cbdc3b54bfE, 3973
_ZN4core3ptr5write17h03487456e26aa557E, 3974
_ZN15crossbeam_epoch8deferred8Deferred3new4call17h5a9265c253f4d83dE, 3975
_ZN4core3ptr4read17h7a23dbeb0ac03c96E, 3976
_ZN15crossbeam_epoch5guard5Guard15defer_unchecked28_$u7b$$u7b$closure$u7d$$u7d$17ha5bdede0f95c31fcE, 3977
_ZN5alloc5alloc8box_free17he16033a2b65f8685E, 3978
_ZN4core3ptr6unique15Unique$LT$T$GT$6as_ref17he0d9514eb0659e2cE, 3979
_ZN4core3ptr6unique15Unique$LT$T$GT$4cast17h084d484ca3396dceE, 3980
_ZN4core3ptr6unique15Unique$LT$T$GT$6as_ptr17h9c952c7cf58e2921E, 3981
_ZN4core10intrinsics19copy_nonoverlapping17haf4611da33c70da5E, 3982
_ZN4core3ptr4read17hbc483a5751b98b2fE, 3983
_ZN4core10intrinsics19copy_nonoverlapping17h03e641809dd3fc75E, 3984
_ZN102_$LT$crossbeam_epoch..atomic..Shared$LT$T$GT$$u20$as$u20$crossbeam_epoch..atomic..Pointer$LT$T$GT$$GT$10into_usize17hd2fdeab6c4bde0a7E, 3985
_ZN15crossbeam_epoch6atomic14Owned$LT$T$GT$4init17h611edeaf2818c677E, 3986
_ZN56_$LT$T$u20$as$u20$crossbeam_epoch..atomic..Pointable$GT$4init17hbf528fcb221339bfE, 3987
_ZN5alloc5boxed16Box$LT$T$C$A$GT$8into_raw17h18d87f792c1b95e7E, 3988
_ZN5alloc5boxed16Box$LT$T$C$A$GT$23into_raw_with_allocator17h81481d76d9364567E, 3989
_ZN5alloc5boxed16Box$LT$T$C$A$GT$11into_unique17h479cb72fa067ece9E, 3990
_ZN5alloc5boxed16Box$LT$T$C$A$GT$4leak17h836699c556ef9cedE, 3991
_ZN95_$LT$core..ptr..unique..Unique$LT$T$GT$$u20$as$u20$core..convert..From$LT$$RF$mut$u20$T$GT$$GT$4from17hc154cccd881586d8E, 3992
_ZN4core3mem7replace17h68d0ca37d5bed011E, 3993
_ZN4core3ptr4read17hb344680bf046dc16E, 3994
_ZN4core3ptr5write17hbdeaf80ae5c9ff9dE, 3995
_ZN4core10intrinsics19copy_nonoverlapping17h793ec3b0ec4f1da1E, 3996
_ZN15crossbeam_epoch7default11with_handle17ha74c9a3d34a3b485E, 3997
_ZN3std6thread5local17LocalKey$LT$T$GT$8try_with17h476248ea934f8825E, 3998
_ZN4core6result19Result$LT$T$C$E$GT$14unwrap_or_else17h5e433d860fcb2ed6E, 3999
_ZN15crossbeam_epoch7default11with_handle28_$u7b$$u7b$closure$u7d$$u7d$17ha77108a03c39a86cE, 4000
_ZN15crossbeam_epoch7default3pin28_$u7b$$u7b$closure$u7d$$u7d$17h4da2bdd44d0411a1E, 4001
_ZN15crossbeam_epoch9collector11LocalHandle3pin17hceab4a1624b885c5E, 4002
_ZN15crossbeam_epoch8internal5Local3pin17hd6dd1c050c527effE, 4003
_ZN15crossbeam_epoch8internal5Local6global17ha28b5789a3d8697cE, 4004
_ZN15crossbeam_epoch5epoch11AtomicEpoch4load17h7a4a72c1b60f561eE, 4005
_ZN15crossbeam_epoch5epoch5Epoch6pinned17h63c041584cba75feE, 4006
_ZN15crossbeam_epoch5epoch11AtomicEpoch5store17hd4a0140863abf3e3E, 4007
_ZN84_$LT$core..num..wrapping..Wrapping$LT$usize$GT$$u20$as$u20$core..ops..arith..Add$GT$3add17h1e863dd149fff578E, 4008
_ZN15crossbeam_epoch8internal5Local9collector17h491a45a96c43cdefE, 4009
_ZN4core6option15Option$LT$T$GT$5ok_or17h0a63543ec3f92e3cE, 4010
_ZN79_$LT$core..result..Result$LT$T$C$E$GT$$u20$as$u20$core..ops..try_trait..Try$GT$6branch17h7edc4a6c7bd55ad3E, 4011
_ZN15crossbeam_epoch7default11with_handle28_$u7b$$u7b$closure$u7d$$u7d$17hf384ff736f633b49E, 4012
_ZN153_$LT$core..result..Result$LT$T$C$F$GT$$u20$as$u20$core..ops..try_trait..FromResidual$LT$core..result..Result$LT$core..convert..Infallible$C$E$GT$$GT$$GT$13from_residual17hba1688ae609b32a2E, 4013
_ZN15crossbeam_epoch7default6HANDLE7__getit17h4e6296988574d5f8E, 4014
_ZN15crossbeam_epoch7default6HANDLE6__init17h705ac8d280d530eeE, 4015
_ZN5alloc3vec12Vec$LT$T$GT$13with_capacity17hb9c4637fe4ab1653E, 4016
_ZN4core3mem6forget17h849e3dafa40cb14aE, 4017
_ZN5alloc3vec16Vec$LT$T$C$A$GT$16with_capacity_in17h9bf924b6f5daa7bfE, 4018
_ZN5alloc7raw_vec19RawVec$LT$T$C$A$GT$16with_capacity_in17h0ff94058a5594f9bE, 4019
_ZN5alloc7raw_vec19RawVec$LT$T$C$A$GT$11allocate_in17h2018c741d5c4023cE, 4020
_ZN5alloc7raw_vec19RawVec$LT$T$C$A$GT$6new_in17hc68dd4f2d2a0e4ffE, 4021
_ZN4core5alloc6layout6Layout5array17hc9c2c37224f57742E, 4022
_ZN4core3ptr8non_null16NonNull$LT$T$GT$4cast17h4d90d4ae6481e9d9E, 4023
_ZN4core3ptr8non_null16NonNull$LT$T$GT$6as_ptr17he2a22b07593d8fafE, 4024
_ZN5alloc7raw_vec19RawVec$LT$T$C$A$GT$19capacity_from_bytes17hc3ad05b155844c80E, 4025
_ZN4core3ptr8non_null16NonNull$LT$T$GT$13new_unchecked17hfd64f691a8d0cc81E, 4026
_ZN4core5alloc6layout6Layout3new17h09614a4c454e501aE, 4027
_ZN4core5alloc6layout10size_align17h0c94a81f0924455eE, 4028
_ZN4core3ptr6unique15Unique$LT$T$GT$8dangling17h484059188354facdE, 4029
_ZN4core3ptr13read_volatile17h132d7bd503e1732cE, 4030
_ZN4core4sync6atomic12atomic_store17h0c8a87bd53a959d2E, 4031
_ZN80_$LT$rayon_core..latch..CountLatch$u20$as$u20$rayon_core..latch..AsCoreLatch$GT$13as_core_latch17h24d04b59cb663522E, 4032
_ZN10rayon_core5latch9CoreLatch5probe17hbce46ddb69b43f92E, 4033
_ZN10rayon_core8registry12WorkerThread15wait_until_cold17h8584985e933a21c4E, 4034
_ZN10rayon_core5sleep5Sleep13start_looking17ha3787b2f3ae5f3d2E, 4035
_ZN4core6option15Option$LT$T$GT$7or_else17h7f997b6ecb53203bE, 4036
_ZN4core6option15Option$LT$T$GT$7or_else17hf2b4e6e9087cd761E, 4037
_ZN10rayon_core5sleep5Sleep13no_work_found17hde09a16a9dec4f0dE, 4038
_ZN10rayon_core5sleep5Sleep10work_found17h3f363a254612e46eE, 4039
_ZN10rayon_core8registry12WorkerThread7execute17hb90aff5590d53039E, 4040
_ZN10rayon_core8registry12WorkerThread3log17hecf5d3658d7793feE, 4041
_ZN10rayon_core3log6Logger3log17he99f25f828761929E, 4042
_ZN10rayon_core8registry12WorkerThread15wait_until_cold28_$u7b$$u7b$closure$u7d$$u7d$17hff5b9180e73b88e0E, 4043
_ZN10rayon_core5latch9CoreLatch4addr17h68f131e08214f443E, 4044
_ZN10rayon_core3job6JobRef7execute17hfe4d896dc0cdc543E, 4045
_ZN10rayon_core3log6Logger3log17hcd07d4a5a1d321dbE, 4046
_ZN10rayon_core5sleep8counters14AtomicCounters19sub_inactive_thread17h49d9f3575244d4a6E, 4047
_ZN10rayon_core5sleep5Sleep16wake_any_threads17h29823c5b3356c799E, 4048
_ZN5alloc3vec16Vec$LT$T$C$A$GT$3len17h970256baa00d8dfdE, 4049
_ZN10rayon_core5sleep5Sleep20wake_specific_thread17ha080e002461c43f6E, 4050
_ZN81_$LT$alloc..vec..Vec$LT$T$C$A$GT$$u20$as$u20$core..ops..index..Index$LT$I$GT$$GT$5index17haf54b0522e0ec318E, 4051
_ZN95_$LT$crossbeam_utils..cache_padded..CachePadded$LT$T$GT$$u20$as$u20$core..ops..deref..Deref$GT$5deref17he2695bc4eb44973dE, 4052
_ZN3std4sync5mutex14Mutex$LT$T$GT$4lock17hbd3b1b1bafd6337fE, 4053
_ZN4core6result19Result$LT$T$C$E$GT$6unwrap17h99d94b4d03166872E, 4054
_ZN81_$LT$std..sync..mutex..MutexGuard$LT$T$GT$$u20$as$u20$core..ops..deref..Deref$GT$5deref17h21ec6061c850a3f2E, 4055
_ZN84_$LT$std..sync..mutex..MutexGuard$LT$T$GT$$u20$as$u20$core..ops..deref..DerefMut$GT$9deref_mut17h02620c30bd5b594cE, 4056
_ZN10rayon_core5sleep8counters14AtomicCounters19sub_sleeping_thread17h395d1d06ca052703E, 4057
_ZN10rayon_core3log6Logger3log17h4b2794077452511bE, 4058
_ZN4core3ptr61drop_in_place$LT$std..sync..mutex..MutexGuard$LT$bool$GT$$GT$17h9cdccb35ee2f3f55E, 4059
_ZN79_$LT$std..sync..mutex..MutexGuard$LT$T$GT$$u20$as$u20$core..ops..drop..Drop$GT$4drop17h431573dc456523e9E, 4060
_ZN3std4sync6poison4Flag4done17h0385d2eccf84747cE, 4061
_ZN3std10sys_common5mutex12MovableMutex10raw_unlock17h04af5af15569b0bcE, 4062
_ZN3std3sys4wasi5mutex5Mutex6unlock17h45ce9929e5c880f2E, 4063
_ZN3std6thread9panicking17hdb80c5f9885c25ecE, 4064
_ZN3std9panicking9panicking17h6e51480a6e2df829E, 4065
_ZN3std9panicking11panic_count13count_is_zero17hac9fc0258297555cE, 4066
_ZN10rayon_core5sleep5Sleep20wake_specific_thread28_$u7b$$u7b$closure$u7d$$u7d$17h95ebd94aa261a40eE, 4067
_ZN10rayon_core5sleep8counters8Counters3new17h476bfec8c4c4cf66E, 4068
_ZN10rayon_core5sleep8counters8Counters16sleeping_threads17h0871dda40676877cE, 4069
_ZN74_$LT$rayon_core..sleep..counters..Counters$u20$as$u20$core..fmt..Debug$GT$3fmt17h3559a5902a7dcb5dE, 4070
_ZN4core3fmt10ArgumentV13new17hbbde7bab17ae4799E, 4071
_ZN10rayon_core5sleep8counters8Counters16inactive_threads17h8b844aae3c0b0cdaE, 4072
_ZN10rayon_core5sleep8counters13select_thread17hb17cc2bcfb415505E, 4073
_ZN10rayon_core5sleep8counters8Counters12jobs_counter17hb7119a7a3c090ca1E, 4074
_ZN4core3ptr26drop_in_place$LT$usize$GT$17h49614a52e2d77042E, 4075
_ZN4core3fmt3num52_$LT$impl$u20$core..fmt..Debug$u20$for$u20$usize$GT$3fmt17h6f17b3d24ac1ee1bE, 4076
_ZN10rayon_core5sleep8counters10select_jec17h4938170417f69f20E, 4077
_ZN58_$LT$alloc..string..String$u20$as$u20$core..fmt..Debug$GT$3fmt17h640ce502a250a8e4E, 4078
_ZN4core3ptr99drop_in_place$LT$std..sync..poison..PoisonError$LT$std..sync..mutex..MutexGuard$LT$bool$GT$$GT$$GT$17h33e46acbd2420624E, 4079
_ZN76_$LT$std..sync..poison..PoisonError$LT$T$GT$$u20$as$u20$core..fmt..Debug$GT$3fmt17h88ee11b1798a3d70E, 4080
_ZN3std10sys_common5mutex12MovableMutex8raw_lock17h332ee1e6b61474eaE, 4081
_ZN3std4sync5mutex19MutexGuard$LT$T$GT$3new17h6c665ba94e62eb61E, 4082
_ZN3std4sync6poison4Flag6borrow17hdbbc24b3bd31fc38E, 4083
_ZN3std4sync6poison10map_result17hfcb59ad9ba1c87b3E, 4084
_ZN3std4sync5mutex19MutexGuard$LT$T$GT$3new28_$u7b$$u7b$closure$u7d$$u7d$17hbe8cb748c1599dadE, 4085
_ZN3std4sync6poison20PoisonError$LT$T$GT$3new17h5a3459b3d340da3fE, 4086
_ZN3std4sync6poison4Flag3get17h760fabd298b9434bE, 4087
_ZN3std3sys4wasi5mutex5Mutex4lock17h5768cd3914b99375E, 4088
_ZN72_$LT$alloc..vec..Vec$LT$T$C$A$GT$$u20$as$u20$core..ops..deref..Deref$GT$5deref17h9ce9fc1ee2fd5a6bE, 4089
_ZN4core5slice5index74_$LT$impl$u20$core..ops..index..Index$LT$I$GT$$u20$for$u20$$u5b$T$u5d$$GT$5index17hcae9d71e54d4079aE, 4090
_ZN75_$LT$usize$u20$as$u20$core..slice..index..SliceIndex$LT$$u5b$T$u5d$$GT$$GT$5index17h4fcdf9e440a7194eE, 4091
_ZN5alloc3vec16Vec$LT$T$C$A$GT$6as_ptr17hf999556496891e96E, 4092
_ZN4core5slice3raw14from_raw_parts17h6dd545eef464d722E, 4093
_ZN4core3ptr20slice_from_raw_parts17h89ba743ac1ccb4ccE, 4094
_ZN4core3ptr9const_ptr33_$LT$impl$u20$$BP$const$u20$T$GT$4cast17hff4b9462d63cbd7cE, 4095
_ZN4core3ptr8metadata14from_raw_parts17hec0f9e6186279f44E, 4096
_ZN5alloc7raw_vec19RawVec$LT$T$C$A$GT$3ptr17hd55800354e489172E, 4097
_ZN4core3ptr7mut_ptr31_$LT$impl$u20$$BP$mut$u20$T$GT$7is_null17hde3ce72bbd7a8b95E, 4098
_ZN4core3ptr6unique15Unique$LT$T$GT$6as_ptr17h233c687b184e8cbcE, 4099
_ZN10rayon_core5sleep5Sleep10work_found28_$u7b$$u7b$closure$u7d$$u7d$17h198a21d065909bf8E, 4100
_ZN10rayon_core5sleep5Sleep15announce_sleepy17h5ad8da2e95a7b096E, 4101
_ZN10rayon_core5sleep5Sleep5sleep17h2e0ce86e3753d29aE, 4102
_ZN4core9panicking13assert_failed17h70fe6565918124e8E, 4103
_ZN10rayon_core5latch9CoreLatch10get_sleepy17h2fc53b1c34024707E, 4104
_ZN10rayon_core3log6Logger3log17h1cecba91a4257207E, 4105
_ZN10rayon_core5latch9CoreLatch11fall_asleep17hd3c8bed390829c0cE, 4106
_ZN10rayon_core3log6Logger3log17hdca9337bb50c21d4E, 4107
_ZN10rayon_core5sleep9IdleState10wake_fully17h481128a8cb1b83f3E, 4108
_ZN10rayon_core5sleep8counters14AtomicCounters4load17h2c208e84744857b9E, 4109
_ZN10rayon_core5sleep8counters16JobsEventCounter9is_sleepy17h92b8c9f6bc0ca96dE, 4110
_ZN86_$LT$rayon_core..sleep..counters..JobsEventCounter$u20$as$u20$core..cmp..PartialEq$GT$2ne17h8c0fde9225cf2a12E, 4111
_ZN10rayon_core5sleep8counters14AtomicCounters23try_add_sleeping_thread17h45c282a52ef04336E, 4112
_ZN10rayon_core3log6Logger3log17h306fd9f07966e0f8E, 4113
_ZN10rayon_core5sleep9IdleState11wake_partly17h17aaab4c99cdb731E, 4114
_ZN10rayon_core5latch9CoreLatch7wake_up17h0c9e75970c3eb1f5E, 4115
_ZN10rayon_core3log6Logger3log17h6d79e4dd2fe3f1abE, 4116
_ZN10rayon_core8registry12WorkerThread15wait_until_cold28_$u7b$$u7b$closure$u7d$$u7d$17h7863e3ddf0ea124bE, 4117
_ZN3std4sync7condvar7Condvar4wait17h92ee326281b34b87E, 4118
_ZN10rayon_core3log6Logger3log17hb040411de9f8ebd0E, 4119
_ZN10rayon_core5sleep5Sleep5sleep28_$u7b$$u7b$closure$u7d$$u7d$17hc4fdbda1d31d2c72E, 4120
_ZN3std4sync5mutex10guard_lock17hb54cf8c83e26d896E, 4121
_ZN3std10sys_common7condvar7Condvar4wait17h14edd01c943ed825E, 4122
_ZN3std4sync5mutex12guard_poison17hd2db7bf6d9dd6f7eE, 4123
_ZN10rayon_core8registry8Registry16has_injected_job17h0a0f2a420508e53aE, 4124
_ZN15crossbeam_deque5deque17Injector$LT$T$GT$8is_empty17h372ca5c0a45b02adE, 4125
_ZN10rayon_core5sleep5Sleep5sleep28_$u7b$$u7b$closure$u7d$$u7d$17h7e830df5da10b273E, 4126
_ZN10rayon_core5sleep5Sleep5sleep28_$u7b$$u7b$closure$u7d$$u7d$17h1ef5062364bcc1ceE, 4127
_ZN10rayon_core5sleep8counters14AtomicCounters12try_exchange17hcb1d5d5a713c5e36E, 4128
_ZN10rayon_core5sleep8counters16JobsEventCounter8as_usize17h476c4ac4d217a89dE, 4129
_ZN10rayon_core5sleep5Sleep5sleep28_$u7b$$u7b$closure$u7d$$u7d$17h0794bfb730007453E, 4130
_ZN10rayon_core5sleep5Sleep5sleep28_$u7b$$u7b$closure$u7d$$u7d$17h90e4e6bef254a389E, 4131
_ZN10rayon_core5sleep8counters14AtomicCounters31increment_jobs_event_counter_if17hcec8ebd6ac7a975cE, 4132
_ZN10rayon_core3log6Logger3log17h12789d3956ed5703E, 4133
_ZN10rayon_core5sleep5Sleep15announce_sleepy28_$u7b$$u7b$closure$u7d$$u7d$17h280a00996a9e04d5E, 4134
_ZN4core3ops8function2Fn4call17hcb59f09b47078704E, 4135
_ZN10rayon_core5sleep8counters8Counters22increment_jobs_counter17h68b59a0ce5a3c3f7E, 4136
_ZN10rayon_core5sleep8counters16JobsEventCounter9is_active17h47c41c15b475b51eE, 4137
_ZN10rayon_core8registry12WorkerThread15wait_until_cold28_$u7b$$u7b$closure$u7d$$u7d$17h4eb442ea7f28ec38E, 4138
_ZN10rayon_core8registry8Registry16pop_injected_job17hb52fb9fe85a92ad7E, 4139
_ZN15crossbeam_deque5deque17Injector$LT$T$GT$5steal17he11dfbcbd368121bE, 4140
_ZN10rayon_core8registry8Registry3log17hc95a88e6135b6b27E, 4141
_ZN10rayon_core3log6Logger3log17hb91fc4c44efe965cE, 4142
_ZN10rayon_core8registry8Registry16pop_injected_job28_$u7b$$u7b$closure$u7d$$u7d$17h0d01da9f75354350E, 4143
_ZN4core6result19Result$LT$T$C$E$GT$6is_err17hff056e95074cf646E, 4144
_ZN15crossbeam_deque5deque14Block$LT$T$GT$9wait_next17h42970ba0a810bd0bE, 4145
_ZN4core3ptr7mut_ptr31_$LT$impl$u20$$BP$mut$u20$T$GT$7is_null17h1f4ce0704e773f6fE, 4146
_ZN4core4sync6atomic18AtomicPtr$LT$T$GT$5store17h4462569b897f25e9E, 4147
_ZN15crossbeam_deque5deque13Slot$LT$T$GT$10wait_write17h6e673ab5c76a7a55E, 4148
_ZN4core3ptr4read17h3647fb6fcbecb962E, 4149
_ZN15crossbeam_deque5deque14Block$LT$T$GT$7destroy17hbbb50964c414af8eE, 4150
_ZN4core4iter6traits8iterator8Iterator3rev17hc3e681e5c7ff01aaE, 4151
_ZN63_$LT$I$u20$as$u20$core..iter..traits..collect..IntoIterator$GT$9into_iter17hcc9a9cb9e4c7e49fE, 4152
_ZN98_$LT$core..iter..adapters..rev..Rev$LT$I$GT$$u20$as$u20$core..iter..traits..iterator..Iterator$GT$4next17h680d040663a1c0c0E, 4153
_ZN4core4iter5range116_$LT$impl$u20$core..iter..traits..double_ended..DoubleEndedIterator$u20$for$u20$core..ops..range..Range$LT$A$GT$$GT$9next_back17h5aea227ee63dfb92E, 4154
_ZN89_$LT$core..ops..range..Range$LT$T$GT$$u20$as$u20$core..iter..range..RangeIteratorImpl$GT$14spec_next_back17hfc425bdbcfa7d8e2E, 4155
_ZN4core5clone5impls54_$LT$impl$u20$core..clone..Clone$u20$for$u20$usize$GT$5clone17h2a625f3c7d4a093cE, 4156
_ZN49_$LT$usize$u20$as$u20$core..iter..range..Step$GT$18backward_unchecked17hfa3e115821864c68E, 4157
_ZN4core4iter8adapters3rev12Rev$LT$T$GT$3new17h8d0d6d45a29f553bE, 4158
_ZN4core10intrinsics19copy_nonoverlapping17h98cf9248b0bf0067E, 4159
_ZN4core4sync6atomic12atomic_store17h71dfe4d11b70d427E, 4160
_ZN10rayon_core8registry12WorkerThread15wait_until_cold28_$u7b$$u7b$closure$u7d$$u7d$17h853a2348ea567060E, 4161
_ZN10rayon_core8registry12WorkerThread5steal17ha79820ae59c6ad8cE, 4162
_ZN10rayon_core8registry12WorkerThread20local_deque_is_empty17hcfdf9563eef1f7e1E, 4163
_ZN5alloc3vec16Vec$LT$T$C$A$GT$8as_slice17hbb423de2bf7d01d2E, 4164
_ZN4core5slice29_$LT$impl$u20$$u5b$T$u5d$$GT$3len17h6aba1aed997c84b6E, 4165
_ZN10rayon_core8registry14XorShift64Star10next_usize17h5692c018f0469402E, 4166
_ZN4core4iter6traits8iterator8Iterator5chain17h54980c9022b2cea0E, 4167
_ZN4core4iter6traits8iterator8Iterator6filter17h569eff517d0755daE, 4168
_ZN4core4iter6traits8iterator8Iterator8find_map17h1e24a7ac00a206c8E, 4169
_ZN4core4iter6traits8iterator8Iterator8find_map5check17h10e1026ce5721637E, 4170
_ZN108_$LT$core..iter..adapters..filter..Filter$LT$I$C$P$GT$$u20$as$u20$core..iter..traits..iterator..Iterator$GT$8try_fold17h1bb7a04301ef353eE, 4171
_ZN4core3ops12control_flow24ControlFlow$LT$B$C$C$GT$11break_value17h9eab9afd785ce0fdE, 4172
_ZN4core4iter8adapters6filter15filter_try_fold17hca40829fb736470fE, 4173
_ZN106_$LT$core..iter..adapters..chain..Chain$LT$A$C$B$GT$$u20$as$u20$core..iter..traits..iterator..Iterator$GT$8try_fold17h7253d54bc0339358E, 4174
_ZN4core4iter6traits8iterator8Iterator8try_fold17h7f271eddf0172205E, 4175
_ZN95_$LT$core..ops..control_flow..ControlFlow$LT$B$C$C$GT$$u20$as$u20$core..ops..try_trait..Try$GT$6branch17h99e9705cd0308cacE, 4176
_ZN104_$LT$core..ops..control_flow..ControlFlow$LT$B$C$C$GT$$u20$as$u20$core..ops..try_trait..FromResidual$GT$13from_residual17hdb0f142611fa5c8aE, 4177
_ZN4core4iter6traits8iterator8Iterator8try_fold17hf4d16b192090b7bcE, 4178
_ZN95_$LT$core..ops..control_flow..ControlFlow$LT$B$C$C$GT$$u20$as$u20$core..ops..try_trait..Try$GT$11from_output17h7ede25717766fe7dE, 4179
_ZN4core4iter8adapters6filter15filter_try_fold28_$u7b$$u7b$closure$u7d$$u7d$17he64c65acdf9206dfE, 4180
_ZN10rayon_core8registry12WorkerThread5steal28_$u7b$$u7b$closure$u7d$$u7d$17hd503f2708047c434E, 4181
_ZN4core4iter6traits8iterator8Iterator8find_map5check28_$u7b$$u7b$closure$u7d$$u7d$17h4c81306899272f7bE, 4182
_ZN10rayon_core8registry12WorkerThread5steal28_$u7b$$u7b$closure$u7d$$u7d$17h81be01c9047bb6f3E, 4183
_ZN15crossbeam_deque5deque16Stealer$LT$T$GT$5steal17h1f2cd00599d86f0cE, 4184
_ZN10rayon_core8registry12WorkerThread3log17h4f9b2aaf2937f86eE, 4185
_ZN10rayon_core3log6Logger3log17hb465060220668c04E, 4186
_ZN10rayon_core8registry12WorkerThread5steal28_$u7b$$u7b$closure$u7d$$u7d$28_$u7b$$u7b$closure$u7d$$u7d$17h294cf01142c62db9E, 4187
_ZN15crossbeam_epoch7default9is_pinned17hce19e83ef6181043E, 4188
_ZN4core3mem6forget17he79bc6597d2d74cbE, 4189
_ZN15crossbeam_epoch7default11with_handle17h287f065d9a47c1abE, 4190
_ZN3std6thread5local17LocalKey$LT$T$GT$8try_with17h1d342a7b2c92399dE, 4191
_ZN4core6result19Result$LT$T$C$E$GT$14unwrap_or_else17h00d3612acf99adf7E, 4192
_ZN15crossbeam_epoch7default11with_handle28_$u7b$$u7b$closure$u7d$$u7d$17h850f223f41fcaa19E, 4193
_ZN15crossbeam_epoch7default9is_pinned28_$u7b$$u7b$closure$u7d$$u7d$17hcd1fb9b0e233b5c9E, 4194
_ZN15crossbeam_epoch9collector11LocalHandle9is_pinned17h341c5df5f33162d8E, 4195
_ZN15crossbeam_epoch8internal5Local9is_pinned17h93bee520aeadd8d8E, 4196
_ZN15crossbeam_epoch7default11with_handle28_$u7b$$u7b$closure$u7d$$u7d$17h3a4c541cd8b5ca2aE, 4197
_ZN153_$LT$core..result..Result$LT$T$C$F$GT$$u20$as$u20$core..ops..try_trait..FromResidual$LT$core..result..Result$LT$core..convert..Infallible$C$E$GT$$GT$$GT$13from_residual17h1397d2a2ac778a16E, 4198
_ZN4core3ops8function5impls79_$LT$impl$u20$core..ops..function..FnMut$LT$A$GT$$u20$for$u20$$RF$mut$u20$F$GT$8call_mut17h1c69baff3d9941d3E, 4199
_ZN4core4iter8adapters6filter19Filter$LT$I$C$P$GT$3new17h9bd6f4e187c54fe1E, 4200
_ZN4core4iter8adapters5chain18Chain$LT$A$C$B$GT$3new17h672bc83c8618ace8E, 4201
_ZN10rayon_core8registry14XorShift64Star4next17h9d6a04188395e65cE, 4202
_ZN4core4cell13Cell$LT$T$GT$3get17h1bb1b0962a6f4ab4E, 4203
_ZN4core9panicking13assert_failed17h5f6eb99f7d6dfb22E, 4204
_ZN4core4cell13Cell$LT$T$GT$3set17h893e5bcafa775bc1E, 4205
_ZN4core4cell13Cell$LT$T$GT$7replace17h649edbe999289a85E, 4206
_ZN4core3mem4drop17h41363783d2077467E, 4207
_ZN4core3mem7replace17h3b6bc5baf3b0edeaE, 4208
_ZN4core3ptr5write17h2d88d998a4100e7fE, 4209
_ZN4core3ptr28drop_in_place$LT$$RF$u64$GT$17h080195a9b502c210E, 4210
_ZN42_$LT$$RF$T$u20$as$u20$core..fmt..Debug$GT$3fmt17h6a4e571187cd1ebaE, 4211
_ZN4core3fmt3num50_$LT$impl$u20$core..fmt..Debug$u20$for$u20$u64$GT$3fmt17h0fd608710ced4335E, 4212
_ZN72_$LT$alloc..vec..Vec$LT$T$C$A$GT$$u20$as$u20$core..ops..deref..Deref$GT$5deref17hc3bd2682408ca80fE, 4213
_ZN5alloc3vec16Vec$LT$T$C$A$GT$6as_ptr17hb54f8852e362de82E, 4214
_ZN4core5slice3raw14from_raw_parts17hebb85bd5f4914eceE, 4215
_ZN4core3ptr20slice_from_raw_parts17h6870094e8ebd7742E, 4216
_ZN4core3ptr9const_ptr33_$LT$impl$u20$$BP$const$u20$T$GT$4cast17he674195407c3e3d9E, 4217
_ZN4core3ptr8metadata14from_raw_parts17h6c9d2c6ef24e78b5E, 4218
_ZN5alloc7raw_vec19RawVec$LT$T$C$A$GT$3ptr17hc88533f79dbc489bE, 4219
_ZN4core3ptr7mut_ptr31_$LT$impl$u20$$BP$mut$u20$T$GT$7is_null17h3444dc247a7a3a9eE, 4220
_ZN4core3ptr6unique15Unique$LT$T$GT$6as_ptr17h44ce61deb026d5baE, 4221
_ZN15crossbeam_deque5deque15Worker$LT$T$GT$8is_empty17h3f537098f6472e95E, 4222
_ZN10rayon_core3log6Logger3log17hff37961e06061682E, 4223
_ZN10rayon_core5sleep8counters14AtomicCounters19add_inactive_thread17h3ed7780913d0f806E, 4224
_ZN10rayon_core5sleep5Sleep13start_looking28_$u7b$$u7b$closure$u7d$$u7d$17h90cc130e94856a6eE, 4225
_ZN10rayon_core3log6Logger3log17h88b972b676b6097eE, 4226
_ZN10rayon_core8registry9main_loop28_$u7b$$u7b$closure$u7d$$u7d$17h653255883403bde4E, 4227
_ZN67_$LT$alloc..sync..Arc$LT$T$GT$$u20$as$u20$core..ops..drop..Drop$GT$4drop17hc1d91c4e045002a9E, 4228
_ZN5alloc4sync12Arc$LT$T$GT$5inner17h261f233c390bff40E, 4229
_ZN5alloc4sync12Arc$LT$T$GT$9drop_slow17h02415d8d4d9f10c4E, 4230
_ZN5alloc4sync12Arc$LT$T$GT$17get_mut_unchecked17h400e69ae20ee33d5E, 4231
_ZN4core3ptr51drop_in_place$LT$rayon_core..registry..Registry$GT$17h395a5d46bf53c1b3E, 4232
_ZN4core3mem4drop17h5a56d3760e718682E, 4233
_ZN4core3ptr76drop_in_place$LT$alloc..sync..Weak$LT$rayon_core..registry..Registry$GT$$GT$17h8f74a7b3b82622abE, 4234
_ZN68_$LT$alloc..sync..Weak$LT$T$GT$$u20$as$u20$core..ops..drop..Drop$GT$4drop17h1ba90db469d0e53dE, 4235
_ZN5alloc4sync13Weak$LT$T$GT$5inner17hea73af09dcee1ee8E, 4236
_ZN4core3ptr8non_null16NonNull$LT$T$GT$4cast17h76e75361148172e1E, 4237
_ZN4core3ptr8non_null16NonNull$LT$T$GT$6as_ptr17h2d6d283a65645330E, 4238
_ZN4core5alloc6layout6Layout13for_value_raw17h9ac7976f5dfd02bdE, 4239
_ZN4core3mem15size_of_val_raw17h54783f4f084d8cf7E, 4240
_ZN4core3mem16align_of_val_raw17h29b1cdc20db5e4ebE, 4241
_ZN5alloc2rc11is_dangling17hdceeee0b49fcfa76E, 4242
_ZN4core3ptr44drop_in_place$LT$rayon_core..log..Logger$GT$17ha01c921bd5337da5E, 4243
_ZN4core3ptr76drop_in_place$LT$alloc..vec..Vec$LT$rayon_core..registry..ThreadInfo$GT$$GT$17h3b5f85952b4551c1E, 4244
_ZN4core3ptr45drop_in_place$LT$rayon_core..sleep..Sleep$GT$17hb4baa13425f89065E, 4245
_ZN4core3ptr274drop_in_place$LT$core..option..Option$LT$alloc..boxed..Box$LT$dyn$u20$core..ops..function..Fn$LT$$LP$alloc..boxed..Box$LT$dyn$u20$core..any..Any$u2b$core..marker..Send$GT$$C$$RP$$GT$$u2b$Output$u20$$u3d$$u20$$LP$$RP$$u2b$core..marker..Sync$u2b$core..marker..Send$GT$$GT$$GT$17h7c6a76a557e52190E, 4246
_ZN4core3ptr209drop_in_place$LT$core..option..Option$LT$alloc..boxed..Box$LT$dyn$u20$core..ops..function..Fn$LT$$LP$usize$C$$RP$$GT$$u2b$Output$u20$$u3d$$u20$$LP$$RP$$u2b$core..marker..Sync$u2b$core..marker..Send$GT$$GT$$GT$17h4195861d252f3f5eE, 4247
_ZN4core3ptr181drop_in_place$LT$alloc..boxed..Box$LT$dyn$u20$core..ops..function..Fn$LT$$LP$usize$C$$RP$$GT$$u2b$Output$u20$$u3d$$u20$$LP$$RP$$u2b$core..marker..Sync$u2b$core..marker..Send$GT$$GT$17hd349b80975b3ea26E, 4248
_ZN5alloc5alloc8box_free17h79e2ba9b38c35bc7E, 4249
_ZN4core3ptr6unique15Unique$LT$T$GT$6as_ref17h2de140f4ab9b7b51E, 4250
_ZN4core3ptr6unique15Unique$LT$T$GT$4cast17h120c7365537ce277E, 4251
_ZN4core3ptr6unique15Unique$LT$T$GT$6as_ptr17h48260f1987a9ad53E, 4252
_ZN4core3ptr246drop_in_place$LT$alloc..boxed..Box$LT$dyn$u20$core..ops..function..Fn$LT$$LP$alloc..boxed..Box$LT$dyn$u20$core..any..Any$u2b$core..marker..Send$GT$$C$$RP$$GT$$u2b$Output$u20$$u3d$$u20$$LP$$RP$$u2b$core..marker..Sync$u2b$core..marker..Send$GT$$GT$17h8b46b0865dec7bd0E, 4253
_ZN5alloc5alloc8box_free17h7b43975815211ba6E, 4254
_ZN4core3ptr6unique15Unique$LT$T$GT$6as_ref17hb316f65bbd8d31feE, 4255
_ZN4core3ptr6unique15Unique$LT$T$GT$4cast17h39a1137be35278f7E, 4256
_ZN4core3ptr6unique15Unique$LT$T$GT$6as_ptr17hc1fdca0326b41019E, 4257
_ZN4core3ptr129drop_in_place$LT$alloc..vec..Vec$LT$crossbeam_utils..cache_padded..CachePadded$LT$rayon_core..sleep..WorkerSleepState$GT$$GT$$GT$17ha797c2b68d0407abE, 4258
_ZN70_$LT$alloc..vec..Vec$LT$T$C$A$GT$$u20$as$u20$core..ops..drop..Drop$GT$4drop17h3a92e65c2fca9b5eE, 4259
_ZN4core3ptr136drop_in_place$LT$alloc..raw_vec..RawVec$LT$crossbeam_utils..cache_padded..CachePadded$LT$rayon_core..sleep..WorkerSleepState$GT$$GT$$GT$17h04c96eb5076b0561E, 4260
_ZN77_$LT$alloc..raw_vec..RawVec$LT$T$C$A$GT$$u20$as$u20$core..ops..drop..Drop$GT$4drop17hc3b027dc531849e1E, 4261
_ZN5alloc7raw_vec19RawVec$LT$T$C$A$GT$14current_memory17hd5b9a54e3672f232E, 4262
_ZN4core3ptr6unique15Unique$LT$T$GT$4cast17hdef0b349672e0364E, 4263
_ZN5alloc3vec16Vec$LT$T$C$A$GT$10as_mut_ptr17h306aa978e6474b88E, 4264
_ZN4core3ptr24slice_from_raw_parts_mut17h1da3f8cc25a77dc8E, 4265
_ZN4core3ptr116drop_in_place$LT$$u5b$crossbeam_utils..cache_padded..CachePadded$LT$rayon_core..sleep..WorkerSleepState$GT$$u5d$$GT$17ha2e10727c99f532fE, 4266
_ZN4core3ptr106drop_in_place$LT$crossbeam_utils..cache_padded..CachePadded$LT$rayon_core..sleep..WorkerSleepState$GT$$GT$17ha8aab18cf4567df7E, 4267
_ZN4core3ptr56drop_in_place$LT$rayon_core..sleep..WorkerSleepState$GT$17hbe43a8b27ba94839E, 4268
_ZN4core3ptr56drop_in_place$LT$std..sync..mutex..Mutex$LT$bool$GT$$GT$17h30c918f38698a9aeE, 4269
_ZN4core3ptr8metadata18from_raw_parts_mut17h29cb989eeaa69cb7E, 4270
_ZN70_$LT$alloc..vec..Vec$LT$T$C$A$GT$$u20$as$u20$core..ops..drop..Drop$GT$4drop17h89295804f712374dE, 4271
_ZN4core3ptr83drop_in_place$LT$alloc..raw_vec..RawVec$LT$rayon_core..registry..ThreadInfo$GT$$GT$17h82430daa2fba1ecfE, 4272
_ZN77_$LT$alloc..raw_vec..RawVec$LT$T$C$A$GT$$u20$as$u20$core..ops..drop..Drop$GT$4drop17h447a573453d975b0E, 4273
_ZN5alloc7raw_vec19RawVec$LT$T$C$A$GT$14current_memory17h1b5525ada5032d4aE, 4274
_ZN4core3ptr6unique15Unique$LT$T$GT$4cast17h9d63d21e663c393eE, 4275
_ZN5alloc3vec16Vec$LT$T$C$A$GT$10as_mut_ptr17h8f2cdfa8df54abcfE, 4276
_ZN4core3ptr24slice_from_raw_parts_mut17hc5f682ac397d1ffdE, 4277
_ZN4core3ptr63drop_in_place$LT$$u5b$rayon_core..registry..ThreadInfo$u5d$$GT$17hf55efd18b319a9b6E, 4278
_ZN4core3ptr53drop_in_place$LT$rayon_core..registry..ThreadInfo$GT$17h7e87c1076c077773E, 4279
_ZN4core3ptr49drop_in_place$LT$rayon_core..latch..LockLatch$GT$17h039319d479132e58E, 4280
_ZN4core3ptr83drop_in_place$LT$crossbeam_deque..deque..Stealer$LT$rayon_core..job..JobRef$GT$$GT$17he94761d379bf3d98E, 4281
_ZN4core3ptr8metadata18from_raw_parts_mut17hff967c2167c8e22fE, 4282
_ZN4core3ptr113drop_in_place$LT$core..option..Option$LT$crossbeam_channel..channel..Sender$LT$rayon_core..log..Event$GT$$GT$$GT$17h1114fd3727460fffE, 4283
_ZN4core3ptr85drop_in_place$LT$crossbeam_channel..channel..Sender$LT$rayon_core..log..Event$GT$$GT$17he82932f65b180980E, 4284
_ZN85_$LT$crossbeam_channel..channel..Sender$LT$T$GT$$u20$as$u20$core..ops..drop..Drop$GT$4drop17h4d09db4047809086E, 4285
_ZN17crossbeam_channel7counter15Sender$LT$C$GT$7release17h0c5e9c625867eabbE, 4286
_ZN17crossbeam_channel7counter15Sender$LT$C$GT$7release17hbe1d67a57aad9e96E, 4287
_ZN17crossbeam_channel7counter15Sender$LT$C$GT$7release17h0f465a8cc451edffE, 4288
_ZN85_$LT$crossbeam_channel..channel..Sender$LT$T$GT$$u20$as$u20$core..ops..drop..Drop$GT$4drop28_$u7b$$u7b$closure$u7d$$u7d$17h41a6114ab240aa80E, 4289
_ZN85_$LT$crossbeam_channel..channel..Sender$LT$T$GT$$u20$as$u20$core..ops..drop..Drop$GT$4drop28_$u7b$$u7b$closure$u7d$$u7d$17h68217b6e825253a1E, 4290
_ZN17crossbeam_channel7flavors4list16Channel$LT$T$GT$18disconnect_senders17h621805bab581919bE, 4291
_ZN85_$LT$crossbeam_channel..channel..Sender$LT$T$GT$$u20$as$u20$core..ops..drop..Drop$GT$4drop28_$u7b$$u7b$closure$u7d$$u7d$17h2317937ccf425fe7E, 4292
_ZN4core3ptr8non_null16NonNull$LT$T$GT$6as_ref17hba199ac8de157813E, 4293
_ZN4core3ptr53drop_in_place$LT$rayon_core..unwind..AbortIfPanic$GT$17h1a1a5ef0f0ee206eE, 4294
_ZN86_$LT$alloc..boxed..Box$LT$F$C$A$GT$$u20$as$u20$core..ops..function..Fn$LT$Args$GT$$GT$4call17h070dc211de994acaE, 4295
_ZN4core3ptr91drop_in_place$LT$alloc..boxed..Box$LT$dyn$u20$core..any..Any$u2b$core..marker..Send$GT$$GT$17h3a4cc834ba537fa4E, 4296
_ZN5alloc5alloc8box_free17he11a845e537c701bE, 4297
_ZN4core3ptr6unique15Unique$LT$T$GT$6as_ref17h565fae29af589509E, 4298
_ZN4core3ptr6unique15Unique$LT$T$GT$4cast17hbf49733bb79429bbE, 4299
_ZN74_$LT$rayon_core..unwind..AbortIfPanic$u20$as$u20$core..ops..drop..Drop$GT$4drop17h3b8a542719d9236dE, 4300
_ZN3std5panic12catch_unwind17h92e0e26a3095f9c2E, 4301
_ZN3std9panicking3try17h83275fef9eb35d8fE, 4302
_ZN3std9panicking3try7do_call17hd249af8412a3b4dbE, 4303
_ZN4core3mem13manually_drop21ManuallyDrop$LT$T$GT$4take17h4e92683d8cd06a3aE, 4304
_ZN4core3ptr4read17he1c5e9ed722adb39E, 4305
_ZN4core10intrinsics19copy_nonoverlapping17h079032169a26f07bE, 4306
_ZN4core5slice5index74_$LT$impl$u20$core..ops..index..Index$LT$I$GT$$u20$for$u20$$u5b$T$u5d$$GT$5index17hadddb2244627d947E, 4307
_ZN75_$LT$usize$u20$as$u20$core..slice..index..SliceIndex$LT$$u5b$T$u5d$$GT$$GT$5index17he1dae05eb67e20bdE, 4308
_ZN3std6thread5local17LocalKey$LT$T$GT$4with17h2418019eed00a198E, 4309
_ZN3std6thread5local17LocalKey$LT$T$GT$8try_with17hb3ac214ef0ce8301E, 4310
_ZN10rayon_core8registry12WorkerThread11set_current28_$u7b$$u7b$closure$u7d$$u7d$17hb4688a7295ed86deE, 4311
_ZN4core3ptr9const_ptr33_$LT$impl$u20$$BP$const$u20$T$GT$7is_null17h34578d550243d5abE, 4312
_ZN5alloc4sync12Arc$LT$T$GT$10from_inner17h5e55a7296fa7e468E, 4313
_ZN4core4cell13Cell$LT$T$GT$3new17ha49e5c25560d90c7E, 4314
_ZN4core4hash6Hasher11write_usize17h4cadeb1511c4d662E, 4315
_ZN81_$LT$std..collections..hash..map..DefaultHasher$u20$as$u20$core..hash..Hasher$GT$6finish17hd60386fa5dfdfeeeE, 4316
_ZN67_$LT$core..hash..sip..SipHasher13$u20$as$u20$core..hash..Hasher$GT$6finish17h3a34c9ea9cc03135E, 4317
_ZN4core3num23_$LT$impl$u20$usize$GT$11to_ne_bytes17h234e0ce19f6bd086E, 4318
_ZN81_$LT$std..collections..hash..map..DefaultHasher$u20$as$u20$core..hash..Hasher$GT$5write17h47d0bd31e084a46aE, 4319
_ZN67_$LT$core..hash..sip..SipHasher13$u20$as$u20$core..hash..Hasher$GT$5write17h92d9a01d211614c2E, 4320
_ZN15crossbeam_deque5deque17Injector$LT$T$GT$3new17hb8cf1f2af31103adE, 4321
_ZN84_$LT$crossbeam_deque..deque..Injector$LT$T$GT$$u20$as$u20$core..default..Default$GT$7default17hb6b04851f5169054E, 4322
_ZN15crossbeam_deque5deque14Block$LT$T$GT$3new17h99d96192aa6b30acE, 4323
_ZN5alloc5boxed16Box$LT$T$C$A$GT$8into_raw17h3323f3f63188f1d3E, 4324
_ZN4core4sync6atomic18AtomicPtr$LT$T$GT$3new17haea03aa8ab621066E, 4325
_ZN4core4sync6atomic11AtomicUsize3new17h8226aacdb7b22304E, 4326
_ZN15crossbeam_utils12cache_padded20CachePadded$LT$T$GT$3new17hf2d6ad10921cdd13E, 4327
_ZN5alloc5boxed16Box$LT$T$C$A$GT$23into_raw_with_allocator17ha507801631ed50bbE, 4328
_ZN5alloc5boxed16Box$LT$T$C$A$GT$11into_unique17h7e92c7f97fe15d36E, 4329
_ZN5alloc5boxed16Box$LT$T$C$A$GT$4leak17h3b7213cc7bef0881E, 4330
_ZN95_$LT$core..ptr..unique..Unique$LT$T$GT$$u20$as$u20$core..convert..From$LT$$RF$mut$u20$T$GT$$GT$4from17h826aa5654b2494c6E, 4331
_ZN4core3mem12maybe_uninit20MaybeUninit$LT$T$GT$6zeroed17h39defed9821cd8caE, 4332
_ZN4core10intrinsics11write_bytes17h434017fb95684c34E, 4333
_ZN102_$LT$core..iter..adapters..map..Map$LT$I$C$F$GT$$u20$as$u20$core..iter..traits..iterator..Iterator$GT$4fold17h1037465d1012ac92E, 4334
_ZN4core4iter8adapters3map8map_fold17hb60827f25da2df0bE, 4335
_ZN4core4iter6traits8iterator8Iterator4fold17he319061560b21ad2E, 4336
_ZN4core4iter8adapters3map8map_fold28_$u7b$$u7b$closure$u7d$$u7d$17hbe658a93c026c173E, 4337
_ZN4core3ptr876drop_in_place$LT$core..iter..adapters..map..map_fold$LT$usize$C$crossbeam_utils..cache_padded..CachePadded$LT$rayon_core..sleep..WorkerSleepState$GT$$C$$LP$$RP$$C$rayon_core..sleep..Sleep..new..$u7b$$u7b$closure$u7d$$u7d$$C$core..iter..traits..iterator..Iterator..for_each..call$LT$crossbeam_utils..cache_padded..CachePadded$LT$rayon_core..sleep..WorkerSleepState$GT$$C$$LT$alloc..vec..Vec$LT$crossbeam_utils..cache_padded..CachePadded$LT$rayon_core..sleep..WorkerSleepState$GT$$GT$$u20$as$u20$alloc..vec..spec_extend..SpecExtend$LT$crossbeam_utils..cache_padded..CachePadded$LT$rayon_core..sleep..WorkerSleepState$GT$$C$core..iter..adapters..map..Map$LT$core..ops..range..Range$LT$usize$GT$$C$rayon_core..sleep..Sleep..new..$u7b$$u7b$closure$u7d$$u7d$$GT$$GT$$GT$..spec_extend..$u7b$$u7b$closure$u7d$$u7d$$GT$..$u7b$$u7b$closure$u7d$$u7d$$GT$..$u7b$$u7b$closure$u7d$$u7d$$GT$17h62c0622d2cf2c463E, 4338
_ZN4core3ptr636drop_in_place$LT$core..iter..traits..iterator..Iterator..for_each..call$LT$crossbeam_utils..cache_padded..CachePadded$LT$rayon_core..sleep..WorkerSleepState$GT$$C$$LT$alloc..vec..Vec$LT$crossbeam_utils..cache_padded..CachePadded$LT$rayon_core..sleep..WorkerSleepState$GT$$GT$$u20$as$u20$alloc..vec..spec_extend..SpecExtend$LT$crossbeam_utils..cache_padded..CachePadded$LT$rayon_core..sleep..WorkerSleepState$GT$$C$core..iter..adapters..map..Map$LT$core..ops..range..Range$LT$usize$GT$$C$rayon_core..sleep..Sleep..new..$u7b$$u7b$closure$u7d$$u7d$$GT$$GT$$GT$..spec_extend..$u7b$$u7b$closure$u7d$$u7d$$GT$..$u7b$$u7b$closure$u7d$$u7d$$GT$17hc1f916307ef5b605E, 4339
_ZN4core3ptr457drop_in_place$LT$$LT$alloc..vec..Vec$LT$crossbeam_utils..cache_padded..CachePadded$LT$rayon_core..sleep..WorkerSleepState$GT$$GT$$u20$as$u20$alloc..vec..spec_extend..SpecExtend$LT$crossbeam_utils..cache_padded..CachePadded$LT$rayon_core..sleep..WorkerSleepState$GT$$C$core..iter..adapters..map..Map$LT$core..ops..range..Range$LT$usize$GT$$C$rayon_core..sleep..Sleep..new..$u7b$$u7b$closure$u7d$$u7d$$GT$$GT$$GT$..spec_extend..$u7b$$u7b$closure$u7d$$u7d$$GT$17h10610a92eb6f77beE, 4340
_ZN10rayon_core5sleep5Sleep3new28_$u7b$$u7b$closure$u7d$$u7d$17hcdada7d4bbb4b198E, 4341
_ZN4core4iter6traits8iterator8Iterator8for_each4call28_$u7b$$u7b$closure$u7d$$u7d$17h70ac9b98b99fdcdbE, 4342
_ZN97_$LT$alloc..vec..Vec$LT$T$C$A$GT$$u20$as$u20$alloc..vec..spec_extend..SpecExtend$LT$T$C$I$GT$$GT$11spec_extend28_$u7b$$u7b$closure$u7d$$u7d$17h2e8b30ac5c9ba527E, 4343
_ZN4core3ptr5write17h764d2839344ed36dE, 4344
_ZN94_$LT$crossbeam_utils..cache_padded..CachePadded$LT$T$GT$$u20$as$u20$core..default..Default$GT$7default17h0c81ad1cdc866fa0E, 4345
_ZN78_$LT$rayon_core..sleep..WorkerSleepState$u20$as$u20$core..default..Default$GT$7default17h193df68f332ef005E, 4346
_ZN75_$LT$std..sync..mutex..Mutex$LT$T$GT$$u20$as$u20$core..default..Default$GT$7default17h29271a2a4b05397fE, 4347
_ZN47_$LT$bool$u20$as$u20$core..default..Default$GT$7default17h0c8ba444e500f1e0E, 4348
_ZN3std4sync5mutex14Mutex$LT$T$GT$3new17h7dec77d1efbc5732E, 4349
_ZN102_$LT$core..iter..adapters..map..Map$LT$I$C$F$GT$$u20$as$u20$core..iter..traits..iterator..Iterator$GT$4fold17h6d26e0541b26fe24E, 4350
_ZN4core4iter8adapters3map8map_fold17h7465120728d74a3cE, 4351
_ZN4core4iter6traits8iterator8Iterator4fold17h1233b2ca35ddfd75E, 4352
_ZN4core4iter8adapters3map8map_fold28_$u7b$$u7b$closure$u7d$$u7d$17hb3a4feed02c6e0ebE, 4353
_ZN10rayon_core8registry8Registry3new28_$u7b$$u7b$closure$u7d$$u7d$17h4b401412a8e1445fE, 4354
_ZN4core4iter6traits8iterator8Iterator5unzip6extend28_$u7b$$u7b$closure$u7d$$u7d$17h129daad49745d0c3E, 4355
_ZN93_$LT$alloc..vec..Vec$LT$T$C$A$GT$$u20$as$u20$core..iter..traits..collect..Extend$LT$T$GT$$GT$10extend_one17h6dc4f9c0d39040d4E, 4356
_ZN93_$LT$alloc..vec..Vec$LT$T$C$A$GT$$u20$as$u20$core..iter..traits..collect..Extend$LT$T$GT$$GT$10extend_one17h45d3f86d1a054f00E, 4357
_ZN5alloc3vec16Vec$LT$T$C$A$GT$4push17h57a08973fce7d81aE, 4358
_ZN5alloc3vec16Vec$LT$T$C$A$GT$7reserve17h711d10995eb83c99E, 4359
_ZN5alloc3vec16Vec$LT$T$C$A$GT$10as_mut_ptr17h0cf999eea12c7b29E, 4360
_ZN4core3ptr5write17hc7ff8031614c98ffE, 4361
_ZN5alloc7raw_vec19RawVec$LT$T$C$A$GT$3ptr17hfd68d55291bb31bfE, 4362
_ZN4core3ptr7mut_ptr31_$LT$impl$u20$$BP$mut$u20$T$GT$7is_null17h7ce40d1404760171E, 4363
_ZN4core3ptr6unique15Unique$LT$T$GT$6as_ptr17h9183deecaab08848E, 4364
_ZN5alloc7raw_vec19RawVec$LT$T$C$A$GT$7reserve17hf109414582f5cdebE, 4365
_ZN5alloc7raw_vec19RawVec$LT$T$C$A$GT$13needs_to_grow17h5587a3a5f6d18ba7E, 4366
_ZN5alloc7raw_vec19RawVec$LT$T$C$A$GT$7reserve21do_reserve_and_handle17hfe5062060f0a67daE, 4367
_ZN5alloc7raw_vec19RawVec$LT$T$C$A$GT$14grow_amortized17hf65ea8e3381c9882E, 4368
_ZN4core5alloc6layout6Layout5array17he0478a8d146c59e9E, 4369
_ZN5alloc7raw_vec19RawVec$LT$T$C$A$GT$14current_memory17h57097a5b8043838cE, 4370
_ZN5alloc7raw_vec19RawVec$LT$T$C$A$GT$7set_ptr17h1165ce43bac0ea6bE, 4371
_ZN4core3ptr8non_null16NonNull$LT$T$GT$4cast17h0448320528f89d2cE, 4372
_ZN4core3ptr8non_null16NonNull$LT$T$GT$6as_ptr17hbe3a3862928602d2E, 4373
_ZN4core3ptr6unique15Unique$LT$T$GT$13new_unchecked17h003ace295123acadE, 4374
_ZN5alloc7raw_vec19RawVec$LT$T$C$A$GT$19capacity_from_bytes17hacbf54c2149087afE, 4375
_ZN4core3ptr8non_null16NonNull$LT$T$GT$13new_unchecked17h0e7f677de571b0cdE, 4376
_ZN4core3ptr6unique15Unique$LT$T$GT$4cast17h27715099ffa7e6c2E, 4377
_ZN4core5alloc6layout6Layout3new17hfcebba6454b9113eE, 4378
_ZN4core5alloc6layout10size_align17h474663710f6de111E, 4379
_ZN5alloc3vec16Vec$LT$T$C$A$GT$4push17h55f9fcd6374dd0afE, 4380
_ZN5alloc3vec16Vec$LT$T$C$A$GT$7reserve17h5312b16c8b4ffaf5E, 4381
_ZN5alloc3vec16Vec$LT$T$C$A$GT$10as_mut_ptr17h6c1cd5a36c9bdbb1E, 4382
_ZN4core3ptr5write17h6f68321d281c5db9E, 4383
_ZN5alloc7raw_vec19RawVec$LT$T$C$A$GT$3ptr17hc6f9497e94cb9c95E, 4384
_ZN4core3ptr7mut_ptr31_$LT$impl$u20$$BP$mut$u20$T$GT$7is_null17h9e706e3557b28b6cE, 4385
_ZN4core3ptr6unique15Unique$LT$T$GT$6as_ptr17h50913870c6975bd7E, 4386
_ZN5alloc7raw_vec19RawVec$LT$T$C$A$GT$7reserve17h7ea7e272d431891bE, 4387
_ZN5alloc7raw_vec19RawVec$LT$T$C$A$GT$13needs_to_grow17he335f171534bd7c3E, 4388
_ZN5alloc7raw_vec19RawVec$LT$T$C$A$GT$7reserve21do_reserve_and_handle17hc4d8490c85deba90E, 4389
_ZN5alloc7raw_vec19RawVec$LT$T$C$A$GT$14grow_amortized17hfeefccd2b1d667c4E, 4390
_ZN4core5alloc6layout6Layout5array17h1c7c005ed17f7b8cE, 4391
_ZN5alloc7raw_vec19RawVec$LT$T$C$A$GT$14current_memory17h70e2bda6aadb371eE, 4392
_ZN5alloc7raw_vec19RawVec$LT$T$C$A$GT$7set_ptr17h22d7058fb8d83c76E, 4393
_ZN4core3ptr8non_null16NonNull$LT$T$GT$4cast17he1f1fc8c30c310e4E, 4394
_ZN4core3ptr8non_null16NonNull$LT$T$GT$6as_ptr17heb65f8af2a1b3cacE, 4395
_ZN4core3ptr6unique15Unique$LT$T$GT$13new_unchecked17h8f090600799d6480E, 4396
_ZN5alloc7raw_vec19RawVec$LT$T$C$A$GT$19capacity_from_bytes17h8970add190e28524E_original, 4397
_ZN4core3ptr8non_null16NonNull$LT$T$GT$13new_unchecked17hcd88a04dbc56f82eE, 4398
_ZN4core3ptr6unique15Unique$LT$T$GT$4cast17h235737153f73b82eE, 4399
_ZN4core5alloc6layout6Layout3new17h27ad66fa368aa6cfE, 4400
_ZN4core5alloc6layout10size_align17h029e73bb694c2b9dE, 4401
_ZN15crossbeam_deque5deque15Worker$LT$T$GT$8new_lifo17h2fffa8b1bdfadeb6E, 4402
_ZN15crossbeam_deque5deque15Worker$LT$T$GT$8new_fifo17h08cefa2e09d9ef57E, 4403
_ZN15crossbeam_deque5deque15Worker$LT$T$GT$7stealer17hb84efa26e5a87de6E, 4404
_ZN64_$LT$alloc..sync..Arc$LT$T$GT$$u20$as$u20$core..clone..Clone$GT$5clone17h5fd4ed5fbfc380beE, 4405
_ZN5alloc4sync12Arc$LT$T$GT$10from_inner17h0295eb4fdb64e0f6E, 4406
_ZN4core4sync6atomic11AtomicIsize3new17hc91d4d0e4de14d4aE, 4407
_ZN15crossbeam_epoch6atomic15Atomic$LT$T$GT$3new17hf76075495e4f7d29E, 4408
_ZN15crossbeam_utils12cache_padded20CachePadded$LT$T$GT$3new17h6fe24c1b70676984E, 4409
_ZN15crossbeam_utils12cache_padded20CachePadded$LT$T$GT$3new17hae76411398c7c5feE, 4410
_ZN5alloc4sync12Arc$LT$T$GT$3new17hcc3c762d5432a2faE, 4411
_ZN4core4cell13Cell$LT$T$GT$3new17he19ad7bf7a3d71e3E, 4412
_ZN5alloc5boxed16Box$LT$T$C$A$GT$4leak17h76a6f66e2f92877fE, 4413
_ZN50_$LT$T$u20$as$u20$core..convert..Into$LT$U$GT$$GT$4into17hb6828b870602ca6aE, 4414
_ZN98_$LT$core..ptr..non_null..NonNull$LT$T$GT$$u20$as$u20$core..convert..From$LT$$RF$mut$u20$T$GT$$GT$4from17h150c3f1fe3b751baE, 4415
_ZN4core3ptr6unique15Unique$LT$T$GT$6as_ptr17h8cdc313257157c07E, 4416
_ZN15crossbeam_epoch6atomic15Atomic$LT$T$GT$4init17he55261899eb1a356E, 4417
_ZN127_$LT$crossbeam_epoch..atomic..Atomic$LT$T$GT$$u20$as$u20$core..convert..From$LT$crossbeam_epoch..atomic..Owned$LT$T$GT$$GT$$GT$4from17hcdf4b35444adb754E, 4418
_ZN15crossbeam_epoch6atomic15Atomic$LT$T$GT$10from_usize17h8836b4cf423b39f5E, 4419
_ZN102_$LT$core..iter..adapters..map..Map$LT$I$C$F$GT$$u20$as$u20$core..iter..traits..iterator..Iterator$GT$4fold17ha621999a7449a38dE, 4420
_ZN4core4iter8adapters3map8map_fold17h2670f1b6d802b4a0E, 4421
_ZN4core4iter6traits8iterator8Iterator4fold17h104d37b687bbede0E, 4422
_ZN4core4iter8adapters3map8map_fold28_$u7b$$u7b$closure$u7d$$u7d$17hca7fe322842399e5E, 4423
_ZN4core3ptr640drop_in_place$LT$core..iter..adapters..map..map_fold$LT$usize$C$rayon_core..job..JobFifo$C$$LP$$RP$$C$rayon_core..scope..ScopeFifo..new..$u7b$$u7b$closure$u7d$$u7d$$C$core..iter..traits..iterator..Iterator..for_each..call$LT$rayon_core..job..JobFifo$C$$LT$alloc..vec..Vec$LT$rayon_core..job..JobFifo$GT$$u20$as$u20$alloc..vec..spec_extend..SpecExtend$LT$rayon_core..job..JobFifo$C$core..iter..adapters..map..Map$LT$core..ops..range..Range$LT$usize$GT$$C$rayon_core..scope..ScopeFifo..new..$u7b$$u7b$closure$u7d$$u7d$$GT$$GT$$GT$..spec_extend..$u7b$$u7b$closure$u7d$$u7d$$GT$..$u7b$$u7b$closure$u7d$$u7d$$GT$..$u7b$$u7b$closure$u7d$$u7d$$GT$17hff0899a34d23fb65E, 4424
_ZN4core3ptr457drop_in_place$LT$core..iter..traits..iterator..Iterator..for_each..call$LT$rayon_core..job..JobFifo$C$$LT$alloc..vec..Vec$LT$rayon_core..job..JobFifo$GT$$u20$as$u20$alloc..vec..spec_extend..SpecExtend$LT$rayon_core..job..JobFifo$C$core..iter..adapters..map..Map$LT$core..ops..range..Range$LT$usize$GT$$C$rayon_core..scope..ScopeFifo..new..$u7b$$u7b$closure$u7d$$u7d$$GT$$GT$$GT$..spec_extend..$u7b$$u7b$closure$u7d$$u7d$$GT$..$u7b$$u7b$closure$u7d$$u7d$$GT$17ha39cbccef0d85e68E, 4425
_ZN4core3ptr339drop_in_place$LT$$LT$alloc..vec..Vec$LT$rayon_core..job..JobFifo$GT$$u20$as$u20$alloc..vec..spec_extend..SpecExtend$LT$rayon_core..job..JobFifo$C$core..iter..adapters..map..Map$LT$core..ops..range..Range$LT$usize$GT$$C$rayon_core..scope..ScopeFifo..new..$u7b$$u7b$closure$u7d$$u7d$$GT$$GT$$GT$..spec_extend..$u7b$$u7b$closure$u7d$$u7d$$GT$17hf2123778fa3adcc2E, 4426
_ZN10rayon_core5scope9ScopeFifo3new28_$u7b$$u7b$closure$u7d$$u7d$17h398c0d39c362bc66E, 4427
_ZN4core4iter6traits8iterator8Iterator8for_each4call28_$u7b$$u7b$closure$u7d$$u7d$17h868a88e8d62ce9c9E, 4428
_ZN97_$LT$alloc..vec..Vec$LT$T$C$A$GT$$u20$as$u20$alloc..vec..spec_extend..SpecExtend$LT$T$C$I$GT$$GT$11spec_extend28_$u7b$$u7b$closure$u7d$$u7d$17h8a5f9115fabb7886E, 4429
_ZN4core3ptr5write17h45b7549052100062E, 4430
_ZN102_$LT$core..iter..adapters..map..Map$LT$I$C$F$GT$$u20$as$u20$core..iter..traits..iterator..Iterator$GT$4fold17he79352c2f45f4880E, 4431
_ZN4core4iter8adapters3map8map_fold17hd5b16cb66deae283E, 4432
_ZN4core4iter6traits8iterator8Iterator4fold17h90cc09b4fe436455E, 4433
_ZN103_$LT$alloc..vec..into_iter..IntoIter$LT$T$C$A$GT$$u20$as$u20$core..iter..traits..iterator..Iterator$GT$4next17hffe951bdff67efd8E, 4434
_ZN4core4iter8adapters3map8map_fold28_$u7b$$u7b$closure$u7d$$u7d$17h0405dcffe7c71bfaE, 4435
_ZN4core3ptr111drop_in_place$LT$core..option..Option$LT$crossbeam_deque..deque..Stealer$LT$rayon_core..job..JobRef$GT$$GT$$GT$17h647eea0605d1634bE, 4436
_ZN4core3ptr744drop_in_place$LT$core..iter..adapters..map..map_fold$LT$crossbeam_deque..deque..Stealer$LT$rayon_core..job..JobRef$GT$$C$rayon_core..registry..ThreadInfo$C$$LP$$RP$$C$rayon_core..registry..ThreadInfo..new$C$core..iter..traits..iterator..Iterator..for_each..call$LT$rayon_core..registry..ThreadInfo$C$$LT$alloc..vec..Vec$LT$rayon_core..registry..ThreadInfo$GT$$u20$as$u20$alloc..vec..spec_extend..SpecExtend$LT$rayon_core..registry..ThreadInfo$C$core..iter..adapters..map..Map$LT$alloc..vec..into_iter..IntoIter$LT$crossbeam_deque..deque..Stealer$LT$rayon_core..job..JobRef$GT$$GT$$C$rayon_core..registry..ThreadInfo..new$GT$$GT$$GT$..spec_extend..$u7b$$u7b$closure$u7d$$u7d$$GT$..$u7b$$u7b$closure$u7d$$u7d$$GT$..$u7b$$u7b$closure$u7d$$u7d$$GT$17hf363162b31ae13d0E, 4437
_ZN4core3ptr122drop_in_place$LT$alloc..vec..into_iter..IntoIter$LT$crossbeam_deque..deque..Stealer$LT$rayon_core..job..JobRef$GT$$GT$$GT$17hd28ac6e3c240923aE, 4438
_ZN86_$LT$alloc..vec..into_iter..IntoIter$LT$T$C$A$GT$$u20$as$u20$core..ops..drop..Drop$GT$4drop17h083cfb053acc61a6E, 4439
_ZN5alloc3vec9into_iter21IntoIter$LT$T$C$A$GT$16as_raw_mut_slice17h5da2f397e42730ecE, 4440
_ZN4core3ptr93drop_in_place$LT$$u5b$crossbeam_deque..deque..Stealer$LT$rayon_core..job..JobRef$GT$$u5d$$GT$17ha1429b3d0db72eb9E, 4441
_ZN4core3ptr216drop_in_place$LT$$LT$alloc..vec..into_iter..IntoIter$LT$T$C$A$GT$$u20$as$u20$core..ops..drop..Drop$GT$..drop..DropGuard$LT$crossbeam_deque..deque..Stealer$LT$rayon_core..job..JobRef$GT$$C$alloc..alloc..Global$GT$$GT$17h7a99542401379b4dE, 4442
_ZN157_$LT$$LT$alloc..vec..into_iter..IntoIter$LT$T$C$A$GT$$u20$as$u20$core..ops..drop..Drop$GT$..drop..DropGuard$LT$T$C$A$GT$$u20$as$u20$core..ops..drop..Drop$GT$4drop17ha412653f690aef05E, 4443
_ZN5alloc7raw_vec19RawVec$LT$T$C$A$GT$17from_raw_parts_in17h15a8e7e8ae8f6909E, 4444
_ZN4core3ptr113drop_in_place$LT$alloc..raw_vec..RawVec$LT$crossbeam_deque..deque..Stealer$LT$rayon_core..job..JobRef$GT$$GT$$GT$17hb446ef1fcac75a11E, 4445
_ZN77_$LT$alloc..raw_vec..RawVec$LT$T$C$A$GT$$u20$as$u20$core..ops..drop..Drop$GT$4drop17h35c972719d8f0428E, 4446
_ZN83_$LT$$RF$mut$u20$I$u20$as$u20$core..iter..traits..exact_size..ExactSizeIterator$GT$3len17h52da500e3e8e4051E, 4447
_ZN4core3ptr24slice_from_raw_parts_mut17hd0e4791e8752614fE, 4448
_ZN4core3ptr8metadata18from_raw_parts_mut17h5b7078ac2b75f988E, 4449
_ZN4core4iter6traits10exact_size17ExactSizeIterator3len17h73f12379bf40ab48E, 4450
_ZN103_$LT$alloc..vec..into_iter..IntoIter$LT$T$C$A$GT$$u20$as$u20$core..iter..traits..iterator..Iterator$GT$9size_hint17h6eb5b6037f4e238cE, 4451
_ZN70_$LT$core..option..Option$LT$T$GT$$u20$as$u20$core..cmp..PartialEq$GT$2eq17hc4a87af44efca7eeE, 4452
_ZN4core9panicking13assert_failed17hd35b3f682aa0254eE, 4453
_ZN4core3ptr58drop_in_place$LT$$RF$core..option..Option$LT$usize$GT$$GT$17h26101ec96a9cdb50E, 4454
_ZN42_$LT$$RF$T$u20$as$u20$core..fmt..Debug$GT$3fmt17hfaa4f70e7f5d07e6E, 4455
_ZN66_$LT$core..option..Option$LT$T$GT$$u20$as$u20$core..fmt..Debug$GT$3fmt17ha3e3147dce732cd0E, 4456
_ZN4core3ptr9const_ptr33_$LT$impl$u20$$BP$const$u20$T$GT$11offset_from17hfed9b0aa535908c2E, 4457
_ZN4core3ptr521drop_in_place$LT$core..iter..traits..iterator..Iterator..for_each..call$LT$rayon_core..registry..ThreadInfo$C$$LT$alloc..vec..Vec$LT$rayon_core..registry..ThreadInfo$GT$$u20$as$u20$alloc..vec..spec_extend..SpecExtend$LT$rayon_core..registry..ThreadInfo$C$core..iter..adapters..map..Map$LT$alloc..vec..into_iter..IntoIter$LT$crossbeam_deque..deque..Stealer$LT$rayon_core..job..JobRef$GT$$GT$$C$rayon_core..registry..ThreadInfo..new$GT$$GT$$GT$..spec_extend..$u7b$$u7b$closure$u7d$$u7d$$GT$..$u7b$$u7b$closure$u7d$$u7d$$GT$17h2a306ec8ed9f3dc8E, 4458
_ZN4core3ptr395drop_in_place$LT$$LT$alloc..vec..Vec$LT$rayon_core..registry..ThreadInfo$GT$$u20$as$u20$alloc..vec..spec_extend..SpecExtend$LT$rayon_core..registry..ThreadInfo$C$core..iter..adapters..map..Map$LT$alloc..vec..into_iter..IntoIter$LT$crossbeam_deque..deque..Stealer$LT$rayon_core..job..JobRef$GT$$GT$$C$rayon_core..registry..ThreadInfo..new$GT$$GT$$GT$..spec_extend..$u7b$$u7b$closure$u7d$$u7d$$GT$17ha06d0c7e1d4ce654E, 4459
_ZN4core3ops8function5FnMut8call_mut17ha7da3998a454e81cE, 4460
_ZN4core4iter6traits8iterator8Iterator8for_each4call28_$u7b$$u7b$closure$u7d$$u7d$17h9f6af642c92827cdE, 4461
_ZN97_$LT$alloc..vec..Vec$LT$T$C$A$GT$$u20$as$u20$alloc..vec..spec_extend..SpecExtend$LT$T$C$I$GT$$GT$11spec_extend28_$u7b$$u7b$closure$u7d$$u7d$17h3d9294ae29f58aa9E, 4462
_ZN4core3ptr5write17h59ccf09fbf5f26c7E, 4463
_ZN10rayon_core8registry10ThreadInfo3new17h6ea4ea54794aeab2E, 4464
_ZN10rayon_core5latch9LockLatch3new17h510385bc508d58f6E, 4465
_ZN10rayon_core5latch10CountLatch3new17hd842de99eaa556b7E, 4466
_ZN10rayon_core5latch9CoreLatch3new17h91feb6c5e2fe73dbE, 4467
_ZN4core3ptr4read17h9197661cc89341eaE, 4468
_ZN4core3mem12maybe_uninit20MaybeUninit$LT$T$GT$6zeroed17h825fe82ab3066c9eE, 4469
_ZN4core10intrinsics11write_bytes17hf9548856254449a1E, 4470
_ZN4core10intrinsics19copy_nonoverlapping17hdb0a092d381d322eE, 4471
_ZN102_$LT$core..iter..adapters..map..Map$LT$I$C$F$GT$$u20$as$u20$core..iter..traits..iterator..Iterator$GT$8try_fold17hcc7a37ae8c708f38E, 4472
_ZN4core4iter8adapters3map12map_try_fold17h9650183f4c316581E, 4473
_ZN4core4iter6traits8iterator8Iterator8try_fold17h7a0e9dd3d4a7f461E, 4474
_ZN4core4iter8adapters3map12map_try_fold28_$u7b$$u7b$closure$u7d$$u7d$17h807faf90b28c5028E, 4475
_ZN79_$LT$core..result..Result$LT$T$C$E$GT$$u20$as$u20$core..ops..try_trait..Try$GT$11from_output17hced44dae07b01e75E, 4476
_ZN79_$LT$core..result..Result$LT$T$C$E$GT$$u20$as$u20$core..ops..try_trait..Try$GT$6branch17he90a329db01e914eE, 4477
_ZN153_$LT$core..result..Result$LT$T$C$F$GT$$u20$as$u20$core..ops..try_trait..FromResidual$LT$core..result..Result$LT$core..convert..Infallible$C$E$GT$$GT$$GT$13from_residual17hf13ca4a4b1ac83e1E, 4478
_ZN50_$LT$T$u20$as$u20$core..convert..From$LT$T$GT$$GT$4from17h0076a1e11687f39fE, 4479
_ZN5alloc3vec18source_iter_marker24write_in_place_with_drop28_$u7b$$u7b$closure$u7d$$u7d$17hea579db94888d1abE, 4480
_ZN102_$LT$core..iter..adapters..map..Map$LT$I$C$F$GT$$u20$as$u20$core..iter..traits..iterator..Iterator$GT$9size_hint17h3ab0dbb94070999bE, 4481
_ZN102_$LT$core..iter..adapters..map..Map$LT$I$C$F$GT$$u20$as$u20$core..iter..traits..iterator..Iterator$GT$9size_hint17h3b66983c8b68979aE, 4482
_ZN102_$LT$core..iter..adapters..map..Map$LT$I$C$F$GT$$u20$as$u20$core..iter..traits..iterator..Iterator$GT$9size_hint17hb6795ff3efa0bd9cE, 4483
_ZN102_$LT$core..iter..adapters..map..Map$LT$I$C$F$GT$$u20$as$u20$core..iter..traits..iterator..Iterator$GT$9size_hint17hff00553f4d0fe136E, 4484
_ZN103_$LT$alloc..vec..into_iter..IntoIter$LT$T$C$A$GT$$u20$as$u20$core..iter..traits..iterator..Iterator$GT$4next17hf401d8c07014efaeE, 4485
_ZN4core3ptr4read17h1bc5c7546223b7d0E, 4486
_ZN4core3mem12maybe_uninit20MaybeUninit$LT$T$GT$6zeroed17h1984153bba82d85dE, 4487
_ZN4core10intrinsics11write_bytes17h840930ca3af2b4bfE, 4488
_ZN4core10intrinsics19copy_nonoverlapping17h66f2296be160d6beE, 4489
_ZN103_$LT$alloc..vec..into_iter..IntoIter$LT$T$C$A$GT$$u20$as$u20$core..iter..traits..iterator..Iterator$GT$9size_hint17h0fbac3a47ca739aeE, 4490
_ZN4core3ptr9const_ptr33_$LT$impl$u20$$BP$const$u20$T$GT$11offset_from17h516c9c9e04940de3E, 4491
_ZN106_$LT$core..ops..range..Range$LT$usize$GT$$u20$as$u20$core..slice..index..SliceIndex$LT$$u5b$T$u5d$$GT$$GT$5index17h575f25b557fb3505E, 4492
_ZN108_$LT$core..ops..range..RangeTo$LT$usize$GT$$u20$as$u20$core..slice..index..SliceIndex$LT$$u5b$T$u5d$$GT$$GT$5index17h5b667fcf52d4e5e1E, 4493
_ZN110_$LT$core..iter..adapters..enumerate..Enumerate$LT$I$GT$$u20$as$u20$core..iter..traits..iterator..Iterator$GT$4next17h04379abd47a5f75cE, 4494
_ZN91_$LT$core..slice..iter..Iter$LT$T$GT$$u20$as$u20$core..iter..traits..iterator..Iterator$GT$4next17hff7a1dc39ad9e5daE, 4495
_ZN75_$LT$core..option..Option$LT$T$GT$$u20$as$u20$core..ops..try_trait..Try$GT$6branch17hfaaf8dfbbbdf8ef7E, 4496
_ZN84_$LT$core..option..Option$LT$T$GT$$u20$as$u20$core..ops..try_trait..FromResidual$GT$13from_residual17hb11443c9bea9c01fE, 4497
_ZN4core3ptr8non_null16NonNull$LT$T$GT$6as_ptr17he598da2f0d28e49dE, 4498
_ZN4core3ptr9const_ptr33_$LT$impl$u20$$BP$const$u20$T$GT$7is_null17h304199648d8e14dbE, 4499
_ZN4core3ptr8non_null16NonNull$LT$T$GT$13new_unchecked17hd866435611c38474E, 4500
_ZN110_$LT$core..iter..adapters..enumerate..Enumerate$LT$I$GT$$u20$as$u20$core..iter..traits..iterator..Iterator$GT$4next17ha260a8a99069d98bE, 4501
_ZN75_$LT$core..option..Option$LT$T$GT$$u20$as$u20$core..ops..try_trait..Try$GT$6branch17h4f1d8eb87c5685c8E, 4502
_ZN84_$LT$core..option..Option$LT$T$GT$$u20$as$u20$core..ops..try_trait..FromResidual$GT$13from_residual17hb5316b870b87df0dE, 4503
_ZN111_$LT$alloc..vec..Vec$LT$T$GT$$u20$as$u20$alloc..vec..spec_from_iter_nested..SpecFromIterNested$LT$T$C$I$GT$$GT$9from_iter17h22621fa1acc5395fE, 4504
_ZN5alloc3vec12Vec$LT$T$GT$13with_capacity17hee7ec3f34822af81E, 4505
_ZN97_$LT$alloc..vec..Vec$LT$T$C$A$GT$$u20$as$u20$alloc..vec..spec_extend..SpecExtend$LT$T$C$I$GT$$GT$11spec_extend17h9e42f8d5c489b245E, 4506
_ZN5alloc3vec16Vec$LT$T$C$A$GT$7reserve17h7e2e8ae996c07f45E, 4507
_ZN5alloc3vec16Vec$LT$T$C$A$GT$3len17h10d8409988dc4dc2E, 4508
_ZN4core4iter6traits8iterator8Iterator8for_each17h0b3d026326bba2f0E, 4509
_ZN4core4iter6traits8iterator8Iterator8for_each4call17hc0a68a3c21dfe467E, 4510
_ZN5alloc7raw_vec19RawVec$LT$T$C$A$GT$7reserve17h0ae34ad5be72546aE, 4511
_ZN5alloc7raw_vec19RawVec$LT$T$C$A$GT$13needs_to_grow17h9f7807bb60e099d6E, 4512
_ZN5alloc7raw_vec19RawVec$LT$T$C$A$GT$7reserve21do_reserve_and_handle17h513532f89f7a59e1E, 4513
_ZN5alloc7raw_vec19RawVec$LT$T$C$A$GT$14grow_amortized17hc7fd630f9f262d14E, 4514
_ZN4core5alloc6layout6Layout5array17h558582de2f53132eE, 4515
_ZN5alloc7raw_vec19RawVec$LT$T$C$A$GT$7set_ptr17h4924efe27e378d18E, 4516
_ZN4core3ptr8non_null16NonNull$LT$T$GT$4cast17hd88a6b614c6e6b44E, 4517
_ZN4core3ptr6unique15Unique$LT$T$GT$13new_unchecked17h93fcfc6960a4e956E, 4518
_ZN5alloc7raw_vec19RawVec$LT$T$C$A$GT$19capacity_from_bytes17h49461c5c1f618175E, 4519
_ZN4core5alloc6layout6Layout3new17h04718d7e684c1836E, 4520
_ZN4core5alloc6layout10size_align17hbec6fd58e785edffE, 4521
_ZN5alloc3vec16Vec$LT$T$C$A$GT$16with_capacity_in17h12c1d61e53f3b96fE, 4522
_ZN5alloc7raw_vec19RawVec$LT$T$C$A$GT$16with_capacity_in17h100751dab6b85332E, 4523
_ZN5alloc7raw_vec19RawVec$LT$T$C$A$GT$11allocate_in17hc698707fabf53bffE, 4524
_ZN5alloc7raw_vec19RawVec$LT$T$C$A$GT$6new_in17h195d0acab4dce4a8E, 4525
_ZN4core3ptr6unique15Unique$LT$T$GT$8dangling17ha58378e2b1600bd4E, 4526
_ZN111_$LT$alloc..vec..Vec$LT$T$GT$$u20$as$u20$alloc..vec..spec_from_iter_nested..SpecFromIterNested$LT$T$C$I$GT$$GT$9from_iter17h4805c22df9adcb41E, 4527
_ZN5alloc3vec12Vec$LT$T$GT$13with_capacity17hdb30d6ccae6c3993E, 4528
_ZN97_$LT$alloc..vec..Vec$LT$T$C$A$GT$$u20$as$u20$alloc..vec..spec_extend..SpecExtend$LT$T$C$I$GT$$GT$11spec_extend17h46f60ebd1d46902dE, 4529
_ZN5alloc3vec16Vec$LT$T$C$A$GT$7reserve17hc795e3656e95e04cE, 4530
_ZN5alloc3vec16Vec$LT$T$C$A$GT$10as_mut_ptr17hb56bcdbf268f8255E, 4531
_ZN5alloc3vec16Vec$LT$T$C$A$GT$3len17h85b75376f1f351e7E, 4532
_ZN4core4iter6traits8iterator8Iterator8for_each17hc1bf9a11e928b8f2E, 4533
_ZN4core4iter6traits8iterator8Iterator8for_each4call17h4a8e430d65eaf88aE, 4534
_ZN5alloc7raw_vec19RawVec$LT$T$C$A$GT$3ptr17h94b9a6c8f5eea481E, 4535
_ZN4core3ptr7mut_ptr31_$LT$impl$u20$$BP$mut$u20$T$GT$7is_null17h17cc0f01f571ce15E, 4536
_ZN4core3ptr6unique15Unique$LT$T$GT$6as_ptr17h964396080085f4f0E, 4537
_ZN5alloc7raw_vec19RawVec$LT$T$C$A$GT$7reserve17hb2a3886edc6b4576E, 4538
_ZN5alloc7raw_vec19RawVec$LT$T$C$A$GT$13needs_to_grow17ha4f343767d142debE, 4539
_ZN5alloc7raw_vec19RawVec$LT$T$C$A$GT$7reserve21do_reserve_and_handle17h514611460971ab2bE, 4540
_ZN5alloc7raw_vec19RawVec$LT$T$C$A$GT$14grow_amortized17hd42dd66b8f30f2acE, 4541
_ZN4core5alloc6layout6Layout5array17h8a448648459f1f32E, 4542
_ZN5alloc7raw_vec19RawVec$LT$T$C$A$GT$14current_memory17h5cc74b44485e991bE, 4543
_ZN5alloc7raw_vec19RawVec$LT$T$C$A$GT$7set_ptr17hd83c03d2387dec97E, 4544
_ZN4core3ptr8non_null16NonNull$LT$T$GT$4cast17h0cb27541ee708f93E, 4545
_ZN4core3ptr8non_null16NonNull$LT$T$GT$6as_ptr17h848c541d10a8a033E, 4546
_ZN4core3ptr6unique15Unique$LT$T$GT$13new_unchecked17h2ef4ef117845ce58E, 4547
_ZN5alloc7raw_vec19RawVec$LT$T$C$A$GT$19capacity_from_bytes17h41e58eef2c5fdfa9E, 4548
_ZN4core3ptr8non_null16NonNull$LT$T$GT$13new_unchecked17hf9797a6f7ca28597E, 4549
_ZN4core3ptr6unique15Unique$LT$T$GT$4cast17h41d1bbc1a0274c41E, 4550
_ZN4core5alloc6layout6Layout3new17hc9efbf0ec749e762E, 4551
_ZN4core5alloc6layout10size_align17h955b37e6cc2b41f7E, 4552
_ZN5alloc3vec16Vec$LT$T$C$A$GT$16with_capacity_in17h665edd869f48aa55E, 4553
_ZN5alloc7raw_vec19RawVec$LT$T$C$A$GT$16with_capacity_in17h193a9a212d8acf24E, 4554
_ZN5alloc7raw_vec19RawVec$LT$T$C$A$GT$11allocate_in17h6fde068f001f9e2fE, 4555
_ZN5alloc7raw_vec19RawVec$LT$T$C$A$GT$6new_in17h682cefb5cbffc468E, 4556
_ZN4core3ptr6unique15Unique$LT$T$GT$8dangling17hb21268b8b28442a7E, 4557
_ZN111_$LT$alloc..vec..Vec$LT$T$GT$$u20$as$u20$alloc..vec..spec_from_iter_nested..SpecFromIterNested$LT$T$C$I$GT$$GT$9from_iter17hebfdfc5dc3d2e734E, 4558
_ZN5alloc3vec12Vec$LT$T$GT$13with_capacity17hc60163f83891a9ecE, 4559
_ZN97_$LT$alloc..vec..Vec$LT$T$C$A$GT$$u20$as$u20$alloc..vec..spec_extend..SpecExtend$LT$T$C$I$GT$$GT$11spec_extend17h1d225badfd7528d9E, 4560
_ZN5alloc3vec16Vec$LT$T$C$A$GT$7reserve17h0df825c6566bc0b7E, 4561
_ZN4core4iter6traits8iterator8Iterator8for_each17h57d74cb4fa923236E, 4562
_ZN4core4iter6traits8iterator8Iterator8for_each4call17hef74dba729d505daE, 4563
_ZN5alloc7raw_vec19RawVec$LT$T$C$A$GT$7reserve17hae7c2384a416d433E, 4564
_ZN5alloc7raw_vec19RawVec$LT$T$C$A$GT$13needs_to_grow17hf6f46f1a30264131E, 4565
_ZN5alloc7raw_vec19RawVec$LT$T$C$A$GT$7reserve21do_reserve_and_handle17h9bc52f54ea97a5d8E, 4566
_ZN5alloc7raw_vec19RawVec$LT$T$C$A$GT$14grow_amortized17h025c79d2d00d00d0E, 4567
_ZN4core5alloc6layout6Layout5array17h691c6248c8409e45E, 4568
_ZN5alloc7raw_vec19RawVec$LT$T$C$A$GT$7set_ptr17h23c9eccec2b05dd5E, 4569
_ZN4core3ptr8non_null16NonNull$LT$T$GT$4cast17h5172eaaded0213a3E, 4570
_ZN4core3ptr8non_null16NonNull$LT$T$GT$6as_ptr17h32a0f100bfe1d30eE, 4571
_ZN4core3ptr6unique15Unique$LT$T$GT$13new_unchecked17h034cefabd3084e5eE, 4572
_ZN5alloc7raw_vec19RawVec$LT$T$C$A$GT$19capacity_from_bytes17hdaa05f56c0cbfce0E, 4573
_ZN4core3ptr8non_null16NonNull$LT$T$GT$13new_unchecked17h7eb7c411fc6a9a7eE, 4574
_ZN4core5alloc6layout6Layout3new17h16b1140570c0f0efE, 4575
_ZN4core5alloc6layout10size_align17hd3efe43784e36cd4E, 4576
_ZN5alloc3vec16Vec$LT$T$C$A$GT$16with_capacity_in17h63302960a7165d0bE, 4577
_ZN5alloc7raw_vec19RawVec$LT$T$C$A$GT$16with_capacity_in17h7c0d4aad88953549E, 4578
_ZN5alloc7raw_vec19RawVec$LT$T$C$A$GT$11allocate_in17h28fd1e821e040c36E, 4579
_ZN5alloc7raw_vec19RawVec$LT$T$C$A$GT$6new_in17he6ade9cab41093bfE, 4580
_ZN4core3ptr6unique15Unique$LT$T$GT$8dangling17h8347437b7aa641a1E, 4581
_ZN127_$LT$std..sync..poison..TryLockError$LT$T$GT$$u20$as$u20$core..convert..From$LT$std..sync..poison..PoisonError$LT$T$GT$$GT$$GT$4from17hebd90526181b500aE, 4582
_ZN153_$LT$core..result..Result$LT$T$C$F$GT$$u20$as$u20$core..ops..try_trait..FromResidual$LT$core..result..Result$LT$core..convert..Infallible$C$E$GT$$GT$$GT$13from_residual17h1e62fa13d1ecfe65E, 4583
_ZN50_$LT$T$u20$as$u20$core..convert..From$LT$T$GT$$GT$4from17h8d884263980e605eE, 4584
_ZN153_$LT$core..result..Result$LT$T$C$F$GT$$u20$as$u20$core..ops..try_trait..FromResidual$LT$core..result..Result$LT$core..convert..Infallible$C$E$GT$$GT$$GT$13from_residual17h633d4bdb4768a32fE, 4585
_ZN153_$LT$core..result..Result$LT$T$C$F$GT$$u20$as$u20$core..ops..try_trait..FromResidual$LT$core..result..Result$LT$core..convert..Infallible$C$E$GT$$GT$$GT$13from_residual17h8ab21bf92b6c4aedE, 4586
_ZN153_$LT$core..result..Result$LT$T$C$F$GT$$u20$as$u20$core..ops..try_trait..FromResidual$LT$core..result..Result$LT$core..convert..Infallible$C$E$GT$$GT$$GT$13from_residual17h9fcddb5a4ecb62c7E, 4587
_ZN153_$LT$core..result..Result$LT$T$C$F$GT$$u20$as$u20$core..ops..try_trait..FromResidual$LT$core..result..Result$LT$core..convert..Infallible$C$E$GT$$GT$$GT$13from_residual17hb6878cd5d721a0b2E, 4588
_ZN157_$LT$$LT$alloc..vec..into_iter..IntoIter$LT$T$C$A$GT$$u20$as$u20$core..ops..drop..Drop$GT$..drop..DropGuard$LT$T$C$A$GT$$u20$as$u20$core..ops..drop..Drop$GT$4drop17h33938ae3ad95e2c3E, 4589
_ZN5alloc7raw_vec19RawVec$LT$T$C$A$GT$17from_raw_parts_in17h499a61870609220cE, 4590
_ZN4core3ptr112drop_in_place$LT$alloc..raw_vec..RawVec$LT$crossbeam_deque..deque..Worker$LT$rayon_core..job..JobRef$GT$$GT$$GT$17h91b945afd4a6120cE, 4591
_ZN77_$LT$alloc..raw_vec..RawVec$LT$T$C$A$GT$$u20$as$u20$core..ops..drop..Drop$GT$4drop17h577a82efc0b1d095E, 4592
_ZN15crossbeam_deque5deque15Buffer$LT$T$GT$5write17ha937eeb76ff8bdb9E, 4593
_ZN4core3ptr14write_volatile17h2258936cd6d9bd21E, 4594
_ZN15crossbeam_deque5deque15Worker$LT$T$GT$4push17ha026cf59a89e247cE, 4595
_ZN15crossbeam_deque5deque17Injector$LT$T$GT$4push17h7462e3b8eec6b642E, 4596
_ZN4core6option15Option$LT$T$GT$7is_none17h8543197e3261873eE, 4597
_ZN4core3ptr134drop_in_place$LT$core..option..Option$LT$alloc..boxed..Box$LT$crossbeam_deque..deque..Block$LT$rayon_core..job..JobRef$GT$$GT$$GT$$GT$17h8f4d93aa88100ca8E, 4598
_ZN4core6option15Option$LT$T$GT$6unwrap17hce723be7461ed1c1E, 4599
_ZN4core3ptr5write17h6575103222725565E, 4600
_ZN4core6option15Option$LT$T$GT$7is_some17h795623e70d59ed84E, 4601
_ZN15crossbeam_utils12cache_padded20CachePadded$LT$T$GT$3new17h0152dc865863d95cE, 4602
_ZN17crossbeam_channel5utils17Spinlock$LT$T$GT$3new17h17fae288ad2fa27cE, 4603
_ZN17crossbeam_channel7channel9unbounded17hc45dffe35eec7a35E, 4604
_ZN17crossbeam_channel7flavors4list16Channel$LT$T$GT$3new17h1a98c564e45aaeacE, 4605
_ZN17crossbeam_channel7counter3new17h1a15a5b6e4e4bad8E, 4606
_ZN5alloc5boxed16Box$LT$T$C$A$GT$8into_raw17h96002e794b0ff6d7E, 4607
_ZN5alloc5boxed16Box$LT$T$C$A$GT$23into_raw_with_allocator17h4fa89f396e1a8abfE, 4608
_ZN5alloc5boxed16Box$LT$T$C$A$GT$11into_unique17h74244f3bcb2f85e1E, 4609
_ZN5alloc5boxed16Box$LT$T$C$A$GT$4leak17h43070bf097cb64cbE, 4610
_ZN95_$LT$core..ptr..unique..Unique$LT$T$GT$$u20$as$u20$core..convert..From$LT$$RF$mut$u20$T$GT$$GT$4from17h02339fbf05be6399E, 4611
_ZN4core4sync6atomic18AtomicPtr$LT$T$GT$3new17h09414d63fa06284bE, 4612
_ZN17crossbeam_channel5waker9SyncWaker3new17h13cadf8de029421fE, 4613
_ZN17crossbeam_channel5waker5Waker3new17h9367a360f109800dE, 4614
_ZN5alloc3vec12Vec$LT$T$GT$3new17h7019fa09b2474fc2E, 4615
_ZN17crossbeam_channel7counter15Sender$LT$C$GT$7acquire17h7c1b9086de28305aE, 4616
_ZN17crossbeam_channel7counter15Sender$LT$C$GT$7acquire17hc5ff80747ef1752cE, 4617
_ZN17crossbeam_channel7counter15Sender$LT$C$GT$7acquire17hccbf933f791780c9E, 4618
_ZN3std3env3var17h76a3cfa58051c2d1E, 4619
_ZN55_$LT$$RF$T$u20$as$u20$core..convert..AsRef$LT$U$GT$$GT$6as_ref17h3cec91797898d242E, 4620
_ZN3std4sync4once4Once9call_once17h50ac8b76ae686788E, 4621
_ZN3std4sync4once4Once12is_completed17h26087285c3865ab6E, 4622
_ZN4core3ptr212drop_in_place$LT$rayon_core..registry..set_global_registry$LT$rayon_core..registry..init_global_registry$LT$rayon_core..registry..DefaultSpawn$GT$..$u7b$$u7b$closure$u7d$$u7d$$GT$..$u7b$$u7b$closure$u7d$$u7d$$GT$17hd2d601a06d9ad4deE, 4623
_ZN4core3ptr240drop_in_place$LT$core..option..Option$LT$rayon_core..registry..set_global_registry$LT$rayon_core..registry..init_global_registry$LT$rayon_core..registry..DefaultSpawn$GT$..$u7b$$u7b$closure$u7d$$u7d$$GT$..$u7b$$u7b$closure$u7d$$u7d$$GT$$GT$17h94916495149bda4dE, 4624
_ZN4core3ptr134drop_in_place$LT$rayon_core..registry..init_global_registry$LT$rayon_core..registry..DefaultSpawn$GT$..$u7b$$u7b$closure$u7d$$u7d$$GT$17h885205f724281bd9E, 4625
_ZN4core3ptr50drop_in_place$LT$rayon_core..ThreadPoolBuilder$GT$17ha115ffd828b7798eE, 4626
_ZN4core3ptr179drop_in_place$LT$core..option..Option$LT$alloc..boxed..Box$LT$dyn$u20$core..ops..function..FnMut$LT$$LP$usize$C$$RP$$GT$$u2b$Output$u20$$u3d$$u20$alloc..string..String$GT$$GT$$GT$17h2d93b21c3f8a1771E, 4627
_ZN4core3ptr151drop_in_place$LT$alloc..boxed..Box$LT$dyn$u20$core..ops..function..FnMut$LT$$LP$usize$C$$RP$$GT$$u2b$Output$u20$$u3d$$u20$alloc..string..String$GT$$GT$17h5e3bf8d1497cc5d0E, 4628
_ZN5alloc5alloc8box_free17h46f1879dc10e0fb6E, 4629
_ZN4core3ptr6unique15Unique$LT$T$GT$6as_ref17h6b5f3dd0884880e2E, 4630
_ZN4core3ptr6unique15Unique$LT$T$GT$4cast17h2923f8e398023c9eE, 4631
_ZN4core3ptr6unique15Unique$LT$T$GT$6as_ptr17h267b0fc976f81dd7E, 4632
_ZN4core3ptr281drop_in_place$LT$std..sync..once..Once..call_once$LT$rayon_core..registry..set_global_registry$LT$rayon_core..registry..init_global_registry$LT$rayon_core..registry..DefaultSpawn$GT$..$u7b$$u7b$closure$u7d$$u7d$$GT$..$u7b$$u7b$closure$u7d$$u7d$$GT$..$u7b$$u7b$closure$u7d$$u7d$$GT$17h577032978d200204E, 4633
_ZN3std4sync4once4Once9call_once28_$u7b$$u7b$closure$u7d$$u7d$17h8e9a6eee6635e3f6E, 4634
_ZN4core3ops8function6FnOnce40call_once$u7b$$u7b$vtable.shim$u7d$$u7d$17h390128d7e9128d80E, 4635
_ZN4core3ops8function6FnOnce9call_once17h61513955e705d631E, 4636
_ZN4core6option15Option$LT$T$GT$4take17hed783ed7fc650721E, 4637
_ZN4core6option15Option$LT$T$GT$6unwrap17ha9ed9544839bce53E, 4638
_ZN10rayon_core8registry19set_global_registry28_$u7b$$u7b$closure$u7d$$u7d$17h0251009db027ab6eE, 4639
_ZN10rayon_core8registry20init_global_registry28_$u7b$$u7b$closure$u7d$$u7d$17ha43c9596bdbba51eE, 4640
_ZN4core6result19Result$LT$T$C$E$GT$3map17h274f83f84905205aE, 4641
_ZN4core3ptr142drop_in_place$LT$core..result..Result$LT$$RF$alloc..sync..Arc$LT$rayon_core..registry..Registry$GT$$C$rayon_core..ThreadPoolBuildError$GT$$GT$17h84f648a8f237b4d0E, 4642
_ZN4core3ptr53drop_in_place$LT$rayon_core..ThreadPoolBuildError$GT$17h4c36137de868ca1bE, 4643
_ZN4core3ptr42drop_in_place$LT$rayon_core..ErrorKind$GT$17hb186c4716edd4bdeE, 4644
_ZN10rayon_core8registry19set_global_registry28_$u7b$$u7b$closure$u7d$$u7d$28_$u7b$$u7b$closure$u7d$$u7d$17h11b60ebd705336c8E, 4645
_ZN4core6option15Option$LT$T$GT$13get_or_insert17he323b3ba25090cb2E, 4646
_ZN4core6option15Option$LT$T$GT$18get_or_insert_with17h2fca01e8a35332b9E, 4647
_ZN4core6option15Option$LT$T$GT$13get_or_insert28_$u7b$$u7b$closure$u7d$$u7d$17h0795ed21d6cb0a16E, 4648
_ZN4core3ptr103drop_in_place$LT$core..option..Option$LT$alloc..sync..Arc$LT$rayon_core..registry..Registry$GT$$GT$$GT$17h69431f342bc3ec68E, 4649
_ZN4core3ptr147drop_in_place$LT$core..option..Option$LT$alloc..sync..Arc$LT$rayon_core..registry..Registry$GT$$GT$..get_or_insert..$u7b$$u7b$closure$u7d$$u7d$$GT$17h61038257294f34f3E, 4650
_ZN10rayon_core8registry8Registry3new17hb8e5c09ebf70ce97E, 4651
_ZN10rayon_core26ThreadPoolBuilder$LT$S$GT$15get_num_threads17ha96ce4d641ad6d2aE, 4652
_ZN10rayon_core26ThreadPoolBuilder$LT$S$GT$17get_breadth_first17he67c0517ab03c460E, 4653
_ZN4core4iter6traits8iterator8Iterator3map17hcf6ded05c0778896E, 4654
_ZN4core4iter6traits8iterator8Iterator5unzip17h4467dfa49029f87eE, 4655
_ZN10rayon_core3log6Logger3new17h812c235b12f4ce65E, 4656
_ZN62_$LT$rayon_core..log..Logger$u20$as$u20$core..clone..Clone$GT$5clone17he8641809c225c22fE, 4657
_ZN90_$LT$alloc..vec..Vec$LT$T$C$A$GT$$u20$as$u20$core..iter..traits..collect..IntoIterator$GT$9into_iter17h8bdcc82da6719c99E, 4658
_ZN4core4iter6traits8iterator8Iterator3map17h3d755e6dc17f3aaeE, 4659
_ZN4core4iter6traits8iterator8Iterator7collect17hfa78ef0b34711f8dE, 4660
_ZN10rayon_core5sleep5Sleep3new17hcff988a2767d1795E, 4661
_ZN10rayon_core26ThreadPoolBuilder$LT$S$GT$18take_panic_handler17h8fea0124076a7e40E, 4662
_ZN10rayon_core26ThreadPoolBuilder$LT$S$GT$18take_start_handler17h1b12d4471b57c696E, 4663
_ZN10rayon_core26ThreadPoolBuilder$LT$S$GT$17take_exit_handler17hd066b6e1f7e1750bE, 4664
_ZN5alloc4sync12Arc$LT$T$GT$3new17hd5c53003dc93fba2E, 4665
_ZN90_$LT$alloc..vec..Vec$LT$T$C$A$GT$$u20$as$u20$core..iter..traits..collect..IntoIterator$GT$9into_iter17h715cdae261be747bE, 4666
_ZN4core4iter6traits8iterator8Iterator9enumerate17hb185487d78cf2618E, 4667
_ZN63_$LT$I$u20$as$u20$core..iter..traits..collect..IntoIterator$GT$9into_iter17h75da1cba713d4c09E, 4668
_ZN4core3ptr171drop_in_place$LT$core..iter..adapters..enumerate..Enumerate$LT$alloc..vec..into_iter..IntoIter$LT$crossbeam_deque..deque..Worker$LT$rayon_core..job..JobRef$GT$$GT$$GT$$GT$17hccca2e1d2d527e76E, 4669
_ZN10rayon_core26ThreadPoolBuilder$LT$S$GT$15get_thread_name17h65380bfc25f0bbc0E, 4670
_ZN10rayon_core26ThreadPoolBuilder$LT$S$GT$14get_stack_size17hc7bd3afe9a3b9180E, 4671
_ZN10rayon_core26ThreadPoolBuilder$LT$S$GT$17get_spawn_handler17h0e92cded8495c345E, 4672
_ZN88_$LT$rayon_core..registry..DefaultSpawn$u20$as$u20$rayon_core..registry..ThreadSpawn$GT$5spawn17hf49c8ebbd95851e2E, 4673
_ZN10rayon_core20ThreadPoolBuildError3new17h5c48e6781b23be7cE, 4674
_ZN4core3ptr53drop_in_place$LT$rayon_core..registry..Terminator$GT$17h648df6ab0d3818d5E, 4675
_ZN4core3mem6forget17hf9af1c176c5a410fE, 4676
_ZN74_$LT$rayon_core..registry..Terminator$u20$as$u20$core..ops..drop..Drop$GT$4drop17hd931cad22572fdb7E, 4677
_ZN10rayon_core8registry8Registry9terminate17he2a89ef33590fd4fE, 4678
_ZN4core5slice29_$LT$impl$u20$$u5b$T$u5d$$GT$4iter17haa9210004dd5adf5E, 4679
_ZN4core4iter6traits8iterator8Iterator9enumerate17h5ee6f47bc8204639E, 4680
_ZN63_$LT$I$u20$as$u20$core..iter..traits..collect..IntoIterator$GT$9into_iter17h18fcfba2723648aeE, 4681
_ZN10rayon_core5latch10CountLatch18set_and_tickle_one17h8ae31afe7f6c2f97E, 4682
_ZN10rayon_core5latch10CountLatch3set17h247c14970045ad12E, 4683
_ZN10rayon_core8registry8Registry26notify_worker_latch_is_set17h273d47ea59220f97E, 4684
_ZN10rayon_core5sleep5Sleep26notify_worker_latch_is_set17h30e75a8463220c70E, 4685
_ZN10rayon_core5latch9CoreLatch3set17h22c44dea5f140ea3E, 4686
_ZN4core4iter8adapters9enumerate18Enumerate$LT$I$GT$3new17h3a9c9e7c2a97593dE, 4687
_ZN4core5slice4iter13Iter$LT$T$GT$3new17h749c06aa015a0be0E, 4688
_ZN4core5slice29_$LT$impl$u20$$u5b$T$u5d$$GT$6as_ptr17hdecb06025a24bb3dE, 4689
_ZN10rayon_core8registry13ThreadBuilder4name17hb66a2f5c8903745dE, 4690
_ZN5alloc3str56_$LT$impl$u20$alloc..borrow..ToOwned$u20$for$u20$str$GT$8to_owned17h52137b866b81e827E, 4691
_ZN10rayon_core8registry13ThreadBuilder10stack_size17hf0e4f1ac414b6d69E, 4692
_ZN3std6thread7Builder5spawn17h33529f492ed864eaE, 4693
_ZN79_$LT$core..result..Result$LT$T$C$E$GT$$u20$as$u20$core..ops..try_trait..Try$GT$6branch17hd812ef7d6cb2d2d1E, 4694
_ZN4core3ptr60drop_in_place$LT$std..thread..JoinHandle$LT$$LP$$RP$$GT$$GT$17h77f7bdc5a1b8b918E, 4695
_ZN4core3ptr59drop_in_place$LT$std..thread..JoinInner$LT$$LP$$RP$$GT$$GT$17heb0cfc85eb580981E, 4696
_ZN4core3ptr56drop_in_place$LT$std..thread..Packet$LT$$LP$$RP$$GT$$GT$17h737a2e5e2444de92E, 4697
_ZN4core3ptr212drop_in_place$LT$alloc..sync..Arc$LT$core..cell..UnsafeCell$LT$core..option..Option$LT$core..result..Result$LT$$LP$$RP$$C$alloc..boxed..Box$LT$dyn$u20$core..any..Any$u2b$core..marker..Send$GT$$GT$$GT$$GT$$GT$$GT$17h3e5efe8ee69705f4E, 4698
_ZN67_$LT$alloc..sync..Arc$LT$T$GT$$u20$as$u20$core..ops..drop..Drop$GT$4drop17h0f3dd71fd1d7cc82E, 4699
_ZN5alloc4sync12Arc$LT$T$GT$5inner17h3874f071b92b0fbcE, 4700
_ZN5alloc4sync12Arc$LT$T$GT$9drop_slow17hdab596438154e85cE, 4701
_ZN5alloc4sync12Arc$LT$T$GT$17get_mut_unchecked17hab7975c3ed457e5aE, 4702
_ZN4core3ptr188drop_in_place$LT$core..cell..UnsafeCell$LT$core..option..Option$LT$core..result..Result$LT$$LP$$RP$$C$alloc..boxed..Box$LT$dyn$u20$core..any..Any$u2b$core..marker..Send$GT$$GT$$GT$$GT$$GT$17hd7fba1a418951a76E, 4703
_ZN4core3mem4drop17h5ee9f37de460b420E, 4704
_ZN4core3ptr213drop_in_place$LT$alloc..sync..Weak$LT$core..cell..UnsafeCell$LT$core..option..Option$LT$core..result..Result$LT$$LP$$RP$$C$alloc..boxed..Box$LT$dyn$u20$core..any..Any$u2b$core..marker..Send$GT$$GT$$GT$$GT$$GT$$GT$17h7c449f0746e9ead0E, 4705
_ZN68_$LT$alloc..sync..Weak$LT$T$GT$$u20$as$u20$core..ops..drop..Drop$GT$4drop17h789c5ddbe58e1fbcE, 4706
_ZN5alloc4sync13Weak$LT$T$GT$5inner17hc41d1ec5546080caE, 4707
_ZN4core3ptr8non_null16NonNull$LT$T$GT$4cast17hd23c6da405e315bcE, 4708
_ZN4core3ptr8non_null16NonNull$LT$T$GT$6as_ptr17h2f741882efd00ebcE, 4709
_ZN4core5alloc6layout6Layout13for_value_raw17h869fc08b964ae9b8E, 4710
_ZN4core3mem15size_of_val_raw17h208629adf2a2a69eE, 4711
_ZN4core3mem16align_of_val_raw17h00facfa0d75e9d20E, 4712
_ZN5alloc2rc11is_dangling17hee56f7b2d9ba2a0dE, 4713
_ZN4core3ptr158drop_in_place$LT$core..option..Option$LT$core..result..Result$LT$$LP$$RP$$C$alloc..boxed..Box$LT$dyn$u20$core..any..Any$u2b$core..marker..Send$GT$$GT$$GT$$GT$17h44539260a1eb0488E, 4714
_ZN4core3ptr130drop_in_place$LT$core..result..Result$LT$$LP$$RP$$C$alloc..boxed..Box$LT$dyn$u20$core..any..Any$u2b$core..marker..Send$GT$$GT$$GT$17h5d1f4aede0bb5c73E, 4715
_ZN4core3ptr8non_null16NonNull$LT$T$GT$6as_ref17h646150bf88081293E, 4716
_ZN3std6thread7Builder15spawn_unchecked17hf0e147fa452ea085E, 4717
_ZN4core6option15Option$LT$T$GT$14unwrap_or_else17ha91cd4ea24237d25E, 4718
_ZN58_$LT$std..thread..Thread$u20$as$u20$core..clone..Clone$GT$5clone17hd16fda62a5ee71c8E, 4719
_ZN5alloc4sync12Arc$LT$T$GT$3new17h1a16adc61dd48dffE, 4720
_ZN64_$LT$alloc..sync..Arc$LT$T$GT$$u20$as$u20$core..clone..Clone$GT$5clone17h61e5d2ce7b0238a5E, 4721
_ZN68_$LT$core..option..Option$LT$T$GT$$u20$as$u20$core..clone..Clone$GT$5clone17had46647c9d1a4038E, 4722
_ZN4core3ptr129drop_in_place$LT$core..option..Option$LT$alloc..sync..Arc$LT$std..sync..mutex..Mutex$LT$alloc..vec..Vec$LT$u8$GT$$GT$$GT$$GT$$GT$17h27f21bcb5595b53fE, 4723
_ZN79_$LT$core..result..Result$LT$T$C$E$GT$$u20$as$u20$core..ops..try_trait..Try$GT$6branch17h924ec1e302b0be57E, 4724
_ZN4core3ptr229drop_in_place$LT$std..thread..Builder..spawn_unchecked$LT$$LT$rayon_core..registry..DefaultSpawn$u20$as$u20$rayon_core..registry..ThreadSpawn$GT$..spawn..$u7b$$u7b$closure$u7d$$u7d$$C$$LP$$RP$$GT$..$u7b$$u7b$closure$u7d$$u7d$$GT$17h2ca24c58373dd88aE, 4725
_ZN4core3ops8function6FnOnce40call_once$u7b$$u7b$vtable.shim$u7d$$u7d$17h4b192ff31e2ff2e7E, 4726
_ZN3std6thread7Builder15spawn_unchecked28_$u7b$$u7b$closure$u7d$$u7d$17hded57d56539fdac0E, 4727
_ZN3std5panic12catch_unwind17he93d65e74c7b085bE, 4728
_ZN69_$LT$alloc..sync..Arc$LT$T$GT$$u20$as$u20$core..ops..deref..Deref$GT$5deref17hee8bc009823fd17aE, 4729
_ZN3std9panicking3try17he57b56dd537e6c53E, 4730
_ZN3std9panicking3try7do_call17h0b42e2437c58f1dbE, 4731
_ZN4core3mem13manually_drop21ManuallyDrop$LT$T$GT$4take17hb0447dbc5529ef74E, 4732
_ZN4core3ptr4read17hdcfa355adc18585dE, 4733
_ZN4core10intrinsics19copy_nonoverlapping17h5a912edf8af7d995E, 4734
_ZN4core3ptr144drop_in_place$LT$$LT$rayon_core..registry..DefaultSpawn$u20$as$u20$rayon_core..registry..ThreadSpawn$GT$..spawn..$u7b$$u7b$closure$u7d$$u7d$$GT$17hc9e1f90203dfcdfcE, 4735
_ZN4core3ptr56drop_in_place$LT$rayon_core..registry..ThreadBuilder$GT$17h62caf9e560caec18E, 4736
_ZN4core3ptr101drop_in_place$LT$alloc..sync..Arc$LT$std..sync..mutex..Mutex$LT$alloc..vec..Vec$LT$u8$GT$$GT$$GT$$GT$17h7cc2437fefa3dbf5E, 4737
_ZN67_$LT$alloc..sync..Arc$LT$T$GT$$u20$as$u20$core..ops..drop..Drop$GT$4drop17he65036a0f5831329E, 4738
_ZN5alloc4sync12Arc$LT$T$GT$5inner17hf78983d730a04878E, 4739
_ZN5alloc4sync12Arc$LT$T$GT$9drop_slow17h41835c5c4d670b98E, 4740
_ZN5alloc4sync12Arc$LT$T$GT$17get_mut_unchecked17he5ca39efb8170ae4E, 4741
_ZN4core3ptr77drop_in_place$LT$std..sync..mutex..Mutex$LT$alloc..vec..Vec$LT$u8$GT$$GT$$GT$17h231419df4b6caa9eE, 4742
_ZN4core3mem4drop17hb714d1be962fac6dE, 4743
_ZN4core3ptr102drop_in_place$LT$alloc..sync..Weak$LT$std..sync..mutex..Mutex$LT$alloc..vec..Vec$LT$u8$GT$$GT$$GT$$GT$17h92bd65c8f2c7fcdbE, 4744
_ZN68_$LT$alloc..sync..Weak$LT$T$GT$$u20$as$u20$core..ops..drop..Drop$GT$4drop17heea673a7662fcd26E, 4745
_ZN5alloc4sync13Weak$LT$T$GT$5inner17h07d464e95e1961fcE, 4746
_ZN4core3ptr8non_null16NonNull$LT$T$GT$4cast17h2187ab1b14f7c8eaE, 4747
_ZN4core3ptr8non_null16NonNull$LT$T$GT$6as_ptr17hc235f821bf134d19E, 4748
_ZN4core5alloc6layout6Layout13for_value_raw17h9e5fb15769c005d7E, 4749
_ZN4core3mem15size_of_val_raw17h06f53c08d17e4954E, 4750
_ZN4core3mem16align_of_val_raw17he2476f6c212c34b3E, 4751
_ZN5alloc2rc11is_dangling17h11e79c2af24d01e8E, 4752
_ZN4core3ptr76drop_in_place$LT$core..cell..UnsafeCell$LT$alloc..vec..Vec$LT$u8$GT$$GT$$GT$17h973c4ee43bd63408E, 4753
_ZN4core3ptr8non_null16NonNull$LT$T$GT$6as_ref17hd9cd8e049c8a7fd2E, 4754
_ZN64_$LT$alloc..sync..Arc$LT$T$GT$$u20$as$u20$core..clone..Clone$GT$5clone17h10dcc99d8c96969bE, 4755
_ZN5alloc4sync12Arc$LT$T$GT$10from_inner17h639770cbcd781275E, 4756
_ZN5alloc4sync12Arc$LT$T$GT$10from_inner17h8bd29d601cf606e4E, 4757
_ZN5alloc5boxed16Box$LT$T$C$A$GT$4leak17h951350e16317d122E, 4758
_ZN50_$LT$T$u20$as$u20$core..convert..Into$LT$U$GT$$GT$4into17h26ca83bb256a8e39E, 4759
_ZN98_$LT$core..ptr..non_null..NonNull$LT$T$GT$$u20$as$u20$core..convert..From$LT$$RF$mut$u20$T$GT$$GT$4from17h4d6e6c5358cc52a5E, 4760
_ZN4core3ptr6unique15Unique$LT$T$GT$6as_ptr17hecb1d393fc9134a9E, 4761
_ZN64_$LT$alloc..sync..Arc$LT$T$GT$$u20$as$u20$core..clone..Clone$GT$5clone17hb6220e5a94e077abE, 4762
_ZN5alloc4sync12Arc$LT$T$GT$10from_inner17h3def13c1a15ac9fcE, 4763
_ZN4core3ops8function6FnOnce9call_once17h0c770ca59ef66524E, 4764
_ZN5alloc5slice64_$LT$impl$u20$alloc..borrow..ToOwned$u20$for$u20$$u5b$T$u5d$$GT$8to_owned17h6fc971e337723785E, 4765
_ZN5alloc6string6String19from_utf8_unchecked17hece68ae82b5f66b9E, 4766
_ZN5alloc5slice29_$LT$impl$u20$$u5b$T$u5d$$GT$6to_vec17h8ccf0f7473e141dfE, 4767
_ZN5alloc5slice29_$LT$impl$u20$$u5b$T$u5d$$GT$9to_vec_in17hab7c043501a943cbE, 4768
_ZN5alloc5slice4hack6to_vec17h0d4766f3c6f1f2e6E, 4769
_ZN52_$LT$T$u20$as$u20$alloc..slice..hack..ConvertVec$GT$6to_vec17h2d32dc5a723d5e8cE, 4770
_ZN4core3ptr9const_ptr33_$LT$impl$u20$$BP$const$u20$T$GT$22copy_to_nonoverlapping17hed5b43e1cc15948fE, 4771
_ZN4core6option15Option$LT$T$GT$6as_ref17hce8666d54914899eE, 4772
_ZN4core6option15Option$LT$T$GT$3map17hfc80804c958543dfE, 4773
_ZN4core3ops8function6FnOnce9call_once17h6b648054341bdb9dE, 4774
_ZN5alloc6string6String6as_str17hfcd44d59ea702b0cE, 4775
_ZN4core6option15Option$LT$T$GT$6as_mut17hcb7a3fa7c25ad981E, 4776
_ZN75_$LT$core..option..Option$LT$T$GT$$u20$as$u20$core..ops..try_trait..Try$GT$6branch17hdbb82b38d06b8483E, 4777
_ZN89_$LT$alloc..boxed..Box$LT$F$C$A$GT$$u20$as$u20$core..ops..function..FnMut$LT$Args$GT$$GT$8call_mut17h055c1bab7515e87fE, 4778
_ZN84_$LT$core..option..Option$LT$T$GT$$u20$as$u20$core..ops..try_trait..FromResidual$GT$13from_residual17hab5f638c836b556aE, 4779
_ZN4core3ptr121drop_in_place$LT$alloc..vec..into_iter..IntoIter$LT$crossbeam_deque..deque..Worker$LT$rayon_core..job..JobRef$GT$$GT$$GT$17he44ed4d1f0b74148E, 4780
_ZN86_$LT$alloc..vec..into_iter..IntoIter$LT$T$C$A$GT$$u20$as$u20$core..ops..drop..Drop$GT$4drop17h2abf339ea95815d1E, 4781
_ZN5alloc3vec9into_iter21IntoIter$LT$T$C$A$GT$16as_raw_mut_slice17h66cac1b56b9e87fcE, 4782
_ZN4core3ptr92drop_in_place$LT$$u5b$crossbeam_deque..deque..Worker$LT$rayon_core..job..JobRef$GT$$u5d$$GT$17h1a69cc2c8563a7f9E, 4783
_ZN4core3ptr215drop_in_place$LT$$LT$alloc..vec..into_iter..IntoIter$LT$T$C$A$GT$$u20$as$u20$core..ops..drop..Drop$GT$..drop..DropGuard$LT$crossbeam_deque..deque..Worker$LT$rayon_core..job..JobRef$GT$$C$alloc..alloc..Global$GT$$GT$17hfaba4994bdcfc920E, 4784
_ZN83_$LT$$RF$mut$u20$I$u20$as$u20$core..iter..traits..exact_size..ExactSizeIterator$GT$3len17h1ca1a5316b8388aaE, 4785
_ZN4core3ptr24slice_from_raw_parts_mut17h41af6a2e9a75de08E, 4786
_ZN4core3ptr8metadata18from_raw_parts_mut17hb9a7938affc6f088E, 4787
_ZN4core4iter6traits10exact_size17ExactSizeIterator3len17h53e66c60a58cd794E, 4788
_ZN4core4iter8adapters9enumerate18Enumerate$LT$I$GT$3new17h4355182aceced31eE, 4789
_ZN5alloc3vec16Vec$LT$T$C$A$GT$9allocator17hb8a7ce08c316d75fE, 4790
_ZN5alloc3vec16Vec$LT$T$C$A$GT$3len17he4b0395515e1c232E, 4791
_ZN5alloc7raw_vec19RawVec$LT$T$C$A$GT$9allocator17hd6b970b255e1e3ecE, 4792
_ZN5alloc5boxed16Box$LT$T$C$A$GT$4leak17h82594e7b080291eaE, 4793
_ZN50_$LT$T$u20$as$u20$core..convert..Into$LT$U$GT$$GT$4into17h9b08e8c8a68903f5E, 4794
_ZN98_$LT$core..ptr..non_null..NonNull$LT$T$GT$$u20$as$u20$core..convert..From$LT$$RF$mut$u20$T$GT$$GT$4from17h98c6fb286f56f54aE, 4795
_ZN4core3ptr6unique15Unique$LT$T$GT$6as_ptr17h6333a5d5267c67c4E, 4796
_ZN4core6option15Option$LT$T$GT$4take17hb0c9d247de665a0bE, 4797
_ZN4core3mem4take17h1ec3dc0ce3e12312E, 4798
_ZN72_$LT$core..option..Option$LT$T$GT$$u20$as$u20$core..default..Default$GT$7default17h9315dcdf8d906809E, 4799
_ZN4core3mem7replace17hcf8b0488f711ca55E, 4800
_ZN4core3ptr4read17h641af97ace44d545E, 4801
_ZN4core3ptr5write17he2879db0ab86ac68E, 4802
_ZN4core10intrinsics19copy_nonoverlapping17h4dda4645a86907d1E, 4803
_ZN4core6option15Option$LT$T$GT$4take17hc1490fda0b46994aE, 4804
_ZN4core3mem4take17h1d38f482aa61bb32E, 4805
_ZN72_$LT$core..option..Option$LT$T$GT$$u20$as$u20$core..default..Default$GT$7default17h6a051e317a99ce36E, 4806
_ZN4core3mem7replace17h3fc1465317666c69E, 4807
_ZN4core3ptr4read17h1c1e085c298c2a77E, 4808
_ZN4core3ptr5write17h1394d262e5a6e00dE, 4809
_ZN4core10intrinsics19copy_nonoverlapping17h7f4c8cd5154df506E, 4810
_ZN4core4iter6traits8iterator8Iterator3map17h39fbb51b261749ebE, 4811
_ZN4core4iter6traits8iterator8Iterator7collect17h465f96e791146123E, 4812
_ZN10rayon_core5sleep8counters14AtomicCounters3new17h7d7551c53ffb2fe4E, 4813
_ZN95_$LT$alloc..vec..Vec$LT$T$GT$$u20$as$u20$core..iter..traits..collect..FromIterator$LT$T$GT$$GT$9from_iter17h16e09e749f1320faE, 4814
_ZN63_$LT$I$u20$as$u20$core..iter..traits..collect..IntoIterator$GT$9into_iter17h93b9a3865ee18b3cE, 4815
_ZN98_$LT$alloc..vec..Vec$LT$T$GT$$u20$as$u20$alloc..vec..spec_from_iter..SpecFromIter$LT$T$C$I$GT$$GT$9from_iter17h981138a1d3d87172E, 4816
_ZN4core4iter8adapters3map16Map$LT$I$C$F$GT$3new17h0e735bd778423937E, 4817
_ZN95_$LT$alloc..vec..Vec$LT$T$GT$$u20$as$u20$core..iter..traits..collect..FromIterator$LT$T$GT$$GT$9from_iter17h08f8f2589a63935bE, 4818
_ZN63_$LT$I$u20$as$u20$core..iter..traits..collect..IntoIterator$GT$9into_iter17he14329021f882ae6E, 4819
_ZN5alloc3vec18source_iter_marker108_$LT$impl$u20$alloc..vec..spec_from_iter..SpecFromIter$LT$T$C$I$GT$$u20$for$u20$alloc..vec..Vec$LT$T$GT$$GT$9from_iter17hf71a40a40a0f4985E, 4820
_ZN96_$LT$core..iter..adapters..map..Map$LT$I$C$F$GT$$u20$as$u20$core..iter..adapters..SourceIter$GT$8as_inner17hd913ec8f0a9e3235E, 4821
_ZN94_$LT$alloc..vec..into_iter..IntoIter$LT$T$GT$$u20$as$u20$alloc..vec..into_iter..AsIntoIter$GT$12as_into_iter17h85fa37eb671ebfdeE, 4822
_ZN85_$LT$I$u20$as$u20$alloc..vec..source_iter_marker..SpecInPlaceCollect$LT$T$C$I$GT$$GT$16collect_in_place17hbcc9f99fe253f95dE, 4823
_ZN5alloc3vec9into_iter21IntoIter$LT$T$C$A$GT$32forget_allocation_drop_remaining17h9e93642551255219E, 4824
_ZN5alloc3vec12Vec$LT$T$GT$14from_raw_parts17h1882fe151597bc38E, 4825
_ZN4core3ptr200drop_in_place$LT$core..iter..adapters..map..Map$LT$alloc..vec..into_iter..IntoIter$LT$crossbeam_deque..deque..Stealer$LT$rayon_core..job..JobRef$GT$$GT$$C$rayon_core..registry..ThreadInfo..new$GT$$GT$17h53527162bef479a4E, 4826
_ZN5alloc3vec16Vec$LT$T$C$A$GT$17from_raw_parts_in17h9a64f7219aca0172E, 4827
_ZN5alloc7raw_vec19RawVec$LT$T$C$A$GT$17from_raw_parts_in17h6746081646053dfdE, 4828
_ZN5alloc3vec18source_iter_marker24write_in_place_with_drop17h8bff92698cfb97b8E, 4829
_ZN4core6result19Result$LT$T$C$E$GT$6unwrap17h671e23d6696547bdE, 4830
_ZN4core3ptr9const_ptr33_$LT$impl$u20$$BP$const$u20$T$GT$11offset_from17h527d75c7e1e08601E, 4831
_ZN4core3ptr26drop_in_place$LT$$u21$$GT$17h20dcf8ca933f40f3E, 4832
_ZN97_$LT$alloc..vec..into_iter..IntoIter$LT$T$C$A$GT$$u20$as$u20$core..iter..adapters..SourceIter$GT$8as_inner17ha6ef3a5f7d1170d4E, 4833
_ZN4core4iter8adapters3map16Map$LT$I$C$F$GT$3new17hb772de98b552cc32E, 4834
_ZN5alloc3vec16Vec$LT$T$C$A$GT$9allocator17hc3bf26acd7741695E, 4835
_ZN5alloc3vec16Vec$LT$T$C$A$GT$3len17hdf818ed1f089832dE, 4836
_ZN5alloc7raw_vec19RawVec$LT$T$C$A$GT$9allocator17hbbac9817cc16bbc2E, 4837
_ZN68_$LT$core..option..Option$LT$T$GT$$u20$as$u20$core..clone..Clone$GT$5clone17he4f8745ec24f0a98E, 4838
_ZN82_$LT$crossbeam_channel..channel..Sender$LT$T$GT$$u20$as$u20$core..clone..Clone$GT$5clone17h0e52ffb674938cedE, 4839
_ZN10rayon_core3log6Logger8disabled17h1c357f9d5e65af83E, 4840
_ZN4core3ptr91drop_in_place$LT$core..result..Result$LT$alloc..string..String$C$std..env..VarError$GT$$GT$17hfc4a6b565342f789E, 4841
_ZN4core3str21_$LT$impl$u20$str$GT$11starts_with17hb536a1327235ed4cE, 4842
_ZN77_$LT$alloc..string..String$u20$as$u20$core..cmp..PartialEq$LT$$RF$str$GT$$GT$2eq17h66fcb49e5e4a05baE, 4843
_ZN4core3str21_$LT$impl$u20$str$GT$3len17h167b9299ce891dc5E, 4844
_ZN113_$LT$alloc..string..String$u20$as$u20$core..ops..index..Index$LT$core..ops..range..RangeFrom$LT$usize$GT$$GT$$GT$5index17heedc58f0e1d9d013E, 4845
_ZN47_$LT$str$u20$as$u20$alloc..string..ToString$GT$9to_string17h585e96fe20c123ccE, 4846
_ZN3std6thread5spawn17h3e4567618d17d93dE, 4847
_ZN3std6thread5spawn17h7b65efbdb24a421fE, 4848
_ZN3std6thread5spawn17h8a806bdb81bf8eacE, 4849
_ZN3std6thread7Builder5spawn17hdb0404b3b267f2b8E, 4850
_ZN4core6result19Result$LT$T$C$E$GT$6expect17ha11ec1a658cc91bcE, 4851
_ZN3std6thread7Builder15spawn_unchecked17h46c84222144534abE, 4852
_ZN4core3ptr163drop_in_place$LT$std..thread..Builder..spawn_unchecked$LT$rayon_core..log..Logger..new..$u7b$$u7b$closure$u7d$$u7d$$C$$LP$$RP$$GT$..$u7b$$u7b$closure$u7d$$u7d$$GT$17h94b85469eecc621aE, 4853
_ZN4core3ops8function6FnOnce40call_once$u7b$$u7b$vtable.shim$u7d$$u7d$17he9996875df07a417E, 4854
_ZN3std6thread7Builder15spawn_unchecked28_$u7b$$u7b$closure$u7d$$u7d$17hf9a679dd4472c8afE, 4855
_ZN3std5panic12catch_unwind17h38c5febf97f0aff6E, 4856
_ZN3std9panicking3try17hc7b6f3d700564d7aE, 4857
_ZN3std9panicking3try7do_call17hfc25024763289052E, 4858
_ZN4core3mem13manually_drop21ManuallyDrop$LT$T$GT$4take17h5ce8f3f736307fb6E, 4859
_ZN4core3ptr4read17hc3cf52a09d6ba359E, 4860
_ZN4core10intrinsics19copy_nonoverlapping17hceb2f295b48053b2E, 4861
_ZN4core3ptr78drop_in_place$LT$rayon_core..log..Logger..new..$u7b$$u7b$closure$u7d$$u7d$$GT$17h955efa9fe30f0753E, 4862
_ZN3std6thread7Builder5spawn17h06b6d171cfa1bb04E, 4863
_ZN3std6thread7Builder15spawn_unchecked17h014b45cd86482810E, 4864
_ZN4core3ptr163drop_in_place$LT$std..thread..Builder..spawn_unchecked$LT$rayon_core..log..Logger..new..$u7b$$u7b$closure$u7d$$u7d$$C$$LP$$RP$$GT$..$u7b$$u7b$closure$u7d$$u7d$$GT$17h1a764d4043850cddE, 4865
_ZN4core3ops8function6FnOnce40call_once$u7b$$u7b$vtable.shim$u7d$$u7d$17h16ea9bf855e75593E, 4866
_ZN3std6thread7Builder15spawn_unchecked28_$u7b$$u7b$closure$u7d$$u7d$17h8b74c6100359e71dE, 4867
_ZN3std5panic12catch_unwind17h8a60c36c51f126faE, 4868
_ZN3std9panicking3try17h4cabc9d1b2619796E, 4869
_ZN3std9panicking3try7do_call17h5ca0795889fc7bfcE, 4870
_ZN4core3mem13manually_drop21ManuallyDrop$LT$T$GT$4take17h9a64b74ca2e50432E, 4871
_ZN4core3ptr4read17h966badfbc1b61751E, 4872
_ZN4core10intrinsics19copy_nonoverlapping17hf6c3230f4ebf9a8aE, 4873
_ZN4core3ptr78drop_in_place$LT$rayon_core..log..Logger..new..$u7b$$u7b$closure$u7d$$u7d$$GT$17h801bdc0bcb6881faE, 4874
_ZN3std6thread7Builder5spawn17h12e745e31183526dE, 4875
_ZN3std6thread7Builder15spawn_unchecked17hd8e8340b930c3560E, 4876
_ZN4core3ptr163drop_in_place$LT$std..thread..Builder..spawn_unchecked$LT$rayon_core..log..Logger..new..$u7b$$u7b$closure$u7d$$u7d$$C$$LP$$RP$$GT$..$u7b$$u7b$closure$u7d$$u7d$$GT$17h7e0556a4b01f4c0dE, 4877
_ZN4core3ops8function6FnOnce40call_once$u7b$$u7b$vtable.shim$u7d$$u7d$17h45bfdcc588a509cbE, 4878
_ZN3std6thread7Builder15spawn_unchecked28_$u7b$$u7b$closure$u7d$$u7d$17ha02a12f012ba01bcE, 4879
_ZN3std5panic12catch_unwind17hf6255bbb0dc0869bE, 4880
_ZN3std9panicking3try17ha855a7ca8352f748E, 4881
_ZN3std9panicking3try7do_call17hb1ed222a6d11014cE, 4882
_ZN4core3mem13manually_drop21ManuallyDrop$LT$T$GT$4take17h142d57fff21ee701E, 4883
_ZN4core3ptr4read17ha479da593e0d6cffE, 4884
_ZN4core10intrinsics19copy_nonoverlapping17h902f27f36c71e6d1E, 4885
_ZN4core3ptr78drop_in_place$LT$rayon_core..log..Logger..new..$u7b$$u7b$closure$u7d$$u7d$$GT$17h0da5c77cce79c658E, 4886
_ZN76_$LT$alloc..string..String$u20$as$u20$core..convert..From$LT$$RF$str$GT$$GT$4from17h8f3ff3f0ce512ee8E, 4887
_ZN100_$LT$alloc..string..String$u20$as$u20$core..ops..index..Index$LT$core..ops..range..RangeFull$GT$$GT$5index17h61685c6bc8b7aee0E, 4888
_ZN4core3str6traits66_$LT$impl$u20$core..ops..index..Index$LT$I$GT$$u20$for$u20$str$GT$5index17hb7c7b237418ae778E, 4889
_ZN4core3str6traits112_$LT$impl$u20$core..slice..index..SliceIndex$LT$str$GT$$u20$for$u20$core..ops..range..RangeFrom$LT$usize$GT$$GT$5index17hf67a53945b529afbE, 4890
_ZN4core3str6traits112_$LT$impl$u20$core..slice..index..SliceIndex$LT$str$GT$$u20$for$u20$core..ops..range..RangeFrom$LT$usize$GT$$GT$3get17h3fb2914b66c6d9f8E, 4891
_ZN4core3str21_$LT$impl$u20$str$GT$16is_char_boundary17hafdc42998d1e446aE, 4892
_ZN4core3str6traits112_$LT$impl$u20$core..slice..index..SliceIndex$LT$str$GT$$u20$for$u20$core..ops..range..RangeFrom$LT$usize$GT$$GT$13get_unchecked17h0c8a632b2afdcbb1E, 4893
_ZN4core5slice29_$LT$impl$u20$$u5b$T$u5d$$GT$3get17hd6168aef2234618bE, 4894
_ZN75_$LT$usize$u20$as$u20$core..slice..index..SliceIndex$LT$$u5b$T$u5d$$GT$$GT$3get17h9c0832d823359f87E, 4895
_ZN4core3str6traits66_$LT$impl$u20$core..ops..index..Index$LT$I$GT$$u20$for$u20$str$GT$5index17h8a6c737c636e884aE, 4896
_ZN4core3str6traits54_$LT$impl$u20$core..cmp..PartialEq$u20$for$u20$str$GT$2eq17h38b8f74a73bee7f8E, 4897
_ZN4core3cmp5impls69_$LT$impl$u20$core..cmp..PartialEq$LT$$RF$B$GT$$u20$for$u20$$RF$A$GT$2eq17h4efb09dd7a2497c7E, 4898
_ZN4core5slice3cmp81_$LT$impl$u20$core..cmp..PartialEq$LT$$u5b$B$u5d$$GT$$u20$for$u20$$u5b$A$u5d$$GT$2eq17hd11a986a4f5c7677E, 4899
_ZN73_$LT$$u5b$A$u5d$$u20$as$u20$core..slice..cmp..SlicePartialEq$LT$B$GT$$GT$5equal17hc8dbf4cdb2c4a6e0E, 4900
_ZN4core3mem11size_of_val17h44548e11c106f08bE, 4901
_ZN4core3str6traits99_$LT$impl$u20$core..slice..index..SliceIndex$LT$str$GT$$u20$for$u20$core..ops..range..RangeFull$GT$5index17h22d090414b88caa5E, 4902
_ZN55_$LT$$RF$str$u20$as$u20$core..str..pattern..Pattern$GT$12is_prefix_of17hfe6eeb7ebb83b1b7E, 4903
_ZN4core5slice29_$LT$impl$u20$$u5b$T$u5d$$GT$11starts_with17haa924f3ca48139e5E, 4904
_ZN4core5slice5index74_$LT$impl$u20$core..ops..index..Index$LT$I$GT$$u20$for$u20$$u5b$T$u5d$$GT$5index17hb7584ab543e0e863E, 4905
_ZN4core3ptr39drop_in_place$LT$std..env..VarError$GT$17h87a84e48682501acE, 4906
_ZN4core3ptr47drop_in_place$LT$std..ffi..os_str..OsString$GT$17ha6649aedfb971280E, 4907
_ZN4core3ptr55drop_in_place$LT$std..sys_common..os_str_bytes..Buf$GT$17heeb48ac41bf4d7acE, 4908
_ZN67_$LT$alloc..vec..Vec$LT$T$GT$$u20$as$u20$core..default..Default$GT$7default17h54db91be3fe078e0E, 4909
_ZN67_$LT$alloc..vec..Vec$LT$T$GT$$u20$as$u20$core..default..Default$GT$7default17h364a66a7d0b9f705E, 4910
_ZN93_$LT$alloc..vec..Vec$LT$T$C$A$GT$$u20$as$u20$core..iter..traits..collect..Extend$LT$T$GT$$GT$14extend_reserve17h978598738c350cc9E, 4911
_ZN93_$LT$alloc..vec..Vec$LT$T$C$A$GT$$u20$as$u20$core..iter..traits..collect..Extend$LT$T$GT$$GT$14extend_reserve17h41a51ff33c5a1cf2E, 4912
_ZN4core4iter6traits8iterator8Iterator5unzip6extend17ha976a4bea35d7d37E, 4913
_ZN5alloc3vec12Vec$LT$T$GT$3new17h81a1b34d3788f3b1E, 4914
_ZN5alloc3vec12Vec$LT$T$GT$3new17h4bd38a3638bb51c7E, 4915
_ZN4core4iter8adapters3map16Map$LT$I$C$F$GT$3new17h57e8a838a181b53bE, 4916
_ZN4core6result19Result$LT$T$C$E$GT$2ok17h0bfdb9ef57d70b10E, 4917
_ZN4core6option15Option$LT$T$GT$8and_then17h38b66330d91f0e45E, 4918
_ZN8num_cpus3get17h930a471d9abb3e29E, 4919
_ZN4core6option15Option$LT$T$GT$8and_then17he59156bb94a13ceeE, 4920
_ZN10rayon_core26ThreadPoolBuilder$LT$S$GT$15get_num_threads28_$u7b$$u7b$closure$u7d$$u7d$17h3e47fd99af167059E, 4921
_ZN4core6result19Result$LT$T$C$E$GT$2ok17hba8be031ded78736E, 4922
_ZN10rayon_core26ThreadPoolBuilder$LT$S$GT$15get_num_threads28_$u7b$$u7b$closure$u7d$$u7d$17hc2b5a4e94887e87fE, 4923
_ZN4core3mem4take17h25273ee37f28ad6dE, 4924
_ZN72_$LT$core..option..Option$LT$T$GT$$u20$as$u20$core..default..Default$GT$7default17h0ac413945f03a268E, 4925
_ZN4core3mem7replace17h14cd1733a73e9811E, 4926
_ZN4core3ptr4read17h83424b6790f6ac33E, 4927
_ZN4core3ptr5write17h91cd0ca7477020eaE, 4928
_ZN4core10intrinsics19copy_nonoverlapping17h4b6299df565e51daE, 4929
_ZN3std4sync4once4Once9call_once17h93bfeb4e1c1c1f61E, 4930
_ZN4core3ptr234drop_in_place$LT$std..sync..once..Once..call_once$LT$rayon_core..registry..set_global_registry$LT$rayon_core..registry..global_registry..$u7b$$u7b$closure$u7d$$u7d$$GT$..$u7b$$u7b$closure$u7d$$u7d$$GT$..$u7b$$u7b$closure$u7d$$u7d$$GT$17h5d3110039d06fbb6E, 4931
_ZN3std4sync4once4Once9call_once28_$u7b$$u7b$closure$u7d$$u7d$17h60228ae189afe3fdE, 4932
_ZN4core3ops8function6FnOnce40call_once$u7b$$u7b$vtable.shim$u7d$$u7d$17hde046fe3559c6e7fE, 4933
_ZN4core3ops8function6FnOnce9call_once17hd927d91411f17f13E, 4934
_ZN4core6option15Option$LT$T$GT$4take17h672e974aaa4a0d60E, 4935
_ZN4core6option15Option$LT$T$GT$6unwrap17h3507b3b6be8fcc89E, 4936
_ZN10rayon_core8registry19set_global_registry28_$u7b$$u7b$closure$u7d$$u7d$17hbc9f48aae3f1bbfaE, 4937
_ZN10rayon_core8registry15global_registry28_$u7b$$u7b$closure$u7d$$u7d$17ha64de6d40bca4987E, 4938
_ZN4core6result19Result$LT$T$C$E$GT$3map17h7c03d8e12aef5e1cE, 4939
_ZN10rayon_core8registry19set_global_registry28_$u7b$$u7b$closure$u7d$$u7d$28_$u7b$$u7b$closure$u7d$$u7d$17h5fd5c482a0ce3783E, 4940
_ZN10rayon_core17ThreadPoolBuilder3new17h0f85723a3420ea6eE, 4941
_ZN72_$LT$rayon_core..ThreadPoolBuilder$u20$as$u20$core..default..Default$GT$7default17hf63f2c47f49e3a8dE, 4942
_ZN4core3mem4take17hfac60f41b3d77e6cE, 4943
_ZN72_$LT$core..option..Option$LT$T$GT$$u20$as$u20$core..default..Default$GT$7default17h7c4fba1606b844dbE, 4944
_ZN4core3mem7replace17h689e1bcca0aeac80E, 4945
_ZN4core3ptr4read17h18d341fe09ffb54eE, 4946
_ZN4core3ptr5write17hc0fd24ef5daf9311E, 4947
_ZN4core10intrinsics19copy_nonoverlapping17hb5cbf946a842f49cE, 4948
_ZN3std4sync5mutex14Mutex$LT$T$GT$8try_lock17hbe66ab5ea5774b9aE, 4949
_ZN3std10sys_common5mutex12MovableMutex8try_lock17h9de5f14ec5ab8a03E, 4950
_ZN79_$LT$core..result..Result$LT$T$C$E$GT$$u20$as$u20$core..ops..try_trait..Try$GT$6branch17hd3f97a23c49ef9b2E, 4951
_ZN3std3sys4wasi5mutex5Mutex8try_lock17h4da7c2904cda673cE, 4952
_ZN3std4sync6poison20PoisonError$LT$T$GT$7get_ref17hb36cb6c45eab8b6bE, 4953
_ZN3std5error109_$LT$impl$u20$core..convert..From$LT$E$GT$$u20$for$u20$alloc..boxed..Box$LT$dyn$u20$std..error..Error$GT$$GT$4from17he95fd0103df66e9bE, 4954
_ZN70_$LT$rayon_core..ThreadPoolBuildError$u20$as$u20$std..error..Error$GT$6source17h80edc649bfb16c73E, 4955
_ZN3std5error5Error7type_id17h271c835406e8cd70E, 4956
_ZN3std5error5Error9backtrace17hb203e51e5d2f6832E, 4957
_ZN70_$LT$rayon_core..ThreadPoolBuildError$u20$as$u20$std..error..Error$GT$11description17h6807e4aab518c947E, 4958
_ZN3std5error5Error5cause17h03f578ff74ff639eE, 4959
_ZN71_$LT$rayon_core..ThreadPoolBuildError$u20$as$u20$core..fmt..Display$GT$3fmt17h69c592e670fccb42E, 4960
_ZN69_$LT$rayon_core..ThreadPoolBuildError$u20$as$u20$core..fmt..Debug$GT$3fmt17hcb2df451cb0156d0E, 4961
_ZN4core3ptr46drop_in_place$LT$$RF$rayon_core..ErrorKind$GT$17h49547ec30b4ada10E, 4962
_ZN42_$LT$$RF$T$u20$as$u20$core..fmt..Debug$GT$3fmt17hdf2dbc3cc32d68d0E, 4963
_ZN58_$LT$rayon_core..ErrorKind$u20$as$u20$core..fmt..Debug$GT$3fmt17hbb771ab96f6adaffE, 4964
_ZN4core3ptr46drop_in_place$LT$$RF$std..io..error..Error$GT$17h804e21dda747c6f4E, 4965
_ZN42_$LT$$RF$T$u20$as$u20$core..fmt..Debug$GT$3fmt17hffe8c05c6b586d86E, 4966
_ZN4core3any6TypeId2of17hb0ecbc6ac91de3f3E, 4967
_ZN3std5error5Error7type_id17hba29c2f71e31129eE, 4968
_ZN3std5error5Error9backtrace17h3884a8172b90f257E, 4969
_ZN4core3any6TypeId2of17hdb68a53b6ba1ef46E, 4970
_ZN3std6thread5local17LocalKey$LT$T$GT$4with17haf8b64fb15bdce9dE, 4971
_ZN3std6thread5local17LocalKey$LT$T$GT$8try_with17he4943a77c8017cfeE, 4972
_ZN4core6result19Result$LT$T$C$E$GT$6expect17h4b9650aa43256560E, 4973
_ZN4core3ops8function6FnOnce9call_once17h5b22dd7b9739ccf9E, 4974
_ZN3std6thread5local4lazy21LazyKeyInner$LT$T$GT$10initialize17h774f87328b58e74eE, 4975
_ZN4core3ops8function6FnOnce9call_once17h828a4216e3538ceaE, 4976
_ZN4core3mem7replace17h966ce03055ada12aE, 4977
_ZN4core3ptr77drop_in_place$LT$core..option..Option$LT$rayon_core..latch..LockLatch$GT$$GT$17h1610a63ae50b83abE, 4978
_ZN4core3ptr4read17h38f740df394d843dE, 4979
_ZN4core3ptr5write17hfcedca4987a02414E, 4980
_ZN4core10intrinsics19copy_nonoverlapping17hb2bc45d498c00852E, 4981
_ZN3std6thread5local4lazy21LazyKeyInner$LT$T$GT$3get17h79c69effc182620fE, 4982
_ZN4core6option15Option$LT$T$GT$6as_ref17h8445f150c7d7100eE, 4983
_ZN3std6thread5local6statik12Key$LT$T$GT$3get17h9946359714de42b6E, 4984
_ZN3std9panicking3try8do_catch17h242bfb1578f38a5eE, 4985
_ZN3std9panicking3try8do_catch17h415427fd54149d28E, 4986
_ZN3std9panicking3try8do_catch17h6318a09b073f80a7E, 4987
_ZN3std9panicking3try8do_catch17h67fb3bcdddf54374E, 4988
_ZN3std9panicking3try8do_catch17ha10ffce787523e4eE, 4989
_ZN3std9panicking3try8do_catch17hd6207f01e4998c24E, 4990
_ZN42_$LT$$RF$T$u20$as$u20$core..fmt..Debug$GT$3fmt17h0bd280e50463e786E, 4991
_ZN69_$LT$std..sync..mutex..Mutex$LT$T$GT$$u20$as$u20$core..fmt..Debug$GT$3fmt17h1d6767bc791d431aE, 4992
_ZN4core3ptr25drop_in_place$LT$bool$GT$17h92a22004795362edE, 4993
_ZN41_$LT$bool$u20$as$u20$core..fmt..Debug$GT$3fmt17h237c37fd18e73246E, 4994
_ZN4core3ptr29drop_in_place$LT$$RF$bool$GT$17h9e3b04f8a49df9d8E, 4995
_ZN4core3ptr113drop_in_place$LT$$LT$std..sync..mutex..Mutex$LT$T$GT$$u20$as$u20$core..fmt..Debug$GT$..fmt..LockedPlaceholder$GT$17h9e2ba91c37f5c174E, 4996
_ZN42_$LT$$RF$T$u20$as$u20$core..fmt..Debug$GT$3fmt17h19f3866c6a1d9034E, 4997
_ZN42_$LT$$RF$T$u20$as$u20$core..fmt..Debug$GT$3fmt17h3f95b328c40667ebE, 4998
_ZN42_$LT$$RF$T$u20$as$u20$core..fmt..Debug$GT$3fmt17h8316456f38156074E, 4999
_ZN65_$LT$rayon_core..latch..LockLatch$u20$as$u20$core..fmt..Debug$GT$3fmt17hd15bb8c88cb15d5aE, 5000
_ZN4core3ptr52drop_in_place$LT$$RF$std..sync..condvar..Condvar$GT$17h0993e77ce230e8dcE, 5001
_ZN4core3ptr60drop_in_place$LT$$RF$std..sync..mutex..Mutex$LT$bool$GT$$GT$17hc3f24d90ad1c0c22E, 5002
_ZN42_$LT$$RF$T$u20$as$u20$core..fmt..Debug$GT$3fmt17h8add324ee0acc024E, 5003
_ZN4core3ptr87_$LT$impl$u20$core..fmt..Debug$u20$for$u20$unsafe$u20$fn$LP$A$RP$$u20$.$GT$$u20$Ret$GT$3fmt17h84fcbeebdbdce53dE, 5004
_ZN54_$LT$$BP$const$u20$T$u20$as$u20$core..fmt..Pointer$GT$3fmt17h6ff9f3bc83a9bd89E, 5005
_ZN42_$LT$$RF$T$u20$as$u20$core..fmt..Debug$GT$3fmt17hcb9d4b21068aa56eE, 5006
_ZN52_$LT$$BP$const$u20$T$u20$as$u20$core..fmt..Debug$GT$3fmt17hbca4e3dd94feb005E, 5007
_ZN42_$LT$$RF$T$u20$as$u20$core..fmt..Debug$GT$3fmt17he57c6dca86e8a58fE, 5008
_ZN136_$LT$$LT$rayon_core..ThreadPoolBuilder$LT$S$GT$$u20$as$u20$core..fmt..Debug$GT$..fmt..ClosurePlaceholder$u20$as$u20$core..fmt..Debug$GT$3fmt17h5772adccaeafcd24E, 5009
_ZN42_$LT$$RF$T$u20$as$u20$core..fmt..Debug$GT$3fmt17hed7b68b4f45088cdE, 5010
_ZN69_$LT$rayon_core..registry..RegistryId$u20$as$u20$core..fmt..Debug$GT$3fmt17ha5e9a2cb145c6c13E, 5011
_ZN42_$LT$$RF$T$u20$as$u20$core..fmt..Debug$GT$3fmt17hf42d42b9d1537916E, 5012
_ZN71_$LT$core..marker..PhantomData$LT$T$GT$$u20$as$u20$core..fmt..Debug$GT$3fmt17h51da6e2ea0880697E, 5013
_ZN42_$LT$$RF$T$u20$as$u20$core..fmt..Debug$GT$3fmt17hf845eab1d9a64ad6E, 5014
_ZN65_$LT$rayon_core..latch..CoreLatch$u20$as$u20$core..fmt..Debug$GT$3fmt17h987a02d5cb36267dE, 5015
_ZN4core3ptr56drop_in_place$LT$$RF$core..sync..atomic..AtomicUsize$GT$17h8f2e6e0e610e6ff4E, 5016
_ZN4core3cmp3min17h44eee707f3f157b3E, 5017
_ZN4core3mem6forget17hf99813291cf7da27E, 5018
_ZN4core3ptr107drop_in_place$LT$core..cell..UnsafeCell$LT$core..option..Option$LT$rayon_core..latch..LockLatch$GT$$GT$$GT$17hd85aead99d2a3291E, 5019
_ZN4core3ptr116drop_in_place$LT$alloc..boxed..Box$LT$alloc..boxed..Box$LT$dyn$u20$core..any..Any$u2b$core..marker..Send$GT$$GT$$GT$17h469a57d4e7100d43E, 5020
_ZN5alloc5alloc8box_free17ha93a1c6794b96d65E, 5021
_ZN4core3ptr6unique15Unique$LT$T$GT$6as_ref17hfdb374ed51f829acE, 5022
_ZN4core3ptr6unique15Unique$LT$T$GT$4cast17h9012accd743ab682E, 5023
_ZN4core3ptr6unique15Unique$LT$T$GT$6as_ptr17h9bb515c15a8c489dE, 5024
_ZN4core3ptr126drop_in_place$LT$dyn$u20$core..ops..function..FnMut$LT$$LP$usize$C$$RP$$GT$$u2b$Output$u20$$u3d$$u20$alloc..string..String$GT$17h235e01858c29ca7fE, 5025
_ZN4core3ptr156drop_in_place$LT$dyn$u20$core..ops..function..Fn$LT$$LP$usize$C$$RP$$GT$$u2b$Output$u20$$u3d$$u20$$LP$$RP$$u2b$core..marker..Sync$u2b$core..marker..Send$GT$17ha54314a30e2c0524E, 5026
_ZN4core3ptr221drop_in_place$LT$dyn$u20$core..ops..function..Fn$LT$$LP$alloc..boxed..Box$LT$dyn$u20$core..any..Any$u2b$core..marker..Send$GT$$C$$RP$$GT$$u2b$Output$u20$$u3d$$u20$$LP$$RP$$u2b$core..marker..Sync$u2b$core..marker..Send$GT$17h47c5b254c2d92d8bE, 5027
_ZN4core3ptr50drop_in_place$LT$rayon_core..scope..ScopeLatch$GT$17hf19ee166ac936e9aE, 5028
_ZN4core3ptr54drop_in_place$LT$rayon_core..latch..CountLockLatch$GT$17hc0a3ec754da96c0eE, 5029
_ZN4core3ptr66drop_in_place$LT$dyn$u20$core..any..Any$u2b$core..marker..Send$GT$17hfeebe5de1fa1461fE, 5030
_ZN4core3ptr6unique15Unique$LT$T$GT$13new_unchecked17h63ebb7826176d98aE, 5031
_ZN4core3ptr7mut_ptr31_$LT$impl$u20$$BP$mut$u20$T$GT$7is_null17hec361a3256fc5c5dE, 5032
_ZN4core3ptr88drop_in_place$LT$std..thread..local..statik..Key$LT$rayon_core..latch..LockLatch$GT$$GT$17h3ee9947fb06fd51cE, 5033
_ZN4core3ptr95drop_in_place$LT$std..thread..local..lazy..LazyKeyInner$LT$rayon_core..latch..LockLatch$GT$$GT$17h435a88b0ef09fae0E, 5034
_ZN4core3ptr92drop_in_place$LT$dyn$u20$std..error..Error$u2b$core..marker..Sync$u2b$core..marker..Send$GT$17h422a0ece2dd9f1fbE, 5035
_ZN4core3ptr9const_ptr33_$LT$impl$u20$$BP$const$u20$T$GT$6as_ref17h87ab8cbd2a4a5fe8E, 5036
_ZN4core3ptr9const_ptr33_$LT$impl$u20$$BP$const$u20$T$GT$7is_null17hca69a46b982525a2E, 5037
_ZN4core4iter6traits8iterator8Iterator3map17h05e0897670924833E, 5038
_ZN4core4iter8adapters3map16Map$LT$I$C$F$GT$3new17hdfd2e178e7f543e9E, 5039
_ZN4core4iter6traits8iterator8Iterator7collect17h94a5dc834a177e16E, 5040
_ZN95_$LT$alloc..vec..Vec$LT$T$GT$$u20$as$u20$core..iter..traits..collect..FromIterator$LT$T$GT$$GT$9from_iter17h785d190f0de504c7E, 5041
_ZN63_$LT$I$u20$as$u20$core..iter..traits..collect..IntoIterator$GT$9into_iter17ha646f8a902d3b3e9E, 5042
_ZN98_$LT$alloc..vec..Vec$LT$T$GT$$u20$as$u20$alloc..vec..spec_from_iter..SpecFromIter$LT$T$C$I$GT$$GT$9from_iter17hfff5690f71b0e651E, 5043
_ZN4core4sync6atomic11atomic_load17hab73d0cafded2f2eE, 5044
_ZN4core4sync6atomic11atomic_swap17h0322f965f5e10026E, 5045
_ZN4core4sync6atomic18AtomicPtr$LT$T$GT$16compare_exchange17he1a3beb695235846E, 5046
_ZN4core4sync6atomic23atomic_compare_exchange17hc915c6ba678d2144E, 5047
_ZN4core4sync6atomic18AtomicPtr$LT$T$GT$3new17heb254b6bbfa67170E, 5048
_ZN4core4sync6atomic18AtomicPtr$LT$T$GT$4load17h31ef50dabf8982dcE, 5049
_ZN4core4sync6atomic18AtomicPtr$LT$T$GT$4swap17h5e97648204d1c7e0E, 5050
_ZN4core5slice29_$LT$impl$u20$$u5b$T$u5d$$GT$3len17h91f9f2c11919dbe8E, 5051
_ZN4core5slice29_$LT$impl$u20$$u5b$T$u5d$$GT$4iter17h8b1462585a34caccE, 5052
_ZN4core5slice4iter13Iter$LT$T$GT$3new17h6f17be09b9ca5491E, 5053
_ZN4core5slice29_$LT$impl$u20$$u5b$T$u5d$$GT$6as_ptr17ha6ab0789b0d4c2f4E, 5054
_ZN4core5slice4iter87_$LT$impl$u20$core..iter..traits..collect..IntoIterator$u20$for$u20$$RF$$u5b$T$u5d$$GT$9into_iter17h23c87e7a95c9b7a5E, 5055
_ZN4core6option15Option$LT$T$GT$14unwrap_or_else17h4ca628f872ce37c5E, 5056
_ZN10rayon_core5scope9ScopeBase3new28_$u7b$$u7b$closure$u7d$$u7d$17hd12128c6a74ddc1aE, 5057
_ZN10rayon_core8registry15global_registry17hb8b39afb90fd7f3eE, 5058
_ZN10rayon_core8registry12WorkerThread8registry17h0a3f2254b9106a48E, 5059
_ZN10rayon_core8registry19set_global_registry17h5cf9f8127219e295E, 5060
_ZN4core6result19Result$LT$T$C$E$GT$7or_else17h49a6d795e94f5932E, 5061
_ZN4core6result19Result$LT$T$C$E$GT$6expect17hf25b97592778b092E, 5062
_ZN10rayon_core8registry15global_registry28_$u7b$$u7b$closure$u7d$$u7d$17h36eeafd3d0753c98E, 5063
_ZN4core6option15Option$LT$T$GT$6as_ref17h4893cf8122ece3afE, 5064
_ZN4core6option15Option$LT$T$GT$5ok_or17hdb930960a5d2fce2E, 5065
_ZN4core6option15Option$LT$T$GT$3map17h22f19babf826a6d7E, 5066
_ZN75_$LT$rayon_core..ThreadPoolBuilder$LT$S$GT$$u20$as$u20$core..fmt..Debug$GT$3fmt28_$u7b$$u7b$closure$u7d$$u7d$17hb0c3aee1690a7a5aE, 5067
_ZN4core6option15Option$LT$T$GT$3map17h56f5773cfc3bcd2aE_original, 5068
_ZN75_$LT$rayon_core..ThreadPoolBuilder$LT$S$GT$$u20$as$u20$core..fmt..Debug$GT$3fmt28_$u7b$$u7b$closure$u7d$$u7d$17h6a5124a3172233c3E, 5069
_ZN4core6option15Option$LT$T$GT$3map17hba3eda595213457dE, 5070
_ZN75_$LT$rayon_core..ThreadPoolBuilder$LT$S$GT$$u20$as$u20$core..fmt..Debug$GT$3fmt28_$u7b$$u7b$closure$u7d$$u7d$17h27cd1bed57f8ada8E, 5071
_ZN4core6option15Option$LT$T$GT$3map17he3c21e29a8735fd0E, 5072
_ZN75_$LT$rayon_core..ThreadPoolBuilder$LT$S$GT$$u20$as$u20$core..fmt..Debug$GT$3fmt28_$u7b$$u7b$closure$u7d$$u7d$17hff8e328fddfb740bE, 5073
_ZN4core6option15Option$LT$T$GT$6as_ref17h1a1285c700c187c9E, 5074
_ZN4core6option15Option$LT$T$GT$6as_ref17he1e360455140e8b9E, 5075
_ZN4core6option15Option$LT$T$GT$6as_ref17he7aa8d61b826a27cE, 5076
_ZN4core6option15Option$LT$T$GT$6expect17h548551c63c9f0913E, 5077
_ZN4core6result19Result$LT$T$C$E$GT$5is_ok17h68a9102808675306E, 5078
_ZN4core6result19Result$LT$T$C$E$GT$7map_err17h23995b46102d7492E, 5079
_ZN4core3ops8function6FnOnce9call_once17h5f20d3310ded3637E, 5080
_ZN4core6result19Result$LT$T$C$E$GT$7map_err17hfa9c8e34bd58c097E, 5081
_ZN4core9panicking13assert_failed17hb795968e4c66a282E, 5082
_ZN4core3ptr57drop_in_place$LT$$RF$rayon_core..registry..RegistryId$GT$17h30119fb34451f8daE, 5083
_ZN50_$LT$$BP$mut$u20$T$u20$as$u20$core..fmt..Debug$GT$3fmt17h01c79f092bf67f07E, 5084
_ZN52_$LT$$BP$mut$u20$T$u20$as$u20$core..fmt..Pointer$GT$3fmt17h739ddfea5d1ed0d6E, 5085
_ZN54_$LT$$BP$const$u20$T$u20$as$u20$core..fmt..Pointer$GT$3fmt17h5e3425e3d5f3868aE, 5086
_ZN5alloc5boxed12Box$LT$T$GT$8from_raw17h9034665f0f85ce9dE, 5087
_ZN5alloc5boxed16Box$LT$T$C$A$GT$11from_raw_in17hfc0d3821022bc7b7E, 5088
_ZN66_$LT$core..option..Option$LT$T$GT$$u20$as$u20$core..fmt..Debug$GT$3fmt17h19ce23b823626d0bE, 5089
_ZN4core3ptr46drop_in_place$LT$$RF$alloc..string..String$GT$17hd0920fc5312660ecE, 5090
_ZN66_$LT$core..option..Option$LT$T$GT$$u20$as$u20$core..fmt..Debug$GT$3fmt17hd85d35117d6e9cc3E, 5091
_ZN4core3ptr124drop_in_place$LT$$RF$$LT$rayon_core..ThreadPoolBuilder$LT$S$GT$$u20$as$u20$core..fmt..Debug$GT$..fmt..ClosurePlaceholder$GT$17h358b7488ae28bf71E, 5092
_ZN75_$LT$core..option..Option$LT$T$GT$$u20$as$u20$core..ops..try_trait..Try$GT$6branch17h482e6c4ac5bf5221E, 5093
_ZN75_$LT$core..sync..atomic..AtomicPtr$LT$T$GT$$u20$as$u20$core..fmt..Debug$GT$3fmt17h1b253528a802f3d7E, 5094
_ZN79_$LT$core..result..Result$LT$T$C$E$GT$$u20$as$u20$core..ops..try_trait..Try$GT$6branch17h30af6ff57ecd8cf9E, 5095
_ZN79_$LT$core..result..Result$LT$T$C$E$GT$$u20$as$u20$core..ops..try_trait..Try$GT$6branch17he704548b4409b185E, 5096
_ZN84_$LT$core..option..Option$LT$T$GT$$u20$as$u20$core..ops..try_trait..FromResidual$GT$13from_residual17hd6b501095d807fe4E, 5097
_ZN91_$LT$core..slice..iter..Iter$LT$T$GT$$u20$as$u20$core..iter..traits..iterator..Iterator$GT$4next17hd36e73fbc400c266E, 5098
_ZN94_$LT$$RF$alloc..vec..Vec$LT$T$C$A$GT$$u20$as$u20$core..iter..traits..collect..IntoIterator$GT$9into_iter17h9ddfa1e9f83bf30eE, 5099
_ZN10rayon_core3log6Logger3log17h154aa78716ccda80E, 5100
_ZN10rayon_core5sleep5Sleep8new_jobs28_$u7b$$u7b$closure$u7d$$u7d$17ha33e0627ca6ce5c6E, 5101
_ZN10rayon_core3log6Logger3log17ha76818a8dd18af3aE, 5102
_ZN10rayon_core8registry8Registry6inject28_$u7b$$u7b$closure$u7d$$u7d$17ha1ab8aad88defb84E, 5103
_ZN10rayon_core3log6Logger3log17hc6a60b6a17ff6374E, 5104
_ZN10rayon_core8registry12WorkerThread4push28_$u7b$$u7b$closure$u7d$$u7d$17hfcd50a93b79ab526E, 5105
_ZN10rayon_core3job6JobRef3new17hdb4b938886286ed3E, 5106
_ZN65_$LT$rayon_core..job..JobFifo$u20$as$u20$rayon_core..job..Job$GT$7execute17ha39698d1f81c75d2E, 5107
_ZN10rayon_core3job7JobFifo4push17habf7019498547f68E, 5108
_ZN10rayon_core4join23join_recover_from_panic17h0f96121a484918a7E, 5109
_ZN10rayon_core8registry12WorkerThread10wait_until17h5a88677235ab4b4dE, 5110
_ZN10rayon_core6unwind16resume_unwinding17h05909c37158030d9E, 5111
_ZN79_$LT$rayon_core..latch..SpinLatch$u20$as$u20$rayon_core..latch..AsCoreLatch$GT$13as_core_latch17h1ee2e841f9b8d07fE, 5112
_ZN10rayon_core5latch9LockLatch14wait_and_reset17hf17da43f9aec8a0dE, 5113
_ZN10rayon_core8registry13ThreadBuilder5index17h9d52fadf08c7ed82E, 5114
_ZN72_$LT$rayon_core..registry..ThreadBuilder$u20$as$u20$core..fmt..Debug$GT$3fmt17h85c97dc1c011152cE, 5115
_ZN10rayon_core8registry8Registry2id17hbbbb17a704ba391cE, 5116
_ZN4core3ptr54drop_in_place$LT$core..option..Option$LT$usize$GT$$GT$17h6253dfa0c4e44e68E, 5117
_ZN4core3ptr53drop_in_place$LT$rayon_core..registry..RegistryId$GT$17h9455b90665e724efE, 5118
_ZN10rayon_core8registry20init_global_registry17hac20b1968c7afe19E, 5119
_ZN10rayon_core8registry19set_global_registry17hb9c0c9a3b8716bc4E, 5120
_ZN10rayon_core8registry8Registry7current17h02f8ef3e109c8b32E, 5121
_ZN10rayon_core8registry12WorkerThread7current17h164439dea7e22d7cE, 5122
_ZN10rayon_core8registry8Registry14current_thread17hd79bea76e48a31f0E, 5123
_ZN73_$LT$rayon_core..registry..RegistryId$u20$as$u20$core..cmp..PartialEq$GT$2eq17h95baa655e34c5b24E, 5124
_ZN10rayon_core8registry8Registry11num_threads17h9cc95f6a9f640c3eE, 5125
_ZN10rayon_core8registry8Registry17wait_until_primed17h7743399f77cb2c7eE, 5126
_ZN10rayon_core5latch9LockLatch4wait17h451a8ed398e17a28E, 5127
_ZN10rayon_core8registry8Registry14inject_or_push17h0ac9bd8140cd0aa2E, 5128
_ZN10rayon_core8registry8Registry6inject17ha73843eb4b6b7684E, 5129
_ZN10rayon_core8registry12WorkerThread4push17hcd156ceb9c4fcfa4E, 5130
_ZN10rayon_core8registry12WorkerThread3log17h10517a6b87edaf51E, 5131
_ZN10rayon_core5sleep5Sleep17new_internal_jobs17hca11e7406e25ce7aE, 5132
_ZN10rayon_core5sleep5Sleep8new_jobs17h3ff29e873c84927aE, 5133
_ZN10rayon_core5sleep8counters14AtomicCounters31increment_jobs_event_counter_if17h323155e361ff3123E, 5134
_ZN10rayon_core5sleep8counters8Counters22awake_but_idle_threads17h1e80f5d089e9cae3E, 5135
_ZN4core3ops8function2Fn4call17ha194ec4b3fbe081aE, 5136
_ZN10rayon_core8registry8Registry3log17h1895127e13c73faaE, 5137
_ZN10rayon_core5sleep5Sleep17new_injected_jobs17ha0651af2fbf71006E, 5138
_ZN10rayon_core8registry8Registry25increment_terminate_count17h97952f37be8cafbcE, 5139
_ZN10rayon_core5scope5Scope3new17hfffe7490bd99b7bcE, 5140
_ZN10rayon_core5scope9ScopeBase3new17ha164011ee5f28218E, 5141
_ZN10rayon_core5scope10ScopeLatch3new17h1676e669249ab4f2E, 5142
_ZN10rayon_core5latch14CountLockLatch3new17h3b19d3bb852208d5E, 5143
_ZN10rayon_core8registry12WorkerThread5index17h1f96ce82ee5e39e2E, 5144
_ZN10rayon_core5scope9ScopeFifo3new17h6cf87182239eb9d5E, 5145
_ZN10rayon_core5scope9ScopeBase9increment17h5cd641502b464298E, 5146
_ZN10rayon_core5scope10ScopeLatch9increment17h186298bbbdba2f95E, 5147
_ZN10rayon_core5latch10CountLatch9increment17hb1706547e1a1bb74E, 5148
_ZN10rayon_core5latch14CountLockLatch9increment17h914d59064baad58fE, 5149
_ZN10rayon_core5scope9ScopeBase12job_panicked17ha03a5e1e2ba467aaE, 5150
_ZN10rayon_core5scope9ScopeBase21maybe_propagate_panic17hb0cc037c7d47a132E, 5151
_ZN10rayon_core5scope10ScopeLatch3set17ha6d441807ca82912E, 5152
_ZN78_$LT$rayon_core..latch..CountLockLatch$u20$as$u20$rayon_core..latch..Latch$GT$3set17h4238104b88b47fe7E, 5153
_ZN10rayon_core5scope10ScopeLatch4wait17hb5149f46d2c047c6E, 5154
_ZN10rayon_core5latch14CountLockLatch4wait17hf078f019685effa9E, 5155
_ZN61_$LT$rayon_core..scope..Scope$u20$as$u20$core..fmt..Debug$GT$3fmt17h6b76ca75d5689fa1E, 5156
_ZN66_$LT$rayon_core..scope..ScopeLatch$u20$as$u20$core..fmt..Debug$GT$3fmt17h6197616d5479d4c3E, 5157
_ZN4core3ptr50drop_in_place$LT$rayon_core..latch..CountLatch$GT$17hc7988aedecb3a393E, 5158
_ZN66_$LT$rayon_core..latch..CountLatch$u20$as$u20$core..fmt..Debug$GT$3fmt17he71bd55f6256ebcaE, 5159
_ZN4core3ptr53drop_in_place$LT$$RF$rayon_core..latch..CoreLatch$GT$17h14cfb32dd74aeb12E, 5160
_ZN70_$LT$rayon_core..latch..CountLockLatch$u20$as$u20$core..fmt..Debug$GT$3fmt17hfd43ada4e8304a41E, 5161
_ZN4core3ptr53drop_in_place$LT$$RF$rayon_core..latch..LockLatch$GT$17hf10c50a321482a8dE, 5162
_ZN4core3ptr128drop_in_place$LT$core..sync..atomic..AtomicPtr$LT$alloc..boxed..Box$LT$dyn$u20$core..any..Any$u2b$core..marker..Send$GT$$GT$$GT$17h350b8ca2227ef32aE, 5163
_ZN65_$LT$rayon_core..scope..ScopeFifo$u20$as$u20$core..fmt..Debug$GT$3fmt17hd2da589f3ca6e60aE, 5164
_ZN10rayon_core11thread_pool10ThreadPool3new17hb6fde7a80a96a001E, 5165
_ZN10rayon_core13Configuration12into_builder17h813399087d94b9d8E, 5166
_ZN10rayon_core11thread_pool10ThreadPool5build17h8e1a2e506a74ccf7E, 5167
_ZN77_$LT$rayon_core..thread_pool..ThreadPool$u20$as$u20$core..ops..drop..Drop$GT$4drop17h7aad1db623409234E, 5168
_ZN72_$LT$rayon_core..thread_pool..ThreadPool$u20$as$u20$core..fmt..Debug$GT$3fmt17hf4d545d93a0944b0E, 5169
_ZN10rayon_core11thread_pool10ThreadPool19current_num_threads17h9467a49895412b38E, 5170
_ZN10rayon_core19current_num_threads17h42458756a0c3684fE, 5171
_ZN10rayon_core8registry8Registry19current_num_threads17h5d7718f3e1381215E, 5172
_ZN10rayon_core26ThreadPoolBuilder$LT$S$GT$5build17h20ed6b69b7649ba6E, 5173
_ZN10rayon_core26ThreadPoolBuilder$LT$S$GT$12build_global17h7f6df0ff1c908598E, 5174
_ZN10rayon_core26ThreadPoolBuilder$LT$S$GT$11num_threads17h3ffbee2fc89230a9E, 5175
_ZN10rayon_core26ThreadPoolBuilder$LT$S$GT$10stack_size17h3d49d2bfe049748aE, 5176
_ZN10rayon_core26ThreadPoolBuilder$LT$S$GT$13breadth_first17h6cd45317ca320a11E, 5177
_ZN10rayon_core13Configuration3new17h3252ed9e90321c01E, 5178
_ZN10rayon_core13Configuration5build17hcfe854840b4b8d9eE, 5179
_ZN10rayon_core13Configuration11num_threads17hc6bde1738a5ef73fE, 5180
_ZN10rayon_core13Configuration10stack_size17h160973a8400b88bbE, 5181
_ZN10rayon_core13Configuration13breadth_first17h20857d4c92122124E, 5182
_ZN10rayon_core10initialize17h2f643dbaeeee6c7dE, 5183
_ZN75_$LT$rayon_core..ThreadPoolBuilder$LT$S$GT$$u20$as$u20$core..fmt..Debug$GT$3fmt17hb24062688cc43d64E, 5184
_ZN4core3ptr148drop_in_place$LT$core..option..Option$LT$$LT$rayon_core..ThreadPoolBuilder$LT$S$GT$$u20$as$u20$core..fmt..Debug$GT$..fmt..ClosurePlaceholder$GT$$GT$17h140cf9bb1b910b77E, 5185
_ZN68_$LT$rayon_core..Configuration$u20$as$u20$core..default..Default$GT$7default17hde091960eb93d773E, 5186
_ZN62_$LT$rayon_core..Configuration$u20$as$u20$core..fmt..Debug$GT$3fmt17hb3a29cc4f2b0e2a0E, 5187
_ZN60_$LT$rayon_core..job..JobRef$u20$as$u20$core..fmt..Debug$GT$3fmt17h09551efc93534f94E, 5188
_ZN4core3ptr68drop_in_place$LT$$RF$unsafe$u20$fn$LP$$BP$const$u20$$LP$$RP$$RP$$GT$17h5f15829eeee5834dE, 5189
_ZN4core3ptr47drop_in_place$LT$$RF$$BP$const$u20$$LP$$RP$$GT$17h952c5cc5f835e2b9E, 5190
_ZN71_$LT$rayon_core..registry..DefaultSpawn$u20$as$u20$core..fmt..Debug$GT$3fmt17h54163dc530dca76cE, 5191
_ZN88_$LT$rayon_core..registry..DefaultSpawn$u20$as$u20$rayon_core..registry..ThreadSpawn$GT$17__rayon_private__17h8baa08884e3fa286E, 5192
_ZN82_$LT$rayon_core..sleep..counters..JobsEventCounter$u20$as$u20$core..fmt..Debug$GT$3fmt17h294256fb3cb1dd8fE, 5193
_ZN58_$LT$rayon_core..FnContext$u20$as$u20$core..fmt..Debug$GT$3fmt17hdb2f4eedd6a2b16fE, 5194
_ZN4core3ptr78drop_in_place$LT$$RF$core..marker..PhantomData$LT$$BP$mut$u20$$LP$$RP$$GT$$GT$17h93bc27c0bd2ad137E, 5195
_ZN101_$LT$std..panic..AssertUnwindSafe$LT$F$GT$$u20$as$u20$core..ops..function..FnOnce$LT$$LP$$RP$$GT$$GT$9call_once17h9127cfb77cb0f54dE, 5196
_ZN3std6thread7Builder15spawn_unchecked28_$u7b$$u7b$closure$u7d$$u7d$28_$u7b$$u7b$closure$u7d$$u7d$17h5b377a95e7343412E, 5197
_ZN3std10sys_common9backtrace28__rust_begin_short_backtrace17h4b09f935a2974bf3E, 5198
_ZN17scoped_threadpool4Pool3new28_$u7b$$u7b$closure$u7d$$u7d$17h13542f440f76fef9E, 5199
_ZN4core4hint9black_box17h691c3c396ff65595E, 5200
_ZN69_$LT$alloc..sync..Arc$LT$T$GT$$u20$as$u20$core..ops..deref..Deref$GT$5deref17h54354e5309b7708cE, 5201
_ZN3std4sync5mutex14Mutex$LT$T$GT$4lock17hdfba8d76fa8ef145E, 5202
_ZN4core6result19Result$LT$T$C$E$GT$6unwrap17h39dda7943462b1a7E, 5203
_ZN81_$LT$std..sync..mutex..MutexGuard$LT$T$GT$$u20$as$u20$core..ops..deref..Deref$GT$5deref17heed54d1680ab4c9aE, 5204
_ZN3std4sync4mpsc17Receiver$LT$T$GT$4recv17hae14475d8fcce27fE, 5205
_ZN4core3ptr116drop_in_place$LT$std..sync..mutex..MutexGuard$LT$std..sync..mpsc..Receiver$LT$scoped_threadpool..Message$GT$$GT$$GT$17hf59b6c0eab9e4321E, 5206
_ZN3std4sync4mpsc19SyncSender$LT$T$GT$4send17h79a5fb63671292d4E, 5207
_ZN4core6result19Result$LT$T$C$E$GT$6is_err17hb4d3d198d22815a4E, 5208
_ZN3std4sync4mpsc17Receiver$LT$T$GT$4recv17he0b65db607cf0641E, 5209
_ZN4core6result19Result$LT$T$C$E$GT$6is_err17hb57476074902482dE, 5210
_ZN4core3ptr78drop_in_place$LT$scoped_threadpool..Pool..new..$u7b$$u7b$closure$u7d$$u7d$$GT$17h4692effa60f2eb4bE, 5211
_ZN4core3ptr135drop_in_place$LT$alloc..sync..Arc$LT$std..sync..mutex..Mutex$LT$std..sync..mpsc..Receiver$LT$scoped_threadpool..Message$GT$$GT$$GT$$GT$17he7ae40164ea3bb89E, 5212
_ZN4core3ptr64drop_in_place$LT$std..sync..mpsc..SyncSender$LT$$LP$$RP$$GT$$GT$17h58e86a93c5b1ec5dE, 5213
_ZN4core3ptr62drop_in_place$LT$std..sync..mpsc..Receiver$LT$$LP$$RP$$GT$$GT$17h1acf14ff213f42c7E, 5214
_ZN76_$LT$std..sync..mpsc..Receiver$LT$T$GT$$u20$as$u20$core..ops..drop..Drop$GT$4drop17h924c66a15b5d9dedE, 5215
_ZN4core3ptr90drop_in_place$LT$core..cell..UnsafeCell$LT$std..sync..mpsc..Flavor$LT$$LP$$RP$$GT$$GT$$GT$17ha2ddffe25bdbcb10E, 5216
_ZN4core3ptr60drop_in_place$LT$std..sync..mpsc..Flavor$LT$$LP$$RP$$GT$$GT$17h34b8c45798d387d1E, 5217
_ZN4core3ptr90drop_in_place$LT$alloc..sync..Arc$LT$std..sync..mpsc..sync..Packet$LT$$LP$$RP$$GT$$GT$$GT$17h6f30e8c3ac4d399cE, 5218
_ZN4core3ptr93drop_in_place$LT$alloc..sync..Arc$LT$std..sync..mpsc..oneshot..Packet$LT$$LP$$RP$$GT$$GT$$GT$17h4df2d3b94ff158f9E, 5219
_ZN4core3ptr92drop_in_place$LT$alloc..sync..Arc$LT$std..sync..mpsc..stream..Packet$LT$$LP$$RP$$GT$$GT$$GT$17hd3d955e7b08a7aafE, 5220
_ZN4core3ptr92drop_in_place$LT$alloc..sync..Arc$LT$std..sync..mpsc..shared..Packet$LT$$LP$$RP$$GT$$GT$$GT$17h46b09f821574792bE, 5221
_ZN67_$LT$alloc..sync..Arc$LT$T$GT$$u20$as$u20$core..ops..drop..Drop$GT$4drop17h1d833196466310a5E, 5222
_ZN5alloc4sync12Arc$LT$T$GT$5inner17heda396c40c52d0f4E, 5223
_ZN4core4sync6atomic11AtomicUsize9fetch_sub17h6f5e92242fd6cd96E, 5224
_ZN4core4sync6atomic5fence17h9e51538ac9d6c870E, 5225
_ZN5alloc4sync12Arc$LT$T$GT$9drop_slow17h54972a3046f33892E, 5226
_ZN5alloc4sync12Arc$LT$T$GT$17get_mut_unchecked17h4029e32226fd6ef2E, 5227
_ZN4core3ptr68drop_in_place$LT$std..sync..mpsc..shared..Packet$LT$$LP$$RP$$GT$$GT$17hff92408bf22970a0E, 5228
_ZN4core3mem4drop17h4b00d7e559237d0eE, 5229
_ZN4core3ptr93drop_in_place$LT$alloc..sync..Weak$LT$std..sync..mpsc..shared..Packet$LT$$LP$$RP$$GT$$GT$$GT$17h69cd867a61367134E, 5230
_ZN68_$LT$alloc..sync..Weak$LT$T$GT$$u20$as$u20$core..ops..drop..Drop$GT$4drop17h63df3f020e30d9a4E, 5231
_ZN5alloc4sync13Weak$LT$T$GT$5inner17h48806ccc00dc6d8cE, 5232
_ZN4core3ptr8non_null16NonNull$LT$T$GT$4cast17h31f102b06294bb04E, 5233
_ZN4core3ptr8non_null16NonNull$LT$T$GT$6as_ptr17haac189bcc9328118E, 5234
_ZN4core5alloc6layout6Layout13for_value_raw17h55f79119ee93af1cE, 5235
_ZN63_$LT$alloc..alloc..Global$u20$as$u20$core..alloc..Allocator$GT$10deallocate17h80fb12eb076ea56cE, 5236
_ZN4core5alloc6layout6Layout4size17h0fd0ca8d51d786dbE, 5237
_ZN4core3ptr8non_null16NonNull$LT$T$GT$6as_ptr17hf76513629dd01d74E, 5238
_ZN5alloc5alloc7dealloc17h2147864947dc7303E, 5239
_ZN4core5alloc6layout6Layout5align17ha3ef1fff29511b14E, 5240
_ZN4core3num7nonzero12NonZeroUsize3get17h137992f73bc152c9E, 5241
_ZN4core3mem15size_of_val_raw17h03f2b3e19cd1cae4E, 5242
_ZN4core3mem16align_of_val_raw17hfdb69a865ec3b958E, 5243
_ZN4core5alloc6layout6Layout25from_size_align_unchecked17h980887748a52927eE, 5244
_ZN4core3num7nonzero12NonZeroUsize13new_unchecked17h47d0261d6f9b0c48E, 5245
_ZN4core3ptr8non_null16NonNull$LT$T$GT$13new_unchecked17h5747e267d7abd6c8E, 5246
_ZN5alloc2rc11is_dangling17hfe7a2d1cbce0416eE, 5247
_ZN82_$LT$std..sync..mpsc..shared..Packet$LT$T$GT$$u20$as$u20$core..ops..drop..Drop$GT$4drop17h93104f4fc51ac870E, 5248
_ZN4core3ptr71drop_in_place$LT$std..sync..mpsc..mpsc_queue..Queue$LT$$LP$$RP$$GT$$GT$17hdd8449f3cdfd77ebE, 5249
_ZN4core3ptr60drop_in_place$LT$std..sync..mutex..Mutex$LT$$LP$$RP$$GT$$GT$17h3d0c6be75909fbcdE, 5250
_ZN4core3ptr57drop_in_place$LT$std..sys_common..mutex..MovableMutex$GT$17h15aa9ab748fa47d5E, 5251
_ZN85_$LT$std..sync..mpsc..mpsc_queue..Queue$LT$T$GT$$u20$as$u20$core..ops..drop..Drop$GT$4drop17h955e8562fb210055E, 5252
_ZN4core3ptr7mut_ptr31_$LT$impl$u20$$BP$mut$u20$T$GT$7is_null17h2701899cbff324baE, 5253
_ZN4core4sync6atomic18AtomicPtr$LT$T$GT$4load17hfec06c27a2a8fb7cE, 5254
_ZN5alloc5boxed12Box$LT$T$GT$8from_raw17h0c8de5f0fdc5f19bE, 5255
_ZN4core3ptr95drop_in_place$LT$alloc..boxed..Box$LT$std..sync..mpsc..mpsc_queue..Node$LT$$LP$$RP$$GT$$GT$$GT$17h903833a727690584E, 5256
_ZN5alloc5alloc8box_free17h233e3ee4f462469dE, 5257
_ZN4core3ptr6unique15Unique$LT$T$GT$6as_ref17hd9e13932c143fac4E, 5258
_ZN4core3ptr6unique15Unique$LT$T$GT$4cast17hfe31235168e42169E, 5259
_ZN50_$LT$T$u20$as$u20$core..convert..Into$LT$U$GT$$GT$4into17h940334be0ddd5231E, 5260
_ZN119_$LT$core..ptr..non_null..NonNull$LT$T$GT$$u20$as$u20$core..convert..From$LT$core..ptr..unique..Unique$LT$T$GT$$GT$$GT$4from17h091a35bdfca89c38E, 5261
_ZN4core3ptr6unique15Unique$LT$T$GT$6as_ptr17h943fe181ba616687E, 5262
_ZN4core3ptr6unique15Unique$LT$T$GT$6as_ptr17h13742345d2e49076E, 5263
_ZN4core3ptr6unique15Unique$LT$T$GT$13new_unchecked17h2b2b6d628fa69975E, 5264
_ZN5alloc5boxed16Box$LT$T$C$A$GT$11from_raw_in17h736708d3b6a5590cE, 5265
_ZN4core3ptr6unique15Unique$LT$T$GT$13new_unchecked17h7c40946608cbe747E, 5266
_ZN4core4sync6atomic11atomic_load17ha91e07470d53356dE, 5267
_ZN4core3ptr7mut_ptr31_$LT$impl$u20$$BP$mut$u20$T$GT$13guaranteed_eq17hc021cd85dd7a2cf1E, 5268
_ZN4core4sync6atomic11AtomicIsize4load17hd0ac4b6f4294a062E, 5269
_ZN4core4sync6atomic11AtomicUsize4load17h5d3bb338c63866dbE, 5270
_ZN4core9panicking13assert_failed17hb64d224d454498a4E, 5271
_ZN4core9panicking13assert_failed17h14d592feedf39832E, 5272
_ZN4core3ptr30drop_in_place$LT$$RF$usize$GT$17h40a17c2b35c52054E, 5273
_ZN42_$LT$$RF$T$u20$as$u20$core..fmt..Debug$GT$3fmt17he21c47093b79d46fE, 5274
_ZN4core3fmt3num52_$LT$impl$u20$core..fmt..Debug$u20$for$u20$usize$GT$3fmt17h98b820317945cffbE, 5275
_ZN4core3ptr30drop_in_place$LT$$RF$isize$GT$17habb1657c1ae325e0E, 5276
_ZN42_$LT$$RF$T$u20$as$u20$core..fmt..Debug$GT$3fmt17hcc88080ee19d42c5E, 5277
_ZN4core3fmt3num52_$LT$impl$u20$core..fmt..Debug$u20$for$u20$isize$GT$3fmt17heba73438c868c092E, 5278
_ZN4core4sync6atomic11atomic_load17h3266f98764794112E, 5279
_ZN4core4sync6atomic11atomic_load17h33eb7a372ca5af59E, 5280
_ZN4core4sync6atomic10atomic_sub17hc5445d40828bdef6E, 5281
_ZN4core3ptr8non_null16NonNull$LT$T$GT$6as_ref17h2b82eae98bd6ec72E, 5282
_ZN67_$LT$alloc..sync..Arc$LT$T$GT$$u20$as$u20$core..ops..drop..Drop$GT$4drop17hccc68b8fbdf9e54aE, 5283
_ZN5alloc4sync12Arc$LT$T$GT$5inner17h4e6f6ab953906752E, 5284
_ZN5alloc4sync12Arc$LT$T$GT$9drop_slow17ha26208fdd58eeff3E, 5285
_ZN5alloc4sync12Arc$LT$T$GT$17get_mut_unchecked17hb2ea158be4aaba8bE, 5286
_ZN4core3ptr68drop_in_place$LT$std..sync..mpsc..stream..Packet$LT$$LP$$RP$$GT$$GT$17h0b8ae3a3c2c017e6E, 5287
_ZN4core3mem4drop17h4a03692c8349c448E, 5288
_ZN4core3ptr93drop_in_place$LT$alloc..sync..Weak$LT$std..sync..mpsc..stream..Packet$LT$$LP$$RP$$GT$$GT$$GT$17h6f9fdc3856369b18E, 5289
_ZN68_$LT$alloc..sync..Weak$LT$T$GT$$u20$as$u20$core..ops..drop..Drop$GT$4drop17h4194d5f54ffbe5a3E, 5290
_ZN5alloc4sync13Weak$LT$T$GT$5inner17h9809969c7b89206eE, 5291
_ZN4core3ptr8non_null16NonNull$LT$T$GT$4cast17h100582562eb60be4E, 5292
_ZN4core3ptr8non_null16NonNull$LT$T$GT$6as_ptr17h02f764efd70f6feeE, 5293
_ZN4core5alloc6layout6Layout13for_value_raw17h5edac537b5757b93E, 5294
_ZN4core3mem15size_of_val_raw17h138aba810318b79fE, 5295
_ZN4core3mem16align_of_val_raw17hf26ffa853120a1d9E, 5296
_ZN5alloc2rc11is_dangling17hfdf93582b33c983fE, 5297
_ZN82_$LT$std..sync..mpsc..stream..Packet$LT$T$GT$$u20$as$u20$core..ops..drop..Drop$GT$4drop17h7fd69ed9540badcfE, 5298
_ZN4core3ptr199drop_in_place$LT$std..sync..mpsc..spsc_queue..Queue$LT$std..sync..mpsc..stream..Message$LT$$LP$$RP$$GT$$C$std..sync..mpsc..stream..ProducerAddition$C$std..sync..mpsc..stream..ConsumerAddition$GT$$GT$17he56f186c2769e88aE, 5299
_ZN123_$LT$std..sync..mpsc..spsc_queue..Queue$LT$T$C$ProducerAddition$C$ConsumerAddition$GT$$u20$as$u20$core..ops..drop..Drop$GT$4drop17hd46a52715c3839efE, 5300
_ZN97_$LT$std..sync..mpsc..cache_aligned..CacheAligned$LT$T$GT$$u20$as$u20$core..ops..deref..Deref$GT$5deref17h4b734512cc4b3713E, 5301
_ZN4core3ptr7mut_ptr31_$LT$impl$u20$$BP$mut$u20$T$GT$7is_null17hae1590793b437340E, 5302
_ZN4core4sync6atomic18AtomicPtr$LT$T$GT$4load17h82fb1f5fb90e4df0E, 5303
_ZN5alloc5boxed12Box$LT$T$GT$8from_raw17h9c7be8d15d500db7E, 5304
_ZN4core3ptr135drop_in_place$LT$alloc..boxed..Box$LT$std..sync..mpsc..spsc_queue..Node$LT$std..sync..mpsc..stream..Message$LT$$LP$$RP$$GT$$GT$$GT$$GT$17h528ab325dbe64723E, 5305
_ZN4core3ptr110drop_in_place$LT$std..sync..mpsc..spsc_queue..Node$LT$std..sync..mpsc..stream..Message$LT$$LP$$RP$$GT$$GT$$GT$17h12768124f0f51c82E, 5306
_ZN5alloc5alloc8box_free17h5ec9689fc4d2fd25E, 5307
_ZN4core3ptr6unique15Unique$LT$T$GT$6as_ref17hf62a437048eaa800E, 5308
_ZN4core3ptr6unique15Unique$LT$T$GT$4cast17h34787f7f036a1546E, 5309
_ZN4core3ptr6unique15Unique$LT$T$GT$6as_ptr17hae093e0d0c4148beE, 5310
_ZN4core3ptr97drop_in_place$LT$core..option..Option$LT$std..sync..mpsc..stream..Message$LT$$LP$$RP$$GT$$GT$$GT$17h994e658a8ab02654E, 5311
_ZN4core3ptr69drop_in_place$LT$std..sync..mpsc..stream..Message$LT$$LP$$RP$$GT$$GT$17h996cf6ba5f8ae447E, 5312
_ZN5alloc5boxed16Box$LT$T$C$A$GT$11from_raw_in17hb6beb986dd9ef4aeE, 5313
_ZN4core3ptr6unique15Unique$LT$T$GT$13new_unchecked17h1e879151f33880afE, 5314
_ZN4core4sync6atomic11atomic_load17h878dad2b1953b804E, 5315
_ZN3std4sync4mpsc10spsc_queue52Queue$LT$T$C$ProducerAddition$C$ConsumerAddition$GT$17producer_addition17h4cbfa0cbacd5ffebE, 5316
_ZN4core3ptr8non_null16NonNull$LT$T$GT$6as_ref17h1cd1f78ad26a5174E, 5317
_ZN67_$LT$alloc..sync..Arc$LT$T$GT$$u20$as$u20$core..ops..drop..Drop$GT$4drop17h0c7e7937e2d3c98eE, 5318
_ZN5alloc4sync12Arc$LT$T$GT$5inner17h0a61ac706f7abfb2E, 5319
_ZN5alloc4sync12Arc$LT$T$GT$9drop_slow17h5c35d7247f9e82e7E, 5320
_ZN5alloc4sync12Arc$LT$T$GT$17get_mut_unchecked17hc3674213d12cb97dE, 5321
_ZN4core3ptr69drop_in_place$LT$std..sync..mpsc..oneshot..Packet$LT$$LP$$RP$$GT$$GT$17h6e9ba5c9ce4b0072E, 5322
_ZN4core3mem4drop17ha651c46cabe9b201E, 5323
_ZN4core3ptr94drop_in_place$LT$alloc..sync..Weak$LT$std..sync..mpsc..oneshot..Packet$LT$$LP$$RP$$GT$$GT$$GT$17h781b4877be50a1a8E, 5324
_ZN68_$LT$alloc..sync..Weak$LT$T$GT$$u20$as$u20$core..ops..drop..Drop$GT$4drop17h1a5555732bdbe939E, 5325
_ZN5alloc4sync13Weak$LT$T$GT$5inner17ha90e56cce51e6bcfE, 5326
_ZN4core3ptr8non_null16NonNull$LT$T$GT$4cast17hf3563f9e9a58de57E, 5327
_ZN4core3ptr8non_null16NonNull$LT$T$GT$6as_ptr17h4ae94fef858e9b59E, 5328
_ZN4core5alloc6layout6Layout13for_value_raw17h32cec8992cbb1840E, 5329
_ZN4core3mem15size_of_val_raw17h814d0c4e8f477d41E, 5330
_ZN4core3mem16align_of_val_raw17h8e650888131d5c97E, 5331
_ZN5alloc2rc11is_dangling17he6fa344a6136f04bE, 5332
_ZN83_$LT$std..sync..mpsc..oneshot..Packet$LT$T$GT$$u20$as$u20$core..ops..drop..Drop$GT$4drop17h57324fa384b939e9E, 5333
_ZN4core3ptr102drop_in_place$LT$core..cell..UnsafeCell$LT$std..sync..mpsc..oneshot..MyUpgrade$LT$$LP$$RP$$GT$$GT$$GT$17hc77e148394e2d211E, 5334
_ZN4core3ptr72drop_in_place$LT$std..sync..mpsc..oneshot..MyUpgrade$LT$$LP$$RP$$GT$$GT$17hcbbb56b99281e4b8E, 5335
_ZN4core3ptr8non_null16NonNull$LT$T$GT$6as_ref17hb0b37145cbe95c5fE, 5336
_ZN67_$LT$alloc..sync..Arc$LT$T$GT$$u20$as$u20$core..ops..drop..Drop$GT$4drop17h2350ad555feb4dfeE, 5337
_ZN5alloc4sync12Arc$LT$T$GT$5inner17hed647b0621338d58E, 5338
_ZN5alloc4sync12Arc$LT$T$GT$9drop_slow17h0f2d8c505baba027E, 5339
_ZN5alloc4sync12Arc$LT$T$GT$17get_mut_unchecked17he49e505e1faa9fd7E, 5340
_ZN4core3ptr66drop_in_place$LT$std..sync..mpsc..sync..Packet$LT$$LP$$RP$$GT$$GT$17h459113e888bca9e2E, 5341
_ZN4core3mem4drop17h4cfba8f8a64ca718E, 5342
_ZN4core3ptr91drop_in_place$LT$alloc..sync..Weak$LT$std..sync..mpsc..sync..Packet$LT$$LP$$RP$$GT$$GT$$GT$17h8fff46a2eba36e96E, 5343
_ZN68_$LT$alloc..sync..Weak$LT$T$GT$$u20$as$u20$core..ops..drop..Drop$GT$4drop17hd680d0daa1199963E, 5344
_ZN5alloc4sync13Weak$LT$T$GT$5inner17h9da2534cc5ef46a4E, 5345
_ZN4core3ptr8non_null16NonNull$LT$T$GT$4cast17h4a59a4a9cf8a4a87E, 5346
_ZN4core3ptr8non_null16NonNull$LT$T$GT$6as_ptr17hd0bce1cbd53fd9ddE, 5347
_ZN4core5alloc6layout6Layout13for_value_raw17h5fcfa5830bcafd9eE, 5348
_ZN4core3mem15size_of_val_raw17h182b16a084db60a0E, 5349
_ZN4core3mem16align_of_val_raw17h5264246d74872538E, 5350
_ZN5alloc2rc11is_dangling17he10a6cb62050f2adE, 5351
_ZN80_$LT$std..sync..mpsc..sync..Packet$LT$T$GT$$u20$as$u20$core..ops..drop..Drop$GT$4drop17h822e695044d853feE, 5352
_ZN4core3ptr96drop_in_place$LT$std..sync..mutex..Mutex$LT$std..sync..mpsc..sync..State$LT$$LP$$RP$$GT$$GT$$GT$17hae5cd8c049b29b11E, 5353
_ZN4core3ptr95drop_in_place$LT$core..cell..UnsafeCell$LT$std..sync..mpsc..sync..State$LT$$LP$$RP$$GT$$GT$$GT$17h9f8e17964729520dE, 5354
_ZN4core3ptr65drop_in_place$LT$std..sync..mpsc..sync..State$LT$$LP$$RP$$GT$$GT$17hc4e5489a68972d83E, 5355
_ZN4core3ptr51drop_in_place$LT$std..sync..mpsc..sync..Blocker$GT$17h0ca6f9c21baaaa9eE, 5356
_ZN4core3ptr66drop_in_place$LT$std..sync..mpsc..sync..Buffer$LT$$LP$$RP$$GT$$GT$17h083cd59a004beb27E, 5357
_ZN4core3ptr80drop_in_place$LT$alloc..vec..Vec$LT$core..option..Option$LT$$LP$$RP$$GT$$GT$$GT$17h2556e03fd7f4a8aaE, 5358
_ZN70_$LT$alloc..vec..Vec$LT$T$C$A$GT$$u20$as$u20$core..ops..drop..Drop$GT$4drop17hb1aeeff1118d2c30E, 5359
_ZN4core3ptr87drop_in_place$LT$alloc..raw_vec..RawVec$LT$core..option..Option$LT$$LP$$RP$$GT$$GT$$GT$17he6025cdf4d11c497E, 5360
_ZN77_$LT$alloc..raw_vec..RawVec$LT$T$C$A$GT$$u20$as$u20$core..ops..drop..Drop$GT$4drop17h5c2e3afdf28ae7d2E, 5361
_ZN5alloc7raw_vec19RawVec$LT$T$C$A$GT$14current_memory17h951cc60378e56fa9E, 5362
_ZN4core3ptr6unique15Unique$LT$T$GT$4cast17h6fac58c7d9cd20aaE, 5363
_ZN4core3ptr6unique15Unique$LT$T$GT$6as_ptr17h0ad96a187f97ea3bE, 5364
_ZN5alloc3vec16Vec$LT$T$C$A$GT$10as_mut_ptr17hf8d7426a36fb33e7E, 5365
_ZN4core3ptr24slice_from_raw_parts_mut17h33f4f6d1f2cda234E, 5366
_ZN4core3ptr8metadata18from_raw_parts_mut17ha8a63238fbb5ed12E, 5367
_ZN5alloc7raw_vec19RawVec$LT$T$C$A$GT$3ptr17haa70893bbc252c13E, 5368
_ZN4core3ptr7mut_ptr31_$LT$impl$u20$$BP$mut$u20$T$GT$7is_null17hc68f1ee4dda24217E, 5369
_ZN4core3ptr59drop_in_place$LT$std..sync..mpsc..blocking..SignalToken$GT$17h2c84129a9d530048E, 5370
_ZN4core3ptr77drop_in_place$LT$alloc..sync..Arc$LT$std..sync..mpsc..blocking..Inner$GT$$GT$17hdcf4ea6dae83b6f7E, 5371
_ZN67_$LT$alloc..sync..Arc$LT$T$GT$$u20$as$u20$core..ops..drop..Drop$GT$4drop17hd1dee5b4bf78d5c9E, 5372
_ZN5alloc4sync12Arc$LT$T$GT$5inner17h310788db1cd15ad3E, 5373
_ZN5alloc4sync12Arc$LT$T$GT$9drop_slow17hc48109f6c01f5c8cE, 5374
_ZN5alloc4sync12Arc$LT$T$GT$17get_mut_unchecked17h1e645484abfd5aacE, 5375
_ZN4core3ptr53drop_in_place$LT$std..sync..mpsc..blocking..Inner$GT$17h62226c5815c14a7bE, 5376
_ZN4core3mem4drop17h0cd472071b96aab9E, 5377
_ZN4core3ptr78drop_in_place$LT$alloc..sync..Weak$LT$std..sync..mpsc..blocking..Inner$GT$$GT$17ha629a5434562c6e1E, 5378
_ZN68_$LT$alloc..sync..Weak$LT$T$GT$$u20$as$u20$core..ops..drop..Drop$GT$4drop17h3e659af01ddc42daE, 5379
_ZN5alloc4sync13Weak$LT$T$GT$5inner17h58ac91bb47725039E, 5380
_ZN4core3ptr8non_null16NonNull$LT$T$GT$4cast17h9dfef3895df86b08E, 5381
_ZN4core3ptr8non_null16NonNull$LT$T$GT$6as_ptr17hea1182a45de840c9E, 5382
_ZN4core5alloc6layout6Layout13for_value_raw17h9256ef3b3bc83e71E, 5383
_ZN4core3mem15size_of_val_raw17h9ed2af93aa9472a5E, 5384
_ZN4core3mem16align_of_val_raw17h83a7c895e802cda4E, 5385
_ZN5alloc2rc11is_dangling17h523d9690fedc07aaE, 5386
_ZN4core3ptr40drop_in_place$LT$std..thread..Thread$GT$17h222d03942c0a1e12E, 5387
_ZN4core3ptr63drop_in_place$LT$alloc..sync..Arc$LT$std..thread..Inner$GT$$GT$17hf624696353e8b694E, 5388
_ZN67_$LT$alloc..sync..Arc$LT$T$GT$$u20$as$u20$core..ops..drop..Drop$GT$4drop17hf1a05a80cf661c85E, 5389
_ZN5alloc4sync12Arc$LT$T$GT$5inner17h51be1edf5ac33e1aE, 5390
_ZN5alloc4sync12Arc$LT$T$GT$9drop_slow17h6f3dee02e92ce525E, 5391
_ZN5alloc4sync12Arc$LT$T$GT$17get_mut_unchecked17h88b9336be83ee16eE, 5392
_ZN4core3ptr39drop_in_place$LT$std..thread..Inner$GT$17h3db3e68250539d2dE, 5393
_ZN4core3mem4drop17h8cb00f9ead0ab03dE, 5394
_ZN4core3ptr64drop_in_place$LT$alloc..sync..Weak$LT$std..thread..Inner$GT$$GT$17h7e22438629e9c1e0E, 5395
_ZN68_$LT$alloc..sync..Weak$LT$T$GT$$u20$as$u20$core..ops..drop..Drop$GT$4drop17h73f1d3d2bc83be55E, 5396
_ZN5alloc4sync13Weak$LT$T$GT$5inner17h49d5b798b17cfd00E, 5397
_ZN4core3ptr8non_null16NonNull$LT$T$GT$4cast17h3303a0c2c65b2ab8E, 5398
_ZN4core3ptr8non_null16NonNull$LT$T$GT$6as_ptr17ha503c46b5bb01ee3E, 5399
_ZN4core5alloc6layout6Layout13for_value_raw17h7b5f7fe5e4faa5b5E, 5400
_ZN4core3mem15size_of_val_raw17hc7c9fec69cc6923eE, 5401
_ZN4core3mem16align_of_val_raw17hb45ea54a30a457e5E, 5402
_ZN5alloc2rc11is_dangling17he3028a0258ce6a82E, 5403
_ZN4core3ptr73drop_in_place$LT$core..option..Option$LT$std..ffi..c_str..CString$GT$$GT$17hcc97a0b0f9cdf10fE, 5404
_ZN4core3ptr68drop_in_place$LT$std..sys_common..thread_parker..generic..Parker$GT$17h163b5f3cbfd32d06E, 5405
_ZN4core3ptr48drop_in_place$LT$std..sync..condvar..Condvar$GT$17h290537f8f21c38c1E, 5406
_ZN4core3ptr54drop_in_place$LT$std..sys_common..condvar..Condvar$GT$17hdc6751b9c8dc7e3eE, 5407
_ZN4core3ptr45drop_in_place$LT$std..ffi..c_str..CString$GT$17h2859998531e7f988E, 5408
_ZN66_$LT$std..ffi..c_str..CString$u20$as$u20$core..ops..drop..Drop$GT$4drop17h1db4047ff766ce47E, 5409
_ZN4core3ptr58drop_in_place$LT$alloc..boxed..Box$LT$$u5b$u8$u5d$$GT$$GT$17h3956a17d7e1ca13eE, 5410
_ZN5alloc5alloc8box_free17h2159a8946cc91116E, 5411
_ZN4core3ptr6unique15Unique$LT$T$GT$6as_ref17hcb3b9a52674f4c0fE, 5412
_ZN4core3ptr6unique15Unique$LT$T$GT$4cast17h75e6165b77bc8068E, 5413
_ZN4core3ptr6unique15Unique$LT$T$GT$6as_ptr17h1f1c1b21ac524cc3E, 5414
_ZN4core5slice29_$LT$impl$u20$$u5b$T$u5d$$GT$17get_unchecked_mut17h2373f6e1b74eff46E, 5415
_ZN75_$LT$usize$u20$as$u20$core..slice..index..SliceIndex$LT$$u5b$T$u5d$$GT$$GT$17get_unchecked_mut17h4aca69754f03d988E, 5416
_ZN4core3ptr8non_null16NonNull$LT$T$GT$6as_ref17h12aab516cafbfcddE, 5417
_ZN4core3ptr8non_null16NonNull$LT$T$GT$6as_ref17h302ff14e330d2d9cE, 5418
_ZN3std4sync5mutex14Mutex$LT$T$GT$4lock17h3bcb2c5360bb1561E, 5419
_ZN4core6result19Result$LT$T$C$E$GT$6unwrap17h8960837bd7d325e1E, 5420
_ZN84_$LT$std..sync..mutex..MutexGuard$LT$T$GT$$u20$as$u20$core..ops..deref..DerefMut$GT$9deref_mut17he181790210789d9eE, 5421
_ZN4core6option15Option$LT$T$GT$7is_none17h29c0258e406a436eE, 5422
_ZN4core3ptr87drop_in_place$LT$core..option..Option$LT$std..sync..mpsc..blocking..SignalToken$GT$$GT$17h3ca7c1a27794f63eE, 5423
_ZN81_$LT$std..sync..mutex..MutexGuard$LT$T$GT$$u20$as$u20$core..ops..deref..Deref$GT$5deref17h38c338b8158e5281E, 5424
_ZN4core6option15Option$LT$T$GT$7is_none17ha0de45b67abe02d4E, 5425
_ZN4core3ptr101drop_in_place$LT$std..sync..mutex..MutexGuard$LT$std..sync..mpsc..sync..State$LT$$LP$$RP$$GT$$GT$$GT$17h573a1b103a68045aE, 5426
_ZN79_$LT$std..sync..mutex..MutexGuard$LT$T$GT$$u20$as$u20$core..ops..drop..Drop$GT$4drop17hfb96bcda27553d20E, 5427
_ZN3std4sync6poison4Flag4done17hea4a8a62a8985ba7E, 5428
_ZN3std10sys_common5mutex12MovableMutex10raw_unlock17hd808792372ab13d7E, 5429
_ZN3std3sys4wasi5mutex5Mutex6unlock17h9b70c0ab54641fddE, 5430
_ZN4core4cell13Cell$LT$T$GT$3set17hc714c48dabfc114aE, 5431
_ZN4core4cell13Cell$LT$T$GT$7replace17h9be0a8cb574feee1E, 5432
_ZN4core3mem4drop17hde8832e1e32ca81cE, 5433
_ZN4core3mem7replace17h8a97fbf67a8f5fecE, 5434
_ZN4core3ptr4read17hbbbd46a8754947eaE, 5435
_ZN4core3ptr5write17ha12beb0d0447519eE, 5436
_ZN4core10intrinsics19copy_nonoverlapping17h4e29a311e7794770E, 5437
_ZN3std6thread9panicking17hbaf147a778c23b80E, 5438
_ZN4core4sync6atomic10AtomicBool5store17h00bd14797de710beE, 5439
_ZN4core4sync6atomic12atomic_store17h676a14467c078e1cE, 5440
_ZN3std9panicking9panicking17h2955293d56edef5cE, 5441
_ZN3std9panicking11panic_count13count_is_zero17h2a43190fa039edd7E, 5442
_ZN4core6option15Option$LT$T$GT$7is_some17hb1e179a439bc8c43E, 5443
_ZN4core6option15Option$LT$T$GT$7is_some17h1e8304df6f81a2e1E, 5444
_ZN4core3ptr139drop_in_place$LT$std..sync..poison..PoisonError$LT$std..sync..mutex..MutexGuard$LT$std..sync..mpsc..sync..State$LT$$LP$$RP$$GT$$GT$$GT$$GT$17h75c7485f81f4c5f9E, 5445
_ZN76_$LT$std..sync..poison..PoisonError$LT$T$GT$$u20$as$u20$core..fmt..Debug$GT$3fmt17h021d6e8f19b2580aE, 5446
_ZN3std10sys_common5mutex12MovableMutex8raw_lock17h0efa8ab2230da11eE, 5447
_ZN3std4sync5mutex19MutexGuard$LT$T$GT$3new17h1387a89bde792f23E, 5448
_ZN3std4sync6poison4Flag6borrow17h2a19b5bae591fac6E, 5449
_ZN3std4sync6poison10map_result17h79f84b4308bb1090E, 5450
_ZN3std4sync5mutex19MutexGuard$LT$T$GT$3new28_$u7b$$u7b$closure$u7d$$u7d$17hab3d0412290b3b9aE, 5451
_ZN3std4sync6poison20PoisonError$LT$T$GT$3new17h974e8cd9b03aad33E, 5452
_ZN3std4sync6poison4Flag3get17he78a5d5d4df437b0E, 5453
_ZN3std4sync6poison20PoisonError$LT$T$GT$3new17ha38c17966e932db2E, 5454
_ZN4core4sync6atomic10AtomicBool4load17h442419306dd07f77E, 5455
_ZN4core4sync6atomic11atomic_load17h12e17734f1868455E, 5456
_ZN3std3sys4wasi5mutex5Mutex4lock17ha5a31111172b4262E, 5457
_ZN4core3fmt9Arguments6new_v117h9bff1bee00904253E, 5458
_ZN4core9panicking13assert_failed17h80a0ddd7c119ac29E, 5459
_ZN4core3ptr29drop_in_place$LT$$RF$bool$GT$17h593aa5f123327781E, 5460
_ZN42_$LT$$RF$T$u20$as$u20$core..fmt..Debug$GT$3fmt17h2bf5e16898c21755E, 5461
_ZN41_$LT$bool$u20$as$u20$core..fmt..Debug$GT$3fmt17h05a268ad7fec9ce2E, 5462
_ZN4core3ptr8non_null16NonNull$LT$T$GT$6as_ref17h7458841b927649e4E, 5463
_ZN3std4sync4mpsc12UnsafeFlavor5inner17h860d4dd097fe26dcE, 5464
_ZN69_$LT$alloc..sync..Arc$LT$T$GT$$u20$as$u20$core..ops..deref..Deref$GT$5deref17h962e2f9f441f78b1E, 5465
_ZN69_$LT$alloc..sync..Arc$LT$T$GT$$u20$as$u20$core..ops..deref..Deref$GT$5deref17hc705e3771e189d3eE, 5466
_ZN69_$LT$alloc..sync..Arc$LT$T$GT$$u20$as$u20$core..ops..deref..Deref$GT$5deref17h0a8993ca5f72e065E, 5467
_ZN69_$LT$alloc..sync..Arc$LT$T$GT$$u20$as$u20$core..ops..deref..Deref$GT$5deref17ha2ad2a8804115167E, 5468
_ZN3std4sync4mpsc4sync15Packet$LT$T$GT$9drop_port17hc426daa40c9daa61E, 5469
_ZN3std4sync4mpsc6shared15Packet$LT$T$GT$9drop_port17h20ec5ab8129e0505E, 5470
_ZN3std4sync4mpsc6stream15Packet$LT$T$GT$9drop_port17h9ef9bd120904cccfE, 5471
_ZN3std4sync4mpsc7oneshot15Packet$LT$T$GT$9drop_port17h365eb7737d51868dE, 5472
_ZN4core4sync6atomic11AtomicUsize4swap17h10ed63c17488bf19E, 5473
_ZN4core6option15Option$LT$T$GT$4take17h028f7ab50fb11af6E, 5474
_ZN4core6option15Option$LT$T$GT$6unwrap17h3ca191355ff0c353E, 5475
_ZN4core3mem4take17hd2a3d4822f902d2cE, 5476
_ZN72_$LT$core..option..Option$LT$T$GT$$u20$as$u20$core..default..Default$GT$7default17h1bc2418ce39b939eE, 5477
_ZN4core3mem7replace17h62160bdb5aa39ea2E, 5478
_ZN4core3ptr4read17hf78f993824400d60E, 5479
_ZN4core3ptr5write17hbe4fe03bb523356bE, 5480
_ZN4core10intrinsics19copy_nonoverlapping17he7877bd6ff05614dE, 5481
_ZN4core4sync6atomic11atomic_swap17h3c10dfa8545a99f6E, 5482
_ZN3std4sync4mpsc10spsc_queue52Queue$LT$T$C$ProducerAddition$C$ConsumerAddition$GT$17consumer_addition17h21eb37b08c564c68E, 5483
_ZN4core4sync6atomic11AtomicIsize16compare_exchange17h64d516c1032fb855E, 5484
_ZN3std4sync4mpsc10spsc_queue52Queue$LT$T$C$ProducerAddition$C$ConsumerAddition$GT$3pop17h90e01cc1a2dc44dcE, 5485
_ZN4core6option15Option$LT$T$GT$7is_some17h4053d598b639fc02E, 5486
_ZN97_$LT$std..sync..mpsc..cache_aligned..CacheAligned$LT$T$GT$$u20$as$u20$core..ops..deref..Deref$GT$5deref17h9fa0d8d8cccedde5E, 5487
_ZN4core6option15Option$LT$T$GT$4take17hb4a59dc9e34d2b4fE, 5488
_ZN4core4sync6atomic11AtomicUsize5store17h3dd2c86003764213E, 5489
_ZN4core4sync6atomic18AtomicPtr$LT$T$GT$5store17h0f1587ce2dbbeb5bE, 5490
_ZN4core4sync6atomic12atomic_store17h7f18e8359ad1e0efE, 5491
_ZN4core4sync6atomic12atomic_store17h07872304d927a0f0E, 5492
_ZN4core3mem4take17heba5f205e7e5263bE, 5493
_ZN72_$LT$core..option..Option$LT$T$GT$$u20$as$u20$core..default..Default$GT$7default17h76a4b1b24f70a4f8E, 5494
_ZN4core3mem7replace17hf8b10e505907d19dE, 5495
_ZN4core3ptr4read17he970d89c3778fd5fE, 5496
_ZN4core3ptr5write17h1419e9fd3f077eb8E, 5497
_ZN4core10intrinsics19copy_nonoverlapping17h8f7f1f449051a9cbE, 5498
_ZN4core4sync6atomic23atomic_compare_exchange17h7b987c59cf3b38bfE, 5499
_ZN3std4sync4mpsc10mpsc_queue14Queue$LT$T$GT$3pop17hda73dc8ab369dffdE, 5500
_ZN4core6option15Option$LT$T$GT$7is_none17hc133d52536107ae5E, 5501
_ZN4core6option15Option$LT$T$GT$7is_some17h39a4f1cb7719a8f6E, 5502
_ZN5alloc3vec12Vec$LT$T$GT$3new17hb1d7e2736b205de4E, 5503
_ZN4core3mem4take17hbefca658cc41cf0bE, 5504
_ZN4core3mem7replace17h79dcb0c452ed1f02E, 5505
_ZN4core3mem7replace17h749f6ca049c12ab9E, 5506
_ZN4core6option15Option$LT$T$GT$4take17h386707b54d455463E, 5507
_ZN4core6option15Option$LT$T$GT$6unwrap17h39e92fd57b73ee4aE, 5508
_ZN4core3mem4drop17h5edc1fd927717bb3E, 5509
_ZN4core3mem4take17hbc86b0be21d396e9E, 5510
