Parsing original bitcode rust/bitcodes/all.bc
Creating linker 
Modules count 1483
Function count 0
Hashing original functions 1483
Hashing functions in parallel: 24612
Injecting variants from 1483 modules
Module  does not exist
 Merging module ./bitcodes2/image_rs15_605_[sJGVmNzh].bc
Variants count 1
 Merging module ./bitcodes2/image_rs15_22_[pi0S3FBD].bc
Variants count 2
Variants count 3
Variants count 4
Variants count 5
Variants count 6
 Merging module ./bitcodes2/image_rs15_21_[fv3x819_].bc
Variants count 7
Variants count 8
Variants count 9
Variants count 10
 Merging module ./bitcodes2/image_rs15_112_[6mc52ldd].bc
Variants count 11
Variants count 12
Variants count 13
 Merging module ./bitcodes2/image_rs15_222_[4yUWbNgC].bc
Variants count 14
 Merging module ./bitcodes2/image_rs15_222_[kpLL8T2G].bc
Variants count 15
 Merging module ./bitcodes2/image_rs15_222_[JIatB2Pa].bc
Variants count 16
 Merging module ./bitcodes2/image_rs15_222_[ooyTEoTV].bc
Variants count 17
 Merging module ./bitcodes2/image_rs15_222_[kMqEamUR].bc
Variants count 18
 Merging module ./bitcodes2/image_rs15_858_[RTADNff1].bc
Variants count 19
Variants count 20
Variants count 21
Variants count 22
Variants count 23
Variants count 24
 Merging module ./bitcodes2/image_rs15_222_[iLCdYq5y].bc
Variants count 25
 Merging module ./bitcodes2/image_rs15_897_[eiE9Lmj2].bc
Variants count 26
Variants count 27
Variants count 28
 Merging module ./bitcodes2/image_rs15_107_[kP_g3Jj2].bc
Variants count 29
Variants count 30
Variants count 31
Variants count 32
 Merging module ./bitcodes2/image_rs15_222_[QvLIW8cW].bc
Variants count 33
 Merging module ./bitcodes2/image_rs15_629_[XX5R8Hx1].bc
Variants count 34
Variants count 35
 Merging module ./bitcodes2/image_rs15_78_[wdWQ6w36].bc
Variants count 36
Variants count 37
Variants count 38
 Merging module ./bitcodes2/image_rs15_684_[ehTYWD3z].bc
Variants count 39
Variants count 40
 Merging module ./bitcodes2/image_rs15_880_[l48UcRD7].bc
Variants count 41
 Merging module ./bitcodes2/image_rs15_222_[GMDkAJ_Z].bc
Variants count 42
 Merging module ./bitcodes2/image_rs15_3_[yTfHPkoz].bc
Variants count 43
Variants count 44
Variants count 45
 Merging module ./bitcodes2/image_rs15_248_[DAvjAsCF].bc
Variants count 46
Variants count 47
 Merging module ./bitcodes2/image_rs15_897_[o4EoMeFL].bc
_ZN94_$LT$core..slice..iter..IterMut$LT$T$GT$$u20$as$u20$core..iter..traits..iterator..Iterator$GT$24__iterator_get_unchecked17h58b6afa0e8024274E already exist in ./bitcodes2/image_rs15_897_[o4EoMeFL].bc w:0
_ZN8bytemuck14cast_slice_mut17h4023ac7a00be0a7eE already exist in ./bitcodes2/image_rs15_897_[o4EoMeFL].bc w:0
_ZN236_$LT$image..buffer_..ImageBuffer$LT$FromType$C$Container$GT$$u20$as$u20$image..buffer_..ConvertBuffer$LT$image..buffer_..ImageBuffer$LT$ToType$C$alloc..vec..Vec$LT$$LT$ToType$u20$as$u20$image..traits..Pixel$GT$..Subpixel$GT$$GT$$GT$$GT$7convert17he398e278debce516E already exist in ./bitcodes2/image_rs15_897_[o4EoMeFL].bc w:0
 Merging module ./bitcodes2/image_rs15_248_[poNyANiA].bc
Variants count 48
_ZN5image6codecs4jpeg7encoder12PixelDensity3dpi17h76e5ade20be76fe1E already exist in ./bitcodes2/image_rs15_248_[poNyANiA].bc w:0
 Merging module ./bitcodes2/image_rs15_222_[EP41XG_x].bc
Variants count 49
 Merging module ./bitcodes2/image_rs15_144_[Z5rtsr_f].bc
Variants count 50
Variants count 51
 Merging module ./bitcodes2/image_rs15_182_[gK_3UkiI].bc
Variants count 52
Variants count 53
 Merging module ./bitcodes2/image_rs15_489_[rD13x_li].bc
Variants count 54
Variants count 55
 Merging module ./bitcodes2/png_rs13_626_[QGliTFGA][tWnMlfIA][KZOQOm0u][VSftdyU1][oeXRarD6].bc
Variants count 56
 Merging module ./bitcodes2/image_rs15_112_[skWAgyIj].bc
Variants count 57
_ZN4core3ops12control_flow77ControlFlow$LT$R$C$$LT$R$u20$as$u20$core..ops..try_trait..Try$GT$..Output$GT$8from_try17hfa27bd65a5ae5641E already exist in ./bitcodes2/image_rs15_112_[skWAgyIj].bc w:0
_ZN5image8imageops8colorops8contrast17he99131cb2798383fE already exist in ./bitcodes2/image_rs15_112_[skWAgyIj].bc w:0
 Merging module ./bitcodes2/image_rs15_107_[O8Pqe_YO].bc
Variants count 58
_ZN111_$LT$core..iter..adapters..zip..Zip$LT$A$C$B$GT$$u20$as$u20$core..iter..adapters..zip..ZipImpl$LT$A$C$B$GT$$GT$4next17h904ae9a5f7f17e7dE already exist in ./bitcodes2/image_rs15_107_[O8Pqe_YO].bc w:0
_ZN153_$LT$core..result..Result$LT$T$C$F$GT$$u20$as$u20$core..ops..try_trait..FromResidual$LT$core..result..Result$LT$core..convert..Infallible$C$E$GT$$GT$$GT$13from_residual17he99b67180108ca9bE already exist in ./bitcodes2/image_rs15_107_[O8Pqe_YO].bc w:0
_ZN63_$LT$I$u20$as$u20$core..iter..traits..collect..IntoIterator$GT$9into_iter17hf0d7f71adab83d70E already exist in ./bitcodes2/image_rs15_107_[O8Pqe_YO].bc w:0
 Merging module ./bitcodes2/png_rs13_169_[5LJLdrOV][qKWNDBZZ][F6ky4_Z2].bc
Variants count 59
 Merging module ./bitcodes2/image_rs15_222_[Qnbg05eF].bc
Variants count 60
 Merging module ./bitcodes2/image_rs15_840_[2W_7II3L].bc
Variants count 61
Variants count 62
 Merging module ./bitcodes2/image_rs15_222_[xYkXb5hl].bc
Variants count 63
 Merging module ./bitcodes2/image_rs15_107_[WHKMlYHh].bc
Variants count 64
_ZN111_$LT$core..iter..adapters..zip..Zip$LT$A$C$B$GT$$u20$as$u20$core..iter..adapters..zip..ZipImpl$LT$A$C$B$GT$$GT$4next17h904ae9a5f7f17e7dE already exist in ./bitcodes2/image_rs15_107_[WHKMlYHh].bc w:0
_ZN153_$LT$core..result..Result$LT$T$C$F$GT$$u20$as$u20$core..ops..try_trait..FromResidual$LT$core..result..Result$LT$core..convert..Infallible$C$E$GT$$GT$$GT$13from_residual17he99b67180108ca9bE already exist in ./bitcodes2/image_rs15_107_[WHKMlYHh].bc w:0
_ZN63_$LT$I$u20$as$u20$core..iter..traits..collect..IntoIterator$GT$9into_iter17hf0d7f71adab83d70E already exist in ./bitcodes2/image_rs15_107_[WHKMlYHh].bc w:0
 Merging module ./bitcodes2/image_rs15_86_[32235yUG].bc
Variants count 65
 Merging module ./bitcodes2/image_rs15_618_[2QNiUjv7].bc
Variants count 66
 Merging module ./bitcodes2/image_rs15_847_[UgwDGD92].bc
Variants count 67
Variants count 68
 Merging module ./bitcodes2/image_rs15_87_[9L_aE7hp].bc
Variants count 69
 Merging module ./bitcodes2/image_rs15_144_[QWpqTMtL].bc
Variants count 70
_ZN5image8imageops10crop_dimms17h39cdb411ca80a1b2E already exist in ./bitcodes2/image_rs15_144_[QWpqTMtL].bc w:0
 Merging module ./bitcodes2/image_rs15_222_[30rG4xeO].bc
Variants count 71
 Merging module ./bitcodes2/image_rs15_3_[kEXJk0s_].bc
_ZN3png7decoder16Decoder$LT$R$GT$19set_transformations17h3db447a4863900d2E already exist in ./bitcodes2/image_rs15_3_[kEXJk0s_].bc w:0
Variants count 72
_ZN5image6codecs3bmp7decoder19BmpDecoder$LT$R$GT$25read_full_byte_pixel_data17he90647b932761bd4E already exist in ./bitcodes2/image_rs15_3_[kEXJk0s_].bc w:0
 Merging module ./bitcodes2/png_rs13_169_[MF2cMXx9][g3HyV8om][SbENuhiW].bc
Variants count 73
 Merging module ./bitcodes2/image_rs15_222_[sqb3rDMh].bc
Variants count 74
 Merging module ./bitcodes2/image_rs15_222_[WN0dQ8xs].bc
Variants count 75
 Merging module ./bitcodes2/image_rs15_87_[QWzVTqPn].bc
Variants count 76
 Merging module ./bitcodes2/image_rs15_222_[IWdAEyVF].bc
Variants count 77
 Merging module ./bitcodes2/png_rs13_626_[jz_PX2yt][_RQp0FrF][fV1mzZJ8][eg8FHutj][vfMAssmG].bc
Variants count 78
 Merging module ./bitcodes2/image_rs15_112_[zZPaTXso].bc
Variants count 79
_ZN4core3ops12control_flow77ControlFlow$LT$R$C$$LT$R$u20$as$u20$core..ops..try_trait..Try$GT$..Output$GT$8from_try17hfa27bd65a5ae5641E already exist in ./bitcodes2/image_rs15_112_[zZPaTXso].bc w:0
_ZN5image8imageops8colorops8contrast17he99131cb2798383fE already exist in ./bitcodes2/image_rs15_112_[zZPaTXso].bc w:0
 Merging module ./bitcodes2/image_rs15_222_[mB8Qa1kl].bc
Variants count 80
 Merging module ./bitcodes2/image_rs15_142_[6H1RrCtX].bc
Variants count 81
Variants count 82
 Merging module ./bitcodes2/image_rs15_22_[ql5AI1ex].bc
_ZN4core4iter6traits8iterator8Iterator3zip17h43464ae3c43581b8E already exist in ./bitcodes2/image_rs15_22_[ql5AI1ex].bc w:0
_ZN5image5error16UnsupportedError20from_format_and_kind17h8dd35d19527ffadbE already exist in ./bitcodes2/image_rs15_22_[ql5AI1ex].bc w:0
_ZN63_$LT$I$u20$as$u20$core..iter..traits..collect..IntoIterator$GT$9into_iter17hfc236f1a393ea9c0E already exist in ./bitcodes2/image_rs15_22_[ql5AI1ex].bc w:0
Variants count 83
_ZN5image8imageops6sample9thumbnail17h418ac981c55a78dbE already exist in ./bitcodes2/image_rs15_22_[ql5AI1ex].bc w:0
 Merging module ./bitcodes2/image_rs15_125_[RXrK5mPV].bc
Variants count 84
Variants count 85
Variants count 86
 Merging module ./bitcodes2/image_rs15_222_[pTYzRyz0].bc
Variants count 87
 Merging module ./bitcodes2/image_rs15_222_[YTchybVW].bc
Variants count 88
 Merging module ./bitcodes2/image_rs15_886_[ODeR3OoF].bc
Variants count 89
Variants count 90
 Merging module ./bitcodes2/image_rs15_676_[Jokspsb6].bc
Variants count 91
Variants count 92
 Merging module ./bitcodes2/image_rs15_142_[AOSPbIJE].bc
_ZN97_$LT$alloc..vec..Vec$LT$T$C$A$GT$$u20$as$u20$alloc..vec..spec_extend..SpecExtend$LT$T$C$I$GT$$GT$11spec_extend17h23e2afbd79d2bf65E already exist in ./bitcodes2/image_rs15_142_[AOSPbIJE].bc w:0
Variants count 93
 Merging module ./bitcodes2/image_rs15_86_[zMOng_5x].bc
Variants count 94
 Merging module ./bitcodes2/image_rs15_248_[SPICoIfx].bc
Variants count 95
_ZN5image6codecs4jpeg7encoder12PixelDensity3dpi17h76e5ade20be76fe1E already exist in ./bitcodes2/image_rs15_248_[SPICoIfx].bc w:0
 Merging module ./bitcodes2/image_rs15_605_[vlmWfM2G].bc
Variants count 96
 Merging module ./bitcodes2/image_rs15_222_[MAqQo3uo].bc
Variants count 97
 Merging module ./bitcodes2/image_rs15_222_[_KYpvxmY].bc
Variants count 98
 Merging module ./bitcodes2/png_rs13_2897_[OuRSSbQ_][9BA88kgG].bc
Variants count 99
 Merging module ./bitcodes2/image_rs15_222_[tNjdsNhB].bc
Variants count 100
 Merging module ./bitcodes2/image_rs15_3_[0OxFUS2L].bc
Variants count 101
_ZN3png7decoder16Decoder$LT$R$GT$19set_transformations17h3db447a4863900d2E already exist in ./bitcodes2/image_rs15_3_[0OxFUS2L].bc w:0
_ZN5image6codecs3bmp7decoder19BmpDecoder$LT$R$GT$25read_full_byte_pixel_data17he90647b932761bd4E already exist in ./bitcodes2/image_rs15_3_[0OxFUS2L].bc w:0
 Merging module ./bitcodes2/image_rs15_843_[gQNy5Vz_].bc
Variants count 102
Variants count 103
Variants count 104
 Merging module ./bitcodes2/image_rs15_31_[T8UPk93C].bc
Variants count 105
Variants count 106
Variants count 107
 Merging module ./bitcodes2/image_rs15_235_[asJB0D65].bc
Variants count 108
Variants count 109
 Merging module ./bitcodes2/image_rs15_78_[6tdGVYQo].bc
_ZN98_$LT$alloc..vec..Vec$LT$T$GT$$u20$as$u20$alloc..vec..spec_from_iter..SpecFromIter$LT$T$C$I$GT$$GT$9from_iter17h81fc7b7cb1966dbcE already exist in ./bitcodes2/image_rs15_78_[6tdGVYQo].bc w:0
Variants count 110
_ZN4tiff7decoder3ifd5Entry13decode_offset17h10f22d8c5f7ba5ffE already exist in ./bitcodes2/image_rs15_78_[6tdGVYQo].bc w:0
 Merging module ./bitcodes2/image_rs15_840_[ThHPW4YD].bc
_ZN4core3ptr1301drop_in_place$LT$core..iter..adapters..map..map_fold$LT$$LP$core..option..Option$LT$jpeg_decoder..huffman..HuffmanTable$GT$$C$core..option..Option$LT$jpeg_decoder..huffman..HuffmanTable$GT$$RP$$C$core..option..Option$LT$jpeg_decoder..huffman..HuffmanTable$GT$$C$$LP$$RP$$C$jpeg_decoder..decoder..Decoder$LT$std..io..buffered..bufreader..BufReader$LT$std..fs..File$GT$$GT$..decode_internal..$u7b$$u7b$closure$u7d$$u7d$$C$core..iter..traits..iterator..Iterator..for_each..call$LT$core..option..Option$LT$jpeg_decoder..huffman..HuffmanTable$GT$$C$$LT$alloc..vec..Vec$LT$core..option..Option$LT$jpeg_decoder..huffman..HuffmanTable$GT$$GT$$u20$as$u20$alloc..vec..spec_extend..SpecExtend$LT$core..option..Option$LT$jpeg_decoder..huffman..HuffmanTable$GT$$C$core..iter..adapters..map..Map$LT$core..iter..adapters..zip..Zip$LT$alloc..vec..into_iter..IntoIter$LT$core..option..Option$LT$jpeg_decoder..huffman..HuffmanTable$GT$$GT$$C$alloc..vec..into_iter..IntoIter$LT$core..option..Option$LT$jpeg_decoder..huffman..HuffmanTable$GT$$GT$$GT$$C$jpeg_decoder..decoder..Decoder$LT$std..io..buffered..bufreader..BufReader$LT$std..fs..File$GT$$GT$..decode_internal..$u7b$$u7b$closure$u7d$$u7d$$GT$$GT$$GT$..spec_extend..$u7b$$u7b$closure$u7d$$u7d$$GT$..$u7b$$u7b$closure$u7d$$u7d$$GT$..$u7b$$u7b$closure$u7d$$u7d$$GT$17h43f18c2da6dc3c94E already exist in ./bitcodes2/image_rs15_840_[ThHPW4YD].bc w:0
Variants count 111
 Merging module ./bitcodes2/image_rs15_248_[WXWr_Qhm].bc
Variants count 112
_ZN5image6codecs4jpeg7encoder12PixelDensity3dpi17h76e5ade20be76fe1E already exist in ./bitcodes2/image_rs15_248_[WXWr_Qhm].bc w:0
 Merging module ./bitcodes2/image_rs15_222_[YwVX1UMt].bc
Variants count 113
 Merging module ./bitcodes2/image_rs15_222_[lVovlJxi].bc
Variants count 114
 Merging module ./bitcodes2/image_rs15_161_[0U0HIsnZ].bc
Variants count 115
 Merging module ./bitcodes2/image_rs15_22_[PpSLeCJp].bc
Variants count 116
_ZN4core4iter6traits8iterator8Iterator3zip17h43464ae3c43581b8E already exist in ./bitcodes2/image_rs15_22_[PpSLeCJp].bc w:0
_ZN63_$LT$I$u20$as$u20$core..iter..traits..collect..IntoIterator$GT$9into_iter17hfc236f1a393ea9c0E already exist in ./bitcodes2/image_rs15_22_[PpSLeCJp].bc w:0
_ZN5image5error16UnsupportedError20from_format_and_kind17h8dd35d19527ffadbE already exist in ./bitcodes2/image_rs15_22_[PpSLeCJp].bc w:0
_ZN5image8imageops6sample9thumbnail17h418ac981c55a78dbE already exist in ./bitcodes2/image_rs15_22_[PpSLeCJp].bc w:0
 Merging module ./bitcodes2/image_rs15_222_[3GWI3GxZ].bc
Variants count 117
 Merging module ./bitcodes2/image_rs15_222_[aFh2Cj9f].bc
Variants count 118
 Merging module ./bitcodes2/image_rs15_222_[5Zwf6MIk].bc
Variants count 119
 Merging module ./bitcodes2/image_rs15_3_[XZ3L6Aij].bc
Variants count 120
_ZN3png7decoder16Decoder$LT$R$GT$19set_transformations17h3db447a4863900d2E already exist in ./bitcodes2/image_rs15_3_[XZ3L6Aij].bc w:0
_ZN5image6codecs3bmp7decoder19BmpDecoder$LT$R$GT$25read_full_byte_pixel_data17he90647b932761bd4E already exist in ./bitcodes2/image_rs15_3_[XZ3L6Aij].bc w:0
 Merging module ./bitcodes2/image_rs15_112_[XNz9h4T5].bc
Variants count 121
_ZN4core3ops12control_flow77ControlFlow$LT$R$C$$LT$R$u20$as$u20$core..ops..try_trait..Try$GT$..Output$GT$8from_try17hfa27bd65a5ae5641E already exist in ./bitcodes2/image_rs15_112_[XNz9h4T5].bc w:0
_ZN5image8imageops8colorops8contrast17he99131cb2798383fE already exist in ./bitcodes2/image_rs15_112_[XNz9h4T5].bc w:0
 Merging module ./bitcodes2/image_rs15_222_[AwfgbtFj].bc
Variants count 122
 Merging module ./bitcodes2/image_rs15_496_[KlDb9Q46].bc
Variants count 123
 Merging module ./bitcodes2/image_rs15_86_[7XOCN2_1].bc
Variants count 124
 Merging module ./bitcodes2/image_rs15_21_[gUtmowI2].bc
_ZN5alloc11collections5btree4node137Handle$LT$alloc..collections..btree..node..NodeRef$LT$BorrowType$C$K$C$V$C$NodeType$GT$$C$alloc..collections..btree..node..marker..KV$GT$10right_edge17hc8affa6734f1dd43E already exist in ./bitcodes2/image_rs15_21_[gUtmowI2].bc w:0
_ZN97_$LT$alloc..vec..Vec$LT$T$C$A$GT$$u20$as$u20$alloc..vec..spec_extend..SpecExtend$LT$T$C$I$GT$$GT$11spec_extend17hef060f9900728987E already exist in ./bitcodes2/image_rs15_21_[gUtmowI2].bc w:0
Variants count 125
_ZN106_$LT$image..color..Rgb$LT$T$GT$$u20$as$u20$image..color..FromColor$LT$image..color..LumaA$LT$T$GT$$GT$$GT$10from_color17h3483d43fbbee6b31E already exist in ./bitcodes2/image_rs15_21_[gUtmowI2].bc w:0
 Merging module ./bitcodes2/image_rs15_239_[WDB4Hu1x].bc
Variants count 126
Variants count 127
 Merging module ./bitcodes2/png_rs13_169_[1aeYMs6l][W1KXfKkL][tR3iXuVt].bc
Variants count 128
 Merging module ./bitcodes2/image_rs15_160_[w0K_lDfX].bc
Variants count 129
 Merging module ./bitcodes2/image_rs15_86_[nDsFuQo7].bc
Variants count 130
 Merging module ./bitcodes2/image_rs15_878_[RMXMltFX].bc
Variants count 131
Variants count 132
 Merging module ./bitcodes2/image_rs15_222_[_av0Ma9Z].bc
Variants count 133
 Merging module ./bitcodes2/image_rs15_222_[Ylzf22t2].bc
Variants count 134
 Merging module ./bitcodes2/image_rs15_233_[nZAAQXzA].bc
Variants count 135
Variants count 136
 Merging module ./bitcodes2/image_rs15_78_[2vtUSllv].bc
Variants count 137
_ZN4tiff7decoder3ifd5Entry13decode_offset17h10f22d8c5f7ba5ffE already exist in ./bitcodes2/image_rs15_78_[2vtUSllv].bc w:0
_ZN98_$LT$alloc..vec..Vec$LT$T$GT$$u20$as$u20$alloc..vec..spec_from_iter..SpecFromIter$LT$T$C$I$GT$$GT$9from_iter17h81fc7b7cb1966dbcE already exist in ./bitcodes2/image_rs15_78_[2vtUSllv].bc w:0
 Merging module ./bitcodes2/image_rs15_87_[Jzmqz_3Q].bc
Variants count 138
 Merging module ./bitcodes2/image_rs15_86_[RXWxfxwP].bc
Variants count 139
 Merging module ./bitcodes2/image_rs15_248_[ElHpfmeo].bc
Variants count 140
_ZN5image6codecs4jpeg7encoder12PixelDensity3dpi17h76e5ade20be76fe1E already exist in ./bitcodes2/image_rs15_248_[ElHpfmeo].bc w:0
 Merging module ./bitcodes2/image_rs15_222_[XPrZ5tSQ].bc
Variants count 141
 Merging module ./bitcodes2/image_rs15_112_[_m2NKsXU].bc
Variants count 142
_ZN4core3ops12control_flow77ControlFlow$LT$R$C$$LT$R$u20$as$u20$core..ops..try_trait..Try$GT$..Output$GT$8from_try17hfa27bd65a5ae5641E already exist in ./bitcodes2/image_rs15_112_[_m2NKsXU].bc w:0
_ZN5image8imageops8colorops8contrast17he99131cb2798383fE already exist in ./bitcodes2/image_rs15_112_[_m2NKsXU].bc w:0
 Merging module ./bitcodes2/image_rs15_890_[91V7z4Kv].bc
Variants count 143
 Merging module ./bitcodes2/image_rs15_222_[Ki9kTlb_].bc
Variants count 144
 Merging module ./bitcodes2/image_rs15_222_[nDtG1_Pa].bc
Variants count 145
 Merging module ./bitcodes2/image_rs15_843_[bq_pNrch].bc
Variants count 146
_ZN5image7buffer_32ImageBuffer$LT$P$C$Container$GT$16check_image_fits17h89836d9f979b2413E already exist in ./bitcodes2/image_rs15_843_[bq_pNrch].bc w:0
_ZN5image5image16GenericImageView5width17hc8a2a9f5f4c99d2bE already exist in ./bitcodes2/image_rs15_843_[bq_pNrch].bc w:0
 Merging module ./bitcodes2/png_rs13_169_[E26QNopi][M7gXfQty][3hKwVwG4].bc
Variants count 147
 Merging module ./bitcodes2/image_rs15_684_[M_6gt5eT].bc
Variants count 148
_ZN97_$LT$alloc..vec..Vec$LT$T$C$A$GT$$u20$as$u20$alloc..vec..spec_extend..SpecExtend$LT$T$C$I$GT$$GT$11spec_extend28_$u7b$$u7b$closure$u7d$$u7d$17h96619b169d7d8ec9E already exist in ./bitcodes2/image_rs15_684_[M_6gt5eT].bc w:0
 Merging module ./bitcodes2/image_rs15_248_[GNkAmUIK].bc
Variants count 149
_ZN5image6codecs4jpeg7encoder12PixelDensity3dpi17h76e5ade20be76fe1E already exist in ./bitcodes2/image_rs15_248_[GNkAmUIK].bc w:0
 Merging module ./bitcodes2/image_rs15_3_[Ty67Bcuz].bc
Variants count 150
_ZN3png7decoder16Decoder$LT$R$GT$19set_transformations17h3db447a4863900d2E already exist in ./bitcodes2/image_rs15_3_[Ty67Bcuz].bc w:0
_ZN5image6codecs3bmp7decoder19BmpDecoder$LT$R$GT$25read_full_byte_pixel_data17he90647b932761bd4E already exist in ./bitcodes2/image_rs15_3_[Ty67Bcuz].bc w:0
 Merging module ./bitcodes2/image_rs15_3_[oYDvksCY].bc
Variants count 151
_ZN3png7decoder16Decoder$LT$R$GT$19set_transformations17h3db447a4863900d2E already exist in ./bitcodes2/image_rs15_3_[oYDvksCY].bc w:0
_ZN5image6codecs3bmp7decoder19BmpDecoder$LT$R$GT$25read_full_byte_pixel_data17he90647b932761bd4E already exist in ./bitcodes2/image_rs15_3_[oYDvksCY].bc w:0
 Merging module ./bitcodes2/image_rs15_890_[P6QjP_TZ].bc
Variants count 152
 Merging module ./bitcodes2/image_rs15_222_[xXx0kD0k].bc
Variants count 153
 Merging module ./bitcodes2/image_rs15_233_[mGrj1Lb9].bc
Variants count 154
_ZN5image6codecs4jpeg7encoder18BitWriter$LT$W$GT$13write_segment17h1f584c4ee0ce62ecE already exist in ./bitcodes2/image_rs15_233_[mGrj1Lb9].bc w:0
 Merging module ./bitcodes2/image_rs15_112_[LgZg3RkX].bc
Variants count 155
_ZN4core3ops12control_flow77ControlFlow$LT$R$C$$LT$R$u20$as$u20$core..ops..try_trait..Try$GT$..Output$GT$8from_try17hfa27bd65a5ae5641E already exist in ./bitcodes2/image_rs15_112_[LgZg3RkX].bc w:0
_ZN5image8imageops8colorops8contrast17he99131cb2798383fE already exist in ./bitcodes2/image_rs15_112_[LgZg3RkX].bc w:0
 Merging module ./bitcodes2/image_rs15_618_[_VmJZ57_].bc
Variants count 156
 Merging module ./bitcodes2/image_rs15_112_[YrZDpSEc].bc
Variants count 157
_ZN4core3ops12control_flow77ControlFlow$LT$R$C$$LT$R$u20$as$u20$core..ops..try_trait..Try$GT$..Output$GT$8from_try17hfa27bd65a5ae5641E already exist in ./bitcodes2/image_rs15_112_[YrZDpSEc].bc w:0
_ZN5image8imageops8colorops8contrast17he99131cb2798383fE already exist in ./bitcodes2/image_rs15_112_[YrZDpSEc].bc w:0
 Merging module ./bitcodes2/image_rs15_222_[dULXwtN2].bc
Variants count 158
 Merging module ./bitcodes2/image_rs15_125_[Flx_K22X].bc
_ZN4core4iter8adapters3map16Map$LT$I$C$F$GT$3new17h4fbee63e29420067E already exist in ./bitcodes2/image_rs15_125_[Flx_K22X].bc w:0
Variants count 159
_ZN5image8imageops6affine8rotate9017h07814081b1ddd323E already exist in ./bitcodes2/image_rs15_125_[Flx_K22X].bc w:0
 Merging module ./bitcodes2/image_rs15_222_[BHj39Dna].bc
Variants count 160
 Merging module ./bitcodes2/image_rs15_496_[exzap_GA].bc
Variants count 161
 Merging module ./bitcodes2/image_rs15_3_[ymn_cjw3].bc
Variants count 162
_ZN3png7decoder16Decoder$LT$R$GT$19set_transformations17h3db447a4863900d2E already exist in ./bitcodes2/image_rs15_3_[ymn_cjw3].bc w:0
_ZN5image6codecs3bmp7decoder19BmpDecoder$LT$R$GT$25read_full_byte_pixel_data17he90647b932761bd4E already exist in ./bitcodes2/image_rs15_3_[ymn_cjw3].bc w:0
 Merging module ./bitcodes2/image_rs15_222_[JMHOKt6z].bc
Variants count 163
 Merging module ./bitcodes2/image_rs15_829_[LcamkzDT].bc
Variants count 164
 Merging module ./bitcodes2/image_rs15_86_[GDR_Thza].bc
Variants count 165
 Merging module ./bitcodes2/image_rs15_605_[qResseLO].bc
Variants count 166
 Merging module ./bitcodes2/image_rs15_239_[JFE9F3Su].bc
Variants count 167
_ZN4core4iter6traits8iterator8Iterator10max_by_key3key17h7d25e6cf4f733365E already exist in ./bitcodes2/image_rs15_239_[JFE9F3Su].bc w:0
 Merging module ./bitcodes2/image_rs15_85_[h503D9HN].bc
Variants count 168
Variants count 169
 Merging module ./bitcodes2/image_rs15_87_[wzi_RgXy].bc
Variants count 170
 Merging module ./bitcodes2/image_rs15_144_[arxeV3Tw].bc
Variants count 171
_ZN5image8imageops10crop_dimms17h39cdb411ca80a1b2E already exist in ./bitcodes2/image_rs15_144_[arxeV3Tw].bc w:0
 Merging module ./bitcodes2/image_rs15_215_[xTyjKcgj].bc
Variants count 172
 Merging module ./bitcodes2/image_rs15_222_[fnQq5QlX].bc
Variants count 173
 Merging module ./bitcodes2/image_rs15_218_[gX1NXCkz].bc
Variants count 174
 Merging module ./bitcodes2/image_rs15_222_[hqaA6Jnv].bc
Variants count 175
 Merging module ./bitcodes2/image_rs15_858_[nviBePCr].bc
_ZN111_$LT$core..iter..adapters..zip..Zip$LT$A$C$B$GT$$u20$as$u20$core..iter..adapters..zip..ZipImpl$LT$A$C$B$GT$$GT$3new17hd9e89045f71da222E already exist in ./bitcodes2/image_rs15_858_[nviBePCr].bc w:0
Variants count 176
_ZN5image6codecs3pnm9autobreak18AutoBreak$LT$W$GT$9flush_buf17h350f213d0bcba396E already exist in ./bitcodes2/image_rs15_858_[nviBePCr].bc w:0
_ZN4core3ptr175drop_in_place$LT$std..io..buffered..bufreader..BufReader$LT$std..io..buffered..bufreader..BufReader$LT$std..io..buffered..bufreader..BufReader$LT$std..fs..File$GT$$GT$$GT$$GT$17hdbdf19a6169cce83E already exist in ./bitcodes2/image_rs15_858_[nviBePCr].bc w:0
_ZN75_$LT$usize$u20$as$u20$core..slice..index..SliceIndex$LT$$u5b$T$u5d$$GT$$GT$9index_mut17h878438740c82fb14E already exist in ./bitcodes2/image_rs15_858_[nviBePCr].bc w:0
_ZN95_$LT$image..codecs..ico..encoder..IcoEncoder$LT$W$GT$$u20$as$u20$image..image..ImageEncoder$GT$11write_image17h4263aacfd78fedfdE already exist in ./bitcodes2/image_rs15_858_[nviBePCr].bc w:0
 Merging module ./bitcodes2/image_rs15_222_[PFUmQ0qr].bc
Variants count 177
 Merging module ./bitcodes2/image_rs15_3_[Y1K76dlG].bc
Variants count 178
_ZN3png7decoder16Decoder$LT$R$GT$19set_transformations17h3db447a4863900d2E already exist in ./bitcodes2/image_rs15_3_[Y1K76dlG].bc w:0
_ZN5image6codecs3bmp7decoder19BmpDecoder$LT$R$GT$25read_full_byte_pixel_data17he90647b932761bd4E already exist in ./bitcodes2/image_rs15_3_[Y1K76dlG].bc w:0
 Merging module ./bitcodes2/image_rs15_222_[A_lflm2v].bc
Variants count 179
 Merging module ./bitcodes2/image_rs15_86_[QB6iFogL].bc
Variants count 180
 Merging module ./bitcodes2/image_rs15_112_[UHx1o41t].bc
Variants count 181
_ZN4core3ops12control_flow77ControlFlow$LT$R$C$$LT$R$u20$as$u20$core..ops..try_trait..Try$GT$..Output$GT$8from_try17hfa27bd65a5ae5641E already exist in ./bitcodes2/image_rs15_112_[UHx1o41t].bc w:0
_ZN5image8imageops8colorops8contrast17he99131cb2798383fE already exist in ./bitcodes2/image_rs15_112_[UHx1o41t].bc w:0
 Merging module ./bitcodes2/image_rs15_125_[qeh9SmCh].bc
Variants count 182
_ZN4core4iter8adapters3map16Map$LT$I$C$F$GT$3new17h4fbee63e29420067E already exist in ./bitcodes2/image_rs15_125_[qeh9SmCh].bc w:0
_ZN5image8imageops6affine8rotate9017h07814081b1ddd323E already exist in ./bitcodes2/image_rs15_125_[qeh9SmCh].bc w:0
 Merging module ./bitcodes2/image_rs15_222_[DuGDRbqg].bc
Variants count 183
 Merging module ./bitcodes2/image_rs15_112_[GWTOVmCG].bc
Variants count 184
_ZN4core3ops12control_flow77ControlFlow$LT$R$C$$LT$R$u20$as$u20$core..ops..try_trait..Try$GT$..Output$GT$8from_try17hfa27bd65a5ae5641E already exist in ./bitcodes2/image_rs15_112_[GWTOVmCG].bc w:0
_ZN5image8imageops8colorops8contrast17he99131cb2798383fE already exist in ./bitcodes2/image_rs15_112_[GWTOVmCG].bc w:0
 Merging module ./bitcodes2/image_rs15_215_[Cp6vwT0R].bc
Variants count 185
 Merging module ./bitcodes2/image_rs15_0_[MnGeZ_WL][pnpf31H4][0xfSfAP8][PvMQ_CuA].bc
Variants count 186
 Merging module ./bitcodes2/image_rs15_86_[wXlyUTY3].bc
Variants count 187
 Merging module ./bitcodes2/image_rs15_233_[MMiUvg50].bc
Variants count 188
_ZN5image6codecs4jpeg7encoder18BitWriter$LT$W$GT$13write_segment17h1f584c4ee0ce62ecE already exist in ./bitcodes2/image_rs15_233_[MMiUvg50].bc w:0
 Merging module ./bitcodes2/image_rs15_215_[fgv3sipr].bc
Variants count 189
 Merging module ./bitcodes2/image_rs15_144_[_zqrUGHz].bc
Variants count 190
_ZN5image8imageops10crop_dimms17h39cdb411ca80a1b2E already exist in ./bitcodes2/image_rs15_144_[_zqrUGHz].bc w:0
 Merging module ./bitcodes2/image_rs15_70_[us6WctOv].bc
Variants count 191
Variants count 192
Variants count 193
 Merging module ./bitcodes2/image_rs15_791_[jU5I8PY8].bc
Variants count 194
 Merging module ./bitcodes2/image_rs15_215_[gC3EhL4o].bc
Variants count 195
 Merging module ./bitcodes2/image_rs15_615_[_h7ueRth].bc
Variants count 196
Variants count 197
 Merging module ./bitcodes2/png_rs13_464_[bgq3hnUg][LCMs3H1t][WSznGjt3][BwcfokCM][nNUptUHf].bc
Variants count 198
 Merging module ./bitcodes2/png_rs13_2897_[_NRJDjxo][zP5xT73o].bc
Variants count 199
 Merging module ./bitcodes2/image_rs15_87_[xMIT5sQr].bc
Variants count 200
 Merging module ./bitcodes2/image_rs15_236_[eTMIeBox].bc
Variants count 201
Variants count 202
 Merging module ./bitcodes2/image_rs15_215_[vdN8Rzli].bc
Variants count 203
 Merging module ./bitcodes2/image_rs15_3_[Z_hZBQb_].bc
Variants count 204
_ZN3png7decoder16Decoder$LT$R$GT$19set_transformations17h3db447a4863900d2E already exist in ./bitcodes2/image_rs15_3_[Z_hZBQb_].bc w:0
_ZN5image6codecs3bmp7decoder19BmpDecoder$LT$R$GT$25read_full_byte_pixel_data17he90647b932761bd4E already exist in ./bitcodes2/image_rs15_3_[Z_hZBQb_].bc w:0
 Merging module ./bitcodes2/image_rs15_144_[egYlCuE_].bc
Variants count 205
_ZN5image8imageops10crop_dimms17h39cdb411ca80a1b2E already exist in ./bitcodes2/image_rs15_144_[egYlCuE_].bc w:0
 Merging module ./bitcodes2/image_rs15_847_[GrzS9xt4].bc
Variants count 206
_ZN91_$LT$core..slice..iter..Iter$LT$T$GT$$u20$as$u20$core..iter..traits..iterator..Iterator$GT$8position17hbfc0843c92c6878aE already exist in ./bitcodes2/image_rs15_847_[GrzS9xt4].bc w:0
 Merging module ./bitcodes2/image_rs15_840_[xiqN9hnV].bc
Variants count 207
_ZN4core3ptr1301drop_in_place$LT$core..iter..adapters..map..map_fold$LT$$LP$core..option..Option$LT$jpeg_decoder..huffman..HuffmanTable$GT$$C$core..option..Option$LT$jpeg_decoder..huffman..HuffmanTable$GT$$RP$$C$core..option..Option$LT$jpeg_decoder..huffman..HuffmanTable$GT$$C$$LP$$RP$$C$jpeg_decoder..decoder..Decoder$LT$std..io..buffered..bufreader..BufReader$LT$std..fs..File$GT$$GT$..decode_internal..$u7b$$u7b$closure$u7d$$u7d$$C$core..iter..traits..iterator..Iterator..for_each..call$LT$core..option..Option$LT$jpeg_decoder..huffman..HuffmanTable$GT$$C$$LT$alloc..vec..Vec$LT$core..option..Option$LT$jpeg_decoder..huffman..HuffmanTable$GT$$GT$$u20$as$u20$alloc..vec..spec_extend..SpecExtend$LT$core..option..Option$LT$jpeg_decoder..huffman..HuffmanTable$GT$$C$core..iter..adapters..map..Map$LT$core..iter..adapters..zip..Zip$LT$alloc..vec..into_iter..IntoIter$LT$core..option..Option$LT$jpeg_decoder..huffman..HuffmanTable$GT$$GT$$C$alloc..vec..into_iter..IntoIter$LT$core..option..Option$LT$jpeg_decoder..huffman..HuffmanTable$GT$$GT$$GT$$C$jpeg_decoder..decoder..Decoder$LT$std..io..buffered..bufreader..BufReader$LT$std..fs..File$GT$$GT$..decode_internal..$u7b$$u7b$closure$u7d$$u7d$$GT$$GT$$GT$..spec_extend..$u7b$$u7b$closure$u7d$$u7d$$GT$..$u7b$$u7b$closure$u7d$$u7d$$GT$..$u7b$$u7b$closure$u7d$$u7d$$GT$17h43f18c2da6dc3c94E already exist in ./bitcodes2/image_rs15_840_[xiqN9hnV].bc w:0
 Merging module ./bitcodes2/image_rs15_87_[yiMtG1JA].bc
Variants count 208
 Merging module ./bitcodes2/image_rs15_128_[_YpxijJL].bc
Variants count 209
Variants count 210
Variants count 211
Variants count 212
 Merging module ./bitcodes2/image_rs15_87_[Ctso7WJ8].bc
Variants count 213
 Merging module ./bitcodes2/png_rs13_169_[Ibg2Ek1e][DCjSwAS3][biKR6Aev].bc
Variants count 214
 Merging module ./bitcodes2/image_rs15_125_[FbuOmBa1].bc
Variants count 215
_ZN4core4iter8adapters3map16Map$LT$I$C$F$GT$3new17h4fbee63e29420067E already exist in ./bitcodes2/image_rs15_125_[FbuOmBa1].bc w:0
_ZN5image8imageops6affine8rotate9017h07814081b1ddd323E already exist in ./bitcodes2/image_rs15_125_[FbuOmBa1].bc w:0
 Merging module ./bitcodes2/image_rs15_884_[d5QhBBHk].bc
Variants count 216
 Merging module ./bitcodes2/image_rs15_615_[viJkU5Ed].bc
Variants count 217
_ZN4core3ptr8non_null16NonNull$LT$T$GT$13new_unchecked17hf13979bfdc5a69a2E already exist in ./bitcodes2/image_rs15_615_[viJkU5Ed].bc w:0
 Merging module ./bitcodes2/image_rs15_86_[A1MhQYVm].bc
Variants count 218
 Merging module ./bitcodes2/image_rs15_886_[hyz7lr7j].bc
_ZN5alloc7raw_vec19RawVec$LT$T$C$A$GT$14current_memory17h2ebfc26687c09d8bE already exist in ./bitcodes2/image_rs15_886_[hyz7lr7j].bc w:0
_ZN105_$LT$image..color..Rgb$LT$T$GT$$u20$as$u20$image..color..FromColor$LT$image..color..Luma$LT$T$GT$$GT$$GT$10from_color17hfded6d83c20eeff5E already exist in ./bitcodes2/image_rs15_886_[hyz7lr7j].bc w:0
 Merging module ./bitcodes2/image_rs15_3_[sD_ea20Y].bc
Variants count 219
_ZN3png7decoder16Decoder$LT$R$GT$19set_transformations17h3db447a4863900d2E already exist in ./bitcodes2/image_rs15_3_[sD_ea20Y].bc w:0
_ZN5image6codecs3bmp7decoder19BmpDecoder$LT$R$GT$25read_full_byte_pixel_data17he90647b932761bd4E already exist in ./bitcodes2/image_rs15_3_[sD_ea20Y].bc w:0
 Merging module ./bitcodes2/image_rs15_880_[dg6H367x].bc
Variants count 220
 Merging module ./bitcodes2/image_rs15_605_[sw1NerS9].bc
Variants count 221
 Merging module ./bitcodes2/image_rs15_216_[7E_sMMYb].bc
Variants count 222
 Merging module ./bitcodes2/image_rs15_825_[CgPN0luR].bc
Variants count 223
 Merging module ./bitcodes2/image_rs15_107_[4WfiOnAU].bc
Variants count 224
_ZN111_$LT$core..iter..adapters..zip..Zip$LT$A$C$B$GT$$u20$as$u20$core..iter..adapters..zip..ZipImpl$LT$A$C$B$GT$$GT$4next17h904ae9a5f7f17e7dE already exist in ./bitcodes2/image_rs15_107_[4WfiOnAU].bc w:0
_ZN153_$LT$core..result..Result$LT$T$C$F$GT$$u20$as$u20$core..ops..try_trait..FromResidual$LT$core..result..Result$LT$core..convert..Infallible$C$E$GT$$GT$$GT$13from_residual17he99b67180108ca9bE already exist in ./bitcodes2/image_rs15_107_[4WfiOnAU].bc w:0
_ZN63_$LT$I$u20$as$u20$core..iter..traits..collect..IntoIterator$GT$9into_iter17hf0d7f71adab83d70E already exist in ./bitcodes2/image_rs15_107_[4WfiOnAU].bc w:0
 Merging module ./bitcodes2/png_rs13_758_[Ofyj33kB].bc
Variants count 225
 Merging module ./bitcodes2/image_rs15_615_[lE3Z3cJ0].bc
Variants count 226
_ZN4core3ptr8non_null16NonNull$LT$T$GT$13new_unchecked17hf13979bfdc5a69a2E already exist in ./bitcodes2/image_rs15_615_[lE3Z3cJ0].bc w:0
 Merging module ./bitcodes2/image_rs15_80_[WtiMzt9F].bc
Variants count 227
Variants count 228
 Merging module ./bitcodes2/image_rs15_222_[LAL5d1xC].bc
Variants count 229
 Merging module ./bitcodes2/image_rs15_112_[g_LPlUp2].bc
Variants count 230
_ZN4core3ops12control_flow77ControlFlow$LT$R$C$$LT$R$u20$as$u20$core..ops..try_trait..Try$GT$..Output$GT$8from_try17hfa27bd65a5ae5641E already exist in ./bitcodes2/image_rs15_112_[g_LPlUp2].bc w:0
_ZN5image8imageops8colorops8contrast17he99131cb2798383fE already exist in ./bitcodes2/image_rs15_112_[g_LPlUp2].bc w:0
 Merging module ./bitcodes2/image_rs15_829_[CI0e_OcD].bc
Variants count 231
 Merging module ./bitcodes2/image_rs15_0_[HgNzttSW][DpefBVKp][OL5mBhlO][40Fy2IOS].bc
Variants count 232
 Merging module ./bitcodes2/image_rs15_222_[1EZFH2wR].bc
Variants count 233
 Merging module ./bitcodes2/image_rs15_3_[DgsKUSbh].bc
Variants count 234
_ZN3png7decoder16Decoder$LT$R$GT$19set_transformations17h3db447a4863900d2E already exist in ./bitcodes2/image_rs15_3_[DgsKUSbh].bc w:0
_ZN5image6codecs3bmp7decoder19BmpDecoder$LT$R$GT$25read_full_byte_pixel_data17he90647b932761bd4E already exist in ./bitcodes2/image_rs15_3_[DgsKUSbh].bc w:0
 Merging module ./bitcodes2/image_rs15_3_[LvD58rvn].bc
Variants count 235
_ZN3png7decoder16Decoder$LT$R$GT$19set_transformations17h3db447a4863900d2E already exist in ./bitcodes2/image_rs15_3_[LvD58rvn].bc w:0
_ZN5image6codecs3bmp7decoder19BmpDecoder$LT$R$GT$25read_full_byte_pixel_data17he90647b932761bd4E already exist in ./bitcodes2/image_rs15_3_[LvD58rvn].bc w:0
 Merging module ./bitcodes2/image_rs15_86_[znFRnrXE].bc
Variants count 236
 Merging module ./bitcodes2/image_rs15_539_[5Gm_XpJl].bc
Variants count 237
 Merging module ./bitcodes2/image_rs15_248_[y6SeIhX2].bc
Variants count 238
_ZN5image6codecs4jpeg7encoder12PixelDensity3dpi17h76e5ade20be76fe1E already exist in ./bitcodes2/image_rs15_248_[y6SeIhX2].bc w:0
 Merging module ./bitcodes2/image_rs15_86_[lJTwx6wj].bc
Variants count 239
 Merging module ./bitcodes2/image_rs15_222_[l_QWi7Z_].bc
Variants count 240
 Merging module ./bitcodes2/image_rs15_615_[S_kZQL8i].bc
Variants count 241
_ZN4core3ptr8non_null16NonNull$LT$T$GT$13new_unchecked17hf13979bfdc5a69a2E already exist in ./bitcodes2/image_rs15_615_[S_kZQL8i].bc w:0
 Merging module ./bitcodes2/image_rs15_215_[zV8fALfw].bc
Variants count 242
 Merging module ./bitcodes2/image_rs15_222_[c0ti0tBc].bc
Variants count 243
 Merging module ./bitcodes2/image_rs15_131_[IarRhyU6].bc
Variants count 244
 Merging module ./bitcodes2/image_rs15_86_[HBdtYS6d].bc
Variants count 245
 Merging module ./bitcodes2/image_rs15_160_[DEJFu6uf].bc
Variants count 246
 Merging module ./bitcodes2/image_rs15_897_[t5tEmgEi].bc
Variants count 247
_ZN94_$LT$core..slice..iter..IterMut$LT$T$GT$$u20$as$u20$core..iter..traits..iterator..Iterator$GT$24__iterator_get_unchecked17h58b6afa0e8024274E already exist in ./bitcodes2/image_rs15_897_[t5tEmgEi].bc w:0
_ZN236_$LT$image..buffer_..ImageBuffer$LT$FromType$C$Container$GT$$u20$as$u20$image..buffer_..ConvertBuffer$LT$image..buffer_..ImageBuffer$LT$ToType$C$alloc..vec..Vec$LT$$LT$ToType$u20$as$u20$image..traits..Pixel$GT$..Subpixel$GT$$GT$$GT$$GT$7convert17he398e278debce516E already exist in ./bitcodes2/image_rs15_897_[t5tEmgEi].bc w:0
 Merging module ./bitcodes2/image_rs15_160_[dgFZJ1R4].bc
Variants count 248
 Merging module ./bitcodes2/image_rs15_222_[vB3hj243].bc
Variants count 249
 Merging module ./bitcodes2/image_rs15_596_[f_C2bOq6].bc
Variants count 250
 Merging module ./bitcodes2/png_rs13_169_[7sThe2hJ][J2DdsyLm][ZyxPoLqH].bc
Variants count 251
 Merging module ./bitcodes2/image_rs15_222_[RUwNc_nd].bc
Variants count 252
 Merging module ./bitcodes2/image_rs15_151_[uKQ1YZ2V].bc
Variants count 253
Variants count 254
Variants count 255
 Merging module ./bitcodes2/image_rs15_847_[oZxAeOtS].bc
Variants count 256
_ZN91_$LT$core..slice..iter..Iter$LT$T$GT$$u20$as$u20$core..iter..traits..iterator..Iterator$GT$8position17hbfc0843c92c6878aE already exist in ./bitcodes2/image_rs15_847_[oZxAeOtS].bc w:0
 Merging module ./bitcodes2/image_rs15_239_[MTtSl2Ms].bc
Variants count 257
_ZN4core4iter6traits8iterator8Iterator10max_by_key3key17h7d25e6cf4f733365E already exist in ./bitcodes2/image_rs15_239_[MTtSl2Ms].bc w:0
 Merging module ./bitcodes2/png_rs13_2745_[dvBYLO47][_L6Fgmjd][ZMhnAfxM][jpAiYKSY][CpKN5kJk].bc
Variants count 258
 Merging module ./bitcodes2/image_rs15_0_[0nrpquvL][6DGLTzXJ][TV5mMe8g][TjY_jlYi].bc
Variants count 259
 Merging module ./bitcodes2/image_rs15_0_[lNbTfYCq][q4vNfqIw][MT7IvQ4b][tlap3xYu].bc
Variants count 260
 Merging module ./bitcodes2/png_rs13_464_[IbZClqt3][st8HXCof][i4qQuzzb][lERUb48R][J_2hiOap].bc
Variants count 261
 Merging module ./bitcodes2/image_rs15_219_[NR06yPvc].bc
Variants count 262
Variants count 263
Variants count 264
Variants count 265
 Merging module ./bitcodes2/image_rs15_840_[8jughCo6].bc
Variants count 266
_ZN4core3ptr1301drop_in_place$LT$core..iter..adapters..map..map_fold$LT$$LP$core..option..Option$LT$jpeg_decoder..huffman..HuffmanTable$GT$$C$core..option..Option$LT$jpeg_decoder..huffman..HuffmanTable$GT$$RP$$C$core..option..Option$LT$jpeg_decoder..huffman..HuffmanTable$GT$$C$$LP$$RP$$C$jpeg_decoder..decoder..Decoder$LT$std..io..buffered..bufreader..BufReader$LT$std..fs..File$GT$$GT$..decode_internal..$u7b$$u7b$closure$u7d$$u7d$$C$core..iter..traits..iterator..Iterator..for_each..call$LT$core..option..Option$LT$jpeg_decoder..huffman..HuffmanTable$GT$$C$$LT$alloc..vec..Vec$LT$core..option..Option$LT$jpeg_decoder..huffman..HuffmanTable$GT$$GT$$u20$as$u20$alloc..vec..spec_extend..SpecExtend$LT$core..option..Option$LT$jpeg_decoder..huffman..HuffmanTable$GT$$C$core..iter..adapters..map..Map$LT$core..iter..adapters..zip..Zip$LT$alloc..vec..into_iter..IntoIter$LT$core..option..Option$LT$jpeg_decoder..huffman..HuffmanTable$GT$$GT$$C$alloc..vec..into_iter..IntoIter$LT$core..option..Option$LT$jpeg_decoder..huffman..HuffmanTable$GT$$GT$$GT$$C$jpeg_decoder..decoder..Decoder$LT$std..io..buffered..bufreader..BufReader$LT$std..fs..File$GT$$GT$..decode_internal..$u7b$$u7b$closure$u7d$$u7d$$GT$$GT$$GT$..spec_extend..$u7b$$u7b$closure$u7d$$u7d$$GT$..$u7b$$u7b$closure$u7d$$u7d$$GT$..$u7b$$u7b$closure$u7d$$u7d$$GT$17h43f18c2da6dc3c94E already exist in ./bitcodes2/image_rs15_840_[8jughCo6].bc w:0
 Merging module ./bitcodes2/image_rs15_179_[DzXkftsV].bc
Variants count 267
Variants count 268
 Merging module ./bitcodes2/image_rs15_248_[e0T0weNi].bc
Variants count 269
_ZN5image6codecs4jpeg7encoder12PixelDensity3dpi17h76e5ade20be76fe1E already exist in ./bitcodes2/image_rs15_248_[e0T0weNi].bc w:0
 Merging module ./bitcodes2/image_rs15_86_[aE5EmNba].bc
Variants count 270
 Merging module ./bitcodes2/image_rs15_107_[wvRSwdba].bc
Variants count 271
_ZN111_$LT$core..iter..adapters..zip..Zip$LT$A$C$B$GT$$u20$as$u20$core..iter..adapters..zip..ZipImpl$LT$A$C$B$GT$$GT$4next17h904ae9a5f7f17e7dE already exist in ./bitcodes2/image_rs15_107_[wvRSwdba].bc w:0
_ZN153_$LT$core..result..Result$LT$T$C$F$GT$$u20$as$u20$core..ops..try_trait..FromResidual$LT$core..result..Result$LT$core..convert..Infallible$C$E$GT$$GT$$GT$13from_residual17he99b67180108ca9bE already exist in ./bitcodes2/image_rs15_107_[wvRSwdba].bc w:0
_ZN63_$LT$I$u20$as$u20$core..iter..traits..collect..IntoIterator$GT$9into_iter17hf0d7f71adab83d70E already exist in ./bitcodes2/image_rs15_107_[wvRSwdba].bc w:0
 Merging module ./bitcodes2/image_rs15_222_[x_NAFw52].bc
Variants count 272
 Merging module ./bitcodes2/image_rs15_895_[_hszy_4I].bc
Variants count 273
 Merging module ./bitcodes2/image_rs15_86_[ekSl2VUq].bc
Variants count 274
 Merging module ./bitcodes2/image_rs15_604_[bruxGnt7].bc
Variants count 275
 Merging module ./bitcodes2/image_rs15_86_[31luhXIk].bc
Variants count 276
 Merging module ./bitcodes2/image_rs15_618_[f1q6z29_].bc
Variants count 277
 Merging module ./bitcodes2/image_rs15_222_[T7c65uy_].bc
Variants count 278
 Merging module ./bitcodes2/image_rs15_87_[HGloVp7z].bc
Variants count 279
 Merging module ./bitcodes2/image_rs15_86_[qvGnhARC].bc
Variants count 280
 Merging module ./bitcodes2/image_rs15_142_[1Jc6Jtfz].bc
Variants count 281
_ZN97_$LT$alloc..vec..Vec$LT$T$C$A$GT$$u20$as$u20$alloc..vec..spec_extend..SpecExtend$LT$T$C$I$GT$$GT$11spec_extend17h23e2afbd79d2bf65E already exist in ./bitcodes2/image_rs15_142_[1Jc6Jtfz].bc w:0
 Merging module ./bitcodes2/image_rs15_86_[ytOHW1QS].bc
Variants count 282
 Merging module ./bitcodes2/image_rs15_222_[MdqlazQV].bc
Variants count 283
 Merging module ./bitcodes2/image_rs15_86_[MKo218Ka].bc
Variants count 284
 Merging module ./bitcodes2/image_rs15_884_[q7_b7_yT].bc
_ZN4core6option15Option$LT$T$GT$10ok_or_else17h714edbb4d408b0d8E already exist in ./bitcodes2/image_rs15_884_[q7_b7_yT].bc w:0
 Merging module ./bitcodes2/image_rs15_87_[CyLq38xW].bc
Variants count 285
 Merging module ./bitcodes2/image_rs15_890_[mOOMt1cA].bc
Variants count 286
 Merging module ./bitcodes2/image_rs15_676_[1SKTk6vm].bc
_ZN5image8dynimage12DynamicImage12from_decoder17h7f14f4ca4650afdfE already exist in ./bitcodes2/image_rs15_676_[1SKTk6vm].bc w:0
Variants count 287
 Merging module ./bitcodes2/image_rs15_818_[3pX8Ln_o].bc
Variants count 288
Variants count 289
Variants count 290
 Merging module ./bitcodes2/image_rs15_222_[FvES7PoC].bc
Variants count 291
 Merging module ./bitcodes2/image_rs15_596_[oPa_pBZB].bc
_ZN3png7decoder15Reader$LT$R$GT$19next_interlaced_row17h68379df29e9bf069E already exist in ./bitcodes2/image_rs15_596_[oPa_pBZB].bc w:0
 Merging module ./bitcodes2/png_rs13_169_[oqBvIvQx][B5Tsi0Oe][t1BWAfj8].bc
Variants count 292
 Merging module ./bitcodes2/image_rs15_222_[56oB_aMf].bc
Variants count 293
 Merging module ./bitcodes2/image_rs15_605_[muR4i1sL].bc
Variants count 294
 Merging module ./bitcodes2/image_rs15_818_[O_4HskdG].bc
Variants count 295
_ZN5image5error10LimitError9from_kind17h5b0452e3cc9838c6E already exist in ./bitcodes2/image_rs15_818_[O_4HskdG].bc w:0
_ZN99_$LT$image..buffer_..ImageBuffer$LT$P$C$Container$GT$$u20$as$u20$image..image..GenericImageView$GT$9get_pixel17h58e9e6d253fab205E already exist in ./bitcodes2/image_rs15_818_[O_4HskdG].bc w:0
 Merging module ./bitcodes2/image_rs15_3_[ZyW07SXL].bc
Variants count 296
_ZN3png7decoder16Decoder$LT$R$GT$19set_transformations17h3db447a4863900d2E already exist in ./bitcodes2/image_rs15_3_[ZyW07SXL].bc w:0
_ZN5image6codecs3bmp7decoder19BmpDecoder$LT$R$GT$25read_full_byte_pixel_data17he90647b932761bd4E already exist in ./bitcodes2/image_rs15_3_[ZyW07SXL].bc w:0
 Merging module ./bitcodes2/png_rs13_2897_[hjEk7eEC][9mpzFSS9].bc
_ZN4core6option15Option$LT$T$GT$6as_mut17hf71675d610d15f3fE already exist in ./bitcodes2/png_rs13_2897_[hjEk7eEC][9mpzFSS9].bc w:0
 Merging module ./bitcodes2/image_rs15_684_[2rtAQeIF].bc
Variants count 297
_ZN97_$LT$alloc..vec..Vec$LT$T$C$A$GT$$u20$as$u20$alloc..vec..spec_extend..SpecExtend$LT$T$C$I$GT$$GT$11spec_extend28_$u7b$$u7b$closure$u7d$$u7d$17h96619b169d7d8ec9E already exist in ./bitcodes2/image_rs15_684_[2rtAQeIF].bc w:0
 Merging module ./bitcodes2/image_rs15_86_[PIPsGSyd].bc
Variants count 298
 Merging module ./bitcodes2/image_rs15_160_[fdQYNYKO].bc
Variants count 299
 Merging module ./bitcodes2/image_rs15_3_[tdgP33_P].bc
Variants count 300
_ZN3png7decoder16Decoder$LT$R$GT$19set_transformations17h3db447a4863900d2E already exist in ./bitcodes2/image_rs15_3_[tdgP33_P].bc w:0
_ZN5image6codecs3bmp7decoder19BmpDecoder$LT$R$GT$25read_full_byte_pixel_data17he90647b932761bd4E already exist in ./bitcodes2/image_rs15_3_[tdgP33_P].bc w:0
 Merging module ./bitcodes2/png_rs13_169_[gESmaK4c][GgzxqJEz][_oY75Anp].bc
Variants count 301
 Merging module ./bitcodes2/image_rs15_615_[OfilMMh_].bc
Variants count 302
_ZN4core3ptr8non_null16NonNull$LT$T$GT$13new_unchecked17hf13979bfdc5a69a2E already exist in ./bitcodes2/image_rs15_615_[OfilMMh_].bc w:0
 Merging module ./bitcodes2/image_rs15_222_[zw_VwdrE].bc
Variants count 303
 Merging module ./bitcodes2/image_rs15_107_[laBDK8V7].bc
Variants count 304
_ZN111_$LT$core..iter..adapters..zip..Zip$LT$A$C$B$GT$$u20$as$u20$core..iter..adapters..zip..ZipImpl$LT$A$C$B$GT$$GT$4next17h904ae9a5f7f17e7dE already exist in ./bitcodes2/image_rs15_107_[laBDK8V7].bc w:0
_ZN153_$LT$core..result..Result$LT$T$C$F$GT$$u20$as$u20$core..ops..try_trait..FromResidual$LT$core..result..Result$LT$core..convert..Infallible$C$E$GT$$GT$$GT$13from_residual17he99b67180108ca9bE already exist in ./bitcodes2/image_rs15_107_[laBDK8V7].bc w:0
_ZN63_$LT$I$u20$as$u20$core..iter..traits..collect..IntoIterator$GT$9into_iter17hf0d7f71adab83d70E already exist in ./bitcodes2/image_rs15_107_[laBDK8V7].bc w:0
 Merging module ./bitcodes2/image_rs15_248_[Yn5CfFx7].bc
Variants count 305
_ZN5image6codecs4jpeg7encoder12PixelDensity3dpi17h76e5ade20be76fe1E already exist in ./bitcodes2/image_rs15_248_[Yn5CfFx7].bc w:0
 Merging module ./bitcodes2/image_rs15_21_[q2qBY4s1].bc
Variants count 306
_ZN5alloc11collections5btree4node137Handle$LT$alloc..collections..btree..node..NodeRef$LT$BorrowType$C$K$C$V$C$NodeType$GT$$C$alloc..collections..btree..node..marker..KV$GT$10right_edge17hc8affa6734f1dd43E already exist in ./bitcodes2/image_rs15_21_[q2qBY4s1].bc w:0
_ZN97_$LT$alloc..vec..Vec$LT$T$C$A$GT$$u20$as$u20$alloc..vec..spec_extend..SpecExtend$LT$T$C$I$GT$$GT$11spec_extend17hef060f9900728987E already exist in ./bitcodes2/image_rs15_21_[q2qBY4s1].bc w:0
_ZN106_$LT$image..color..Rgb$LT$T$GT$$u20$as$u20$image..color..FromColor$LT$image..color..LumaA$LT$T$GT$$GT$$GT$10from_color17h3483d43fbbee6b31E already exist in ./bitcodes2/image_rs15_21_[q2qBY4s1].bc w:0
 Merging module ./bitcodes2/image_rs15_215_[RLct5YYr].bc
Variants count 307
 Merging module ./bitcodes2/png_rs13_464_[nrZzFLp3][EvdLeIBT][EmbVXc4m][aYpHphrw][jfhQr768].bc
Variants count 308
 Merging module ./bitcodes2/image_rs15_3_[3zD3sc5m].bc
Variants count 309
_ZN3png7decoder16Decoder$LT$R$GT$19set_transformations17h3db447a4863900d2E already exist in ./bitcodes2/image_rs15_3_[3zD3sc5m].bc w:0
_ZN5image6codecs3bmp7decoder19BmpDecoder$LT$R$GT$25read_full_byte_pixel_data17he90647b932761bd4E already exist in ./bitcodes2/image_rs15_3_[3zD3sc5m].bc w:0
 Merging module ./bitcodes2/image_rs15_144_[LdTPwCp1].bc
Variants count 310
_ZN5image8imageops10crop_dimms17h39cdb411ca80a1b2E already exist in ./bitcodes2/image_rs15_144_[LdTPwCp1].bc w:0
 Merging module ./bitcodes2/image_rs15_222_[EaNtDUvv].bc
Variants count 311
 Merging module ./bitcodes2/image_rs15_86_[U1Rn1jqk].bc
Variants count 312
 Merging module ./bitcodes2/image_rs15_160_[RkcmImf3].bc
Variants count 313
 Merging module ./bitcodes2/image_rs15_615_[nPT5dSKw].bc
Variants count 314
_ZN4core3ptr8non_null16NonNull$LT$T$GT$13new_unchecked17hf13979bfdc5a69a2E already exist in ./bitcodes2/image_rs15_615_[nPT5dSKw].bc w:0
 Merging module ./bitcodes2/image_rs15_222_[2SbXf_J2].bc
Variants count 315
 Merging module ./bitcodes2/image_rs15_843_[CRL55fWx].bc
Variants count 316
_ZN5image7buffer_32ImageBuffer$LT$P$C$Container$GT$16check_image_fits17h89836d9f979b2413E already exist in ./bitcodes2/image_rs15_843_[CRL55fWx].bc w:0
_ZN5image5image16GenericImageView5width17hc8a2a9f5f4c99d2bE already exist in ./bitcodes2/image_rs15_843_[CRL55fWx].bc w:0
 Merging module ./bitcodes2/image_rs15_222_[8Tz2EHvF].bc
Variants count 317
 Merging module ./bitcodes2/image_rs15_3_[qflUMLXY].bc
Variants count 318
_ZN3png7decoder16Decoder$LT$R$GT$19set_transformations17h3db447a4863900d2E already exist in ./bitcodes2/image_rs15_3_[qflUMLXY].bc w:0
_ZN5image6codecs3bmp7decoder19BmpDecoder$LT$R$GT$25read_full_byte_pixel_data17he90647b932761bd4E already exist in ./bitcodes2/image_rs15_3_[qflUMLXY].bc w:0
 Merging module ./bitcodes2/png_rs13_955_[IYg5ywGE].bc
Variants count 319
 Merging module ./bitcodes2/png_rs13_464_[P9lBlG_q][ugqMZnw_][VkDx3cO1][0RDcbZH1][uNwKzz_n].bc
Variants count 320
 Merging module ./bitcodes2/image_rs15_80_[1bQp9NWi].bc
_ZN4core3ptr104drop_in_place$LT$alloc..raw_vec..RawVec$LT$$LP$alloc..string..String$C$alloc..string..String$RP$$GT$$GT$17hb0979317a97b05b1E already exist in ./bitcodes2/image_rs15_80_[1bQp9NWi].bc w:0
Variants count 321
 Merging module ./bitcodes2/image_rs15_86_[I_B8eYRW].bc
Variants count 322
 Merging module ./bitcodes2/image_rs15_239_[ce212OP7].bc
Variants count 323
_ZN4core4iter6traits8iterator8Iterator10max_by_key3key17h7d25e6cf4f733365E already exist in ./bitcodes2/image_rs15_239_[ce212OP7].bc w:0
 Merging module ./bitcodes2/image_rs15_222_[L2HOK11O].bc
Variants count 324
 Merging module ./bitcodes2/image_rs15_236_[XEyvSPSY].bc
_ZN97_$LT$alloc..vec..Vec$LT$T$C$A$GT$$u20$as$u20$alloc..vec..spec_extend..SpecExtend$LT$T$C$I$GT$$GT$11spec_extend28_$u7b$$u7b$closure$u7d$$u7d$17h8cf060cbe1086963E already exist in ./bitcodes2/image_rs15_236_[XEyvSPSY].bc w:0
_ZN76_$LT$image..dynimage..DynamicImage$u20$as$u20$image..image..GenericImage$GT$9put_pixel17h09a99cb210be4246E already exist in ./bitcodes2/image_rs15_236_[XEyvSPSY].bc w:0
 Merging module ./bitcodes2/image_rs15_222_[9uBwTW_v].bc
Variants count 325
 Merging module ./bitcodes2/image_rs15_605_[qAixTeVJ].bc
_ZN4core6option15Option$LT$T$GT$3map17h2dfbad31fb31d4f7E already exist in ./bitcodes2/image_rs15_605_[qAixTeVJ].bc w:0
 Merging module ./bitcodes2/png_rs13_169_[0xWepb4s][RBvwQ0cS][3z00Tl9m].bc
Variants count 326
 Merging module ./bitcodes2/png_rs13_175_[KRo_1uIU].bc
Variants count 327
 Merging module ./bitcodes2/image_rs15_222_[1_I2xLYg].bc
Variants count 328
 Merging module ./bitcodes2/image_rs15_87_[h_roDvRa].bc
Variants count 329
 Merging module ./bitcodes2/image_rs15_142_[u2_Ib94z].bc
Variants count 330
_ZN97_$LT$alloc..vec..Vec$LT$T$C$A$GT$$u20$as$u20$alloc..vec..spec_extend..SpecExtend$LT$T$C$I$GT$$GT$11spec_extend17h23e2afbd79d2bf65E already exist in ./bitcodes2/image_rs15_142_[u2_Ib94z].bc w:0
 Merging module ./bitcodes2/image_rs15_3_[VtSfQpFW].bc
Variants count 331
_ZN3png7decoder16Decoder$LT$R$GT$19set_transformations17h3db447a4863900d2E already exist in ./bitcodes2/image_rs15_3_[VtSfQpFW].bc w:0
_ZN5image6codecs3bmp7decoder19BmpDecoder$LT$R$GT$25read_full_byte_pixel_data17he90647b932761bd4E already exist in ./bitcodes2/image_rs15_3_[VtSfQpFW].bc w:0
 Merging module ./bitcodes2/image_rs15_684_[_eeJoIDO].bc
Variants count 332
_ZN97_$LT$alloc..vec..Vec$LT$T$C$A$GT$$u20$as$u20$alloc..vec..spec_extend..SpecExtend$LT$T$C$I$GT$$GT$11spec_extend28_$u7b$$u7b$closure$u7d$$u7d$17h96619b169d7d8ec9E already exist in ./bitcodes2/image_rs15_684_[_eeJoIDO].bc w:0
 Merging module ./bitcodes2/image_rs15_222_[3UzeoVVA].bc
Variants count 333
 Merging module ./bitcodes2/image_rs15_215_[RiKL17CM].bc
Variants count 334
 Merging module ./bitcodes2/image_rs15_21_[E4wYuXbJ].bc
Variants count 335
_ZN5alloc11collections5btree4node137Handle$LT$alloc..collections..btree..node..NodeRef$LT$BorrowType$C$K$C$V$C$NodeType$GT$$C$alloc..collections..btree..node..marker..KV$GT$10right_edge17hc8affa6734f1dd43E already exist in ./bitcodes2/image_rs15_21_[E4wYuXbJ].bc w:0
_ZN97_$LT$alloc..vec..Vec$LT$T$C$A$GT$$u20$as$u20$alloc..vec..spec_extend..SpecExtend$LT$T$C$I$GT$$GT$11spec_extend17hef060f9900728987E already exist in ./bitcodes2/image_rs15_21_[E4wYuXbJ].bc w:0
_ZN106_$LT$image..color..Rgb$LT$T$GT$$u20$as$u20$image..color..FromColor$LT$image..color..LumaA$LT$T$GT$$GT$$GT$10from_color17h3483d43fbbee6b31E already exist in ./bitcodes2/image_rs15_21_[E4wYuXbJ].bc w:0
 Merging module ./bitcodes2/image_rs15_87_[SJUzKijr].bc
Variants count 336
 Merging module ./bitcodes2/image_rs15_222_[Z0zqYKmP].bc
Variants count 337
 Merging module ./bitcodes2/image_rs15_160_[5BCoXLEh].bc
Variants count 338
 Merging module ./bitcodes2/image_rs15_615_[WsvrRBlY].bc
Variants count 339
_ZN4core3ptr8non_null16NonNull$LT$T$GT$13new_unchecked17hf13979bfdc5a69a2E already exist in ./bitcodes2/image_rs15_615_[WsvrRBlY].bc w:0
 Merging module ./bitcodes2/image_rs15_676_[voC8wh_n].bc
Variants count 340
_ZN5image8dynimage12DynamicImage12from_decoder17h7f14f4ca4650afdfE already exist in ./bitcodes2/image_rs15_676_[voC8wh_n].bc w:0
 Merging module ./bitcodes2/image_rs15_222_[_frtaVk5].bc
Variants count 341
 Merging module ./bitcodes2/image_rs15_107_[QYfq7OYQ].bc
Variants count 342
_ZN111_$LT$core..iter..adapters..zip..Zip$LT$A$C$B$GT$$u20$as$u20$core..iter..adapters..zip..ZipImpl$LT$A$C$B$GT$$GT$4next17h904ae9a5f7f17e7dE already exist in ./bitcodes2/image_rs15_107_[QYfq7OYQ].bc w:0
_ZN153_$LT$core..result..Result$LT$T$C$F$GT$$u20$as$u20$core..ops..try_trait..FromResidual$LT$core..result..Result$LT$core..convert..Infallible$C$E$GT$$GT$$GT$13from_residual17he99b67180108ca9bE already exist in ./bitcodes2/image_rs15_107_[QYfq7OYQ].bc w:0
_ZN63_$LT$I$u20$as$u20$core..iter..traits..collect..IntoIterator$GT$9into_iter17hf0d7f71adab83d70E already exist in ./bitcodes2/image_rs15_107_[QYfq7OYQ].bc w:0
 Merging module ./bitcodes2/image_rs15_222_[bUrO_b5D].bc
Variants count 343
 Merging module ./bitcodes2/png_rs13_158_[GjcdKkKa][Mk53EhRx][WXLcYVVK].bc
Variants count 344
 Merging module ./bitcodes2/image_rs15_222_[xbEd6cEq].bc
Variants count 345
 Merging module ./bitcodes2/image_rs15_676_[dazaegER].bc
Variants count 346
_ZN5image8dynimage12DynamicImage12from_decoder17h7f14f4ca4650afdfE already exist in ./bitcodes2/image_rs15_676_[dazaegER].bc w:0
 Merging module ./bitcodes2/png_rs13_2897_[GLpVfzkE][qzS9OHp1].bc
Variants count 347
 Merging module ./bitcodes2/png_rs13_464_[aHUU2pCY][VvDHs5Zo][XUvFk0Tj][1caSQs_9][AhOPvT_J].bc
Variants count 348
 Merging module ./bitcodes2/image_rs15_222_[B40amk1N].bc
Variants count 349
 Merging module ./bitcodes2/image_rs15_222_[lsbF5PAW].bc
Variants count 350
 Merging module ./bitcodes2/image_rs15_222_[myiF0jfW].bc
Variants count 351
 Merging module ./bitcodes2/image_rs15_21_[qpVcq6sF].bc
Variants count 352
_ZN5alloc11collections5btree4node137Handle$LT$alloc..collections..btree..node..NodeRef$LT$BorrowType$C$K$C$V$C$NodeType$GT$$C$alloc..collections..btree..node..marker..KV$GT$10right_edge17hc8affa6734f1dd43E already exist in ./bitcodes2/image_rs15_21_[qpVcq6sF].bc w:0
_ZN97_$LT$alloc..vec..Vec$LT$T$C$A$GT$$u20$as$u20$alloc..vec..spec_extend..SpecExtend$LT$T$C$I$GT$$GT$11spec_extend17hef060f9900728987E already exist in ./bitcodes2/image_rs15_21_[qpVcq6sF].bc w:0
_ZN106_$LT$image..color..Rgb$LT$T$GT$$u20$as$u20$image..color..FromColor$LT$image..color..LumaA$LT$T$GT$$GT$$GT$10from_color17h3483d43fbbee6b31E already exist in ./bitcodes2/image_rs15_21_[qpVcq6sF].bc w:0
 Merging module ./bitcodes2/image_rs15_222_[acHvx1IQ].bc
Variants count 353
 Merging module ./bitcodes2/image_rs15_0_[0MFQ3_KQ][ePHxd5Ib][iCet1nRA][uoQpBBnz].bc
Variants count 354
 Merging module ./bitcodes2/image_rs15_87_[7vMSTNfN].bc
Variants count 355
 Merging module ./bitcodes2/image_rs15_222_[uU_9kLPj].bc
Variants count 356
 Merging module ./bitcodes2/image_rs15_86_[Xt1M_pg8].bc
Variants count 357
 Merging module ./bitcodes2/image_rs15_496_[b0z5JzUz].bc
Variants count 358
 Merging module ./bitcodes2/image_rs15_144_[jFTMRoAK].bc
Variants count 359
_ZN5image8imageops10crop_dimms17h39cdb411ca80a1b2E already exist in ./bitcodes2/image_rs15_144_[jFTMRoAK].bc w:0
 Merging module ./bitcodes2/image_rs15_3_[AQhsZoWl].bc
_ZN4core6option15Option$LT$T$GT$3map17h83ac2c71ca32f8a9E already exist in ./bitcodes2/image_rs15_3_[AQhsZoWl].bc w:0
_ZN3png7decoder16Decoder$LT$R$GT$19set_transformations17h3db447a4863900d2E already exist in ./bitcodes2/image_rs15_3_[AQhsZoWl].bc w:0
_ZN5image6codecs3bmp7decoder19BmpDecoder$LT$R$GT$25read_full_byte_pixel_data17he90647b932761bd4E already exist in ./bitcodes2/image_rs15_3_[AQhsZoWl].bc w:0
 Merging module ./bitcodes2/image_rs15_676_[hveNxOwk].bc
Variants count 360
_ZN5image8dynimage12DynamicImage12from_decoder17h7f14f4ca4650afdfE already exist in ./bitcodes2/image_rs15_676_[hveNxOwk].bc w:0
 Merging module ./bitcodes2/image_rs15_142_[POpKINsh].bc
Variants count 361
_ZN97_$LT$alloc..vec..Vec$LT$T$C$A$GT$$u20$as$u20$alloc..vec..spec_extend..SpecExtend$LT$T$C$I$GT$$GT$11spec_extend17h23e2afbd79d2bf65E already exist in ./bitcodes2/image_rs15_142_[POpKINsh].bc w:0
 Merging module ./bitcodes2/image_rs15_222_[bu2x_FIe].bc
Variants count 362
 Merging module ./bitcodes2/image_rs15_840_[gQdUTeKX].bc
Variants count 363
_ZN4core3ptr1301drop_in_place$LT$core..iter..adapters..map..map_fold$LT$$LP$core..option..Option$LT$jpeg_decoder..huffman..HuffmanTable$GT$$C$core..option..Option$LT$jpeg_decoder..huffman..HuffmanTable$GT$$RP$$C$core..option..Option$LT$jpeg_decoder..huffman..HuffmanTable$GT$$C$$LP$$RP$$C$jpeg_decoder..decoder..Decoder$LT$std..io..buffered..bufreader..BufReader$LT$std..fs..File$GT$$GT$..decode_internal..$u7b$$u7b$closure$u7d$$u7d$$C$core..iter..traits..iterator..Iterator..for_each..call$LT$core..option..Option$LT$jpeg_decoder..huffman..HuffmanTable$GT$$C$$LT$alloc..vec..Vec$LT$core..option..Option$LT$jpeg_decoder..huffman..HuffmanTable$GT$$GT$$u20$as$u20$alloc..vec..spec_extend..SpecExtend$LT$core..option..Option$LT$jpeg_decoder..huffman..HuffmanTable$GT$$C$core..iter..adapters..map..Map$LT$core..iter..adapters..zip..Zip$LT$alloc..vec..into_iter..IntoIter$LT$core..option..Option$LT$jpeg_decoder..huffman..HuffmanTable$GT$$GT$$C$alloc..vec..into_iter..IntoIter$LT$core..option..Option$LT$jpeg_decoder..huffman..HuffmanTable$GT$$GT$$GT$$C$jpeg_decoder..decoder..Decoder$LT$std..io..buffered..bufreader..BufReader$LT$std..fs..File$GT$$GT$..decode_internal..$u7b$$u7b$closure$u7d$$u7d$$GT$$GT$$GT$..spec_extend..$u7b$$u7b$closure$u7d$$u7d$$GT$..$u7b$$u7b$closure$u7d$$u7d$$GT$..$u7b$$u7b$closure$u7d$$u7d$$GT$17h43f18c2da6dc3c94E already exist in ./bitcodes2/image_rs15_840_[gQdUTeKX].bc w:0
 Merging module ./bitcodes2/image_rs15_496_[DRMsaBQh].bc
Variants count 364
 Merging module ./bitcodes2/image_rs15_222_[_4j3Ni4o].bc
Variants count 365
 Merging module ./bitcodes2/image_rs15_843_[Zs2LEarR].bc
Variants count 366
_ZN5image7buffer_32ImageBuffer$LT$P$C$Container$GT$16check_image_fits17h89836d9f979b2413E already exist in ./bitcodes2/image_rs15_843_[Zs2LEarR].bc w:0
_ZN5image5image16GenericImageView5width17hc8a2a9f5f4c99d2bE already exist in ./bitcodes2/image_rs15_843_[Zs2LEarR].bc w:0
 Merging module ./bitcodes2/image_rs15_618_[m_BrL7BK].bc
Variants count 367
 Merging module ./bitcodes2/image_rs15_112_[ut9BS7P3].bc
Variants count 368
_ZN4core3ops12control_flow77ControlFlow$LT$R$C$$LT$R$u20$as$u20$core..ops..try_trait..Try$GT$..Output$GT$8from_try17hfa27bd65a5ae5641E already exist in ./bitcodes2/image_rs15_112_[ut9BS7P3].bc w:0
_ZN5image8imageops8colorops8contrast17he99131cb2798383fE already exist in ./bitcodes2/image_rs15_112_[ut9BS7P3].bc w:0
 Merging module ./bitcodes2/png_rs13_169_[bMVCye8i][B2GYZx5F][Oij_9wT2].bc
Variants count 369
 Merging module ./bitcodes2/image_rs15_222_[8w_JvWfB].bc
Variants count 370
 Merging module ./bitcodes2/image_rs15_125_[u49jmbTi].bc
Variants count 371
_ZN4core4iter8adapters3map16Map$LT$I$C$F$GT$3new17h4fbee63e29420067E already exist in ./bitcodes2/image_rs15_125_[u49jmbTi].bc w:0
_ZN5image8imageops6affine8rotate9017h07814081b1ddd323E already exist in ./bitcodes2/image_rs15_125_[u49jmbTi].bc w:0
 Merging module ./bitcodes2/image_rs15_840_[RiNbgxLH].bc
Variants count 372
_ZN4core3ptr1301drop_in_place$LT$core..iter..adapters..map..map_fold$LT$$LP$core..option..Option$LT$jpeg_decoder..huffman..HuffmanTable$GT$$C$core..option..Option$LT$jpeg_decoder..huffman..HuffmanTable$GT$$RP$$C$core..option..Option$LT$jpeg_decoder..huffman..HuffmanTable$GT$$C$$LP$$RP$$C$jpeg_decoder..decoder..Decoder$LT$std..io..buffered..bufreader..BufReader$LT$std..fs..File$GT$$GT$..decode_internal..$u7b$$u7b$closure$u7d$$u7d$$C$core..iter..traits..iterator..Iterator..for_each..call$LT$core..option..Option$LT$jpeg_decoder..huffman..HuffmanTable$GT$$C$$LT$alloc..vec..Vec$LT$core..option..Option$LT$jpeg_decoder..huffman..HuffmanTable$GT$$GT$$u20$as$u20$alloc..vec..spec_extend..SpecExtend$LT$core..option..Option$LT$jpeg_decoder..huffman..HuffmanTable$GT$$C$core..iter..adapters..map..Map$LT$core..iter..adapters..zip..Zip$LT$alloc..vec..into_iter..IntoIter$LT$core..option..Option$LT$jpeg_decoder..huffman..HuffmanTable$GT$$GT$$C$alloc..vec..into_iter..IntoIter$LT$core..option..Option$LT$jpeg_decoder..huffman..HuffmanTable$GT$$GT$$GT$$C$jpeg_decoder..decoder..Decoder$LT$std..io..buffered..bufreader..BufReader$LT$std..fs..File$GT$$GT$..decode_internal..$u7b$$u7b$closure$u7d$$u7d$$GT$$GT$$GT$..spec_extend..$u7b$$u7b$closure$u7d$$u7d$$GT$..$u7b$$u7b$closure$u7d$$u7d$$GT$..$u7b$$u7b$closure$u7d$$u7d$$GT$17h43f18c2da6dc3c94E already exist in ./bitcodes2/image_rs15_840_[RiNbgxLH].bc w:0
 Merging module ./bitcodes2/image_rs15_615_[m3UuYmSH].bc
Variants count 373
_ZN4core3ptr8non_null16NonNull$LT$T$GT$13new_unchecked17hf13979bfdc5a69a2E already exist in ./bitcodes2/image_rs15_615_[m3UuYmSH].bc w:0
 Merging module ./bitcodes2/image_rs15_496_[OLuUsC1c].bc
Variants count 374
 Merging module ./bitcodes2/image_rs15_840_[Ko5lmt1Q].bc
Variants count 375
_ZN4core3ptr1301drop_in_place$LT$core..iter..adapters..map..map_fold$LT$$LP$core..option..Option$LT$jpeg_decoder..huffman..HuffmanTable$GT$$C$core..option..Option$LT$jpeg_decoder..huffman..HuffmanTable$GT$$RP$$C$core..option..Option$LT$jpeg_decoder..huffman..HuffmanTable$GT$$C$$LP$$RP$$C$jpeg_decoder..decoder..Decoder$LT$std..io..buffered..bufreader..BufReader$LT$std..fs..File$GT$$GT$..decode_internal..$u7b$$u7b$closure$u7d$$u7d$$C$core..iter..traits..iterator..Iterator..for_each..call$LT$core..option..Option$LT$jpeg_decoder..huffman..HuffmanTable$GT$$C$$LT$alloc..vec..Vec$LT$core..option..Option$LT$jpeg_decoder..huffman..HuffmanTable$GT$$GT$$u20$as$u20$alloc..vec..spec_extend..SpecExtend$LT$core..option..Option$LT$jpeg_decoder..huffman..HuffmanTable$GT$$C$core..iter..adapters..map..Map$LT$core..iter..adapters..zip..Zip$LT$alloc..vec..into_iter..IntoIter$LT$core..option..Option$LT$jpeg_decoder..huffman..HuffmanTable$GT$$GT$$C$alloc..vec..into_iter..IntoIter$LT$core..option..Option$LT$jpeg_decoder..huffman..HuffmanTable$GT$$GT$$GT$$C$jpeg_decoder..decoder..Decoder$LT$std..io..buffered..bufreader..BufReader$LT$std..fs..File$GT$$GT$..decode_internal..$u7b$$u7b$closure$u7d$$u7d$$GT$$GT$$GT$..spec_extend..$u7b$$u7b$closure$u7d$$u7d$$GT$..$u7b$$u7b$closure$u7d$$u7d$$GT$..$u7b$$u7b$closure$u7d$$u7d$$GT$17h43f18c2da6dc3c94E already exist in ./bitcodes2/image_rs15_840_[Ko5lmt1Q].bc w:0
 Merging module ./bitcodes2/image_rs15_3_[10_vlpmd].bc
_ZN3png7decoder16Decoder$LT$R$GT$19set_transformations17h3db447a4863900d2E already exist in ./bitcodes2/image_rs15_3_[10_vlpmd].bc w:0
Variants count 376
_ZN5image6codecs3bmp7decoder19BmpDecoder$LT$R$GT$25read_full_byte_pixel_data17he90647b932761bd4E already exist in ./bitcodes2/image_rs15_3_[10_vlpmd].bc w:0
 Merging module ./bitcodes2/image_rs15_22_[_scPDe8d].bc
Variants count 377
_ZN4core4iter6traits8iterator8Iterator3zip17h43464ae3c43581b8E already exist in ./bitcodes2/image_rs15_22_[_scPDe8d].bc w:0
_ZN63_$LT$I$u20$as$u20$core..iter..traits..collect..IntoIterator$GT$9into_iter17hfc236f1a393ea9c0E already exist in ./bitcodes2/image_rs15_22_[_scPDe8d].bc w:0
_ZN5image5error16UnsupportedError20from_format_and_kind17h8dd35d19527ffadbE already exist in ./bitcodes2/image_rs15_22_[_scPDe8d].bc w:0
_ZN5image8imageops6sample9thumbnail17h418ac981c55a78dbE already exist in ./bitcodes2/image_rs15_22_[_scPDe8d].bc w:0
 Merging module ./bitcodes2/png_rs13_158_[liqsh0FL][JxgUiRSF][RF694GPS].bc
Variants count 378
 Merging module ./bitcodes2/image_rs15_222_[swj9M1xg].bc
Variants count 379
 Merging module ./bitcodes2/image_rs15_78_[i1BNzbnC].bc
Variants count 380
_ZN4tiff7decoder3ifd5Entry13decode_offset17h10f22d8c5f7ba5ffE already exist in ./bitcodes2/image_rs15_78_[i1BNzbnC].bc w:0
_ZN98_$LT$alloc..vec..Vec$LT$T$GT$$u20$as$u20$alloc..vec..spec_from_iter..SpecFromIter$LT$T$C$I$GT$$GT$9from_iter17h81fc7b7cb1966dbcE already exist in ./bitcodes2/image_rs15_78_[i1BNzbnC].bc w:0
 Merging module ./bitcodes2/image_rs15_222_[mnZV5XXQ].bc
Variants count 381
 Merging module ./bitcodes2/image_rs15_3_[xEwWO7WK].bc
_ZN4core6option15Option$LT$T$GT$3map17h83ac2c71ca32f8a9E already exist in ./bitcodes2/image_rs15_3_[xEwWO7WK].bc w:0
_ZN3png7decoder16Decoder$LT$R$GT$19set_transformations17h3db447a4863900d2E already exist in ./bitcodes2/image_rs15_3_[xEwWO7WK].bc w:0
_ZN5image6codecs3bmp7decoder19BmpDecoder$LT$R$GT$25read_full_byte_pixel_data17he90647b932761bd4E already exist in ./bitcodes2/image_rs15_3_[xEwWO7WK].bc w:0
 Merging module ./bitcodes2/image_rs15_125_[BhUkidB_].bc
Variants count 382
_ZN4core4iter8adapters3map16Map$LT$I$C$F$GT$3new17h4fbee63e29420067E already exist in ./bitcodes2/image_rs15_125_[BhUkidB_].bc w:0
_ZN5image8imageops6affine8rotate9017h07814081b1ddd323E already exist in ./bitcodes2/image_rs15_125_[BhUkidB_].bc w:0
 Merging module ./bitcodes2/image_rs15_222_[KUqE0K1i].bc
Variants count 383
 Merging module ./bitcodes2/image_rs15_86_[kxZ0pGMp].bc
Variants count 384
 Merging module ./bitcodes2/png_rs13_2897_[8qVmZyMY][_m4snbzn].bc
Variants count 385
 Merging module ./bitcodes2/image_rs15_142_[nSsJ3p3r].bc
Variants count 386
_ZN97_$LT$alloc..vec..Vec$LT$T$C$A$GT$$u20$as$u20$alloc..vec..spec_extend..SpecExtend$LT$T$C$I$GT$$GT$11spec_extend17h23e2afbd79d2bf65E already exist in ./bitcodes2/image_rs15_142_[nSsJ3p3r].bc w:0
 Merging module ./bitcodes2/image_rs15_248_[RlvWrfMM].bc
Variants count 387
_ZN5image6codecs4jpeg7encoder12PixelDensity3dpi17h76e5ade20be76fe1E already exist in ./bitcodes2/image_rs15_248_[RlvWrfMM].bc w:0
 Merging module ./bitcodes2/image_rs15_831_[mMwvwTwu].bc
Variants count 388
Variants count 389
 Merging module ./bitcodes2/image_rs15_160_[IusaPMNp].bc
Variants count 390
 Merging module ./bitcodes2/image_rs15_175_[g7nr4z8n].bc
Variants count 391
 Merging module ./bitcodes2/image_rs15_222_[ZsWXvqZu].bc
Variants count 392
 Merging module ./bitcodes2/image_rs15_222_[g7mXf0Xi].bc
Variants count 393
 Merging module ./bitcodes2/image_rs15_897_[MQvWh7hI].bc
_ZN8bytemuck14cast_slice_mut17h4023ac7a00be0a7eE already exist in ./bitcodes2/image_rs15_897_[MQvWh7hI].bc w:0
_ZN94_$LT$core..slice..iter..IterMut$LT$T$GT$$u20$as$u20$core..iter..traits..iterator..Iterator$GT$24__iterator_get_unchecked17h58b6afa0e8024274E already exist in ./bitcodes2/image_rs15_897_[MQvWh7hI].bc w:0
_ZN236_$LT$image..buffer_..ImageBuffer$LT$FromType$C$Container$GT$$u20$as$u20$image..buffer_..ConvertBuffer$LT$image..buffer_..ImageBuffer$LT$ToType$C$alloc..vec..Vec$LT$$LT$ToType$u20$as$u20$image..traits..Pixel$GT$..Subpixel$GT$$GT$$GT$$GT$7convert17he398e278debce516E already exist in ./bitcodes2/image_rs15_897_[MQvWh7hI].bc w:0
 Merging module ./bitcodes2/image_rs15_222_[YMzNnIRp].bc
Variants count 394
 Merging module ./bitcodes2/image_rs15_222_[ZS0iCP3E].bc
Variants count 395
 Merging module ./bitcodes2/image_rs15_222_[B9yJitvn].bc
Variants count 396
 Merging module ./bitcodes2/image_rs15_86_[A7Zm0kW8].bc
Variants count 397
 Merging module ./bitcodes2/image_rs15_847_[UMKPm_p9].bc
Variants count 398
_ZN91_$LT$core..slice..iter..Iter$LT$T$GT$$u20$as$u20$core..iter..traits..iterator..Iterator$GT$8position17hbfc0843c92c6878aE already exist in ./bitcodes2/image_rs15_847_[UMKPm_p9].bc w:0
 Merging module ./bitcodes2/image_rs15_618_[GIlJhVHz].bc
Variants count 399
 Merging module ./bitcodes2/image_rs15_222_[2lx0LRNC].bc
Variants count 400
 Merging module ./bitcodes2/image_rs15_684_[_tdIoJVq].bc
Variants count 401
_ZN97_$LT$alloc..vec..Vec$LT$T$C$A$GT$$u20$as$u20$alloc..vec..spec_extend..SpecExtend$LT$T$C$I$GT$$GT$11spec_extend28_$u7b$$u7b$closure$u7d$$u7d$17h96619b169d7d8ec9E already exist in ./bitcodes2/image_rs15_684_[_tdIoJVq].bc w:0
 Merging module ./bitcodes2/image_rs15_222_[qTJQqdb0].bc
Variants count 402
 Merging module ./bitcodes2/image_rs15_222_[MMIIVm4G].bc
Variants count 403
 Merging module ./bitcodes2/image_rs15_222_[2P8dQIQm].bc
Variants count 404
 Merging module ./bitcodes2/image_rs15_895_[vufEsNAJ].bc
_ZN4tiff7encoder25ImageEncoder$LT$W$C$T$GT$3new28_$u7b$$u7b$closure$u7d$$u7d$17h5829a8e49adae91fE already exist in ./bitcodes2/image_rs15_895_[vufEsNAJ].bc w:0
 Merging module ./bitcodes2/image_rs15_21_[KLS9jMkP].bc
Variants count 405
_ZN5alloc11collections5btree4node137Handle$LT$alloc..collections..btree..node..NodeRef$LT$BorrowType$C$K$C$V$C$NodeType$GT$$C$alloc..collections..btree..node..marker..KV$GT$10right_edge17hc8affa6734f1dd43E already exist in ./bitcodes2/image_rs15_21_[KLS9jMkP].bc w:0
_ZN97_$LT$alloc..vec..Vec$LT$T$C$A$GT$$u20$as$u20$alloc..vec..spec_extend..SpecExtend$LT$T$C$I$GT$$GT$11spec_extend17hef060f9900728987E already exist in ./bitcodes2/image_rs15_21_[KLS9jMkP].bc w:0
_ZN106_$LT$image..color..Rgb$LT$T$GT$$u20$as$u20$image..color..FromColor$LT$image..color..LumaA$LT$T$GT$$GT$$GT$10from_color17h3483d43fbbee6b31E already exist in ./bitcodes2/image_rs15_21_[KLS9jMkP].bc w:0
 Merging module ./bitcodes2/image_rs15_86_[oGWe5ocO].bc
Variants count 406
 Merging module ./bitcodes2/image_rs15_840_[Sw7NpRjn].bc
Variants count 407
_ZN4core3ptr1301drop_in_place$LT$core..iter..adapters..map..map_fold$LT$$LP$core..option..Option$LT$jpeg_decoder..huffman..HuffmanTable$GT$$C$core..option..Option$LT$jpeg_decoder..huffman..HuffmanTable$GT$$RP$$C$core..option..Option$LT$jpeg_decoder..huffman..HuffmanTable$GT$$C$$LP$$RP$$C$jpeg_decoder..decoder..Decoder$LT$std..io..buffered..bufreader..BufReader$LT$std..fs..File$GT$$GT$..decode_internal..$u7b$$u7b$closure$u7d$$u7d$$C$core..iter..traits..iterator..Iterator..for_each..call$LT$core..option..Option$LT$jpeg_decoder..huffman..HuffmanTable$GT$$C$$LT$alloc..vec..Vec$LT$core..option..Option$LT$jpeg_decoder..huffman..HuffmanTable$GT$$GT$$u20$as$u20$alloc..vec..spec_extend..SpecExtend$LT$core..option..Option$LT$jpeg_decoder..huffman..HuffmanTable$GT$$C$core..iter..adapters..map..Map$LT$core..iter..adapters..zip..Zip$LT$alloc..vec..into_iter..IntoIter$LT$core..option..Option$LT$jpeg_decoder..huffman..HuffmanTable$GT$$GT$$C$alloc..vec..into_iter..IntoIter$LT$core..option..Option$LT$jpeg_decoder..huffman..HuffmanTable$GT$$GT$$GT$$C$jpeg_decoder..decoder..Decoder$LT$std..io..buffered..bufreader..BufReader$LT$std..fs..File$GT$$GT$..decode_internal..$u7b$$u7b$closure$u7d$$u7d$$GT$$GT$$GT$..spec_extend..$u7b$$u7b$closure$u7d$$u7d$$GT$..$u7b$$u7b$closure$u7d$$u7d$$GT$..$u7b$$u7b$closure$u7d$$u7d$$GT$17h43f18c2da6dc3c94E already exist in ./bitcodes2/image_rs15_840_[Sw7NpRjn].bc w:0
 Merging module ./bitcodes2/image_rs15_222_[bLzEeloV].bc
Variants count 408
 Merging module ./bitcodes2/image_rs15_610_[M7bJiDZu].bc
Variants count 409
 Merging module ./bitcodes2/image_rs15_222_[JYGW2OGB].bc
Variants count 410
 Merging module ./bitcodes2/image_rs15_222_[1G2lHR1X].bc
Variants count 411
 Merging module ./bitcodes2/image_rs15_222_[nwg7ZspE].bc
Variants count 412
 Merging module ./bitcodes2/image_rs15_3_[PKKvy9eP].bc
_ZN3png7decoder16Decoder$LT$R$GT$19set_transformations17h3db447a4863900d2E already exist in ./bitcodes2/image_rs15_3_[PKKvy9eP].bc w:0
Variants count 413
_ZN5image6codecs3bmp7decoder19BmpDecoder$LT$R$GT$25read_full_byte_pixel_data17he90647b932761bd4E already exist in ./bitcodes2/image_rs15_3_[PKKvy9eP].bc w:0
 Merging module ./bitcodes2/image_rs15_222_[PH_HM9ZN].bc
Variants count 414
 Merging module ./bitcodes2/image_rs15_884_[sKe4U9cK].bc
_ZN4core6option15Option$LT$T$GT$10ok_or_else17h714edbb4d408b0d8E already exist in ./bitcodes2/image_rs15_884_[sKe4U9cK].bc w:0
 Merging module ./bitcodes2/image_rs15_248_[HU5hlMVY].bc
Variants count 415
_ZN5image6codecs4jpeg7encoder12PixelDensity3dpi17h76e5ade20be76fe1E already exist in ./bitcodes2/image_rs15_248_[HU5hlMVY].bc w:0
 Merging module ./bitcodes2/image_rs15_160_[Iithakoa].bc
Variants count 416
 Merging module ./bitcodes2/image_rs15_818_[hBUrRBjq].bc
Variants count 417
_ZN5image5error10LimitError9from_kind17h5b0452e3cc9838c6E already exist in ./bitcodes2/image_rs15_818_[hBUrRBjq].bc w:0
_ZN99_$LT$image..buffer_..ImageBuffer$LT$P$C$Container$GT$$u20$as$u20$image..image..GenericImageView$GT$9get_pixel17h58e9e6d253fab205E already exist in ./bitcodes2/image_rs15_818_[hBUrRBjq].bc w:0
 Merging module ./bitcodes2/image_rs15_142_[j9v6K1cw].bc
Variants count 418
_ZN97_$LT$alloc..vec..Vec$LT$T$C$A$GT$$u20$as$u20$alloc..vec..spec_extend..SpecExtend$LT$T$C$I$GT$$GT$11spec_extend17h23e2afbd79d2bf65E already exist in ./bitcodes2/image_rs15_142_[j9v6K1cw].bc w:0
 Merging module ./bitcodes2/image_rs15_222_[obETO9F6].bc
Variants count 419
 Merging module ./bitcodes2/image_rs15_101_[FKR_qyVv].bc
Variants count 420
 Merging module ./bitcodes2/png_rs13_626_[THj_emx8][f_E0np7J][_Qx2E7Wf][wIORpUR4][YjGb2xBB].bc
Variants count 421
 Merging module ./bitcodes2/image_rs15_222_[TEBdWOt3].bc
Variants count 422
 Merging module ./bitcodes2/image_rs15_676_[TQ_8ceiL].bc
Variants count 423
_ZN5image8dynimage12DynamicImage12from_decoder17h7f14f4ca4650afdfE already exist in ./bitcodes2/image_rs15_676_[TQ_8ceiL].bc w:0
 Merging module ./bitcodes2/image_rs15_812_[S_RbtLtC].bc
Variants count 424
Variants count 425
Variants count 426
Variants count 427
Variants count 428
 Merging module ./bitcodes2/image_rs15_107_[a0CZ1brN].bc
Variants count 429
_ZN111_$LT$core..iter..adapters..zip..Zip$LT$A$C$B$GT$$u20$as$u20$core..iter..adapters..zip..ZipImpl$LT$A$C$B$GT$$GT$4next17h904ae9a5f7f17e7dE already exist in ./bitcodes2/image_rs15_107_[a0CZ1brN].bc w:0
_ZN153_$LT$core..result..Result$LT$T$C$F$GT$$u20$as$u20$core..ops..try_trait..FromResidual$LT$core..result..Result$LT$core..convert..Infallible$C$E$GT$$GT$$GT$13from_residual17he99b67180108ca9bE already exist in ./bitcodes2/image_rs15_107_[a0CZ1brN].bc w:0
_ZN63_$LT$I$u20$as$u20$core..iter..traits..collect..IntoIterator$GT$9into_iter17hf0d7f71adab83d70E already exist in ./bitcodes2/image_rs15_107_[a0CZ1brN].bc w:0
 Merging module ./bitcodes2/image_rs15_78_[X8zq_7kC].bc
Variants count 430
_ZN4tiff7decoder3ifd5Entry13decode_offset17h10f22d8c5f7ba5ffE already exist in ./bitcodes2/image_rs15_78_[X8zq_7kC].bc w:0
_ZN98_$LT$alloc..vec..Vec$LT$T$GT$$u20$as$u20$alloc..vec..spec_from_iter..SpecFromIter$LT$T$C$I$GT$$GT$9from_iter17h81fc7b7cb1966dbcE already exist in ./bitcodes2/image_rs15_78_[X8zq_7kC].bc w:0
 Merging module ./bitcodes2/image_rs15_248_[p5JRieYm].bc
Variants count 431
_ZN5image6codecs4jpeg7encoder12PixelDensity3dpi17h76e5ade20be76fe1E already exist in ./bitcodes2/image_rs15_248_[p5JRieYm].bc w:0
 Merging module ./bitcodes2/image_rs15_3_[1xDA8mLy].bc
Variants count 432
_ZN3png7decoder16Decoder$LT$R$GT$19set_transformations17h3db447a4863900d2E already exist in ./bitcodes2/image_rs15_3_[1xDA8mLy].bc w:0
_ZN5image6codecs3bmp7decoder19BmpDecoder$LT$R$GT$25read_full_byte_pixel_data17he90647b932761bd4E already exist in ./bitcodes2/image_rs15_3_[1xDA8mLy].bc w:0
 Merging module ./bitcodes2/image_rs15_80_[cotoKetm].bc
Variants count 433
_ZN4core3ptr104drop_in_place$LT$alloc..raw_vec..RawVec$LT$$LP$alloc..string..String$C$alloc..string..String$RP$$GT$$GT$17hb0979317a97b05b1E already exist in ./bitcodes2/image_rs15_80_[cotoKetm].bc w:0
 Merging module ./bitcodes2/image_rs15_125_[hwmjntms].bc
Variants count 434
_ZN4core4iter8adapters3map16Map$LT$I$C$F$GT$3new17h4fbee63e29420067E already exist in ./bitcodes2/image_rs15_125_[hwmjntms].bc w:0
_ZN5image8imageops6affine8rotate9017h07814081b1ddd323E already exist in ./bitcodes2/image_rs15_125_[hwmjntms].bc w:0
 Merging module ./bitcodes2/image_rs15_125_[y_GZPQJm].bc
Variants count 435
_ZN4core4iter8adapters3map16Map$LT$I$C$F$GT$3new17h4fbee63e29420067E already exist in ./bitcodes2/image_rs15_125_[y_GZPQJm].bc w:0
_ZN5image8imageops6affine8rotate9017h07814081b1ddd323E already exist in ./bitcodes2/image_rs15_125_[y_GZPQJm].bc w:0
 Merging module ./bitcodes2/image_rs15_142_[MiRPCM61].bc
Variants count 436
_ZN97_$LT$alloc..vec..Vec$LT$T$C$A$GT$$u20$as$u20$alloc..vec..spec_extend..SpecExtend$LT$T$C$I$GT$$GT$11spec_extend17h23e2afbd79d2bf65E already exist in ./bitcodes2/image_rs15_142_[MiRPCM61].bc w:0
 Merging module ./bitcodes2/image_rs15_144_[YMnUr4Iv].bc
Variants count 437
_ZN5image8imageops10crop_dimms17h39cdb411ca80a1b2E already exist in ./bitcodes2/image_rs15_144_[YMnUr4Iv].bc w:0
 Merging module ./bitcodes2/image_rs15_78_[zmHnA436].bc
Variants count 438
_ZN4tiff7decoder3ifd5Entry13decode_offset17h10f22d8c5f7ba5ffE already exist in ./bitcodes2/image_rs15_78_[zmHnA436].bc w:0
_ZN98_$LT$alloc..vec..Vec$LT$T$GT$$u20$as$u20$alloc..vec..spec_from_iter..SpecFromIter$LT$T$C$I$GT$$GT$9from_iter17h81fc7b7cb1966dbcE already exist in ./bitcodes2/image_rs15_78_[zmHnA436].bc w:0
 Merging module ./bitcodes2/image_rs15_222_[Xb2fSJom].bc
Variants count 439
 Merging module ./bitcodes2/png_rs13_2745_[6Bthihv7][dvqaUfNG][LhOUn7WZ][R6rOsHnm][xDteZjrL].bc
_ZN130_$LT$png..common..Transformations$u20$as$u20$$LT$png..common..Transformations$u20$as$u20$core..fmt..Debug$GT$..fmt..__BitFlags$GT$8IDENTITY17h975fe46c9f22a26dE already exist in ./bitcodes2/png_rs13_2745_[6Bthihv7][dvqaUfNG][LhOUn7WZ][R6rOsHnm][xDteZjrL].bc w:0
 Merging module ./bitcodes2/image_rs15_222_[pmeUgmTZ].bc
Variants count 440
 Merging module ./bitcodes2/image_rs15_222_[tBZDq3F7].bc
Variants count 441
 Merging module ./bitcodes2/image_rs15_112_[9Sh9xIVl].bc
Variants count 442
_ZN4core3ops12control_flow77ControlFlow$LT$R$C$$LT$R$u20$as$u20$core..ops..try_trait..Try$GT$..Output$GT$8from_try17hfa27bd65a5ae5641E already exist in ./bitcodes2/image_rs15_112_[9Sh9xIVl].bc w:0
_ZN5image8imageops8colorops8contrast17he99131cb2798383fE already exist in ./bitcodes2/image_rs15_112_[9Sh9xIVl].bc w:0
 Merging module ./bitcodes2/image_rs15_222_[9wYkOnOn].bc
Variants count 443
 Merging module ./bitcodes2/image_rs15_222_[DfUpMlpE].bc
Variants count 444
 Merging module ./bitcodes2/image_rs15_222_[ftCiLKuq].bc
Variants count 445
 Merging module ./bitcodes2/image_rs15_160_[md3Q7OL9].bc
Variants count 446
 Merging module ./bitcodes2/image_rs15_3_[XjeAzKyG].bc
_ZN4core6option15Option$LT$T$GT$3map17h83ac2c71ca32f8a9E already exist in ./bitcodes2/image_rs15_3_[XjeAzKyG].bc w:0
_ZN3png7decoder16Decoder$LT$R$GT$19set_transformations17h3db447a4863900d2E already exist in ./bitcodes2/image_rs15_3_[XjeAzKyG].bc w:0
_ZN5image6codecs3bmp7decoder19BmpDecoder$LT$R$GT$25read_full_byte_pixel_data17he90647b932761bd4E already exist in ./bitcodes2/image_rs15_3_[XjeAzKyG].bc w:0
 Merging module ./bitcodes2/image_rs15_222_[ubcwP_GQ].bc
Variants count 447
 Merging module ./bitcodes2/image_rs15_80_[W_VrYNcf].bc
Variants count 448
_ZN4core3ptr104drop_in_place$LT$alloc..raw_vec..RawVec$LT$$LP$alloc..string..String$C$alloc..string..String$RP$$GT$$GT$17hb0979317a97b05b1E already exist in ./bitcodes2/image_rs15_80_[W_VrYNcf].bc w:0
 Merging module ./bitcodes2/image_rs15_222_[JIItgqVS].bc
Variants count 449
 Merging module ./bitcodes2/image_rs15_112_[zJ5OO1FD].bc
Variants count 450
_ZN4core3ops12control_flow77ControlFlow$LT$R$C$$LT$R$u20$as$u20$core..ops..try_trait..Try$GT$..Output$GT$8from_try17hfa27bd65a5ae5641E already exist in ./bitcodes2/image_rs15_112_[zJ5OO1FD].bc w:0
_ZN5image8imageops8colorops8contrast17he99131cb2798383fE already exist in ./bitcodes2/image_rs15_112_[zJ5OO1FD].bc w:0
 Merging module ./bitcodes2/image_rs15_222_[XAv6Xy8K].bc
Variants count 451
 Merging module ./bitcodes2/image_rs15_21_[W5W54fTB].bc
Variants count 452
_ZN5alloc11collections5btree4node137Handle$LT$alloc..collections..btree..node..NodeRef$LT$BorrowType$C$K$C$V$C$NodeType$GT$$C$alloc..collections..btree..node..marker..KV$GT$10right_edge17hc8affa6734f1dd43E already exist in ./bitcodes2/image_rs15_21_[W5W54fTB].bc w:0
_ZN97_$LT$alloc..vec..Vec$LT$T$C$A$GT$$u20$as$u20$alloc..vec..spec_extend..SpecExtend$LT$T$C$I$GT$$GT$11spec_extend17hef060f9900728987E already exist in ./bitcodes2/image_rs15_21_[W5W54fTB].bc w:0
_ZN106_$LT$image..color..Rgb$LT$T$GT$$u20$as$u20$image..color..FromColor$LT$image..color..LumaA$LT$T$GT$$GT$$GT$10from_color17h3483d43fbbee6b31E already exist in ./bitcodes2/image_rs15_21_[W5W54fTB].bc w:0
 Merging module ./bitcodes2/image_rs15_215_[IspFGKB_].bc
Variants count 453
 Merging module ./bitcodes2/image_rs15_810_[iMk70BwV].bc
Variants count 454
Variants count 455
 Merging module ./bitcodes2/image_rs15_222_[750dtmtG].bc
Variants count 456
 Merging module ./bitcodes2/image_rs15_112_[AUXhZFRk].bc
Variants count 457
_ZN4core3ops12control_flow77ControlFlow$LT$R$C$$LT$R$u20$as$u20$core..ops..try_trait..Try$GT$..Output$GT$8from_try17hfa27bd65a5ae5641E already exist in ./bitcodes2/image_rs15_112_[AUXhZFRk].bc w:0
_ZN5image8imageops8colorops8contrast17he99131cb2798383fE already exist in ./bitcodes2/image_rs15_112_[AUXhZFRk].bc w:0
 Merging module ./bitcodes2/image_rs15_222_[6cOg3bQ1].bc
Variants count 458
 Merging module ./bitcodes2/image_rs15_125_[mRFVM40G].bc
Variants count 459
_ZN4core4iter8adapters3map16Map$LT$I$C$F$GT$3new17h4fbee63e29420067E already exist in ./bitcodes2/image_rs15_125_[mRFVM40G].bc w:0
_ZN5image8imageops6affine8rotate9017h07814081b1ddd323E already exist in ./bitcodes2/image_rs15_125_[mRFVM40G].bc w:0
 Merging module ./bitcodes2/image_rs15_156_[kUT5naEM].bc
Variants count 460
Variants count 461
 Merging module ./bitcodes2/image_rs15_222_[_lGVN99k].bc
Variants count 462
 Merging module ./bitcodes2/image_rs15_222_[MEpas46i].bc
Variants count 463
 Merging module ./bitcodes2/image_rs15_78_[KpJiOpNX].bc
Variants count 464
_ZN4tiff7decoder3ifd5Entry13decode_offset17h10f22d8c5f7ba5ffE already exist in ./bitcodes2/image_rs15_78_[KpJiOpNX].bc w:0
_ZN98_$LT$alloc..vec..Vec$LT$T$GT$$u20$as$u20$alloc..vec..spec_from_iter..SpecFromIter$LT$T$C$I$GT$$GT$9from_iter17h81fc7b7cb1966dbcE already exist in ./bitcodes2/image_rs15_78_[KpJiOpNX].bc w:0
 Merging module ./bitcodes2/image_rs15_676_[S3Z6pYYH].bc
Variants count 465
_ZN5image8dynimage12DynamicImage12from_decoder17h7f14f4ca4650afdfE already exist in ./bitcodes2/image_rs15_676_[S3Z6pYYH].bc w:0
 Merging module ./bitcodes2/image_rs15_86_[l_3pA1eW].bc
Variants count 466
 Merging module ./bitcodes2/image_rs15_125_[q63PZJHk].bc
Variants count 467
_ZN4core4iter8adapters3map16Map$LT$I$C$F$GT$3new17h4fbee63e29420067E already exist in ./bitcodes2/image_rs15_125_[q63PZJHk].bc w:0
_ZN5image8imageops6affine8rotate9017h07814081b1ddd323E already exist in ./bitcodes2/image_rs15_125_[q63PZJHk].bc w:0
 Merging module ./bitcodes2/image_rs15_239_[NVwVPFGx].bc
Variants count 468
_ZN4core4iter6traits8iterator8Iterator10max_by_key3key17h7d25e6cf4f733365E already exist in ./bitcodes2/image_rs15_239_[NVwVPFGx].bc w:0
 Merging module ./bitcodes2/image_rs15_829_[b2VlwFG8].bc
Variants count 469
 Merging module ./bitcodes2/image_rs15_107_[RBfDgt_9].bc
Variants count 470
_ZN111_$LT$core..iter..adapters..zip..Zip$LT$A$C$B$GT$$u20$as$u20$core..iter..adapters..zip..ZipImpl$LT$A$C$B$GT$$GT$4next17h904ae9a5f7f17e7dE already exist in ./bitcodes2/image_rs15_107_[RBfDgt_9].bc w:0
_ZN153_$LT$core..result..Result$LT$T$C$F$GT$$u20$as$u20$core..ops..try_trait..FromResidual$LT$core..result..Result$LT$core..convert..Infallible$C$E$GT$$GT$$GT$13from_residual17he99b67180108ca9bE already exist in ./bitcodes2/image_rs15_107_[RBfDgt_9].bc w:0
_ZN63_$LT$I$u20$as$u20$core..iter..traits..collect..IntoIterator$GT$9into_iter17hf0d7f71adab83d70E already exist in ./bitcodes2/image_rs15_107_[RBfDgt_9].bc w:0
 Merging module ./bitcodes2/png_rs13_464_[WMHjA542][SfTD2Xsf][TIZbN_pb][phTbGbUJ][2v1EApsX].bc
Variants count 471
 Merging module ./bitcodes2/image_rs15_222_[2v3gDd16].bc
Variants count 472
 Merging module ./bitcodes2/image_rs15_3_[EsQf1CHM].bc
_ZN3png7decoder16Decoder$LT$R$GT$19set_transformations17h3db447a4863900d2E already exist in ./bitcodes2/image_rs15_3_[EsQf1CHM].bc w:0
Variants count 473
_ZN5image6codecs3bmp7decoder19BmpDecoder$LT$R$GT$25read_full_byte_pixel_data17he90647b932761bd4E already exist in ./bitcodes2/image_rs15_3_[EsQf1CHM].bc w:0
 Merging module ./bitcodes2/image_rs15_222_[GGsF0GxU].bc
Variants count 474
 Merging module ./bitcodes2/image_rs15_248_[SriLgQLZ].bc
Variants count 475
_ZN5image6codecs4jpeg7encoder12PixelDensity3dpi17h76e5ade20be76fe1E already exist in ./bitcodes2/image_rs15_248_[SriLgQLZ].bc w:0
 Merging module ./bitcodes2/image_rs15_87_[GP2uvdj7].bc
Variants count 476
 Merging module ./bitcodes2/image_rs15_248_[O6HD_gHI].bc
Variants count 477
_ZN5image6codecs4jpeg7encoder12PixelDensity3dpi17h76e5ade20be76fe1E already exist in ./bitcodes2/image_rs15_248_[O6HD_gHI].bc w:0
 Merging module ./bitcodes2/image_rs15_829_[IUVc4l6E].bc
Variants count 478
 Merging module ./bitcodes2/png_rs13_169_[7uope5TH][dIo9K0qm][zY5LZnl1].bc
Variants count 479
 Merging module ./bitcodes2/image_rs15_112_[j81RqX2M].bc
Variants count 480
_ZN4core3ops12control_flow77ControlFlow$LT$R$C$$LT$R$u20$as$u20$core..ops..try_trait..Try$GT$..Output$GT$8from_try17hfa27bd65a5ae5641E already exist in ./bitcodes2/image_rs15_112_[j81RqX2M].bc w:0
_ZN5image8imageops8colorops8contrast17he99131cb2798383fE already exist in ./bitcodes2/image_rs15_112_[j81RqX2M].bc w:0
 Merging module ./bitcodes2/image_rs15_86_[jkbwR69j].bc
Variants count 481
 Merging module ./bitcodes2/image_rs15_142_[_OjF6vAg].bc
Variants count 482
_ZN97_$LT$alloc..vec..Vec$LT$T$C$A$GT$$u20$as$u20$alloc..vec..spec_extend..SpecExtend$LT$T$C$I$GT$$GT$11spec_extend17h23e2afbd79d2bf65E already exist in ./bitcodes2/image_rs15_142_[_OjF6vAg].bc w:0
 Merging module ./bitcodes2/image_rs15_222_[teyeYqYn].bc
Variants count 483
 Merging module ./bitcodes2/image_rs15_3_[ApAmnur9].bc
Variants count 484
_ZN3png7decoder16Decoder$LT$R$GT$19set_transformations17h3db447a4863900d2E already exist in ./bitcodes2/image_rs15_3_[ApAmnur9].bc w:0
_ZN5image6codecs3bmp7decoder19BmpDecoder$LT$R$GT$25read_full_byte_pixel_data17he90647b932761bd4E already exist in ./bitcodes2/image_rs15_3_[ApAmnur9].bc w:0
 Merging module ./bitcodes2/image_rs15_0_[U0uawGBO][E_gtyxE6][MRwWunI4][uxcPDh0D].bc
Variants count 485
 Merging module ./bitcodes2/image_rs15_222_[SUY7tuQ2].bc
Variants count 486
 Merging module ./bitcodes2/image_rs15_86_[czRyRCvO][4Qv3yZ38].bc
Variants count 487
 Merging module ./bitcodes2/image_rs15_3_[k0wIBKr6].bc
Variants count 488
_ZN3png7decoder16Decoder$LT$R$GT$19set_transformations17h3db447a4863900d2E already exist in ./bitcodes2/image_rs15_3_[k0wIBKr6].bc w:0
_ZN5image6codecs3bmp7decoder19BmpDecoder$LT$R$GT$25read_full_byte_pixel_data17he90647b932761bd4E already exist in ./bitcodes2/image_rs15_3_[k0wIBKr6].bc w:0
 Merging module ./bitcodes2/image_rs15_239_[RKQSiwOV].bc
Variants count 489
_ZN4core4iter6traits8iterator8Iterator10max_by_key3key17h7d25e6cf4f733365E already exist in ./bitcodes2/image_rs15_239_[RKQSiwOV].bc w:0
 Merging module ./bitcodes2/image_rs15_86_[ZcfaqocX].bc
Variants count 490
 Merging module ./bitcodes2/image_rs15_125_[a65YAvLu].bc
Variants count 491
_ZN4core4iter8adapters3map16Map$LT$I$C$F$GT$3new17h4fbee63e29420067E already exist in ./bitcodes2/image_rs15_125_[a65YAvLu].bc w:0
_ZN5image8imageops6affine8rotate9017h07814081b1ddd323E already exist in ./bitcodes2/image_rs15_125_[a65YAvLu].bc w:0
 Merging module ./bitcodes2/image_rs15_610_[wL1cZQlS].bc
Variants count 492
 Merging module ./bitcodes2/image_rs15_222_[rzxyOabE].bc
Variants count 493
 Merging module ./bitcodes2/image_rs15_3_[HfOo5Djt].bc
Variants count 494
_ZN3png7decoder16Decoder$LT$R$GT$19set_transformations17h3db447a4863900d2E already exist in ./bitcodes2/image_rs15_3_[HfOo5Djt].bc w:0
_ZN5image6codecs3bmp7decoder19BmpDecoder$LT$R$GT$25read_full_byte_pixel_data17he90647b932761bd4E already exist in ./bitcodes2/image_rs15_3_[HfOo5Djt].bc w:0
 Merging module ./bitcodes2/image_rs15_86_[r5YjldQn].bc
Variants count 495
 Merging module ./bitcodes2/image_rs15_222_[fd5PDEuu].bc
Variants count 496
 Merging module ./bitcodes2/png_rs13_626_[8QmgUCu3][9nZqnc9B][P5xyLByF][_IdZ9oNZ][IiZ_cXQ9].bc
Variants count 497
 Merging module ./bitcodes2/image_rs15_676_[nRqArnef].bc
Variants count 498
_ZN5image8dynimage12DynamicImage12from_decoder17h7f14f4ca4650afdfE already exist in ./bitcodes2/image_rs15_676_[nRqArnef].bc w:0
 Merging module ./bitcodes2/image_rs15_676_[4JC5gFcF].bc
Variants count 499
_ZN5image8dynimage12DynamicImage12from_decoder17h7f14f4ca4650afdfE already exist in ./bitcodes2/image_rs15_676_[4JC5gFcF].bc w:0
 Merging module ./bitcodes2/png_rs13_830_[SpFk93x6][ghtR5tDG].bc
Variants count 500
 Merging module ./bitcodes2/image_rs15_222_[JXd2v2vD].bc
Variants count 501
 Merging module ./bitcodes2/image_rs15_160_[4AS4Cdl_].bc
Variants count 502
 Merging module ./bitcodes2/image_rs15_503_[Hoi3Apse].bc
Variants count 503
 Merging module ./bitcodes2/image_rs15_222_[JI_59jce].bc
Variants count 504
 Merging module ./bitcodes2/image_rs15_222_[RDp0D8IK].bc
Variants count 505
 Merging module ./bitcodes2/image_rs15_125_[6lSevZkk].bc
Variants count 506
_ZN4core4iter8adapters3map16Map$LT$I$C$F$GT$3new17h4fbee63e29420067E already exist in ./bitcodes2/image_rs15_125_[6lSevZkk].bc w:0
_ZN5image8imageops6affine8rotate9017h07814081b1ddd323E already exist in ./bitcodes2/image_rs15_125_[6lSevZkk].bc w:0
 Merging module ./bitcodes2/image_rs15_857_[JgfIuKUO].bc
Variants count 507
 Merging module ./bitcodes2/png_rs13_169_[r3iIeue2][OX06tm3d][WKOOa9n1].bc
Variants count 508
 Merging module ./bitcodes2/image_rs15_3_[FwDWgCew].bc
Variants count 509
_ZN3png7decoder16Decoder$LT$R$GT$19set_transformations17h3db447a4863900d2E already exist in ./bitcodes2/image_rs15_3_[FwDWgCew].bc w:0
_ZN5image6codecs3bmp7decoder19BmpDecoder$LT$R$GT$25read_full_byte_pixel_data17he90647b932761bd4E already exist in ./bitcodes2/image_rs15_3_[FwDWgCew].bc w:0
 Merging module ./bitcodes2/image_rs15_812_[MejmJlD2].bc
_ZN4core3ptr9const_ptr33_$LT$impl$u20$$BP$const$u20$T$GT$7is_null17hf11ad46952c36b76E already exist in ./bitcodes2/image_rs15_812_[MejmJlD2].bc w:0
_ZN4core4iter6traits8iterator8Iterator8for_each4call17h0ad03cb1a658a361E already exist in ./bitcodes2/image_rs15_812_[MejmJlD2].bc w:0
_ZN98_$LT$alloc..vec..Vec$LT$T$GT$$u20$as$u20$alloc..vec..spec_from_iter..SpecFromIter$LT$T$C$I$GT$$GT$9from_iter17h35ff34e0489eb1b7E already exist in ./bitcodes2/image_rs15_812_[MejmJlD2].bc w:0
Variants count 510
_ZN5image9animation5Frame6buffer17h50094e6e6ad79b5eE already exist in ./bitcodes2/image_rs15_812_[MejmJlD2].bc w:0
 Merging module ./bitcodes2/image_rs15_222_[nO_NytU3].bc
Variants count 511
 Merging module ./bitcodes2/image_rs15_112_[9_VL1cch].bc
Variants count 512
_ZN4core3ops12control_flow77ControlFlow$LT$R$C$$LT$R$u20$as$u20$core..ops..try_trait..Try$GT$..Output$GT$8from_try17hfa27bd65a5ae5641E already exist in ./bitcodes2/image_rs15_112_[9_VL1cch].bc w:0
_ZN5image8imageops8colorops8contrast17he99131cb2798383fE already exist in ./bitcodes2/image_rs15_112_[9_VL1cch].bc w:0
 Merging module ./bitcodes2/image_rs15_222_[XlrkNTe4].bc
Variants count 513
 Merging module ./bitcodes2/png_rs13_2897_[tioeYFH7][V_r2n0ku].bc
Variants count 514
 Merging module ./bitcodes2/image_rs15_222_[lx6Zl79q].bc
Variants count 515
 Merging module ./bitcodes2/image_rs15_222_[iiOy3nLN].bc
Variants count 516
 Merging module ./bitcodes2/image_rs15_30_[dGQNfSf_].bc
Variants count 517
 Merging module ./bitcodes2/image_rs15_222_[5bQuvW5F].bc
Variants count 518
 Merging module ./bitcodes2/image_rs15_144_[98rRGJlk].bc
Variants count 519
_ZN5image8imageops10crop_dimms17h39cdb411ca80a1b2E already exist in ./bitcodes2/image_rs15_144_[98rRGJlk].bc w:0
 Merging module ./bitcodes2/image_rs15_489_[sKHRVRGN].bc
_ZN4core6option15Option$LT$T$GT$8and_then17h2631f28260702651E already exist in ./bitcodes2/image_rs15_489_[sKHRVRGN].bc w:0
_ZN5image6codecs3dxt13enc565_encode17hd6ee5c03322105c1E already exist in ./bitcodes2/image_rs15_489_[sKHRVRGN].bc w:0
 Merging module ./bitcodes2/image_rs15_248_[oE2rzDkx].bc
Variants count 520
_ZN5image6codecs4jpeg7encoder12PixelDensity3dpi17h76e5ade20be76fe1E already exist in ./bitcodes2/image_rs15_248_[oE2rzDkx].bc w:0
 Merging module ./bitcodes2/image_rs15_222_[9HiqoQya].bc
Variants count 521
 Merging module ./bitcodes2/image_rs15_222_[kMUPJCHC].bc
Variants count 522
 Merging module ./bitcodes2/image_rs15_840_[czyTBa5r].bc
Variants count 523
_ZN4core3ptr1301drop_in_place$LT$core..iter..adapters..map..map_fold$LT$$LP$core..option..Option$LT$jpeg_decoder..huffman..HuffmanTable$GT$$C$core..option..Option$LT$jpeg_decoder..huffman..HuffmanTable$GT$$RP$$C$core..option..Option$LT$jpeg_decoder..huffman..HuffmanTable$GT$$C$$LP$$RP$$C$jpeg_decoder..decoder..Decoder$LT$std..io..buffered..bufreader..BufReader$LT$std..fs..File$GT$$GT$..decode_internal..$u7b$$u7b$closure$u7d$$u7d$$C$core..iter..traits..iterator..Iterator..for_each..call$LT$core..option..Option$LT$jpeg_decoder..huffman..HuffmanTable$GT$$C$$LT$alloc..vec..Vec$LT$core..option..Option$LT$jpeg_decoder..huffman..HuffmanTable$GT$$GT$$u20$as$u20$alloc..vec..spec_extend..SpecExtend$LT$core..option..Option$LT$jpeg_decoder..huffman..HuffmanTable$GT$$C$core..iter..adapters..map..Map$LT$core..iter..adapters..zip..Zip$LT$alloc..vec..into_iter..IntoIter$LT$core..option..Option$LT$jpeg_decoder..huffman..HuffmanTable$GT$$GT$$C$alloc..vec..into_iter..IntoIter$LT$core..option..Option$LT$jpeg_decoder..huffman..HuffmanTable$GT$$GT$$GT$$C$jpeg_decoder..decoder..Decoder$LT$std..io..buffered..bufreader..BufReader$LT$std..fs..File$GT$$GT$..decode_internal..$u7b$$u7b$closure$u7d$$u7d$$GT$$GT$$GT$..spec_extend..$u7b$$u7b$closure$u7d$$u7d$$GT$..$u7b$$u7b$closure$u7d$$u7d$$GT$..$u7b$$u7b$closure$u7d$$u7d$$GT$17h43f18c2da6dc3c94E already exist in ./bitcodes2/image_rs15_840_[czyTBa5r].bc w:0
 Merging module ./bitcodes2/image_rs15_222_[aEDqQ3tn].bc
Variants count 524
 Merging module ./bitcodes2/image_rs15_142_[tu260tN9].bc
Variants count 525
_ZN97_$LT$alloc..vec..Vec$LT$T$C$A$GT$$u20$as$u20$alloc..vec..spec_extend..SpecExtend$LT$T$C$I$GT$$GT$11spec_extend17h23e2afbd79d2bf65E already exist in ./bitcodes2/image_rs15_142_[tu260tN9].bc w:0
 Merging module ./bitcodes2/image_rs15_107_[oBTKEOSP].bc
Variants count 526
_ZN111_$LT$core..iter..adapters..zip..Zip$LT$A$C$B$GT$$u20$as$u20$core..iter..adapters..zip..ZipImpl$LT$A$C$B$GT$$GT$4next17h904ae9a5f7f17e7dE already exist in ./bitcodes2/image_rs15_107_[oBTKEOSP].bc w:0
_ZN153_$LT$core..result..Result$LT$T$C$F$GT$$u20$as$u20$core..ops..try_trait..FromResidual$LT$core..result..Result$LT$core..convert..Infallible$C$E$GT$$GT$$GT$13from_residual17he99b67180108ca9bE already exist in ./bitcodes2/image_rs15_107_[oBTKEOSP].bc w:0
_ZN63_$LT$I$u20$as$u20$core..iter..traits..collect..IntoIterator$GT$9into_iter17hf0d7f71adab83d70E already exist in ./bitcodes2/image_rs15_107_[oBTKEOSP].bc w:0
 Merging module ./bitcodes2/image_rs15_676_[lqiTlt3h].bc
Variants count 527
_ZN5image8dynimage12DynamicImage12from_decoder17h7f14f4ca4650afdfE already exist in ./bitcodes2/image_rs15_676_[lqiTlt3h].bc w:0
 Merging module ./bitcodes2/image_rs15_215_[VQGkp59T].bc
Variants count 528
 Merging module ./bitcodes2/image_rs15_222_[UpbRHJx5].bc
Variants count 529
 Merging module ./bitcodes2/image_rs15_897_[K0EXWkDX].bc
_ZN8bytemuck14cast_slice_mut17h4023ac7a00be0a7eE already exist in ./bitcodes2/image_rs15_897_[K0EXWkDX].bc w:0
_ZN94_$LT$core..slice..iter..IterMut$LT$T$GT$$u20$as$u20$core..iter..traits..iterator..Iterator$GT$24__iterator_get_unchecked17h58b6afa0e8024274E already exist in ./bitcodes2/image_rs15_897_[K0EXWkDX].bc w:0
_ZN236_$LT$image..buffer_..ImageBuffer$LT$FromType$C$Container$GT$$u20$as$u20$image..buffer_..ConvertBuffer$LT$image..buffer_..ImageBuffer$LT$ToType$C$alloc..vec..Vec$LT$$LT$ToType$u20$as$u20$image..traits..Pixel$GT$..Subpixel$GT$$GT$$GT$$GT$7convert17he398e278debce516E already exist in ./bitcodes2/image_rs15_897_[K0EXWkDX].bc w:0
 Merging module ./bitcodes2/image_rs15_78_[ZLGqYSCy].bc
Variants count 530
_ZN4tiff7decoder3ifd5Entry13decode_offset17h10f22d8c5f7ba5ffE already exist in ./bitcodes2/image_rs15_78_[ZLGqYSCy].bc w:0
_ZN98_$LT$alloc..vec..Vec$LT$T$GT$$u20$as$u20$alloc..vec..spec_from_iter..SpecFromIter$LT$T$C$I$GT$$GT$9from_iter17h81fc7b7cb1966dbcE already exist in ./bitcodes2/image_rs15_78_[ZLGqYSCy].bc w:0
 Merging module ./bitcodes2/image_rs15_222_[5ww60tv_].bc
Variants count 531
 Merging module ./bitcodes2/image_rs15_890_[YqUpplh8].bc
Variants count 532
 Merging module ./bitcodes2/image_rs15_222_[YOIItbb6].bc
Variants count 533
 Merging module ./bitcodes2/image_rs15_0_[BvK4ZnFO][ICtpE8fv][EsrjMtP4][d5h21QCv].bc
Variants count 534
 Merging module ./bitcodes2/image_rs15_222_[6c48bg48].bc
Variants count 535
 Merging module ./bitcodes2/image_rs15_86_[_Lp1zgf2].bc
Variants count 536
 Merging module ./bitcodes2/image_rs15_676_[RVj6BabU].bc
Variants count 537
_ZN5image8dynimage12DynamicImage12from_decoder17h7f14f4ca4650afdfE already exist in ./bitcodes2/image_rs15_676_[RVj6BabU].bc w:0
 Merging module ./bitcodes2/image_rs15_811_[98pHRKww].bc
Variants count 538
Variants count 539
 Merging module ./bitcodes2/image_rs15_858_[U4W7Pfkv].bc
Variants count 540
_ZN111_$LT$core..iter..adapters..zip..Zip$LT$A$C$B$GT$$u20$as$u20$core..iter..adapters..zip..ZipImpl$LT$A$C$B$GT$$GT$3new17hd9e89045f71da222E already exist in ./bitcodes2/image_rs15_858_[U4W7Pfkv].bc w:0
_ZN4core3ptr175drop_in_place$LT$std..io..buffered..bufreader..BufReader$LT$std..io..buffered..bufreader..BufReader$LT$std..io..buffered..bufreader..BufReader$LT$std..fs..File$GT$$GT$$GT$$GT$17hdbdf19a6169cce83E already exist in ./bitcodes2/image_rs15_858_[U4W7Pfkv].bc w:0
_ZN75_$LT$usize$u20$as$u20$core..slice..index..SliceIndex$LT$$u5b$T$u5d$$GT$$GT$9index_mut17h878438740c82fb14E already exist in ./bitcodes2/image_rs15_858_[U4W7Pfkv].bc w:0
_ZN95_$LT$image..codecs..ico..encoder..IcoEncoder$LT$W$GT$$u20$as$u20$image..image..ImageEncoder$GT$11write_image17h4263aacfd78fedfdE already exist in ./bitcodes2/image_rs15_858_[U4W7Pfkv].bc w:0
_ZN5image6codecs3pnm9autobreak18AutoBreak$LT$W$GT$9flush_buf17h350f213d0bcba396E already exist in ./bitcodes2/image_rs15_858_[U4W7Pfkv].bc w:0
 Merging module ./bitcodes2/image_rs15_222_[ws_C_ea8].bc
Variants count 541
 Merging module ./bitcodes2/image_rs15_858_[z7QnTU58].bc
Variants count 542
_ZN111_$LT$core..iter..adapters..zip..Zip$LT$A$C$B$GT$$u20$as$u20$core..iter..adapters..zip..ZipImpl$LT$A$C$B$GT$$GT$3new17hd9e89045f71da222E already exist in ./bitcodes2/image_rs15_858_[z7QnTU58].bc w:0
_ZN4core3ptr175drop_in_place$LT$std..io..buffered..bufreader..BufReader$LT$std..io..buffered..bufreader..BufReader$LT$std..io..buffered..bufreader..BufReader$LT$std..fs..File$GT$$GT$$GT$$GT$17hdbdf19a6169cce83E already exist in ./bitcodes2/image_rs15_858_[z7QnTU58].bc w:0
_ZN75_$LT$usize$u20$as$u20$core..slice..index..SliceIndex$LT$$u5b$T$u5d$$GT$$GT$9index_mut17h878438740c82fb14E already exist in ./bitcodes2/image_rs15_858_[z7QnTU58].bc w:0
_ZN95_$LT$image..codecs..ico..encoder..IcoEncoder$LT$W$GT$$u20$as$u20$image..image..ImageEncoder$GT$11write_image17h4263aacfd78fedfdE already exist in ./bitcodes2/image_rs15_858_[z7QnTU58].bc w:0
_ZN5image6codecs3pnm9autobreak18AutoBreak$LT$W$GT$9flush_buf17h350f213d0bcba396E already exist in ./bitcodes2/image_rs15_858_[z7QnTU58].bc w:0
 Merging module ./bitcodes2/image_rs15_222_[3a3I8Epg].bc
Variants count 543
 Merging module ./bitcodes2/png_rs13_626_[kYHzQL_J][lYqxx1aP][Zut_c1lm][SD9OrGXS][ntUVL_dn].bc
Variants count 544
 Merging module ./bitcodes2/image_rs15_3_[rWSJuF00].bc
Variants count 545
_ZN3png7decoder16Decoder$LT$R$GT$19set_transformations17h3db447a4863900d2E already exist in ./bitcodes2/image_rs15_3_[rWSJuF00].bc w:0
_ZN5image6codecs3bmp7decoder19BmpDecoder$LT$R$GT$25read_full_byte_pixel_data17he90647b932761bd4E already exist in ./bitcodes2/image_rs15_3_[rWSJuF00].bc w:0
 Merging module ./bitcodes2/image_rs15_878_[ifK3yOEC].bc
_ZN84_$LT$core..option..Option$LT$T$GT$$u20$as$u20$core..ops..try_trait..FromResidual$GT$13from_residual17h867e0f47ab24da24E already exist in ./bitcodes2/image_rs15_878_[ifK3yOEC].bc w:0
_ZN4tiff7decoder16Decoder$LT$R$GT$10next_image17h0972891b5629e687E already exist in ./bitcodes2/image_rs15_878_[ifK3yOEC].bc w:0
 Merging module ./bitcodes2/image_rs15_615_[MRj_IWQ0].bc
Variants count 546
_ZN4core3ptr8non_null16NonNull$LT$T$GT$13new_unchecked17hf13979bfdc5a69a2E already exist in ./bitcodes2/image_rs15_615_[MRj_IWQ0].bc w:0
 Merging module ./bitcodes2/image_rs15_75_[4aWozeci].bc
Variants count 547
 Merging module ./bitcodes2/image_rs15_222_[BdETMWXh].bc
Variants count 548
 Merging module ./bitcodes2/image_rs15_215_[Qq9si_aE].bc
Variants count 549
 Merging module ./bitcodes2/image_rs15_615_[8KZD_0Ic].bc
_ZN4core3ptr65drop_in_place$LT$core..option..Option$LT$weezl..StreamBuf$GT$$GT$17hab39435439ff229fE already exist in ./bitcodes2/image_rs15_615_[8KZD_0Ic].bc w:0
_ZN4core3ptr8non_null16NonNull$LT$T$GT$13new_unchecked17hf13979bfdc5a69a2E already exist in ./bitcodes2/image_rs15_615_[8KZD_0Ic].bc w:0
 Merging module ./bitcodes2/image_rs15_248_[pShTGz75].bc
Variants count 550
_ZN5image6codecs4jpeg7encoder12PixelDensity3dpi17h76e5ade20be76fe1E already exist in ./bitcodes2/image_rs15_248_[pShTGz75].bc w:0
 Merging module ./bitcodes2/image_rs15_107_[MJuTSjay].bc
Variants count 551
_ZN111_$LT$core..iter..adapters..zip..Zip$LT$A$C$B$GT$$u20$as$u20$core..iter..adapters..zip..ZipImpl$LT$A$C$B$GT$$GT$4next17h904ae9a5f7f17e7dE already exist in ./bitcodes2/image_rs15_107_[MJuTSjay].bc w:0
_ZN153_$LT$core..result..Result$LT$T$C$F$GT$$u20$as$u20$core..ops..try_trait..FromResidual$LT$core..result..Result$LT$core..convert..Infallible$C$E$GT$$GT$$GT$13from_residual17he99b67180108ca9bE already exist in ./bitcodes2/image_rs15_107_[MJuTSjay].bc w:0
_ZN63_$LT$I$u20$as$u20$core..iter..traits..collect..IntoIterator$GT$9into_iter17hf0d7f71adab83d70E already exist in ./bitcodes2/image_rs15_107_[MJuTSjay].bc w:0
 Merging module ./bitcodes2/image_rs15_222_[xoFEd4eb].bc
Variants count 552
 Merging module ./bitcodes2/image_rs15_125_[LVDTj1Aa].bc
Variants count 553
_ZN4core4iter8adapters3map16Map$LT$I$C$F$GT$3new17h4fbee63e29420067E already exist in ./bitcodes2/image_rs15_125_[LVDTj1Aa].bc w:0
_ZN5image8imageops6affine8rotate9017h07814081b1ddd323E already exist in ./bitcodes2/image_rs15_125_[LVDTj1Aa].bc w:0
 Merging module ./bitcodes2/image_rs15_112_[XyAUy4ws].bc
Variants count 554
_ZN4core3ops12control_flow77ControlFlow$LT$R$C$$LT$R$u20$as$u20$core..ops..try_trait..Try$GT$..Output$GT$8from_try17hfa27bd65a5ae5641E already exist in ./bitcodes2/image_rs15_112_[XyAUy4ws].bc w:0
_ZN5image8imageops8colorops8contrast17he99131cb2798383fE already exist in ./bitcodes2/image_rs15_112_[XyAUy4ws].bc w:0
 Merging module ./bitcodes2/image_rs15_87_[EAbn83Re].bc
Variants count 555
 Merging module ./bitcodes2/image_rs15_676_[yjnrVunF].bc
_ZN5image6codecs3tga7decoder19TgaDecoder$LT$R$GT$21is_flipped_vertically17h77aed2b06b6c01daE already exist in ./bitcodes2/image_rs15_676_[yjnrVunF].bc w:0
_ZN5image8dynimage12DynamicImage12from_decoder17h7f14f4ca4650afdfE already exist in ./bitcodes2/image_rs15_676_[yjnrVunF].bc w:0
 Merging module ./bitcodes2/image_rs15_222_[99lWqQbo].bc
Variants count 556
 Merging module ./bitcodes2/image_rs15_125_[EFqcSCBx].bc
Variants count 557
_ZN4core4iter8adapters3map16Map$LT$I$C$F$GT$3new17h4fbee63e29420067E already exist in ./bitcodes2/image_rs15_125_[EFqcSCBx].bc w:0
_ZN5image8imageops6affine8rotate9017h07814081b1ddd323E already exist in ./bitcodes2/image_rs15_125_[EFqcSCBx].bc w:0
 Merging module ./bitcodes2/image_rs15_80_[U26CTsde].bc
Variants count 558
_ZN4core3ptr104drop_in_place$LT$alloc..raw_vec..RawVec$LT$$LP$alloc..string..String$C$alloc..string..String$RP$$GT$$GT$17hb0979317a97b05b1E already exist in ./bitcodes2/image_rs15_80_[U26CTsde].bc w:0
 Merging module ./bitcodes2/image_rs15_87_[oiAbyq1Q].bc
Variants count 559
 Merging module ./bitcodes2/image_rs15_86_[vKW6fVIQ].bc
Variants count 560
 Merging module ./bitcodes2/image_rs15_239_[3qc1YgZu].bc
Variants count 561
_ZN4core4iter6traits8iterator8Iterator10max_by_key3key17h7d25e6cf4f733365E already exist in ./bitcodes2/image_rs15_239_[3qc1YgZu].bc w:0
 Merging module ./bitcodes2/image_rs15_3_[RlJgXqph].bc
Variants count 562
_ZN3png7decoder16Decoder$LT$R$GT$19set_transformations17h3db447a4863900d2E already exist in ./bitcodes2/image_rs15_3_[RlJgXqph].bc w:0
_ZN5image6codecs3bmp7decoder19BmpDecoder$LT$R$GT$25read_full_byte_pixel_data17he90647b932761bd4E already exist in ./bitcodes2/image_rs15_3_[RlJgXqph].bc w:0
 Merging module ./bitcodes2/png_rs13_2897_[pzhMmIcL][g9OECrHG].bc
Variants count 563
 Merging module ./bitcodes2/image_rs15_843_[3pvunWXG].bc
Variants count 564
_ZN5image7buffer_32ImageBuffer$LT$P$C$Container$GT$16check_image_fits17h89836d9f979b2413E already exist in ./bitcodes2/image_rs15_843_[3pvunWXG].bc w:0
_ZN5image5image16GenericImageView5width17hc8a2a9f5f4c99d2bE already exist in ./bitcodes2/image_rs15_843_[3pvunWXG].bc w:0
 Merging module ./bitcodes2/image_rs15_818_[n_5rh3Y4].bc
Variants count 565
_ZN5image5error10LimitError9from_kind17h5b0452e3cc9838c6E already exist in ./bitcodes2/image_rs15_818_[n_5rh3Y4].bc w:0
_ZN99_$LT$image..buffer_..ImageBuffer$LT$P$C$Container$GT$$u20$as$u20$image..image..GenericImageView$GT$9get_pixel17h58e9e6d253fab205E already exist in ./bitcodes2/image_rs15_818_[n_5rh3Y4].bc w:0
 Merging module ./bitcodes2/image_rs15_3_[P5xe_06T].bc
Variants count 566
_ZN3png7decoder16Decoder$LT$R$GT$19set_transformations17h3db447a4863900d2E already exist in ./bitcodes2/image_rs15_3_[P5xe_06T].bc w:0
_ZN5image6codecs3bmp7decoder19BmpDecoder$LT$R$GT$25read_full_byte_pixel_data17he90647b932761bd4E already exist in ./bitcodes2/image_rs15_3_[P5xe_06T].bc w:0
 Merging module ./bitcodes2/image_rs15_676_[1RWo6UNf].bc
Variants count 567
_ZN5image8dynimage12DynamicImage12from_decoder17h7f14f4ca4650afdfE already exist in ./bitcodes2/image_rs15_676_[1RWo6UNf].bc w:0
 Merging module ./bitcodes2/image_rs15_222_[6UIcAhZO].bc
Variants count 568
 Merging module ./bitcodes2/image_rs15_843_[iW74_rW2].bc
Variants count 569
_ZN5image7buffer_32ImageBuffer$LT$P$C$Container$GT$16check_image_fits17h89836d9f979b2413E already exist in ./bitcodes2/image_rs15_843_[iW74_rW2].bc w:0
_ZN5image5image16GenericImageView5width17hc8a2a9f5f4c99d2bE already exist in ./bitcodes2/image_rs15_843_[iW74_rW2].bc w:0
 Merging module ./bitcodes2/image_rs15_86_[1KdEbK_U].bc
Variants count 570
 Merging module ./bitcodes2/image_rs15_233_[K1n4yW9P].bc
Variants count 571
_ZN5image6codecs4jpeg7encoder18BitWriter$LT$W$GT$13write_segment17h1f584c4ee0ce62ecE already exist in ./bitcodes2/image_rs15_233_[K1n4yW9P].bc w:0
 Merging module ./bitcodes2/image_rs15_222_[DdMMoQdz].bc
Variants count 572
 Merging module ./bitcodes2/image_rs15_0_[j9gUSQRm][lwc3b_RL][JMkIPj7f][2UtPOfMw].bc
Variants count 573
 Merging module ./bitcodes2/image_rs15_142_[ge1Kjlht].bc
Variants count 574
_ZN97_$LT$alloc..vec..Vec$LT$T$C$A$GT$$u20$as$u20$alloc..vec..spec_extend..SpecExtend$LT$T$C$I$GT$$GT$11spec_extend17h23e2afbd79d2bf65E already exist in ./bitcodes2/image_rs15_142_[ge1Kjlht].bc w:0
 Merging module ./bitcodes2/image_rs15_86_[HFTfd1N_].bc
Variants count 575
 Merging module ./bitcodes2/image_rs15_222_[U4xA98S1].bc
Variants count 576
 Merging module ./bitcodes2/image_rs15_21_[B8xsnfoY].bc
Variants count 577
_ZN5alloc11collections5btree4node137Handle$LT$alloc..collections..btree..node..NodeRef$LT$BorrowType$C$K$C$V$C$NodeType$GT$$C$alloc..collections..btree..node..marker..KV$GT$10right_edge17hc8affa6734f1dd43E already exist in ./bitcodes2/image_rs15_21_[B8xsnfoY].bc w:0
_ZN97_$LT$alloc..vec..Vec$LT$T$C$A$GT$$u20$as$u20$alloc..vec..spec_extend..SpecExtend$LT$T$C$I$GT$$GT$11spec_extend17hef060f9900728987E already exist in ./bitcodes2/image_rs15_21_[B8xsnfoY].bc w:0
_ZN106_$LT$image..color..Rgb$LT$T$GT$$u20$as$u20$image..color..FromColor$LT$image..color..LumaA$LT$T$GT$$GT$$GT$10from_color17h3483d43fbbee6b31E already exist in ./bitcodes2/image_rs15_21_[B8xsnfoY].bc w:0
 Merging module ./bitcodes2/image_rs15_144_[W1JQVJpK].bc
Variants count 578
_ZN5image8imageops10crop_dimms17h39cdb411ca80a1b2E already exist in ./bitcodes2/image_rs15_144_[W1JQVJpK].bc w:0
 Merging module ./bitcodes2/image_rs15_222_[3ayNHzbm].bc
Variants count 579
 Merging module ./bitcodes2/image_rs15_3_[HGO0lyGf].bc
Variants count 580
_ZN3png7decoder16Decoder$LT$R$GT$19set_transformations17h3db447a4863900d2E already exist in ./bitcodes2/image_rs15_3_[HGO0lyGf].bc w:0
_ZN5image6codecs3bmp7decoder19BmpDecoder$LT$R$GT$25read_full_byte_pixel_data17he90647b932761bd4E already exist in ./bitcodes2/image_rs15_3_[HGO0lyGf].bc w:0
 Merging module ./bitcodes2/image_rs15_142_[J_bpqCe_].bc
Variants count 581
_ZN97_$LT$alloc..vec..Vec$LT$T$C$A$GT$$u20$as$u20$alloc..vec..spec_extend..SpecExtend$LT$T$C$I$GT$$GT$11spec_extend17h23e2afbd79d2bf65E already exist in ./bitcodes2/image_rs15_142_[J_bpqCe_].bc w:0
 Merging module ./bitcodes2/image_rs15_0_[RnicI3Yy][_6biU52i][OcDpeiIc][uD99l_q2].bc
_ZN4tiff7decoder6stream12EndianReader8read_i3217hfdbca248c262029aE already exist in ./bitcodes2/image_rs15_0_[RnicI3Yy][_6biU52i][OcDpeiIc][uD99l_q2].bc w:0
 Merging module ./bitcodes2/image_rs15_222_[Yb75Ft9B].bc
Variants count 582
 Merging module ./bitcodes2/image_rs15_222_[qJVpk2Qd].bc
Variants count 583
 Merging module ./bitcodes2/image_rs15_847_[q7LLUQA0].bc
Variants count 584
_ZN91_$LT$core..slice..iter..Iter$LT$T$GT$$u20$as$u20$core..iter..traits..iterator..Iterator$GT$8position17hbfc0843c92c6878aE already exist in ./bitcodes2/image_rs15_847_[q7LLUQA0].bc w:0
 Merging module ./bitcodes2/image_rs15_239_[Y_xNUz0_].bc
_ZN3gif7encoder16Encoder$LT$W$GT$15write_extension17h31216512db391286E already exist in ./bitcodes2/image_rs15_239_[Y_xNUz0_].bc w:0
_ZN4core4iter6traits8iterator8Iterator10max_by_key3key17h7d25e6cf4f733365E already exist in ./bitcodes2/image_rs15_239_[Y_xNUz0_].bc w:0
 Merging module ./bitcodes2/image_rs15_222_[OTyquKLW].bc
Variants count 585
 Merging module ./bitcodes2/image_rs15_3_[aq7Rn5zM].bc
Variants count 586
_ZN3png7decoder16Decoder$LT$R$GT$19set_transformations17h3db447a4863900d2E already exist in ./bitcodes2/image_rs15_3_[aq7Rn5zM].bc w:0
_ZN5image6codecs3bmp7decoder19BmpDecoder$LT$R$GT$25read_full_byte_pixel_data17he90647b932761bd4E already exist in ./bitcodes2/image_rs15_3_[aq7Rn5zM].bc w:0
 Merging module ./bitcodes2/image_rs15_3_[dx7UNFzB].bc
Variants count 587
_ZN3png7decoder16Decoder$LT$R$GT$19set_transformations17h3db447a4863900d2E already exist in ./bitcodes2/image_rs15_3_[dx7UNFzB].bc w:0
_ZN5image6codecs3bmp7decoder19BmpDecoder$LT$R$GT$25read_full_byte_pixel_data17he90647b932761bd4E already exist in ./bitcodes2/image_rs15_3_[dx7UNFzB].bc w:0
 Merging module ./bitcodes2/image_rs15_222_[QtifuyuB].bc
Variants count 588
 Merging module ./bitcodes2/image_rs15_629_[DQCPUqX_].bc
_ZN3std2io4Read5bytes17h38adebbc40ab3a18E already exist in ./bitcodes2/image_rs15_629_[DQCPUqX_].bc w:0
Variants count 589
 Merging module ./bitcodes2/image_rs15_840_[3ttwldhe].bc
Variants count 590
_ZN4core3ptr1301drop_in_place$LT$core..iter..adapters..map..map_fold$LT$$LP$core..option..Option$LT$jpeg_decoder..huffman..HuffmanTable$GT$$C$core..option..Option$LT$jpeg_decoder..huffman..HuffmanTable$GT$$RP$$C$core..option..Option$LT$jpeg_decoder..huffman..HuffmanTable$GT$$C$$LP$$RP$$C$jpeg_decoder..decoder..Decoder$LT$std..io..buffered..bufreader..BufReader$LT$std..fs..File$GT$$GT$..decode_internal..$u7b$$u7b$closure$u7d$$u7d$$C$core..iter..traits..iterator..Iterator..for_each..call$LT$core..option..Option$LT$jpeg_decoder..huffman..HuffmanTable$GT$$C$$LT$alloc..vec..Vec$LT$core..option..Option$LT$jpeg_decoder..huffman..HuffmanTable$GT$$GT$$u20$as$u20$alloc..vec..spec_extend..SpecExtend$LT$core..option..Option$LT$jpeg_decoder..huffman..HuffmanTable$GT$$C$core..iter..adapters..map..Map$LT$core..iter..adapters..zip..Zip$LT$alloc..vec..into_iter..IntoIter$LT$core..option..Option$LT$jpeg_decoder..huffman..HuffmanTable$GT$$GT$$C$alloc..vec..into_iter..IntoIter$LT$core..option..Option$LT$jpeg_decoder..huffman..HuffmanTable$GT$$GT$$GT$$C$jpeg_decoder..decoder..Decoder$LT$std..io..buffered..bufreader..BufReader$LT$std..fs..File$GT$$GT$..decode_internal..$u7b$$u7b$closure$u7d$$u7d$$GT$$GT$$GT$..spec_extend..$u7b$$u7b$closure$u7d$$u7d$$GT$..$u7b$$u7b$closure$u7d$$u7d$$GT$..$u7b$$u7b$closure$u7d$$u7d$$GT$17h43f18c2da6dc3c94E already exist in ./bitcodes2/image_rs15_840_[3ttwldhe].bc w:0
 Merging module ./bitcodes2/image_rs15_222_[c1YMvyWq].bc
Variants count 591
 Merging module ./bitcodes2/image_rs15_222_[QvZuvyC4].bc
Variants count 592
 Merging module ./bitcodes2/image_rs15_829_[6haktc9X].bc
Variants count 593
 Merging module ./bitcodes2/image_rs15_222_[qyPxNIZJ].bc
Variants count 594
 Merging module ./bitcodes2/image_rs15_222_[XLhVGLou].bc
Variants count 595
 Merging module ./bitcodes2/image_rs15_233_[2_OgqErJ].bc
Variants count 596
_ZN5image6codecs4jpeg7encoder18BitWriter$LT$W$GT$13write_segment17h1f584c4ee0ce62ecE already exist in ./bitcodes2/image_rs15_233_[2_OgqErJ].bc w:0
 Merging module ./bitcodes2/image_rs15_215_[XxAl6O9n].bc
Variants count 597
 Merging module ./bitcodes2/image_rs15_86_[mUGNBWgF].bc
Variants count 598
 Merging module ./bitcodes2/image_rs15_890_[ZKHWLWhJ].bc
Variants count 599
 Merging module ./bitcodes2/image_rs15_222_[ybG7_PR9].bc
Variants count 600
 Merging module ./bitcodes2/image_rs15_615_[yTS8xXRg].bc
Variants count 601
_ZN4core3ptr8non_null16NonNull$LT$T$GT$13new_unchecked17hf13979bfdc5a69a2E already exist in ./bitcodes2/image_rs15_615_[yTS8xXRg].bc w:0
 Merging module ./bitcodes2/image_rs15_239_[_TJaNtM1].bc
_ZN3gif7encoder16Encoder$LT$W$GT$15write_extension17h31216512db391286E already exist in ./bitcodes2/image_rs15_239_[_TJaNtM1].bc w:0
_ZN4core4iter6traits8iterator8Iterator10max_by_key3key17h7d25e6cf4f733365E already exist in ./bitcodes2/image_rs15_239_[_TJaNtM1].bc w:0
 Merging module ./bitcodes2/image_rs15_112_[anyf7qUx].bc
Variants count 602
_ZN4core3ops12control_flow77ControlFlow$LT$R$C$$LT$R$u20$as$u20$core..ops..try_trait..Try$GT$..Output$GT$8from_try17hfa27bd65a5ae5641E already exist in ./bitcodes2/image_rs15_112_[anyf7qUx].bc w:0
_ZN5image8imageops8colorops8contrast17he99131cb2798383fE already exist in ./bitcodes2/image_rs15_112_[anyf7qUx].bc w:0
 Merging module ./bitcodes2/image_rs15_811_[yiadDkbW].bc
_ZN4core4iter6traits8iterator8Iterator8try_fold17h38d7b2253440eee9E already exist in ./bitcodes2/image_rs15_811_[yiadDkbW].bc w:0
_ZN4core3cmp6min_by17h1d6323d90622e113E already exist in ./bitcodes2/image_rs15_811_[yiadDkbW].bc w:0
 Merging module ./bitcodes2/image_rs15_222_[hT8klULF].bc
Variants count 603
 Merging module ./bitcodes2/image_rs15_239_[DIQ5CY2r].bc
Variants count 604
_ZN4core4iter6traits8iterator8Iterator10max_by_key3key17h7d25e6cf4f733365E already exist in ./bitcodes2/image_rs15_239_[DIQ5CY2r].bc w:0
 Merging module ./bitcodes2/image_rs15_86_[WmfgRZV8].bc
Variants count 605
 Merging module ./bitcodes2/image_rs15_629_[2FFAqGr_].bc
Variants count 606
_ZN3std2io4Read5bytes17h38adebbc40ab3a18E already exist in ./bitcodes2/image_rs15_629_[2FFAqGr_].bc w:0
 Merging module ./bitcodes2/image_rs15_840_[ZbKciDXT].bc
Variants count 607
_ZN4core3ptr1301drop_in_place$LT$core..iter..adapters..map..map_fold$LT$$LP$core..option..Option$LT$jpeg_decoder..huffman..HuffmanTable$GT$$C$core..option..Option$LT$jpeg_decoder..huffman..HuffmanTable$GT$$RP$$C$core..option..Option$LT$jpeg_decoder..huffman..HuffmanTable$GT$$C$$LP$$RP$$C$jpeg_decoder..decoder..Decoder$LT$std..io..buffered..bufreader..BufReader$LT$std..fs..File$GT$$GT$..decode_internal..$u7b$$u7b$closure$u7d$$u7d$$C$core..iter..traits..iterator..Iterator..for_each..call$LT$core..option..Option$LT$jpeg_decoder..huffman..HuffmanTable$GT$$C$$LT$alloc..vec..Vec$LT$core..option..Option$LT$jpeg_decoder..huffman..HuffmanTable$GT$$GT$$u20$as$u20$alloc..vec..spec_extend..SpecExtend$LT$core..option..Option$LT$jpeg_decoder..huffman..HuffmanTable$GT$$C$core..iter..adapters..map..Map$LT$core..iter..adapters..zip..Zip$LT$alloc..vec..into_iter..IntoIter$LT$core..option..Option$LT$jpeg_decoder..huffman..HuffmanTable$GT$$GT$$C$alloc..vec..into_iter..IntoIter$LT$core..option..Option$LT$jpeg_decoder..huffman..HuffmanTable$GT$$GT$$GT$$C$jpeg_decoder..decoder..Decoder$LT$std..io..buffered..bufreader..BufReader$LT$std..fs..File$GT$$GT$..decode_internal..$u7b$$u7b$closure$u7d$$u7d$$GT$$GT$$GT$..spec_extend..$u7b$$u7b$closure$u7d$$u7d$$GT$..$u7b$$u7b$closure$u7d$$u7d$$GT$..$u7b$$u7b$closure$u7d$$u7d$$GT$17h43f18c2da6dc3c94E already exist in ./bitcodes2/image_rs15_840_[ZbKciDXT].bc w:0
 Merging module ./bitcodes2/image_rs15_222_[8SpTTqdh].bc
Variants count 608
 Merging module ./bitcodes2/image_rs15_3_[9y4MNPd2].bc
Variants count 609
_ZN3png7decoder16Decoder$LT$R$GT$19set_transformations17h3db447a4863900d2E already exist in ./bitcodes2/image_rs15_3_[9y4MNPd2].bc w:0
_ZN5image6codecs3bmp7decoder19BmpDecoder$LT$R$GT$25read_full_byte_pixel_data17he90647b932761bd4E already exist in ./bitcodes2/image_rs15_3_[9y4MNPd2].bc w:0
 Merging module ./bitcodes2/image_rs15_222_[t1Kr9W04].bc
Variants count 610
 Merging module ./bitcodes2/image_rs15_222_[RB3eoOXG].bc
Variants count 611
 Merging module ./bitcodes2/image_rs15_222_[xJEQKwta].bc
Variants count 612
 Merging module ./bitcodes2/image_rs15_87_[1pnNwjt1].bc
Variants count 613
 Merging module ./bitcodes2/image_rs15_615_[931sZn6s].bc
Variants count 614
_ZN4core3ptr8non_null16NonNull$LT$T$GT$13new_unchecked17hf13979bfdc5a69a2E already exist in ./bitcodes2/image_rs15_615_[931sZn6s].bc w:0
 Merging module ./bitcodes2/image_rs15_222_[1pljgPQ8].bc
Variants count 615
 Merging module ./bitcodes2/image_rs15_791_[k_Q9oSYI].bc
_ZN4core3fmt3num49_$LT$impl$u20$core..fmt..Debug$u20$for$u20$u8$GT$3fmt17h9b13b8336b79af1fE already exist in ./bitcodes2/image_rs15_791_[k_Q9oSYI].bc w:0
 Merging module ./bitcodes2/image_rs15_0_[xinmHQFg][tEwYiaTO][_SUivwy0][Jx_02PWx].bc
_ZN4tiff7decoder6stream12EndianReader8read_i3217hfdbca248c262029aE already exist in ./bitcodes2/image_rs15_0_[xinmHQFg][tEwYiaTO][_SUivwy0][Jx_02PWx].bc w:0
 Merging module ./bitcodes2/image_rs15_248_[__JFTq7i].bc
Variants count 616
_ZN5image6codecs4jpeg7encoder12PixelDensity3dpi17h76e5ade20be76fe1E already exist in ./bitcodes2/image_rs15_248_[__JFTq7i].bc w:0
 Merging module ./bitcodes2/image_rs15_233_[U6guETOT].bc
Variants count 617
_ZN5image6codecs4jpeg7encoder18BitWriter$LT$W$GT$13write_segment17h1f584c4ee0ce62ecE already exist in ./bitcodes2/image_rs15_233_[U6guETOT].bc w:0
 Merging module ./bitcodes2/image_rs15_86_[BT9QFXUK].bc
Variants count 618
 Merging module ./bitcodes2/image_rs15_80_[InychIM0].bc
Variants count 619
_ZN4core3ptr104drop_in_place$LT$alloc..raw_vec..RawVec$LT$$LP$alloc..string..String$C$alloc..string..String$RP$$GT$$GT$17hb0979317a97b05b1E already exist in ./bitcodes2/image_rs15_80_[InychIM0].bc w:0
 Merging module ./bitcodes2/image_rs15_511_[WaGBaGO3].bc
Variants count 620
 Merging module ./bitcodes2/image_rs15_87_[3deX1vZJ].bc
Variants count 621
 Merging module ./bitcodes2/image_rs15_222_[6DQnYxPE].bc
Variants count 622
 Merging module ./bitcodes2/image_rs15_222_[lTc_o_X8].bc
Variants count 623
 Merging module ./bitcodes2/image_rs15_222_[2A5TKvL6].bc
Variants count 624
 Merging module ./bitcodes2/image_rs15_222_[zOUBL_wB].bc
Variants count 625
 Merging module ./bitcodes2/image_rs15_125_[vEd_qpah].bc
Variants count 626
_ZN4core4iter8adapters3map16Map$LT$I$C$F$GT$3new17h4fbee63e29420067E already exist in ./bitcodes2/image_rs15_125_[vEd_qpah].bc w:0
_ZN5image8imageops6affine8rotate9017h07814081b1ddd323E already exist in ./bitcodes2/image_rs15_125_[vEd_qpah].bc w:0
 Merging module ./bitcodes2/image_rs15_222_[u1FxnvEN].bc
Variants count 627
 Merging module ./bitcodes2/png_rs13_464_[W6_4Ua_k][CDGADE4K][vFWslUu7][boD4RX8Z][ao4LaOR9].bc
Variants count 628
 Merging module ./bitcodes2/image_rs15_840_[8bMZWkt1].bc
_ZN4core6result19Result$LT$T$C$E$GT$3map17h4d8bfd9bcd90b7b3E already exist in ./bitcodes2/image_rs15_840_[8bMZWkt1].bc w:0
_ZN4core3ptr1301drop_in_place$LT$core..iter..adapters..map..map_fold$LT$$LP$core..option..Option$LT$jpeg_decoder..huffman..HuffmanTable$GT$$C$core..option..Option$LT$jpeg_decoder..huffman..HuffmanTable$GT$$RP$$C$core..option..Option$LT$jpeg_decoder..huffman..HuffmanTable$GT$$C$$LP$$RP$$C$jpeg_decoder..decoder..Decoder$LT$std..io..buffered..bufreader..BufReader$LT$std..fs..File$GT$$GT$..decode_internal..$u7b$$u7b$closure$u7d$$u7d$$C$core..iter..traits..iterator..Iterator..for_each..call$LT$core..option..Option$LT$jpeg_decoder..huffman..HuffmanTable$GT$$C$$LT$alloc..vec..Vec$LT$core..option..Option$LT$jpeg_decoder..huffman..HuffmanTable$GT$$GT$$u20$as$u20$alloc..vec..spec_extend..SpecExtend$LT$core..option..Option$LT$jpeg_decoder..huffman..HuffmanTable$GT$$C$core..iter..adapters..map..Map$LT$core..iter..adapters..zip..Zip$LT$alloc..vec..into_iter..IntoIter$LT$core..option..Option$LT$jpeg_decoder..huffman..HuffmanTable$GT$$GT$$C$alloc..vec..into_iter..IntoIter$LT$core..option..Option$LT$jpeg_decoder..huffman..HuffmanTable$GT$$GT$$GT$$C$jpeg_decoder..decoder..Decoder$LT$std..io..buffered..bufreader..BufReader$LT$std..fs..File$GT$$GT$..decode_internal..$u7b$$u7b$closure$u7d$$u7d$$GT$$GT$$GT$..spec_extend..$u7b$$u7b$closure$u7d$$u7d$$GT$..$u7b$$u7b$closure$u7d$$u7d$$GT$..$u7b$$u7b$closure$u7d$$u7d$$GT$17h43f18c2da6dc3c94E already exist in ./bitcodes2/image_rs15_840_[8bMZWkt1].bc w:0
 Merging module ./bitcodes2/image_rs15_222_[Umh9gPHU].bc
Variants count 629
 Merging module ./bitcodes2/image_rs15_214_[dsjpSsfp].bc
Variants count 630
Variants count 631
 Merging module ./bitcodes2/image_rs15_676_[6FDgdBDx].bc
Variants count 632
_ZN5image8dynimage12DynamicImage12from_decoder17h7f14f4ca4650afdfE already exist in ./bitcodes2/image_rs15_676_[6FDgdBDx].bc w:0
 Merging module ./bitcodes2/png_rs13_2745_[H61MjXMj][sNSVUBLp][kKgSKPQ9][NReyjb8s][PwORHO4f].bc
_ZN130_$LT$png..common..Transformations$u20$as$u20$$LT$png..common..Transformations$u20$as$u20$core..fmt..Debug$GT$..fmt..__BitFlags$GT$8IDENTITY17h975fe46c9f22a26dE already exist in ./bitcodes2/png_rs13_2745_[H61MjXMj][sNSVUBLp][kKgSKPQ9][NReyjb8s][PwORHO4f].bc w:0
 Merging module ./bitcodes2/image_rs15_222_[RSoxG2pL].bc
Variants count 633
 Merging module ./bitcodes2/image_rs15_222_[cr0dAb3q].bc
Variants count 634
 Merging module ./bitcodes2/image_rs15_80_[oUSvw51J].bc
Variants count 635
_ZN4core3ptr104drop_in_place$LT$alloc..raw_vec..RawVec$LT$$LP$alloc..string..String$C$alloc..string..String$RP$$GT$$GT$17hb0979317a97b05b1E already exist in ./bitcodes2/image_rs15_80_[oUSvw51J].bc w:0
 Merging module ./bitcodes2/image_rs15_107_[ckphHhOH].bc
Variants count 636
_ZN111_$LT$core..iter..adapters..zip..Zip$LT$A$C$B$GT$$u20$as$u20$core..iter..adapters..zip..ZipImpl$LT$A$C$B$GT$$GT$4next17h904ae9a5f7f17e7dE already exist in ./bitcodes2/image_rs15_107_[ckphHhOH].bc w:0
_ZN153_$LT$core..result..Result$LT$T$C$F$GT$$u20$as$u20$core..ops..try_trait..FromResidual$LT$core..result..Result$LT$core..convert..Infallible$C$E$GT$$GT$$GT$13from_residual17he99b67180108ca9bE already exist in ./bitcodes2/image_rs15_107_[ckphHhOH].bc w:0
_ZN63_$LT$I$u20$as$u20$core..iter..traits..collect..IntoIterator$GT$9into_iter17hf0d7f71adab83d70E already exist in ./bitcodes2/image_rs15_107_[ckphHhOH].bc w:0
 Merging module ./bitcodes2/image_rs15_233_[lwmUBnYY].bc
Variants count 637
_ZN5image6codecs4jpeg7encoder18BitWriter$LT$W$GT$13write_segment17h1f584c4ee0ce62ecE already exist in ./bitcodes2/image_rs15_233_[lwmUBnYY].bc w:0
 Merging module ./bitcodes2/png_rs13_626_[59JVC7mj][Y6m1YqXS][AvOTvkvB][CHBHPMiN][Zr0IGl4A].bc
Variants count 638
 Merging module ./bitcodes2/image_rs15_222_[mcLPsF8Z].bc
Variants count 639
 Merging module ./bitcodes2/png_rs13_169_[dZ_3l1lt][Za0Ft9_W][YDS06HP8].bc
Variants count 640
 Merging module ./bitcodes2/png_rs13_169_[TokoMZqr][qRvPT_Kf][1RjDg1BB].bc
Variants count 641
 Merging module ./bitcodes2/image_rs15_610_[jj1V7nuQ].bc
Variants count 642
 Merging module ./bitcodes2/image_rs15_0_[DVqqFdyI][oFKQX5vV][rTh7snAh][h_RTvOlG].bc
Variants count 643
 Merging module ./bitcodes2/image_rs15_80_[ArPVmwQe].bc
Variants count 644
_ZN4core3ptr104drop_in_place$LT$alloc..raw_vec..RawVec$LT$$LP$alloc..string..String$C$alloc..string..String$RP$$GT$$GT$17hb0979317a97b05b1E already exist in ./bitcodes2/image_rs15_80_[ArPVmwQe].bc w:0
 Merging module ./bitcodes2/image_rs15_222_[SN_ly7jl].bc
Variants count 645
 Merging module ./bitcodes2/image_rs15_3_[0LNmVmwW].bc
Variants count 646
_ZN3png7decoder16Decoder$LT$R$GT$19set_transformations17h3db447a4863900d2E already exist in ./bitcodes2/image_rs15_3_[0LNmVmwW].bc w:0
_ZN5image6codecs3bmp7decoder19BmpDecoder$LT$R$GT$25read_full_byte_pixel_data17he90647b932761bd4E already exist in ./bitcodes2/image_rs15_3_[0LNmVmwW].bc w:0
 Merging module ./bitcodes2/image_rs15_112_[M4kzFpXn].bc
Variants count 647
_ZN4core3ops12control_flow77ControlFlow$LT$R$C$$LT$R$u20$as$u20$core..ops..try_trait..Try$GT$..Output$GT$8from_try17hfa27bd65a5ae5641E already exist in ./bitcodes2/image_rs15_112_[M4kzFpXn].bc w:0
_ZN5image8imageops8colorops8contrast17he99131cb2798383fE already exist in ./bitcodes2/image_rs15_112_[M4kzFpXn].bc w:0
 Merging module ./bitcodes2/image_rs15_615_[9xsKcXuy].bc
Variants count 648
_ZN4core3ptr8non_null16NonNull$LT$T$GT$13new_unchecked17hf13979bfdc5a69a2E already exist in ./bitcodes2/image_rs15_615_[9xsKcXuy].bc w:0
 Merging module ./bitcodes2/image_rs15_222_[rcfupnW8].bc
Variants count 649
 Merging module ./bitcodes2/image_rs15_506_[fJyO0a68].bc
Variants count 650
Variants count 651
Variants count 652
 Merging module ./bitcodes2/image_rs15_78_[eDU0PvJG].bc
Variants count 653
_ZN4tiff7decoder3ifd5Entry13decode_offset17h10f22d8c5f7ba5ffE already exist in ./bitcodes2/image_rs15_78_[eDU0PvJG].bc w:0
_ZN98_$LT$alloc..vec..Vec$LT$T$GT$$u20$as$u20$alloc..vec..spec_from_iter..SpecFromIter$LT$T$C$I$GT$$GT$9from_iter17h81fc7b7cb1966dbcE already exist in ./bitcodes2/image_rs15_78_[eDU0PvJG].bc w:0
 Merging module ./bitcodes2/image_rs15_222_[fV8b6bOe].bc
Variants count 654
 Merging module ./bitcodes2/image_rs15_3_[_fe2d7Y3].bc
Variants count 655
_ZN3png7decoder16Decoder$LT$R$GT$19set_transformations17h3db447a4863900d2E already exist in ./bitcodes2/image_rs15_3_[_fe2d7Y3].bc w:0
_ZN5image6codecs3bmp7decoder19BmpDecoder$LT$R$GT$25read_full_byte_pixel_data17he90647b932761bd4E already exist in ./bitcodes2/image_rs15_3_[_fe2d7Y3].bc w:0
 Merging module ./bitcodes2/image_rs15_222_[dugQ1pqQ].bc
Variants count 656
 Merging module ./bitcodes2/image_rs15_109_[v52YAZUQ].bc
Variants count 657
 Merging module ./bitcodes2/image_rs15_3_[91CTDQq0].bc
Variants count 658
_ZN3png7decoder16Decoder$LT$R$GT$19set_transformations17h3db447a4863900d2E already exist in ./bitcodes2/image_rs15_3_[91CTDQq0].bc w:0
_ZN5image6codecs3bmp7decoder19BmpDecoder$LT$R$GT$25read_full_byte_pixel_data17he90647b932761bd4E already exist in ./bitcodes2/image_rs15_3_[91CTDQq0].bc w:0
 Merging module ./bitcodes2/image_rs15_890_[wsjkkvqz].bc
Variants count 659
 Merging module ./bitcodes2/png_rs13_2897_[WtzcdJO6][tyaU_Rha].bc
Variants count 660
 Merging module ./bitcodes2/image_rs15_222_[un81dn3x].bc
Variants count 661
 Merging module ./bitcodes2/image_rs15_215_[RlTyE8Ph].bc
Variants count 662
 Merging module ./bitcodes2/image_rs15_222_[SZf1fQOV].bc
Variants count 663
 Merging module ./bitcodes2/image_rs15_22_[6_QbPjPa].bc
Variants count 664
_ZN4core4iter6traits8iterator8Iterator3zip17h43464ae3c43581b8E already exist in ./bitcodes2/image_rs15_22_[6_QbPjPa].bc w:0
_ZN63_$LT$I$u20$as$u20$core..iter..traits..collect..IntoIterator$GT$9into_iter17hfc236f1a393ea9c0E already exist in ./bitcodes2/image_rs15_22_[6_QbPjPa].bc w:0
_ZN5image5error16UnsupportedError20from_format_and_kind17h8dd35d19527ffadbE already exist in ./bitcodes2/image_rs15_22_[6_QbPjPa].bc w:0
_ZN5image8imageops6sample9thumbnail17h418ac981c55a78dbE already exist in ./bitcodes2/image_rs15_22_[6_QbPjPa].bc w:0
 Merging module ./bitcodes2/image_rs15_222_[oUzO_741].bc
Variants count 665
 Merging module ./bitcodes2/image_rs15_144_[jI7xNgYv].bc
Variants count 666
_ZN5image8imageops10crop_dimms17h39cdb411ca80a1b2E already exist in ./bitcodes2/image_rs15_144_[jI7xNgYv].bc w:0
 Merging module ./bitcodes2/image_rs15_215_[Mh6LMjta].bc
Variants count 667
 Merging module ./bitcodes2/png_rs13_169_[zUEnaNqm][K9A0LgcB][kZNOP_GO].bc
Variants count 668
 Merging module ./bitcodes2/image_rs15_840_[a_0Qxuw_].bc
_ZN4core3ptr1301drop_in_place$LT$core..iter..adapters..map..map_fold$LT$$LP$core..option..Option$LT$jpeg_decoder..huffman..HuffmanTable$GT$$C$core..option..Option$LT$jpeg_decoder..huffman..HuffmanTable$GT$$RP$$C$core..option..Option$LT$jpeg_decoder..huffman..HuffmanTable$GT$$C$$LP$$RP$$C$jpeg_decoder..decoder..Decoder$LT$std..io..buffered..bufreader..BufReader$LT$std..fs..File$GT$$GT$..decode_internal..$u7b$$u7b$closure$u7d$$u7d$$C$core..iter..traits..iterator..Iterator..for_each..call$LT$core..option..Option$LT$jpeg_decoder..huffman..HuffmanTable$GT$$C$$LT$alloc..vec..Vec$LT$core..option..Option$LT$jpeg_decoder..huffman..HuffmanTable$GT$$GT$$u20$as$u20$alloc..vec..spec_extend..SpecExtend$LT$core..option..Option$LT$jpeg_decoder..huffman..HuffmanTable$GT$$C$core..iter..adapters..map..Map$LT$core..iter..adapters..zip..Zip$LT$alloc..vec..into_iter..IntoIter$LT$core..option..Option$LT$jpeg_decoder..huffman..HuffmanTable$GT$$GT$$C$alloc..vec..into_iter..IntoIter$LT$core..option..Option$LT$jpeg_decoder..huffman..HuffmanTable$GT$$GT$$GT$$C$jpeg_decoder..decoder..Decoder$LT$std..io..buffered..bufreader..BufReader$LT$std..fs..File$GT$$GT$..decode_internal..$u7b$$u7b$closure$u7d$$u7d$$GT$$GT$$GT$..spec_extend..$u7b$$u7b$closure$u7d$$u7d$$GT$..$u7b$$u7b$closure$u7d$$u7d$$GT$..$u7b$$u7b$closure$u7d$$u7d$$GT$17h43f18c2da6dc3c94E already exist in ./bitcodes2/image_rs15_840_[a_0Qxuw_].bc w:0
Variants count 669
 Merging module ./bitcodes2/image_rs15_215_[lHo5c83Y].bc
Variants count 670
 Merging module ./bitcodes2/image_rs15_890_[giNYR67Z].bc
Variants count 671
 Merging module ./bitcodes2/png_rs13_464_[D_TMncTk][oGk0aAgq][oprHtStC][2q72GZD1][Lf_n4_5I].bc
Variants count 672
 Merging module ./bitcodes2/image_rs15_629_[HXYFHq54].bc
Variants count 673
_ZN3std2io4Read5bytes17h38adebbc40ab3a18E already exist in ./bitcodes2/image_rs15_629_[HXYFHq54].bc w:0
 Merging module ./bitcodes2/image_rs15_125_[XQ1_Jo6l].bc
Variants count 674
_ZN4core4iter8adapters3map16Map$LT$I$C$F$GT$3new17h4fbee63e29420067E already exist in ./bitcodes2/image_rs15_125_[XQ1_Jo6l].bc w:0
_ZN5image8imageops6affine8rotate9017h07814081b1ddd323E already exist in ./bitcodes2/image_rs15_125_[XQ1_Jo6l].bc w:0
 Merging module ./bitcodes2/image_rs15_812_[Y_3B_F0f].bc
Variants count 675
_ZN4core3ptr9const_ptr33_$LT$impl$u20$$BP$const$u20$T$GT$7is_null17hf11ad46952c36b76E already exist in ./bitcodes2/image_rs15_812_[Y_3B_F0f].bc w:0
_ZN4core4iter6traits8iterator8Iterator8for_each4call17h0ad03cb1a658a361E already exist in ./bitcodes2/image_rs15_812_[Y_3B_F0f].bc w:0
_ZN98_$LT$alloc..vec..Vec$LT$T$GT$$u20$as$u20$alloc..vec..spec_from_iter..SpecFromIter$LT$T$C$I$GT$$GT$9from_iter17h35ff34e0489eb1b7E already exist in ./bitcodes2/image_rs15_812_[Y_3B_F0f].bc w:0
_ZN5image9animation5Frame6buffer17h50094e6e6ad79b5eE already exist in ./bitcodes2/image_rs15_812_[Y_3B_F0f].bc w:0
 Merging module ./bitcodes2/image_rs15_160_[b2fGf_kL].bc
Variants count 676
 Merging module ./bitcodes2/image_rs15_222_[Xefp_3fA].bc
Variants count 677
 Merging module ./bitcodes2/image_rs15_107_[8wbixg75].bc
Variants count 678
_ZN111_$LT$core..iter..adapters..zip..Zip$LT$A$C$B$GT$$u20$as$u20$core..iter..adapters..zip..ZipImpl$LT$A$C$B$GT$$GT$4next17h904ae9a5f7f17e7dE already exist in ./bitcodes2/image_rs15_107_[8wbixg75].bc w:0
_ZN153_$LT$core..result..Result$LT$T$C$F$GT$$u20$as$u20$core..ops..try_trait..FromResidual$LT$core..result..Result$LT$core..convert..Infallible$C$E$GT$$GT$$GT$13from_residual17he99b67180108ca9bE already exist in ./bitcodes2/image_rs15_107_[8wbixg75].bc w:0
_ZN63_$LT$I$u20$as$u20$core..iter..traits..collect..IntoIterator$GT$9into_iter17hf0d7f71adab83d70E already exist in ./bitcodes2/image_rs15_107_[8wbixg75].bc w:0
 Merging module ./bitcodes2/image_rs15_809_[8KHinE1Z].bc
Variants count 679
Variants count 680
 Merging module ./bitcodes2/image_rs15_222_[b4hrM4aU].bc
Variants count 681
 Merging module ./bitcodes2/image_rs15_676_[50MD_XPd].bc
_ZN5image6codecs3tga7decoder19TgaDecoder$LT$R$GT$21is_flipped_vertically17h77aed2b06b6c01daE already exist in ./bitcodes2/image_rs15_676_[50MD_XPd].bc w:0
_ZN5image8dynimage12DynamicImage12from_decoder17h7f14f4ca4650afdfE already exist in ./bitcodes2/image_rs15_676_[50MD_XPd].bc w:0
 Merging module ./bitcodes2/image_rs15_596_[b3Z8B34O].bc
_ZN3png7decoder15Reader$LT$R$GT$19next_interlaced_row17h68379df29e9bf069E already exist in ./bitcodes2/image_rs15_596_[b3Z8B34O].bc w:0
 Merging module ./bitcodes2/image_rs15_3_[bcH_dwV7].bc
Variants count 682
_ZN3png7decoder16Decoder$LT$R$GT$19set_transformations17h3db447a4863900d2E already exist in ./bitcodes2/image_rs15_3_[bcH_dwV7].bc w:0
_ZN5image6codecs3bmp7decoder19BmpDecoder$LT$R$GT$25read_full_byte_pixel_data17he90647b932761bd4E already exist in ./bitcodes2/image_rs15_3_[bcH_dwV7].bc w:0
 Merging module ./bitcodes2/image_rs15_222_[H6OOe7qG].bc
Variants count 683
 Merging module ./bitcodes2/image_rs15_812_[kwTAOLCl].bc
Variants count 684
_ZN4core3ptr9const_ptr33_$LT$impl$u20$$BP$const$u20$T$GT$7is_null17hf11ad46952c36b76E already exist in ./bitcodes2/image_rs15_812_[kwTAOLCl].bc w:0
_ZN4core4iter6traits8iterator8Iterator8for_each4call17h0ad03cb1a658a361E already exist in ./bitcodes2/image_rs15_812_[kwTAOLCl].bc w:0
_ZN98_$LT$alloc..vec..Vec$LT$T$GT$$u20$as$u20$alloc..vec..spec_from_iter..SpecFromIter$LT$T$C$I$GT$$GT$9from_iter17h35ff34e0489eb1b7E already exist in ./bitcodes2/image_rs15_812_[kwTAOLCl].bc w:0
_ZN5image9animation5Frame6buffer17h50094e6e6ad79b5eE already exist in ./bitcodes2/image_rs15_812_[kwTAOLCl].bc w:0
 Merging module ./bitcodes2/image_rs15_886_[69MlYXHS].bc
Variants count 685
_ZN105_$LT$image..color..Rgb$LT$T$GT$$u20$as$u20$image..color..FromColor$LT$image..color..Luma$LT$T$GT$$GT$$GT$10from_color17hfded6d83c20eeff5E already exist in ./bitcodes2/image_rs15_886_[69MlYXHS].bc w:0
 Merging module ./bitcodes2/image_rs15_3_[kaHfomdX].bc
Variants count 686
_ZN3png7decoder16Decoder$LT$R$GT$19set_transformations17h3db447a4863900d2E already exist in ./bitcodes2/image_rs15_3_[kaHfomdX].bc w:0
_ZN5image6codecs3bmp7decoder19BmpDecoder$LT$R$GT$25read_full_byte_pixel_data17he90647b932761bd4E already exist in ./bitcodes2/image_rs15_3_[kaHfomdX].bc w:0
 Merging module ./bitcodes2/image_rs15_222_[ijtYd8rx].bc
Variants count 687
 Merging module ./bitcodes2/image_rs15_222_[O_YfdrPl].bc
Variants count 688
 Merging module ./bitcodes2/image_rs15_3_[KtuKen__].bc
Variants count 689
_ZN3png7decoder16Decoder$LT$R$GT$19set_transformations17h3db447a4863900d2E already exist in ./bitcodes2/image_rs15_3_[KtuKen__].bc w:0
_ZN5image6codecs3bmp7decoder19BmpDecoder$LT$R$GT$25read_full_byte_pixel_data17he90647b932761bd4E already exist in ./bitcodes2/image_rs15_3_[KtuKen__].bc w:0
 Merging module ./bitcodes2/image_rs15_222_[yB_uqZ2R].bc
Variants count 690
 Merging module ./bitcodes2/image_rs15_222_[olUTzwIi].bc
Variants count 691
 Merging module ./bitcodes2/image_rs15_86_[5eSAKTRP][6iTB306c].bc
Variants count 692
 Merging module ./bitcodes2/image_rs15_847_[lwiwRp0j].bc
Variants count 693
_ZN91_$LT$core..slice..iter..Iter$LT$T$GT$$u20$as$u20$core..iter..traits..iterator..Iterator$GT$8position17hbfc0843c92c6878aE already exist in ./bitcodes2/image_rs15_847_[lwiwRp0j].bc w:0
 Merging module ./bitcodes2/image_rs15_3_[1rUzqUrp].bc
Variants count 694
_ZN3png7decoder16Decoder$LT$R$GT$19set_transformations17h3db447a4863900d2E already exist in ./bitcodes2/image_rs15_3_[1rUzqUrp].bc w:0
_ZN5image6codecs3bmp7decoder19BmpDecoder$LT$R$GT$25read_full_byte_pixel_data17he90647b932761bd4E already exist in ./bitcodes2/image_rs15_3_[1rUzqUrp].bc w:0
 Merging module ./bitcodes2/image_rs15_222_[gmS1IvXi].bc
Variants count 695
 Merging module ./bitcodes2/image_rs15_21_[iw1uFb2v].bc
Variants count 696
_ZN5alloc11collections5btree4node137Handle$LT$alloc..collections..btree..node..NodeRef$LT$BorrowType$C$K$C$V$C$NodeType$GT$$C$alloc..collections..btree..node..marker..KV$GT$10right_edge17hc8affa6734f1dd43E already exist in ./bitcodes2/image_rs15_21_[iw1uFb2v].bc w:0
_ZN97_$LT$alloc..vec..Vec$LT$T$C$A$GT$$u20$as$u20$alloc..vec..spec_extend..SpecExtend$LT$T$C$I$GT$$GT$11spec_extend17hef060f9900728987E already exist in ./bitcodes2/image_rs15_21_[iw1uFb2v].bc w:0
_ZN106_$LT$image..color..Rgb$LT$T$GT$$u20$as$u20$image..color..FromColor$LT$image..color..LumaA$LT$T$GT$$GT$$GT$10from_color17h3483d43fbbee6b31E already exist in ./bitcodes2/image_rs15_21_[iw1uFb2v].bc w:0
 Merging module ./bitcodes2/image_rs15_86_[tiXzSZvR].bc
Variants count 697
 Merging module ./bitcodes2/png_rs13_464_[cD3aKAZW][7rkXSbgw][0kviiRsQ][NFy_t_q3][YToQhY25].bc
Variants count 698
 Merging module ./bitcodes2/image_rs15_144_[eozQd23E].bc
Variants count 699
_ZN5image8imageops10crop_dimms17h39cdb411ca80a1b2E already exist in ./bitcodes2/image_rs15_144_[eozQd23E].bc w:0
 Merging module ./bitcodes2/image_rs15_676_[jVqH2dnj].bc
Variants count 700
_ZN5image8dynimage12DynamicImage12from_decoder17h7f14f4ca4650afdfE already exist in ./bitcodes2/image_rs15_676_[jVqH2dnj].bc w:0
 Merging module ./bitcodes2/image_rs15_615_[um0S_LSl].bc
Variants count 701
_ZN4core3ptr8non_null16NonNull$LT$T$GT$13new_unchecked17hf13979bfdc5a69a2E already exist in ./bitcodes2/image_rs15_615_[um0S_LSl].bc w:0
 Merging module ./bitcodes2/png_rs13_626_[TSsRfhI9][ua39YA1o][Ml1Gutis][6XxUrwoo][THXvgQYp].bc
Variants count 702
 Merging module ./bitcodes2/image_rs15_222_[YAGe_qR6].bc
Variants count 703
 Merging module ./bitcodes2/image_rs15_86_[dxBTBVOC].bc
Variants count 704
 Merging module ./bitcodes2/image_rs15_239_[B3ZBEeba].bc
_ZN3gif7encoder16Encoder$LT$W$GT$15write_extension17h31216512db391286E already exist in ./bitcodes2/image_rs15_239_[B3ZBEeba].bc w:0
_ZN4core4iter6traits8iterator8Iterator10max_by_key3key17h7d25e6cf4f733365E already exist in ./bitcodes2/image_rs15_239_[B3ZBEeba].bc w:0
 Merging module ./bitcodes2/image_rs15_895_[ak_85BE_].bc
_ZN4tiff7encoder25ImageEncoder$LT$W$C$T$GT$3new28_$u7b$$u7b$closure$u7d$$u7d$17h5829a8e49adae91fE already exist in ./bitcodes2/image_rs15_895_[ak_85BE_].bc w:0
 Merging module ./bitcodes2/image_rs15_144_[_U4ebyO3].bc
Variants count 705
_ZN5image8imageops10crop_dimms17h39cdb411ca80a1b2E already exist in ./bitcodes2/image_rs15_144_[_U4ebyO3].bc w:0
 Merging module ./bitcodes2/image_rs15_222_[qFI_GJo2].bc
Variants count 706
 Merging module ./bitcodes2/image_rs15_222_[MJ1uVYmu].bc
Variants count 707
 Merging module ./bitcodes2/image_rs15_596_[38UjsMC_].bc
_ZN3png7decoder15Reader$LT$R$GT$19next_interlaced_row17h68379df29e9bf069E already exist in ./bitcodes2/image_rs15_596_[38UjsMC_].bc w:0
 Merging module ./bitcodes2/image_rs15_890_[88gwet7l].bc
_ZN80_$LT$core..str..pattern..StrSearcher$u20$as$u20$core..str..pattern..Searcher$GT$4next17he812986a6604b9f8E already exist in ./bitcodes2/image_rs15_890_[88gwet7l].bc w:0
 Merging module ./bitcodes2/image_rs15_610_[0oO2JapH].bc
Variants count 708
 Merging module ./bitcodes2/image_rs15_112_[61OF0loq].bc
Variants count 709
_ZN4core3ops12control_flow77ControlFlow$LT$R$C$$LT$R$u20$as$u20$core..ops..try_trait..Try$GT$..Output$GT$8from_try17hfa27bd65a5ae5641E already exist in ./bitcodes2/image_rs15_112_[61OF0loq].bc w:0
_ZN5image8imageops8colorops8contrast17he99131cb2798383fE already exist in ./bitcodes2/image_rs15_112_[61OF0loq].bc w:0
 Merging module ./bitcodes2/image_rs15_248_[d5TYaNhN].bc
Variants count 710
_ZN5image6codecs4jpeg7encoder12PixelDensity3dpi17h76e5ade20be76fe1E already exist in ./bitcodes2/image_rs15_248_[d5TYaNhN].bc w:0
 Merging module ./bitcodes2/image_rs15_222_[3gkYqkEl].bc
Variants count 711
 Merging module ./bitcodes2/image_rs15_222_[AGzvsDa4].bc
Variants count 712
 Merging module ./bitcodes2/image_rs15_618_[O0M0wLwo].bc
_ZN79_$LT$core..result..Result$LT$T$C$E$GT$$u20$as$u20$core..ops..try_trait..Try$GT$6branch17h2345af5a05185ac1E already exist in ./bitcodes2/image_rs15_618_[O0M0wLwo].bc w:0
 Merging module ./bitcodes2/image_rs15_222_[H6SOIv0q].bc
Variants count 713
 Merging module ./bitcodes2/image_rs15_615_[wTuVF1dK].bc
Variants count 714
_ZN4core3ptr8non_null16NonNull$LT$T$GT$13new_unchecked17hf13979bfdc5a69a2E already exist in ./bitcodes2/image_rs15_615_[wTuVF1dK].bc w:0
 Merging module ./bitcodes2/image_rs15_3_[xt_XvV0q].bc
Variants count 715
_ZN3png7decoder16Decoder$LT$R$GT$19set_transformations17h3db447a4863900d2E already exist in ./bitcodes2/image_rs15_3_[xt_XvV0q].bc w:0
_ZN5image6codecs3bmp7decoder19BmpDecoder$LT$R$GT$25read_full_byte_pixel_data17he90647b932761bd4E already exist in ./bitcodes2/image_rs15_3_[xt_XvV0q].bc w:0
 Merging module ./bitcodes2/image_rs15_21_[kcoXWIAr].bc
Variants count 716
_ZN5alloc11collections5btree4node137Handle$LT$alloc..collections..btree..node..NodeRef$LT$BorrowType$C$K$C$V$C$NodeType$GT$$C$alloc..collections..btree..node..marker..KV$GT$10right_edge17hc8affa6734f1dd43E already exist in ./bitcodes2/image_rs15_21_[kcoXWIAr].bc w:0
_ZN97_$LT$alloc..vec..Vec$LT$T$C$A$GT$$u20$as$u20$alloc..vec..spec_extend..SpecExtend$LT$T$C$I$GT$$GT$11spec_extend17hef060f9900728987E already exist in ./bitcodes2/image_rs15_21_[kcoXWIAr].bc w:0
_ZN106_$LT$image..color..Rgb$LT$T$GT$$u20$as$u20$image..color..FromColor$LT$image..color..LumaA$LT$T$GT$$GT$$GT$10from_color17h3483d43fbbee6b31E already exist in ./bitcodes2/image_rs15_21_[kcoXWIAr].bc w:0
 Merging module ./bitcodes2/image_rs15_222_[32pTs5FY].bc
Variants count 717
 Merging module ./bitcodes2/image_rs15_676_[C7gtdiCK].bc
Variants count 718
_ZN5image8dynimage12DynamicImage12from_decoder17h7f14f4ca4650afdfE already exist in ./bitcodes2/image_rs15_676_[C7gtdiCK].bc w:0
 Merging module ./bitcodes2/image_rs15_812_[HYCpYcLM].bc
Variants count 719
_ZN4core3ptr9const_ptr33_$LT$impl$u20$$BP$const$u20$T$GT$7is_null17hf11ad46952c36b76E already exist in ./bitcodes2/image_rs15_812_[HYCpYcLM].bc w:0
_ZN4core4iter6traits8iterator8Iterator8for_each4call17h0ad03cb1a658a361E already exist in ./bitcodes2/image_rs15_812_[HYCpYcLM].bc w:0
_ZN98_$LT$alloc..vec..Vec$LT$T$GT$$u20$as$u20$alloc..vec..spec_from_iter..SpecFromIter$LT$T$C$I$GT$$GT$9from_iter17h35ff34e0489eb1b7E already exist in ./bitcodes2/image_rs15_812_[HYCpYcLM].bc w:0
_ZN5image9animation5Frame6buffer17h50094e6e6ad79b5eE already exist in ./bitcodes2/image_rs15_812_[HYCpYcLM].bc w:0
 Merging module ./bitcodes2/image_rs15_890_[0DJTDK1V].bc
Variants count 720
 Merging module ./bitcodes2/image_rs15_248_[AsHUmonQ].bc
Variants count 721
_ZN5image6codecs4jpeg7encoder12PixelDensity3dpi17h76e5ade20be76fe1E already exist in ./bitcodes2/image_rs15_248_[AsHUmonQ].bc w:0
 Merging module ./bitcodes2/image_rs15_87_[vJxYCsTR].bc
Variants count 722
 Merging module ./bitcodes2/image_rs15_676_[_wM3bPJz].bc
Variants count 723
_ZN5image8dynimage12DynamicImage12from_decoder17h7f14f4ca4650afdfE already exist in ./bitcodes2/image_rs15_676_[_wM3bPJz].bc w:0
 Merging module ./bitcodes2/image_rs15_3_[SYaPMY7j].bc
Variants count 724
_ZN3png7decoder16Decoder$LT$R$GT$19set_transformations17h3db447a4863900d2E already exist in ./bitcodes2/image_rs15_3_[SYaPMY7j].bc w:0
_ZN5image6codecs3bmp7decoder19BmpDecoder$LT$R$GT$25read_full_byte_pixel_data17he90647b932761bd4E already exist in ./bitcodes2/image_rs15_3_[SYaPMY7j].bc w:0
 Merging module ./bitcodes2/image_rs15_222_[dHcqhWYe].bc
Variants count 725
 Merging module ./bitcodes2/image_rs15_215_[SRRRmyZ5].bc
Variants count 726
 Merging module ./bitcodes2/image_rs15_791_[ShSr1X4W].bc
_ZN4core3fmt3num49_$LT$impl$u20$core..fmt..Debug$u20$for$u20$u8$GT$3fmt17h9b13b8336b79af1fE already exist in ./bitcodes2/image_rs15_791_[ShSr1X4W].bc w:0
 Merging module ./bitcodes2/image_rs15_78_[ymyh6WHC].bc
Variants count 727
_ZN4tiff7decoder3ifd5Entry13decode_offset17h10f22d8c5f7ba5ffE already exist in ./bitcodes2/image_rs15_78_[ymyh6WHC].bc w:0
_ZN98_$LT$alloc..vec..Vec$LT$T$GT$$u20$as$u20$alloc..vec..spec_from_iter..SpecFromIter$LT$T$C$I$GT$$GT$9from_iter17h81fc7b7cb1966dbcE already exist in ./bitcodes2/image_rs15_78_[ymyh6WHC].bc w:0
 Merging module ./bitcodes2/image_rs15_78_[G5DIViIC].bc
Variants count 728
_ZN4tiff7decoder3ifd5Entry13decode_offset17h10f22d8c5f7ba5ffE already exist in ./bitcodes2/image_rs15_78_[G5DIViIC].bc w:0
_ZN98_$LT$alloc..vec..Vec$LT$T$GT$$u20$as$u20$alloc..vec..spec_from_iter..SpecFromIter$LT$T$C$I$GT$$GT$9from_iter17h81fc7b7cb1966dbcE already exist in ./bitcodes2/image_rs15_78_[G5DIViIC].bc w:0
 Merging module ./bitcodes2/image_rs15_86_[HLmVOrmP].bc
Variants count 729
 Merging module ./bitcodes2/image_rs15_222_[DiEe6WoH].bc
Variants count 730
 Merging module ./bitcodes2/png_rs13_569_[QNosDrph].bc
Variants count 731
 Merging module ./bitcodes2/image_rs15_880_[pqepdxp4].bc
_ZN5alloc7raw_vec19RawVec$LT$T$C$A$GT$11allocate_in17hd8b1a6075d764de3E already exist in ./bitcodes2/image_rs15_880_[pqepdxp4].bc w:0
 Merging module ./bitcodes2/image_rs15_222_[IkUdvqTf].bc
Variants count 732
 Merging module ./bitcodes2/image_rs15_829_[v033ahUI].bc
Variants count 733
 Merging module ./bitcodes2/image_rs15_142_[ghg87VKj].bc
Variants count 734
_ZN97_$LT$alloc..vec..Vec$LT$T$C$A$GT$$u20$as$u20$alloc..vec..spec_extend..SpecExtend$LT$T$C$I$GT$$GT$11spec_extend17h23e2afbd79d2bf65E already exist in ./bitcodes2/image_rs15_142_[ghg87VKj].bc w:0
 Merging module ./bitcodes2/image_rs15_142_[NMGreUAC].bc
Variants count 735
_ZN97_$LT$alloc..vec..Vec$LT$T$C$A$GT$$u20$as$u20$alloc..vec..spec_extend..SpecExtend$LT$T$C$I$GT$$GT$11spec_extend17h23e2afbd79d2bf65E already exist in ./bitcodes2/image_rs15_142_[NMGreUAC].bc w:0
 Merging module ./bitcodes2/image_rs15_676_[XDp0XHUt].bc
Variants count 736
_ZN5image8dynimage12DynamicImage12from_decoder17h7f14f4ca4650afdfE already exist in ./bitcodes2/image_rs15_676_[XDp0XHUt].bc w:0
 Merging module ./bitcodes2/image_rs15_222_[uqLVn5Mq].bc
Variants count 737
 Merging module ./bitcodes2/image_rs15_222_[9lq_BF9U].bc
Variants count 738
 Merging module ./bitcodes2/image_rs15_222_[f0O4dInA].bc
Variants count 739
 Merging module ./bitcodes2/image_rs15_86_[GZNcgoFR].bc
Variants count 740
 Merging module ./bitcodes2/image_rs15_539_[oWpPKqnq].bc
Variants count 741
 Merging module ./bitcodes2/image_rs15_222_[4f8Uw6Gh].bc
Variants count 742
 Merging module ./bitcodes2/image_rs15_3_[TBEOVUGI].bc
Variants count 743
_ZN3png7decoder16Decoder$LT$R$GT$19set_transformations17h3db447a4863900d2E already exist in ./bitcodes2/image_rs15_3_[TBEOVUGI].bc w:0
_ZN5image6codecs3bmp7decoder19BmpDecoder$LT$R$GT$25read_full_byte_pixel_data17he90647b932761bd4E already exist in ./bitcodes2/image_rs15_3_[TBEOVUGI].bc w:0
 Merging module ./bitcodes2/image_rs15_684_[wgehocc_].bc
Variants count 744
_ZN97_$LT$alloc..vec..Vec$LT$T$C$A$GT$$u20$as$u20$alloc..vec..spec_extend..SpecExtend$LT$T$C$I$GT$$GT$11spec_extend28_$u7b$$u7b$closure$u7d$$u7d$17h96619b169d7d8ec9E already exist in ./bitcodes2/image_rs15_684_[wgehocc_].bc w:0
 Merging module ./bitcodes2/png_rs13_2745_[NIygd20Z][L4jzmU2W][DUh9RTa_][DUPVM9JP][HNJ9c0Vg].bc
_ZN130_$LT$png..common..Transformations$u20$as$u20$$LT$png..common..Transformations$u20$as$u20$core..fmt..Debug$GT$..fmt..__BitFlags$GT$8IDENTITY17h975fe46c9f22a26dE already exist in ./bitcodes2/png_rs13_2745_[NIygd20Z][L4jzmU2W][DUh9RTa_][DUPVM9JP][HNJ9c0Vg].bc w:0
 Merging module ./bitcodes2/image_rs15_86_[QJ6trh14].bc
Variants count 745
 Merging module ./bitcodes2/image_rs15_222_[Jixg7PBU].bc
Variants count 746
 Merging module ./bitcodes2/image_rs15_826_[tDxyOHIo].bc
Variants count 747
 Merging module ./bitcodes2/image_rs15_222_[j0kpXMAn].bc
Variants count 748
 Merging module ./bitcodes2/image_rs15_615_[6T_S0_mK].bc
Variants count 749
_ZN4core3ptr8non_null16NonNull$LT$T$GT$13new_unchecked17hf13979bfdc5a69a2E already exist in ./bitcodes2/image_rs15_615_[6T_S0_mK].bc w:0
 Merging module ./bitcodes2/image_rs15_3_[s1RHNH0c].bc
Variants count 750
_ZN3png7decoder16Decoder$LT$R$GT$19set_transformations17h3db447a4863900d2E already exist in ./bitcodes2/image_rs15_3_[s1RHNH0c].bc w:0
_ZN5image6codecs3bmp7decoder19BmpDecoder$LT$R$GT$25read_full_byte_pixel_data17he90647b932761bd4E already exist in ./bitcodes2/image_rs15_3_[s1RHNH0c].bc w:0
 Merging module ./bitcodes2/image_rs15_847_[dk1Ih5g3].bc
Variants count 751
_ZN91_$LT$core..slice..iter..Iter$LT$T$GT$$u20$as$u20$core..iter..traits..iterator..Iterator$GT$8position17hbfc0843c92c6878aE already exist in ./bitcodes2/image_rs15_847_[dk1Ih5g3].bc w:0
 Merging module ./bitcodes2/image_rs15_212_[w6jX0SlG].bc
Variants count 752
 Merging module ./bitcodes2/image_rs15_222_[3QBXsMWk].bc
Variants count 753
 Merging module ./bitcodes2/image_rs15_142_[ClllfcME].bc
Variants count 754
_ZN97_$LT$alloc..vec..Vec$LT$T$C$A$GT$$u20$as$u20$alloc..vec..spec_extend..SpecExtend$LT$T$C$I$GT$$GT$11spec_extend17h23e2afbd79d2bf65E already exist in ./bitcodes2/image_rs15_142_[ClllfcME].bc w:0
 Merging module ./bitcodes2/image_rs15_222_[_LLZDUk3].bc
Variants count 755
 Merging module ./bitcodes2/image_rs15_107_[GdBmYuKg].bc
Variants count 756
_ZN111_$LT$core..iter..adapters..zip..Zip$LT$A$C$B$GT$$u20$as$u20$core..iter..adapters..zip..ZipImpl$LT$A$C$B$GT$$GT$4next17h904ae9a5f7f17e7dE already exist in ./bitcodes2/image_rs15_107_[GdBmYuKg].bc w:0
_ZN153_$LT$core..result..Result$LT$T$C$F$GT$$u20$as$u20$core..ops..try_trait..FromResidual$LT$core..result..Result$LT$core..convert..Infallible$C$E$GT$$GT$$GT$13from_residual17he99b67180108ca9bE already exist in ./bitcodes2/image_rs15_107_[GdBmYuKg].bc w:0
_ZN63_$LT$I$u20$as$u20$core..iter..traits..collect..IntoIterator$GT$9into_iter17hf0d7f71adab83d70E already exist in ./bitcodes2/image_rs15_107_[GdBmYuKg].bc w:0
 Merging module ./bitcodes2/image_rs15_142_[Nve20_FL].bc
Variants count 757
_ZN97_$LT$alloc..vec..Vec$LT$T$C$A$GT$$u20$as$u20$alloc..vec..spec_extend..SpecExtend$LT$T$C$I$GT$$GT$11spec_extend17h23e2afbd79d2bf65E already exist in ./bitcodes2/image_rs15_142_[Nve20_FL].bc w:0
 Merging module ./bitcodes2/image_rs15_222_[tOluUDis].bc
Variants count 758
 Merging module ./bitcodes2/image_rs15_222_[DdWOYSbq].bc
Variants count 759
 Merging module ./bitcodes2/image_rs15_86_[C3_TuKEN].bc
Variants count 760
 Merging module ./bitcodes2/image_rs15_112_[3DeBEqSd].bc
Variants count 761
_ZN4core3ops12control_flow77ControlFlow$LT$R$C$$LT$R$u20$as$u20$core..ops..try_trait..Try$GT$..Output$GT$8from_try17hfa27bd65a5ae5641E already exist in ./bitcodes2/image_rs15_112_[3DeBEqSd].bc w:0
_ZN5image8imageops8colorops8contrast17he99131cb2798383fE already exist in ./bitcodes2/image_rs15_112_[3DeBEqSd].bc w:0
 Merging module ./bitcodes2/image_rs15_233_[C6yrip9_].bc
Variants count 762
_ZN5image6codecs4jpeg7encoder18BitWriter$LT$W$GT$13write_segment17h1f584c4ee0ce62ecE already exist in ./bitcodes2/image_rs15_233_[C6yrip9_].bc w:0
 Merging module ./bitcodes2/png_rs13_17_[uYVOoqO3][TGDxN7qe][Nyrc3GfX][dPZ_cUTA].bc
Variants count 763
 Merging module ./bitcodes2/image_rs15_208_[_vH4g1aY].bc
Variants count 764
 Merging module ./bitcodes2/image_rs15_676_[7CxVd2c0].bc
Variants count 765
_ZN5image8dynimage12DynamicImage12from_decoder17h7f14f4ca4650afdfE already exist in ./bitcodes2/image_rs15_676_[7CxVd2c0].bc w:0
 Merging module ./bitcodes2/image_rs15_222_[9u2_Y_Q1].bc
Variants count 766
 Merging module ./bitcodes2/image_rs15_3_[xmHiQ13T].bc
Variants count 767
_ZN3png7decoder16Decoder$LT$R$GT$19set_transformations17h3db447a4863900d2E already exist in ./bitcodes2/image_rs15_3_[xmHiQ13T].bc w:0
_ZN5image6codecs3bmp7decoder19BmpDecoder$LT$R$GT$25read_full_byte_pixel_data17he90647b932761bd4E already exist in ./bitcodes2/image_rs15_3_[xmHiQ13T].bc w:0
 Merging module ./bitcodes2/image_rs15_3_[391R3tGc].bc
Variants count 768
_ZN3png7decoder16Decoder$LT$R$GT$19set_transformations17h3db447a4863900d2E already exist in ./bitcodes2/image_rs15_3_[391R3tGc].bc w:0
_ZN5image6codecs3bmp7decoder19BmpDecoder$LT$R$GT$25read_full_byte_pixel_data17he90647b932761bd4E already exist in ./bitcodes2/image_rs15_3_[391R3tGc].bc w:0
 Merging module ./bitcodes2/image_rs15_233_[ev22tJi8].bc
Variants count 769
_ZN5image6codecs4jpeg7encoder18BitWriter$LT$W$GT$13write_segment17h1f584c4ee0ce62ecE already exist in ./bitcodes2/image_rs15_233_[ev22tJi8].bc w:0
 Merging module ./bitcodes2/image_rs15_222_[FmIpSUyV].bc
Variants count 770
 Merging module ./bitcodes2/image_rs15_897_[Ju2Wu1mJ].bc
_ZN8bytemuck14cast_slice_mut17h4023ac7a00be0a7eE already exist in ./bitcodes2/image_rs15_897_[Ju2Wu1mJ].bc w:0
_ZN94_$LT$core..slice..iter..IterMut$LT$T$GT$$u20$as$u20$core..iter..traits..iterator..Iterator$GT$24__iterator_get_unchecked17h58b6afa0e8024274E already exist in ./bitcodes2/image_rs15_897_[Ju2Wu1mJ].bc w:0
_ZN236_$LT$image..buffer_..ImageBuffer$LT$FromType$C$Container$GT$$u20$as$u20$image..buffer_..ConvertBuffer$LT$image..buffer_..ImageBuffer$LT$ToType$C$alloc..vec..Vec$LT$$LT$ToType$u20$as$u20$image..traits..Pixel$GT$..Subpixel$GT$$GT$$GT$$GT$7convert17he398e278debce516E already exist in ./bitcodes2/image_rs15_897_[Ju2Wu1mJ].bc w:0
 Merging module ./bitcodes2/image_rs15_222_[Cyi9tRcE].bc
Variants count 771
 Merging module ./bitcodes2/image_rs15_142_[qaptGLuS].bc
Variants count 772
_ZN97_$LT$alloc..vec..Vec$LT$T$C$A$GT$$u20$as$u20$alloc..vec..spec_extend..SpecExtend$LT$T$C$I$GT$$GT$11spec_extend17h23e2afbd79d2bf65E already exist in ./bitcodes2/image_rs15_142_[qaptGLuS].bc w:0
 Merging module ./bitcodes2/image_rs15_825_[lfiLQnRG].bc
_ZN5image6codecs3ico7decoder12read_entries17h1ec3cbec3442b257E already exist in ./bitcodes2/image_rs15_825_[lfiLQnRG].bc w:0
 Merging module ./bitcodes2/image_rs15_3_[2cATDO_s].bc
Variants count 773
_ZN3png7decoder16Decoder$LT$R$GT$19set_transformations17h3db447a4863900d2E already exist in ./bitcodes2/image_rs15_3_[2cATDO_s].bc w:0
_ZN5image6codecs3bmp7decoder19BmpDecoder$LT$R$GT$25read_full_byte_pixel_data17he90647b932761bd4E already exist in ./bitcodes2/image_rs15_3_[2cATDO_s].bc w:0
 Merging module ./bitcodes2/image_rs15_215_[NrdI0dra].bc
Variants count 774
 Merging module ./bitcodes2/image_rs15_222_[SOT8ldOV].bc
Variants count 775
 Merging module ./bitcodes2/image_rs15_222_[OLNDkSio].bc
Variants count 776
 Merging module ./bitcodes2/image_rs15_222_[rb7og0ZM].bc
Variants count 777
 Merging module ./bitcodes2/image_rs15_676_[6jCBYWfB].bc
Variants count 778
_ZN5image8dynimage12DynamicImage12from_decoder17h7f14f4ca4650afdfE already exist in ./bitcodes2/image_rs15_676_[6jCBYWfB].bc w:0
 Merging module ./bitcodes2/image_rs15_233_[Jy76w1mI].bc
Variants count 779
_ZN5image6codecs4jpeg7encoder18BitWriter$LT$W$GT$13write_segment17h1f584c4ee0ce62ecE already exist in ./bitcodes2/image_rs15_233_[Jy76w1mI].bc w:0
 Merging module ./bitcodes2/image_rs15_843_[41l1N6W0].bc
Variants count 780
_ZN5image7buffer_32ImageBuffer$LT$P$C$Container$GT$16check_image_fits17h89836d9f979b2413E already exist in ./bitcodes2/image_rs15_843_[41l1N6W0].bc w:0
_ZN5image5image16GenericImageView5width17hc8a2a9f5f4c99d2bE already exist in ./bitcodes2/image_rs15_843_[41l1N6W0].bc w:0
 Merging module ./bitcodes2/image_rs15_107_[lqKCwxXm].bc
Variants count 781
_ZN111_$LT$core..iter..adapters..zip..Zip$LT$A$C$B$GT$$u20$as$u20$core..iter..adapters..zip..ZipImpl$LT$A$C$B$GT$$GT$4next17h904ae9a5f7f17e7dE already exist in ./bitcodes2/image_rs15_107_[lqKCwxXm].bc w:0
_ZN153_$LT$core..result..Result$LT$T$C$F$GT$$u20$as$u20$core..ops..try_trait..FromResidual$LT$core..result..Result$LT$core..convert..Infallible$C$E$GT$$GT$$GT$13from_residual17he99b67180108ca9bE already exist in ./bitcodes2/image_rs15_107_[lqKCwxXm].bc w:0
_ZN63_$LT$I$u20$as$u20$core..iter..traits..collect..IntoIterator$GT$9into_iter17hf0d7f71adab83d70E already exist in ./bitcodes2/image_rs15_107_[lqKCwxXm].bc w:0
 Merging module ./bitcodes2/image_rs15_222_[0oZyycNr].bc
Variants count 782
 Merging module ./bitcodes2/image_rs15_222_[1OMeGoIK].bc
Variants count 783
 Merging module ./bitcodes2/image_rs15_840_[OBldcZxM].bc
Variants count 784
_ZN4core3ptr1301drop_in_place$LT$core..iter..adapters..map..map_fold$LT$$LP$core..option..Option$LT$jpeg_decoder..huffman..HuffmanTable$GT$$C$core..option..Option$LT$jpeg_decoder..huffman..HuffmanTable$GT$$RP$$C$core..option..Option$LT$jpeg_decoder..huffman..HuffmanTable$GT$$C$$LP$$RP$$C$jpeg_decoder..decoder..Decoder$LT$std..io..buffered..bufreader..BufReader$LT$std..fs..File$GT$$GT$..decode_internal..$u7b$$u7b$closure$u7d$$u7d$$C$core..iter..traits..iterator..Iterator..for_each..call$LT$core..option..Option$LT$jpeg_decoder..huffman..HuffmanTable$GT$$C$$LT$alloc..vec..Vec$LT$core..option..Option$LT$jpeg_decoder..huffman..HuffmanTable$GT$$GT$$u20$as$u20$alloc..vec..spec_extend..SpecExtend$LT$core..option..Option$LT$jpeg_decoder..huffman..HuffmanTable$GT$$C$core..iter..adapters..map..Map$LT$core..iter..adapters..zip..Zip$LT$alloc..vec..into_iter..IntoIter$LT$core..option..Option$LT$jpeg_decoder..huffman..HuffmanTable$GT$$GT$$C$alloc..vec..into_iter..IntoIter$LT$core..option..Option$LT$jpeg_decoder..huffman..HuffmanTable$GT$$GT$$GT$$C$jpeg_decoder..decoder..Decoder$LT$std..io..buffered..bufreader..BufReader$LT$std..fs..File$GT$$GT$..decode_internal..$u7b$$u7b$closure$u7d$$u7d$$GT$$GT$$GT$..spec_extend..$u7b$$u7b$closure$u7d$$u7d$$GT$..$u7b$$u7b$closure$u7d$$u7d$$GT$..$u7b$$u7b$closure$u7d$$u7d$$GT$17h43f18c2da6dc3c94E already exist in ./bitcodes2/image_rs15_840_[OBldcZxM].bc w:0
 Merging module ./bitcodes2/image_rs15_86_[HBeHbQwx].bc
Variants count 785
 Merging module ./bitcodes2/image_rs15_222_[RfecfUxK].bc
Variants count 786
 Merging module ./bitcodes2/image_rs15_239_[pvKUiHOV].bc
Variants count 787
_ZN4core4iter6traits8iterator8Iterator10max_by_key3key17h7d25e6cf4f733365E already exist in ./bitcodes2/image_rs15_239_[pvKUiHOV].bc w:0
 Merging module ./bitcodes2/png_rs13_464_[esyvxIw0][SmFWfTVP][3tTzjcDO][t2iqJoZ3][mvLKV6VX].bc
Variants count 788
 Merging module ./bitcodes2/image_rs15_222_[QzXneyHq].bc
Variants count 789
 Merging module ./bitcodes2/image_rs15_248_[XmcDVoXC].bc
Variants count 790
_ZN5image6codecs4jpeg7encoder12PixelDensity3dpi17h76e5ade20be76fe1E already exist in ./bitcodes2/image_rs15_248_[XmcDVoXC].bc w:0
 Merging module ./bitcodes2/image_rs15_899_[H_s_Ad1L].bc
Variants count 791
Variants count 792
Variants count 793
Variants count 794
 Merging module ./bitcodes2/png_rs13_169_[t9MnaSOc][UT_L6RVN][RPtrhsX7].bc
Variants count 795
 Merging module ./bitcodes2/image_rs15_222_[df1rsMXy].bc
Variants count 796
 Merging module ./bitcodes2/image_rs15_222_[E2WJW1lS].bc
Variants count 797
 Merging module ./bitcodes2/image_rs15_222_[2VHo_wd8].bc
Variants count 798
 Merging module ./bitcodes2/image_rs15_812_[wZb5ZtUP].bc
Variants count 799
_ZN4core3ptr9const_ptr33_$LT$impl$u20$$BP$const$u20$T$GT$7is_null17hf11ad46952c36b76E already exist in ./bitcodes2/image_rs15_812_[wZb5ZtUP].bc w:0
_ZN4core4iter6traits8iterator8Iterator8for_each4call17h0ad03cb1a658a361E already exist in ./bitcodes2/image_rs15_812_[wZb5ZtUP].bc w:0
_ZN98_$LT$alloc..vec..Vec$LT$T$GT$$u20$as$u20$alloc..vec..spec_from_iter..SpecFromIter$LT$T$C$I$GT$$GT$9from_iter17h35ff34e0489eb1b7E already exist in ./bitcodes2/image_rs15_812_[wZb5ZtUP].bc w:0
_ZN5image9animation5Frame6buffer17h50094e6e6ad79b5eE already exist in ./bitcodes2/image_rs15_812_[wZb5ZtUP].bc w:0
 Merging module ./bitcodes2/image_rs15_222_[iFLk8yrI].bc
Variants count 800
 Merging module ./bitcodes2/image_rs15_897_[dpCleLT6].bc
Variants count 801
_ZN94_$LT$core..slice..iter..IterMut$LT$T$GT$$u20$as$u20$core..iter..traits..iterator..Iterator$GT$24__iterator_get_unchecked17h58b6afa0e8024274E already exist in ./bitcodes2/image_rs15_897_[dpCleLT6].bc w:0
_ZN236_$LT$image..buffer_..ImageBuffer$LT$FromType$C$Container$GT$$u20$as$u20$image..buffer_..ConvertBuffer$LT$image..buffer_..ImageBuffer$LT$ToType$C$alloc..vec..Vec$LT$$LT$ToType$u20$as$u20$image..traits..Pixel$GT$..Subpixel$GT$$GT$$GT$$GT$7convert17he398e278debce516E already exist in ./bitcodes2/image_rs15_897_[dpCleLT6].bc w:0
 Merging module ./bitcodes2/image_rs15_222_[oK48jAVo].bc
Variants count 802
 Merging module ./bitcodes2/image_rs15_80_[jOMjf6_n].bc
Variants count 803
_ZN4core3ptr104drop_in_place$LT$alloc..raw_vec..RawVec$LT$$LP$alloc..string..String$C$alloc..string..String$RP$$GT$$GT$17hb0979317a97b05b1E already exist in ./bitcodes2/image_rs15_80_[jOMjf6_n].bc w:0
 Merging module ./bitcodes2/image_rs15_86_[pOEhY3PH].bc
Variants count 804
 Merging module ./bitcodes2/image_rs15_222_[Va2coiAW].bc
Variants count 805
 Merging module ./bitcodes2/png_rs13_2897_[mUD7knrs][JQU7wBqj].bc
_ZN4core6option15Option$LT$T$GT$6as_mut17hf71675d610d15f3fE already exist in ./bitcodes2/png_rs13_2897_[mUD7knrs][JQU7wBqj].bc w:0
 Merging module ./bitcodes2/image_rs15_200_[FbECFmWu].bc
Variants count 806
 Merging module ./bitcodes2/image_rs15_215_[2_C2KyNo].bc
Variants count 807
 Merging module ./bitcodes2/image_rs15_3_[7_z63ulu].bc
Variants count 808
_ZN3png7decoder16Decoder$LT$R$GT$19set_transformations17h3db447a4863900d2E already exist in ./bitcodes2/image_rs15_3_[7_z63ulu].bc w:0
_ZN5image6codecs3bmp7decoder19BmpDecoder$LT$R$GT$25read_full_byte_pixel_data17he90647b932761bd4E already exist in ./bitcodes2/image_rs15_3_[7_z63ulu].bc w:0
 Merging module ./bitcodes2/image_rs15_222_[TxiFm3SU].bc
Variants count 809
 Merging module ./bitcodes2/image_rs15_222_[x5RynixB].bc
Variants count 810
 Merging module ./bitcodes2/image_rs15_222_[JEEbMjXa].bc
Variants count 811
 Merging module ./bitcodes2/image_rs15_496_[r2c2Hlr6].bc
Variants count 812
 Merging module ./bitcodes2/image_rs15_112_[VM9isrIv].bc
Variants count 813
_ZN4core3ops12control_flow77ControlFlow$LT$R$C$$LT$R$u20$as$u20$core..ops..try_trait..Try$GT$..Output$GT$8from_try17hfa27bd65a5ae5641E already exist in ./bitcodes2/image_rs15_112_[VM9isrIv].bc w:0
_ZN5image8imageops8colorops8contrast17he99131cb2798383fE already exist in ./bitcodes2/image_rs15_112_[VM9isrIv].bc w:0
 Merging module ./bitcodes2/image_rs15_676_[1bVZkFEb].bc
Variants count 814
_ZN5image8dynimage12DynamicImage12from_decoder17h7f14f4ca4650afdfE already exist in ./bitcodes2/image_rs15_676_[1bVZkFEb].bc w:0
 Merging module ./bitcodes2/image_rs15_107_[fmCrpAHr].bc
Variants count 815
_ZN111_$LT$core..iter..adapters..zip..Zip$LT$A$C$B$GT$$u20$as$u20$core..iter..adapters..zip..ZipImpl$LT$A$C$B$GT$$GT$4next17h904ae9a5f7f17e7dE already exist in ./bitcodes2/image_rs15_107_[fmCrpAHr].bc w:0
_ZN153_$LT$core..result..Result$LT$T$C$F$GT$$u20$as$u20$core..ops..try_trait..FromResidual$LT$core..result..Result$LT$core..convert..Infallible$C$E$GT$$GT$$GT$13from_residual17he99b67180108ca9bE already exist in ./bitcodes2/image_rs15_107_[fmCrpAHr].bc w:0
_ZN63_$LT$I$u20$as$u20$core..iter..traits..collect..IntoIterator$GT$9into_iter17hf0d7f71adab83d70E already exist in ./bitcodes2/image_rs15_107_[fmCrpAHr].bc w:0
 Merging module ./bitcodes2/png_rs13_169_[FlMO6Hh2][fpaYkpGV][Hi4F4FCA].bc
Variants count 816
 Merging module ./bitcodes2/png_rs13_175_[O5qlu3A0].bc
_ZN4core10intrinsics4copy17h1dd5756d1317fb5dE already exist in ./bitcodes2/png_rs13_175_[O5qlu3A0].bc w:0
 Merging module ./bitcodes2/image_rs15_78_[5KK0SQD8][pMV6dnkf][jP7QH_va].bc
Variants count 817
_ZN4tiff7decoder3ifd5Entry13decode_offset17h10f22d8c5f7ba5ffE already exist in ./bitcodes2/image_rs15_78_[5KK0SQD8][pMV6dnkf][jP7QH_va].bc w:0
_ZN98_$LT$alloc..vec..Vec$LT$T$GT$$u20$as$u20$alloc..vec..spec_from_iter..SpecFromIter$LT$T$C$I$GT$$GT$9from_iter17h81fc7b7cb1966dbcE already exist in ./bitcodes2/image_rs15_78_[5KK0SQD8][pMV6dnkf][jP7QH_va].bc w:0
 Merging module ./bitcodes2/png_rs13_464_[fbD14cIP][uVO6tfaX][vCbI2pLY][t31kkAwx][pP0PGXSq].bc
Variants count 818
 Merging module ./bitcodes2/image_rs15_222_[LuVhY8Dp].bc
Variants count 819
 Merging module ./bitcodes2/image_rs15_615_[J_HJvCK_].bc
Variants count 820
_ZN4core3ptr8non_null16NonNull$LT$T$GT$13new_unchecked17hf13979bfdc5a69a2E already exist in ./bitcodes2/image_rs15_615_[J_HJvCK_].bc w:0
 Merging module ./bitcodes2/image_rs15_847_[dWGFT1PO].bc
Variants count 821
_ZN91_$LT$core..slice..iter..Iter$LT$T$GT$$u20$as$u20$core..iter..traits..iterator..Iterator$GT$8position17hbfc0843c92c6878aE already exist in ./bitcodes2/image_rs15_847_[dWGFT1PO].bc w:0
 Merging module ./bitcodes2/image_rs15_215_[OJdmXSNT].bc
Variants count 822
 Merging module ./bitcodes2/image_rs15_506_[2f0dlsre].bc
_ZN95_$LT$alloc..vec..Vec$LT$T$GT$$u20$as$u20$core..iter..traits..collect..FromIterator$LT$T$GT$$GT$9from_iter17h7e8ec2f900e88a52E already exist in ./bitcodes2/image_rs15_506_[2f0dlsre].bc w:0
_ZN4core3cmp5impls69_$LT$impl$u20$core..cmp..PartialEq$LT$$RF$B$GT$$u20$for$u20$$RF$A$GT$2ne17hda992074c04757ffE already exist in ./bitcodes2/image_rs15_506_[2f0dlsre].bc w:0
Variants count 823
 Merging module ./bitcodes2/image_rs15_222_[7G99Cmv1].bc
Variants count 824
 Merging module ./bitcodes2/image_rs15_222_[QmN5kfCd].bc
Variants count 825
 Merging module ./bitcodes2/image_rs15_222_[jw3k1j4f].bc
Variants count 826
 Merging module ./bitcodes2/image_rs15_125_[oqnJFLYw].bc
Variants count 827
_ZN4core4iter8adapters3map16Map$LT$I$C$F$GT$3new17h4fbee63e29420067E already exist in ./bitcodes2/image_rs15_125_[oqnJFLYw].bc w:0
_ZN5image8imageops6affine8rotate9017h07814081b1ddd323E already exist in ./bitcodes2/image_rs15_125_[oqnJFLYw].bc w:0
 Merging module ./bitcodes2/image_rs15_80_[eVHb9Gxl].bc
Variants count 828
_ZN4core3ptr104drop_in_place$LT$alloc..raw_vec..RawVec$LT$$LP$alloc..string..String$C$alloc..string..String$RP$$GT$$GT$17hb0979317a97b05b1E already exist in ./bitcodes2/image_rs15_80_[eVHb9Gxl].bc w:0
 Merging module ./bitcodes2/image_rs15_829_[5mSSxF8i].bc
Variants count 829
 Merging module ./bitcodes2/image_rs15_222_[F5u7dHm6].bc
Variants count 830
 Merging module ./bitcodes2/image_rs15_248_[0HwZflGn].bc
Variants count 831
_ZN5image6codecs4jpeg7encoder12PixelDensity3dpi17h76e5ade20be76fe1E already exist in ./bitcodes2/image_rs15_248_[0HwZflGn].bc w:0
 Merging module ./bitcodes2/image_rs15_222_[rU8XBMtO].bc
Variants count 832
 Merging module ./bitcodes2/image_rs15_610_[Zs6elSdm].bc
Variants count 833
 Merging module ./bitcodes2/image_rs15_605_[zPzogLrz].bc
Variants count 834
 Merging module ./bitcodes2/image_rs15_3_[AnvB7oLh].bc
Variants count 835
_ZN3png7decoder16Decoder$LT$R$GT$19set_transformations17h3db447a4863900d2E already exist in ./bitcodes2/image_rs15_3_[AnvB7oLh].bc w:0
_ZN5image6codecs3bmp7decoder19BmpDecoder$LT$R$GT$25read_full_byte_pixel_data17he90647b932761bd4E already exist in ./bitcodes2/image_rs15_3_[AnvB7oLh].bc w:0
 Merging module ./bitcodes2/image_rs15_884_[Nxe2GdQP].bc
_ZN4core6option15Option$LT$T$GT$10ok_or_else17h714edbb4d408b0d8E already exist in ./bitcodes2/image_rs15_884_[Nxe2GdQP].bc w:0
 Merging module ./bitcodes2/image_rs15_222_[BswURnOz].bc
Variants count 836
 Merging module ./bitcodes2/image_rs15_125_[XuzdlylD].bc
Variants count 837
_ZN4core4iter8adapters3map16Map$LT$I$C$F$GT$3new17h4fbee63e29420067E already exist in ./bitcodes2/image_rs15_125_[XuzdlylD].bc w:0
_ZN5image8imageops6affine8rotate9017h07814081b1ddd323E already exist in ./bitcodes2/image_rs15_125_[XuzdlylD].bc w:0
 Merging module ./bitcodes2/image_rs15_605_[kEw9cXcD].bc
Variants count 838
 Merging module ./bitcodes2/image_rs15_125_[tMbLhEuy].bc
Variants count 839
_ZN4core4iter8adapters3map16Map$LT$I$C$F$GT$3new17h4fbee63e29420067E already exist in ./bitcodes2/image_rs15_125_[tMbLhEuy].bc w:0
_ZN5image8imageops6affine8rotate9017h07814081b1ddd323E already exist in ./bitcodes2/image_rs15_125_[tMbLhEuy].bc w:0
 Merging module ./bitcodes2/image_rs15_3_[iA6P6EQa].bc
Variants count 840
_ZN3png7decoder16Decoder$LT$R$GT$19set_transformations17h3db447a4863900d2E already exist in ./bitcodes2/image_rs15_3_[iA6P6EQa].bc w:0
_ZN5image6codecs3bmp7decoder19BmpDecoder$LT$R$GT$25read_full_byte_pixel_data17he90647b932761bd4E already exist in ./bitcodes2/image_rs15_3_[iA6P6EQa].bc w:0
 Merging module ./bitcodes2/image_rs15_222_[4TCvQxw8].bc
Variants count 841
 Merging module ./bitcodes2/image_rs15_676_[TF2GZSxi].bc
Variants count 842
_ZN5image8dynimage12DynamicImage12from_decoder17h7f14f4ca4650afdfE already exist in ./bitcodes2/image_rs15_676_[TF2GZSxi].bc w:0
 Merging module ./bitcodes2/image_rs15_676_[EKYPVNT9].bc
_ZN5image6codecs3tga7decoder19TgaDecoder$LT$R$GT$21is_flipped_vertically17h77aed2b06b6c01daE already exist in ./bitcodes2/image_rs15_676_[EKYPVNT9].bc w:0
_ZN5image8dynimage12DynamicImage12from_decoder17h7f14f4ca4650afdfE already exist in ./bitcodes2/image_rs15_676_[EKYPVNT9].bc w:0
 Merging module ./bitcodes2/image_rs15_21_[q4ygkVAO].bc
Variants count 843
_ZN5alloc11collections5btree4node137Handle$LT$alloc..collections..btree..node..NodeRef$LT$BorrowType$C$K$C$V$C$NodeType$GT$$C$alloc..collections..btree..node..marker..KV$GT$10right_edge17hc8affa6734f1dd43E already exist in ./bitcodes2/image_rs15_21_[q4ygkVAO].bc w:0
_ZN97_$LT$alloc..vec..Vec$LT$T$C$A$GT$$u20$as$u20$alloc..vec..spec_extend..SpecExtend$LT$T$C$I$GT$$GT$11spec_extend17hef060f9900728987E already exist in ./bitcodes2/image_rs15_21_[q4ygkVAO].bc w:0
_ZN106_$LT$image..color..Rgb$LT$T$GT$$u20$as$u20$image..color..FromColor$LT$image..color..LumaA$LT$T$GT$$GT$$GT$10from_color17h3483d43fbbee6b31E already exist in ./bitcodes2/image_rs15_21_[q4ygkVAO].bc w:0
 Merging module ./bitcodes2/image_rs15_222_[FG6Xy_OK].bc
Variants count 844
 Merging module ./bitcodes2/image_rs15_222_[8MLwcIiv].bc
Variants count 845
 Merging module ./bitcodes2/png_rs13_169_[tXQfMwug][qUH_5Ojl][niLPjYiU].bc
Variants count 846
 Merging module ./bitcodes2/image_rs15_496_[lmWK_Qra].bc
Variants count 847
 Merging module ./bitcodes2/image_rs15_222_[byHGoUVi].bc
Variants count 848
 Merging module ./bitcodes2/image_rs15_78_[7_CKO8w6].bc
Variants count 849
_ZN4tiff7decoder3ifd5Entry13decode_offset17h10f22d8c5f7ba5ffE already exist in ./bitcodes2/image_rs15_78_[7_CKO8w6].bc w:0
_ZN98_$LT$alloc..vec..Vec$LT$T$GT$$u20$as$u20$alloc..vec..spec_from_iter..SpecFromIter$LT$T$C$I$GT$$GT$9from_iter17h81fc7b7cb1966dbcE already exist in ./bitcodes2/image_rs15_78_[7_CKO8w6].bc w:0
 Merging module ./bitcodes2/image_rs15_233_[pbkiKx1S].bc
Variants count 850
_ZN5image6codecs4jpeg7encoder18BitWriter$LT$W$GT$13write_segment17h1f584c4ee0ce62ecE already exist in ./bitcodes2/image_rs15_233_[pbkiKx1S].bc w:0
 Merging module ./bitcodes2/image_rs15_86_[L6qogAry].bc
Variants count 851
 Merging module ./bitcodes2/png_rs13_464_[yjXGi8xB][4Xrk0H9G][go5CTz_k][bh25cfiv][DM0acIp_].bc
Variants count 852
 Merging module ./bitcodes2/image_rs15_222_[inx3Rn1L].bc
Variants count 853
 Merging module ./bitcodes2/image_rs15_248_[K_ZzC9rJ].bc
Variants count 854
_ZN5image6codecs4jpeg7encoder12PixelDensity3dpi17h76e5ade20be76fe1E already exist in ./bitcodes2/image_rs15_248_[K_ZzC9rJ].bc w:0
 Merging module ./bitcodes2/image_rs15_125_[jihZ5Vjs].bc
Variants count 855
_ZN4core4iter8adapters3map16Map$LT$I$C$F$GT$3new17h4fbee63e29420067E already exist in ./bitcodes2/image_rs15_125_[jihZ5Vjs].bc w:0
_ZN5image8imageops6affine8rotate9017h07814081b1ddd323E already exist in ./bitcodes2/image_rs15_125_[jihZ5Vjs].bc w:0
 Merging module ./bitcodes2/image_rs15_222_[fETpp7YV].bc
Variants count 856
 Merging module ./bitcodes2/image_rs15_222_[FrjrOna4].bc
Variants count 857
 Merging module ./bitcodes2/image_rs15_615_[1TYDFWDw].bc
Variants count 858
_ZN4core3ptr8non_null16NonNull$LT$T$GT$13new_unchecked17hf13979bfdc5a69a2E already exist in ./bitcodes2/image_rs15_615_[1TYDFWDw].bc w:0
 Merging module ./bitcodes2/image_rs15_107_[LOJfBX_1].bc
Variants count 859
_ZN111_$LT$core..iter..adapters..zip..Zip$LT$A$C$B$GT$$u20$as$u20$core..iter..adapters..zip..ZipImpl$LT$A$C$B$GT$$GT$4next17h904ae9a5f7f17e7dE already exist in ./bitcodes2/image_rs15_107_[LOJfBX_1].bc w:0
_ZN153_$LT$core..result..Result$LT$T$C$F$GT$$u20$as$u20$core..ops..try_trait..FromResidual$LT$core..result..Result$LT$core..convert..Infallible$C$E$GT$$GT$$GT$13from_residual17he99b67180108ca9bE already exist in ./bitcodes2/image_rs15_107_[LOJfBX_1].bc w:0
_ZN63_$LT$I$u20$as$u20$core..iter..traits..collect..IntoIterator$GT$9into_iter17hf0d7f71adab83d70E already exist in ./bitcodes2/image_rs15_107_[LOJfBX_1].bc w:0
 Merging module ./bitcodes2/image_rs15_539_[4wORY5wL].bc
_ZN5image8imageops6sample30thumbnail_sample_fraction_both17h23649c2c1c595432E already exist in ./bitcodes2/image_rs15_539_[4wORY5wL].bc w:0
 Merging module ./bitcodes2/image_rs15_22_[yDVyTKB4].bc
Variants count 860
_ZN4core4iter6traits8iterator8Iterator3zip17h43464ae3c43581b8E already exist in ./bitcodes2/image_rs15_22_[yDVyTKB4].bc w:0
_ZN63_$LT$I$u20$as$u20$core..iter..traits..collect..IntoIterator$GT$9into_iter17hfc236f1a393ea9c0E already exist in ./bitcodes2/image_rs15_22_[yDVyTKB4].bc w:0
_ZN5image5error16UnsupportedError20from_format_and_kind17h8dd35d19527ffadbE already exist in ./bitcodes2/image_rs15_22_[yDVyTKB4].bc w:0
_ZN5image8imageops6sample9thumbnail17h418ac981c55a78dbE already exist in ./bitcodes2/image_rs15_22_[yDVyTKB4].bc w:0
 Merging module ./bitcodes2/image_rs15_3_[nv1W6kIJ].bc
Variants count 861
_ZN3png7decoder16Decoder$LT$R$GT$19set_transformations17h3db447a4863900d2E already exist in ./bitcodes2/image_rs15_3_[nv1W6kIJ].bc w:0
_ZN5image6codecs3bmp7decoder19BmpDecoder$LT$R$GT$25read_full_byte_pixel_data17he90647b932761bd4E already exist in ./bitcodes2/image_rs15_3_[nv1W6kIJ].bc w:0
 Merging module ./bitcodes2/image_rs15_78_[AesORakQ].bc
Variants count 862
_ZN4tiff7decoder3ifd5Entry13decode_offset17h10f22d8c5f7ba5ffE already exist in ./bitcodes2/image_rs15_78_[AesORakQ].bc w:0
_ZN98_$LT$alloc..vec..Vec$LT$T$GT$$u20$as$u20$alloc..vec..spec_from_iter..SpecFromIter$LT$T$C$I$GT$$GT$9from_iter17h81fc7b7cb1966dbcE already exist in ./bitcodes2/image_rs15_78_[AesORakQ].bc w:0
 Merging module ./bitcodes2/image_rs15_847_[LN9TV7iV].bc
Variants count 863
_ZN91_$LT$core..slice..iter..Iter$LT$T$GT$$u20$as$u20$core..iter..traits..iterator..Iterator$GT$8position17hbfc0843c92c6878aE already exist in ./bitcodes2/image_rs15_847_[LN9TV7iV].bc w:0
 Merging module ./bitcodes2/png_rs13_553_[UBaV_9VZ][dyYdMaqg].bc
Variants count 864
 Merging module ./bitcodes2/image_rs15_895_[XVppAsu_].bc
_ZN4tiff7encoder25ImageEncoder$LT$W$C$T$GT$3new28_$u7b$$u7b$closure$u7d$$u7d$17h5829a8e49adae91fE already exist in ./bitcodes2/image_rs15_895_[XVppAsu_].bc w:0
 Merging module ./bitcodes2/image_rs15_812_[_UlOeESC].bc
Variants count 865
_ZN4core3ptr9const_ptr33_$LT$impl$u20$$BP$const$u20$T$GT$7is_null17hf11ad46952c36b76E already exist in ./bitcodes2/image_rs15_812_[_UlOeESC].bc w:0
_ZN4core4iter6traits8iterator8Iterator8for_each4call17h0ad03cb1a658a361E already exist in ./bitcodes2/image_rs15_812_[_UlOeESC].bc w:0
_ZN98_$LT$alloc..vec..Vec$LT$T$GT$$u20$as$u20$alloc..vec..spec_from_iter..SpecFromIter$LT$T$C$I$GT$$GT$9from_iter17h35ff34e0489eb1b7E already exist in ./bitcodes2/image_rs15_812_[_UlOeESC].bc w:0
_ZN5image9animation5Frame6buffer17h50094e6e6ad79b5eE already exist in ./bitcodes2/image_rs15_812_[_UlOeESC].bc w:0
 Merging module ./bitcodes2/png_rs13_464_[_d1uso0O][L1olOw2L][uKLhlrQs][cMm1AzaA][yjWtcO_e].bc
Variants count 866
 Merging module ./bitcodes2/image_rs15_112_[_hQ8AMFC].bc
Variants count 867
_ZN4core3ops12control_flow77ControlFlow$LT$R$C$$LT$R$u20$as$u20$core..ops..try_trait..Try$GT$..Output$GT$8from_try17hfa27bd65a5ae5641E already exist in ./bitcodes2/image_rs15_112_[_hQ8AMFC].bc w:0
_ZN5image8imageops8colorops8contrast17he99131cb2798383fE already exist in ./bitcodes2/image_rs15_112_[_hQ8AMFC].bc w:0
 Merging module ./bitcodes2/image_rs15_511_[TRtfXQ2x].bc
_ZN5image6codecs3pnm7decoder19PnmDecoder$LT$R$GT$18read_bitmap_header17hdf1f299bfd8edaa3E already exist in ./bitcodes2/image_rs15_511_[TRtfXQ2x].bc w:0
 Merging module ./bitcodes2/png_rs13_1221_[xuKYtJj8][cG7krm8_][BHId61SG].bc
Variants count 868
 Merging module ./bitcodes2/image_rs15_142_[ZDM3hhQy].bc
Variants count 869
_ZN97_$LT$alloc..vec..Vec$LT$T$C$A$GT$$u20$as$u20$alloc..vec..spec_extend..SpecExtend$LT$T$C$I$GT$$GT$11spec_extend17h23e2afbd79d2bf65E already exist in ./bitcodes2/image_rs15_142_[ZDM3hhQy].bc w:0
 Merging module ./bitcodes2/image_rs15_684_[RXkq9M3z].bc
Variants count 870
_ZN97_$LT$alloc..vec..Vec$LT$T$C$A$GT$$u20$as$u20$alloc..vec..spec_extend..SpecExtend$LT$T$C$I$GT$$GT$11spec_extend28_$u7b$$u7b$closure$u7d$$u7d$17h96619b169d7d8ec9E already exist in ./bitcodes2/image_rs15_684_[RXkq9M3z].bc w:0
 Merging module ./bitcodes2/image_rs15_125_[ySe8JR_C].bc
Variants count 871
_ZN4core4iter8adapters3map16Map$LT$I$C$F$GT$3new17h4fbee63e29420067E already exist in ./bitcodes2/image_rs15_125_[ySe8JR_C].bc w:0
_ZN5image8imageops6affine8rotate9017h07814081b1ddd323E already exist in ./bitcodes2/image_rs15_125_[ySe8JR_C].bc w:0
 Merging module ./bitcodes2/image_rs15_233_[MOoSOHwK].bc
Variants count 872
_ZN5image6codecs4jpeg7encoder18BitWriter$LT$W$GT$13write_segment17h1f584c4ee0ce62ecE already exist in ./bitcodes2/image_rs15_233_[MOoSOHwK].bc w:0
 Merging module ./bitcodes2/image_rs15_177_[bbD5WcgV].bc
Variants count 873
Variants count 874
 Merging module ./bitcodes2/image_rs15_615_[bT8AVoF3].bc
Variants count 875
_ZN4core3ptr8non_null16NonNull$LT$T$GT$13new_unchecked17hf13979bfdc5a69a2E already exist in ./bitcodes2/image_rs15_615_[bT8AVoF3].bc w:0
 Merging module ./bitcodes2/image_rs15_86_[MPyfSObS].bc
Variants count 876
 Merging module ./bitcodes2/image_rs15_112_[T95OEPBg].bc
Variants count 877
_ZN4core3ops12control_flow77ControlFlow$LT$R$C$$LT$R$u20$as$u20$core..ops..try_trait..Try$GT$..Output$GT$8from_try17hfa27bd65a5ae5641E already exist in ./bitcodes2/image_rs15_112_[T95OEPBg].bc w:0
_ZN5image8imageops8colorops8contrast17he99131cb2798383fE already exist in ./bitcodes2/image_rs15_112_[T95OEPBg].bc w:0
 Merging module ./bitcodes2/image_rs15_605_[LSKmTDzb].bc
Variants count 878
 Merging module ./bitcodes2/image_rs15_139_[7biFv3_0].bc
Variants count 879
 Merging module ./bitcodes2/image_rs15_222_[9OID3GOK].bc
Variants count 880
 Merging module ./bitcodes2/image_rs15_610_[N9zttXxn].bc
Variants count 881
 Merging module ./bitcodes2/image_rs15_0_[3rd8klB_][U1wZxSro][HNqO1jO3][53HZYvtd].bc
_ZN4tiff7decoder6stream12EndianReader8read_i3217hfdbca248c262029aE already exist in ./bitcodes2/image_rs15_0_[3rd8klB_][U1wZxSro][HNqO1jO3][53HZYvtd].bc w:0
 Merging module ./bitcodes2/image_rs15_248_[QATE6oMd].bc
Variants count 882
_ZN5image6codecs4jpeg7encoder12PixelDensity3dpi17h76e5ade20be76fe1E already exist in ./bitcodes2/image_rs15_248_[QATE6oMd].bc w:0
 Merging module ./bitcodes2/image_rs15_91_[I5PXnMoX].bc
Variants count 883
Variants count 884
 Merging module ./bitcodes2/image_rs15_222_[mWzvYHlg].bc
Variants count 885
 Merging module ./bitcodes2/image_rs15_222_[vrNyp7rO].bc
Variants count 886
 Merging module ./bitcodes2/image_rs15_847_[rNVh_Xgp].bc
Variants count 887
_ZN91_$LT$core..slice..iter..Iter$LT$T$GT$$u20$as$u20$core..iter..traits..iterator..Iterator$GT$8position17hbfc0843c92c6878aE already exist in ./bitcodes2/image_rs15_847_[rNVh_Xgp].bc w:0
 Merging module ./bitcodes2/image_rs15_215_[SbZTN_J1].bc
Variants count 888
 Merging module ./bitcodes2/image_rs15_125_[Vcqp7VhM].bc
Variants count 889
_ZN4core4iter8adapters3map16Map$LT$I$C$F$GT$3new17h4fbee63e29420067E already exist in ./bitcodes2/image_rs15_125_[Vcqp7VhM].bc w:0
_ZN5image8imageops6affine8rotate9017h07814081b1ddd323E already exist in ./bitcodes2/image_rs15_125_[Vcqp7VhM].bc w:0
 Merging module ./bitcodes2/image_rs15_878_[cpwMaw_e].bc
_ZN4tiff7decoder16Decoder$LT$R$GT$10next_image17h0972891b5629e687E already exist in ./bitcodes2/image_rs15_878_[cpwMaw_e].bc w:0
_ZN84_$LT$core..option..Option$LT$T$GT$$u20$as$u20$core..ops..try_trait..FromResidual$GT$13from_residual17h867e0f47ab24da24E already exist in ./bitcodes2/image_rs15_878_[cpwMaw_e].bc w:0
 Merging module ./bitcodes2/image_rs15_87_[yoLI7Bl6].bc
Variants count 890
 Merging module ./bitcodes2/image_rs15_676_[kTx1llIt].bc
Variants count 891
_ZN5image8dynimage12DynamicImage12from_decoder17h7f14f4ca4650afdfE already exist in ./bitcodes2/image_rs15_676_[kTx1llIt].bc w:0
 Merging module ./bitcodes2/image_rs15_222_[__qm0dOH].bc
Variants count 892
 Merging module ./bitcodes2/image_rs15_86_[hsg3clbQ].bc
Variants count 893
 Merging module ./bitcodes2/png_rs13_464_[CI8sSeji][uuuljuPL][kNKQfIG5][WETPPW1I][X5aVqfOe].bc
Variants count 894
 Merging module ./bitcodes2/image_rs15_86_[HoWht2UG].bc
Variants count 895
 Merging module ./bitcodes2/image_rs15_847_[kdCxMJLr].bc
Variants count 896
_ZN91_$LT$core..slice..iter..Iter$LT$T$GT$$u20$as$u20$core..iter..traits..iterator..Iterator$GT$8position17hbfc0843c92c6878aE already exist in ./bitcodes2/image_rs15_847_[kdCxMJLr].bc w:0
 Merging module ./bitcodes2/image_rs15_618_[Di_GPPB7].bc
_ZN79_$LT$core..result..Result$LT$T$C$E$GT$$u20$as$u20$core..ops..try_trait..Try$GT$6branch17h2345af5a05185ac1E already exist in ./bitcodes2/image_rs15_618_[Di_GPPB7].bc w:0
 Merging module ./bitcodes2/image_rs15_118_[Y_xsBIsA].bc
Variants count 897
Variants count 898
 Merging module ./bitcodes2/image_rs15_809_[4UOVnLii].bc
_ZN85_$LT$std..io..buffered..bufreader..BufReader$LT$R$GT$$u20$as$u20$std..io..BufRead$GT$7consume17hf05299ba793de9a9E already exist in ./bitcodes2/image_rs15_809_[4UOVnLii].bc w:0
_ZN5image7buffer_32ImageBuffer$LT$P$C$Container$GT$9get_pixel17h3a889f5eea763470E already exist in ./bitcodes2/image_rs15_809_[4UOVnLii].bc w:0
 Merging module ./bitcodes2/image_rs15_890_[Gbnit2iW].bc
Variants count 899
 Merging module ./bitcodes2/image_rs15_3_[ZpV7_XES].bc
Variants count 900
_ZN3png7decoder16Decoder$LT$R$GT$19set_transformations17h3db447a4863900d2E already exist in ./bitcodes2/image_rs15_3_[ZpV7_XES].bc w:0
_ZN5image6codecs3bmp7decoder19BmpDecoder$LT$R$GT$25read_full_byte_pixel_data17he90647b932761bd4E already exist in ./bitcodes2/image_rs15_3_[ZpV7_XES].bc w:0
 Merging module ./bitcodes2/image_rs15_222_[aW83BAXv].bc
Variants count 901
 Merging module ./bitcodes2/image_rs15_107_[1kWlReGr].bc
Variants count 902
_ZN111_$LT$core..iter..adapters..zip..Zip$LT$A$C$B$GT$$u20$as$u20$core..iter..adapters..zip..ZipImpl$LT$A$C$B$GT$$GT$4next17h904ae9a5f7f17e7dE already exist in ./bitcodes2/image_rs15_107_[1kWlReGr].bc w:0
_ZN153_$LT$core..result..Result$LT$T$C$F$GT$$u20$as$u20$core..ops..try_trait..FromResidual$LT$core..result..Result$LT$core..convert..Infallible$C$E$GT$$GT$$GT$13from_residual17he99b67180108ca9bE already exist in ./bitcodes2/image_rs15_107_[1kWlReGr].bc w:0
_ZN63_$LT$I$u20$as$u20$core..iter..traits..collect..IntoIterator$GT$9into_iter17hf0d7f71adab83d70E already exist in ./bitcodes2/image_rs15_107_[1kWlReGr].bc w:0
 Merging module ./bitcodes2/image_rs15_610_[URImsTUo].bc
_ZN5image6codecs4jpeg7encoder17build_scan_header17h591a8464a2132c7cE already exist in ./bitcodes2/image_rs15_610_[URImsTUo].bc w:0
 Merging module ./bitcodes2/image_rs15_222_[y1U9sGhQ].bc
Variants count 903
 Merging module ./bitcodes2/image_rs15_78_[79LPg17E].bc
Variants count 904
_ZN4tiff7decoder3ifd5Entry13decode_offset17h10f22d8c5f7ba5ffE already exist in ./bitcodes2/image_rs15_78_[79LPg17E].bc w:0
_ZN98_$LT$alloc..vec..Vec$LT$T$GT$$u20$as$u20$alloc..vec..spec_from_iter..SpecFromIter$LT$T$C$I$GT$$GT$9from_iter17h81fc7b7cb1966dbcE already exist in ./bitcodes2/image_rs15_78_[79LPg17E].bc w:0
 Merging module ./bitcodes2/image_rs15_829_[2lq4nKJt].bc
Variants count 905
 Merging module ./bitcodes2/image_rs15_222_[Ng59_68B].bc
Variants count 906
 Merging module ./bitcodes2/image_rs15_222_[hKtwOU0P].bc
Variants count 907
 Merging module ./bitcodes2/image_rs15_22_[sCvjzZIp].bc
Variants count 908
_ZN4core4iter6traits8iterator8Iterator3zip17h43464ae3c43581b8E already exist in ./bitcodes2/image_rs15_22_[sCvjzZIp].bc w:0
_ZN63_$LT$I$u20$as$u20$core..iter..traits..collect..IntoIterator$GT$9into_iter17hfc236f1a393ea9c0E already exist in ./bitcodes2/image_rs15_22_[sCvjzZIp].bc w:0
_ZN5image5error16UnsupportedError20from_format_and_kind17h8dd35d19527ffadbE already exist in ./bitcodes2/image_rs15_22_[sCvjzZIp].bc w:0
_ZN5image8imageops6sample9thumbnail17h418ac981c55a78dbE already exist in ./bitcodes2/image_rs15_22_[sCvjzZIp].bc w:0
 Merging module ./bitcodes2/image_rs15_890_[6zXTwL2v].bc
_ZN80_$LT$core..str..pattern..StrSearcher$u20$as$u20$core..str..pattern..Searcher$GT$4next17he812986a6604b9f8E already exist in ./bitcodes2/image_rs15_890_[6zXTwL2v].bc w:0
 Merging module ./bitcodes2/image_rs15_222_[bi5ense5].bc
Variants count 909
 Merging module ./bitcodes2/image_rs15_222_[FkOJyPUS].bc
Variants count 910
 Merging module ./bitcodes2/image_rs15_80_[X0uAOatW].bc
Variants count 911
_ZN4core3ptr104drop_in_place$LT$alloc..raw_vec..RawVec$LT$$LP$alloc..string..String$C$alloc..string..String$RP$$GT$$GT$17hb0979317a97b05b1E already exist in ./bitcodes2/image_rs15_80_[X0uAOatW].bc w:0
 Merging module ./bitcodes2/image_rs15_847_[wehcT42i].bc
Variants count 912
_ZN91_$LT$core..slice..iter..Iter$LT$T$GT$$u20$as$u20$core..iter..traits..iterator..Iterator$GT$8position17hbfc0843c92c6878aE already exist in ./bitcodes2/image_rs15_847_[wehcT42i].bc w:0
 Merging module ./bitcodes2/image_rs15_3_[wP1AGMzB].bc
Variants count 913
_ZN3png7decoder16Decoder$LT$R$GT$19set_transformations17h3db447a4863900d2E already exist in ./bitcodes2/image_rs15_3_[wP1AGMzB].bc w:0
_ZN5image6codecs3bmp7decoder19BmpDecoder$LT$R$GT$25read_full_byte_pixel_data17he90647b932761bd4E already exist in ./bitcodes2/image_rs15_3_[wP1AGMzB].bc w:0
 Merging module ./bitcodes2/image_rs15_222_[CnS5doY6].bc
Variants count 914
 Merging module ./bitcodes2/image_rs15_222_[pCcAM3sh].bc
Variants count 915
 Merging module ./bitcodes2/image_rs15_125_[i06sfU2b].bc
Variants count 916
_ZN4core4iter8adapters3map16Map$LT$I$C$F$GT$3new17h4fbee63e29420067E already exist in ./bitcodes2/image_rs15_125_[i06sfU2b].bc w:0
_ZN5image8imageops6affine8rotate9017h07814081b1ddd323E already exist in ./bitcodes2/image_rs15_125_[i06sfU2b].bc w:0
 Merging module ./bitcodes2/image_rs15_676_[anXb1Ili].bc
Variants count 917
_ZN5image8dynimage12DynamicImage12from_decoder17h7f14f4ca4650afdfE already exist in ./bitcodes2/image_rs15_676_[anXb1Ili].bc w:0
 Merging module ./bitcodes2/image_rs15_21_[lR3ZjXv0].bc
Variants count 918
_ZN5alloc11collections5btree4node137Handle$LT$alloc..collections..btree..node..NodeRef$LT$BorrowType$C$K$C$V$C$NodeType$GT$$C$alloc..collections..btree..node..marker..KV$GT$10right_edge17hc8affa6734f1dd43E already exist in ./bitcodes2/image_rs15_21_[lR3ZjXv0].bc w:0
_ZN97_$LT$alloc..vec..Vec$LT$T$C$A$GT$$u20$as$u20$alloc..vec..spec_extend..SpecExtend$LT$T$C$I$GT$$GT$11spec_extend17hef060f9900728987E already exist in ./bitcodes2/image_rs15_21_[lR3ZjXv0].bc w:0
_ZN106_$LT$image..color..Rgb$LT$T$GT$$u20$as$u20$image..color..FromColor$LT$image..color..LumaA$LT$T$GT$$GT$$GT$10from_color17h3483d43fbbee6b31E already exist in ./bitcodes2/image_rs15_21_[lR3ZjXv0].bc w:0
 Merging module ./bitcodes2/image_rs15_100_[5NqMAFZP].bc
Variants count 919
Variants count 920
 Merging module ./bitcodes2/image_rs15_897_[IUCOxm73].bc
Variants count 921
_ZN94_$LT$core..slice..iter..IterMut$LT$T$GT$$u20$as$u20$core..iter..traits..iterator..Iterator$GT$24__iterator_get_unchecked17h58b6afa0e8024274E already exist in ./bitcodes2/image_rs15_897_[IUCOxm73].bc w:0
_ZN236_$LT$image..buffer_..ImageBuffer$LT$FromType$C$Container$GT$$u20$as$u20$image..buffer_..ConvertBuffer$LT$image..buffer_..ImageBuffer$LT$ToType$C$alloc..vec..Vec$LT$$LT$ToType$u20$as$u20$image..traits..Pixel$GT$..Subpixel$GT$$GT$$GT$$GT$7convert17he398e278debce516E already exist in ./bitcodes2/image_rs15_897_[IUCOxm73].bc w:0
 Merging module ./bitcodes2/image_rs15_107_[hDXaIlEE].bc
Variants count 922
_ZN111_$LT$core..iter..adapters..zip..Zip$LT$A$C$B$GT$$u20$as$u20$core..iter..adapters..zip..ZipImpl$LT$A$C$B$GT$$GT$4next17h904ae9a5f7f17e7dE already exist in ./bitcodes2/image_rs15_107_[hDXaIlEE].bc w:0
_ZN153_$LT$core..result..Result$LT$T$C$F$GT$$u20$as$u20$core..ops..try_trait..FromResidual$LT$core..result..Result$LT$core..convert..Infallible$C$E$GT$$GT$$GT$13from_residual17he99b67180108ca9bE already exist in ./bitcodes2/image_rs15_107_[hDXaIlEE].bc w:0
_ZN63_$LT$I$u20$as$u20$core..iter..traits..collect..IntoIterator$GT$9into_iter17hf0d7f71adab83d70E already exist in ./bitcodes2/image_rs15_107_[hDXaIlEE].bc w:0
 Merging module ./bitcodes2/png_rs13_169_[Ep2CA08a][7AfKW8VU][mYeuCJcp].bc
Variants count 923
 Merging module ./bitcodes2/image_rs15_233_[1znbJskT].bc
Variants count 924
_ZN5image6codecs4jpeg7encoder18BitWriter$LT$W$GT$13write_segment17h1f584c4ee0ce62ecE already exist in ./bitcodes2/image_rs15_233_[1znbJskT].bc w:0
 Merging module ./bitcodes2/image_rs15_222_[fQRbWxtH].bc
Variants count 925
 Merging module ./bitcodes2/image_rs15_215_[ytpYFPnu].bc
Variants count 926
 Merging module ./bitcodes2/image_rs15_107_[F4VdWb_b].bc
Variants count 927
_ZN111_$LT$core..iter..adapters..zip..Zip$LT$A$C$B$GT$$u20$as$u20$core..iter..adapters..zip..ZipImpl$LT$A$C$B$GT$$GT$4next17h904ae9a5f7f17e7dE already exist in ./bitcodes2/image_rs15_107_[F4VdWb_b].bc w:0
_ZN153_$LT$core..result..Result$LT$T$C$F$GT$$u20$as$u20$core..ops..try_trait..FromResidual$LT$core..result..Result$LT$core..convert..Infallible$C$E$GT$$GT$$GT$13from_residual17he99b67180108ca9bE already exist in ./bitcodes2/image_rs15_107_[F4VdWb_b].bc w:0
_ZN63_$LT$I$u20$as$u20$core..iter..traits..collect..IntoIterator$GT$9into_iter17hf0d7f71adab83d70E already exist in ./bitcodes2/image_rs15_107_[F4VdWb_b].bc w:0
 Merging module ./bitcodes2/image_rs15_840_[sqJXsafX].bc
Variants count 928
_ZN4core3ptr1301drop_in_place$LT$core..iter..adapters..map..map_fold$LT$$LP$core..option..Option$LT$jpeg_decoder..huffman..HuffmanTable$GT$$C$core..option..Option$LT$jpeg_decoder..huffman..HuffmanTable$GT$$RP$$C$core..option..Option$LT$jpeg_decoder..huffman..HuffmanTable$GT$$C$$LP$$RP$$C$jpeg_decoder..decoder..Decoder$LT$std..io..buffered..bufreader..BufReader$LT$std..fs..File$GT$$GT$..decode_internal..$u7b$$u7b$closure$u7d$$u7d$$C$core..iter..traits..iterator..Iterator..for_each..call$LT$core..option..Option$LT$jpeg_decoder..huffman..HuffmanTable$GT$$C$$LT$alloc..vec..Vec$LT$core..option..Option$LT$jpeg_decoder..huffman..HuffmanTable$GT$$GT$$u20$as$u20$alloc..vec..spec_extend..SpecExtend$LT$core..option..Option$LT$jpeg_decoder..huffman..HuffmanTable$GT$$C$core..iter..adapters..map..Map$LT$core..iter..adapters..zip..Zip$LT$alloc..vec..into_iter..IntoIter$LT$core..option..Option$LT$jpeg_decoder..huffman..HuffmanTable$GT$$GT$$C$alloc..vec..into_iter..IntoIter$LT$core..option..Option$LT$jpeg_decoder..huffman..HuffmanTable$GT$$GT$$GT$$C$jpeg_decoder..decoder..Decoder$LT$std..io..buffered..bufreader..BufReader$LT$std..fs..File$GT$$GT$..decode_internal..$u7b$$u7b$closure$u7d$$u7d$$GT$$GT$$GT$..spec_extend..$u7b$$u7b$closure$u7d$$u7d$$GT$..$u7b$$u7b$closure$u7d$$u7d$$GT$..$u7b$$u7b$closure$u7d$$u7d$$GT$17h43f18c2da6dc3c94E already exist in ./bitcodes2/image_rs15_840_[sqJXsafX].bc w:0
 Merging module ./bitcodes2/image_rs15_222_[oOtz0bWY].bc
Variants count 929
 Merging module ./bitcodes2/image_rs15_125_[AeePSooG].bc
Variants count 930
_ZN4core4iter8adapters3map16Map$LT$I$C$F$GT$3new17h4fbee63e29420067E already exist in ./bitcodes2/image_rs15_125_[AeePSooG].bc w:0
_ZN5image8imageops6affine8rotate9017h07814081b1ddd323E already exist in ./bitcodes2/image_rs15_125_[AeePSooG].bc w:0
 Merging module ./bitcodes2/image_rs15_86_[LaDObMSJ].bc
Variants count 931
 Merging module ./bitcodes2/image_rs15_0_[Iu69NaLm][m0juDOCl][lW9Kz4hF][2hL4A5dp].bc
Variants count 932
 Merging module ./bitcodes2/image_rs15_107_[g1P_FuBF].bc
Variants count 933
_ZN111_$LT$core..iter..adapters..zip..Zip$LT$A$C$B$GT$$u20$as$u20$core..iter..adapters..zip..ZipImpl$LT$A$C$B$GT$$GT$4next17h904ae9a5f7f17e7dE already exist in ./bitcodes2/image_rs15_107_[g1P_FuBF].bc w:0
_ZN153_$LT$core..result..Result$LT$T$C$F$GT$$u20$as$u20$core..ops..try_trait..FromResidual$LT$core..result..Result$LT$core..convert..Infallible$C$E$GT$$GT$$GT$13from_residual17he99b67180108ca9bE already exist in ./bitcodes2/image_rs15_107_[g1P_FuBF].bc w:0
_ZN63_$LT$I$u20$as$u20$core..iter..traits..collect..IntoIterator$GT$9into_iter17hf0d7f71adab83d70E already exist in ./bitcodes2/image_rs15_107_[g1P_FuBF].bc w:0
 Merging module ./bitcodes2/image_rs15_222_[2FiVfm8q].bc
Variants count 934
 Merging module ./bitcodes2/image_rs15_222_[tZlMFujN].bc
Variants count 935
 Merging module ./bitcodes2/image_rs15_222_[JNw9QCvR].bc
Variants count 936
 Merging module ./bitcodes2/image_rs15_112_[LPga46hZ].bc
Variants count 937
_ZN4core3ops12control_flow77ControlFlow$LT$R$C$$LT$R$u20$as$u20$core..ops..try_trait..Try$GT$..Output$GT$8from_try17hfa27bd65a5ae5641E already exist in ./bitcodes2/image_rs15_112_[LPga46hZ].bc w:0
_ZN5image8imageops8colorops8contrast17he99131cb2798383fE already exist in ./bitcodes2/image_rs15_112_[LPga46hZ].bc w:0
 Merging module ./bitcodes2/image_rs15_847_[JzDX7dN_].bc
Variants count 938
_ZN91_$LT$core..slice..iter..Iter$LT$T$GT$$u20$as$u20$core..iter..traits..iterator..Iterator$GT$8position17hbfc0843c92c6878aE already exist in ./bitcodes2/image_rs15_847_[JzDX7dN_].bc w:0
 Merging module ./bitcodes2/image_rs15_222_[KHbLKJlf].bc
Variants count 939
 Merging module ./bitcodes2/png_rs13_357_[iHuUF9Wu].bc
Variants count 940
 Merging module ./bitcodes2/png_rs13_158_[G8IMGL4_][8fbKi03t][CWxgsekA].bc
Variants count 941
 Merging module ./bitcodes2/image_rs15_80_[BO_zjFmC].bc
Variants count 942
_ZN4core3ptr104drop_in_place$LT$alloc..raw_vec..RawVec$LT$$LP$alloc..string..String$C$alloc..string..String$RP$$GT$$GT$17hb0979317a97b05b1E already exist in ./bitcodes2/image_rs15_80_[BO_zjFmC].bc w:0
 Merging module ./bitcodes2/image_rs15_21_[08s60ITm].bc
Variants count 943
_ZN5alloc11collections5btree4node137Handle$LT$alloc..collections..btree..node..NodeRef$LT$BorrowType$C$K$C$V$C$NodeType$GT$$C$alloc..collections..btree..node..marker..KV$GT$10right_edge17hc8affa6734f1dd43E already exist in ./bitcodes2/image_rs15_21_[08s60ITm].bc w:0
_ZN97_$LT$alloc..vec..Vec$LT$T$C$A$GT$$u20$as$u20$alloc..vec..spec_extend..SpecExtend$LT$T$C$I$GT$$GT$11spec_extend17hef060f9900728987E already exist in ./bitcodes2/image_rs15_21_[08s60ITm].bc w:0
_ZN106_$LT$image..color..Rgb$LT$T$GT$$u20$as$u20$image..color..FromColor$LT$image..color..LumaA$LT$T$GT$$GT$$GT$10from_color17h3483d43fbbee6b31E already exist in ./bitcodes2/image_rs15_21_[08s60ITm].bc w:0
 Merging module ./bitcodes2/image_rs15_840_[41_Fwjeq].bc
Variants count 944
_ZN4core3ptr1301drop_in_place$LT$core..iter..adapters..map..map_fold$LT$$LP$core..option..Option$LT$jpeg_decoder..huffman..HuffmanTable$GT$$C$core..option..Option$LT$jpeg_decoder..huffman..HuffmanTable$GT$$RP$$C$core..option..Option$LT$jpeg_decoder..huffman..HuffmanTable$GT$$C$$LP$$RP$$C$jpeg_decoder..decoder..Decoder$LT$std..io..buffered..bufreader..BufReader$LT$std..fs..File$GT$$GT$..decode_internal..$u7b$$u7b$closure$u7d$$u7d$$C$core..iter..traits..iterator..Iterator..for_each..call$LT$core..option..Option$LT$jpeg_decoder..huffman..HuffmanTable$GT$$C$$LT$alloc..vec..Vec$LT$core..option..Option$LT$jpeg_decoder..huffman..HuffmanTable$GT$$GT$$u20$as$u20$alloc..vec..spec_extend..SpecExtend$LT$core..option..Option$LT$jpeg_decoder..huffman..HuffmanTable$GT$$C$core..iter..adapters..map..Map$LT$core..iter..adapters..zip..Zip$LT$alloc..vec..into_iter..IntoIter$LT$core..option..Option$LT$jpeg_decoder..huffman..HuffmanTable$GT$$GT$$C$alloc..vec..into_iter..IntoIter$LT$core..option..Option$LT$jpeg_decoder..huffman..HuffmanTable$GT$$GT$$GT$$C$jpeg_decoder..decoder..Decoder$LT$std..io..buffered..bufreader..BufReader$LT$std..fs..File$GT$$GT$..decode_internal..$u7b$$u7b$closure$u7d$$u7d$$GT$$GT$$GT$..spec_extend..$u7b$$u7b$closure$u7d$$u7d$$GT$..$u7b$$u7b$closure$u7d$$u7d$$GT$..$u7b$$u7b$closure$u7d$$u7d$$GT$17h43f18c2da6dc3c94E already exist in ./bitcodes2/image_rs15_840_[41_Fwjeq].bc w:0
 Merging module ./bitcodes2/image_rs15_615_[LhDhBJZf].bc
Variants count 945
_ZN4core3ptr8non_null16NonNull$LT$T$GT$13new_unchecked17hf13979bfdc5a69a2E already exist in ./bitcodes2/image_rs15_615_[LhDhBJZf].bc w:0
 Merging module ./bitcodes2/image_rs15_3_[H19EAiht].bc
Variants count 946
_ZN3png7decoder16Decoder$LT$R$GT$19set_transformations17h3db447a4863900d2E already exist in ./bitcodes2/image_rs15_3_[H19EAiht].bc w:0
_ZN5image6codecs3bmp7decoder19BmpDecoder$LT$R$GT$25read_full_byte_pixel_data17he90647b932761bd4E already exist in ./bitcodes2/image_rs15_3_[H19EAiht].bc w:0
 Merging module ./bitcodes2/image_rs15_3_[Pzig_o_J].bc
Variants count 947
_ZN3png7decoder16Decoder$LT$R$GT$19set_transformations17h3db447a4863900d2E already exist in ./bitcodes2/image_rs15_3_[Pzig_o_J].bc w:0
_ZN5image6codecs3bmp7decoder19BmpDecoder$LT$R$GT$25read_full_byte_pixel_data17he90647b932761bd4E already exist in ./bitcodes2/image_rs15_3_[Pzig_o_J].bc w:0
 Merging module ./bitcodes2/image_rs15_78_[iVW303Qu].bc
Variants count 948
_ZN4tiff7decoder3ifd5Entry13decode_offset17h10f22d8c5f7ba5ffE already exist in ./bitcodes2/image_rs15_78_[iVW303Qu].bc w:0
_ZN98_$LT$alloc..vec..Vec$LT$T$GT$$u20$as$u20$alloc..vec..spec_from_iter..SpecFromIter$LT$T$C$I$GT$$GT$9from_iter17h81fc7b7cb1966dbcE already exist in ./bitcodes2/image_rs15_78_[iVW303Qu].bc w:0
 Merging module ./bitcodes2/image_rs15_125_[4IwTJ_W1].bc
Variants count 949
_ZN4core4iter8adapters3map16Map$LT$I$C$F$GT$3new17h4fbee63e29420067E already exist in ./bitcodes2/image_rs15_125_[4IwTJ_W1].bc w:0
_ZN5image8imageops6affine8rotate9017h07814081b1ddd323E already exist in ./bitcodes2/image_rs15_125_[4IwTJ_W1].bc w:0
 Merging module ./bitcodes2/png_rs13_2897_[EnX7Z8a9][563HSKhp].bc
_ZN4core6option15Option$LT$T$GT$6as_mut17hf71675d610d15f3fE already exist in ./bitcodes2/png_rs13_2897_[EnX7Z8a9][563HSKhp].bc w:0
 Merging module ./bitcodes2/image_rs15_222_[rWEuZ_ie].bc
Variants count 950
 Merging module ./bitcodes2/image_rs15_86_[yubrd5rr].bc
Variants count 951
 Merging module ./bitcodes2/image_rs15_222_[TbCkTwSl].bc
Variants count 952
 Merging module ./bitcodes2/image_rs15_160_[IHgJPI8V].bc
Variants count 953
 Merging module ./bitcodes2/image_rs15_222_[xZyGiA2O].bc
Variants count 954
 Merging module ./bitcodes2/image_rs15_615_[htk3Z10c].bc
_ZN4core3ptr65drop_in_place$LT$core..option..Option$LT$weezl..StreamBuf$GT$$GT$17hab39435439ff229fE already exist in ./bitcodes2/image_rs15_615_[htk3Z10c].bc w:0
_ZN4core3ptr8non_null16NonNull$LT$T$GT$13new_unchecked17hf13979bfdc5a69a2E already exist in ./bitcodes2/image_rs15_615_[htk3Z10c].bc w:0
 Merging module ./bitcodes2/image_rs15_112_[JdOJvDoS].bc
Variants count 955
_ZN4core3ops12control_flow77ControlFlow$LT$R$C$$LT$R$u20$as$u20$core..ops..try_trait..Try$GT$..Output$GT$8from_try17hfa27bd65a5ae5641E already exist in ./bitcodes2/image_rs15_112_[JdOJvDoS].bc w:0
_ZN5image8imageops8colorops8contrast17he99131cb2798383fE already exist in ./bitcodes2/image_rs15_112_[JdOJvDoS].bc w:0
 Merging module ./bitcodes2/image_rs15_87_[TpMmKqg7].bc
Variants count 956
 Merging module ./bitcodes2/image_rs15_684_[T1oIhXBv].bc
Variants count 957
_ZN97_$LT$alloc..vec..Vec$LT$T$C$A$GT$$u20$as$u20$alloc..vec..spec_extend..SpecExtend$LT$T$C$I$GT$$GT$11spec_extend28_$u7b$$u7b$closure$u7d$$u7d$17h96619b169d7d8ec9E already exist in ./bitcodes2/image_rs15_684_[T1oIhXBv].bc w:0
 Merging module ./bitcodes2/image_rs15_222_[fj_UivOb].bc
Variants count 958
 Merging module ./bitcodes2/image_rs15_222_[oqFUSNzQ].bc
Variants count 959
 Merging module ./bitcodes2/image_rs15_222_[1W2PtgRF].bc
Variants count 960
 Merging module ./bitcodes2/image_rs15_222_[FAU7PGDK].bc
Variants count 961
 Merging module ./bitcodes2/image_rs15_142_[VjrTgZSt].bc
Variants count 962
_ZN97_$LT$alloc..vec..Vec$LT$T$C$A$GT$$u20$as$u20$alloc..vec..spec_extend..SpecExtend$LT$T$C$I$GT$$GT$11spec_extend17h23e2afbd79d2bf65E already exist in ./bitcodes2/image_rs15_142_[VjrTgZSt].bc w:0
 Merging module ./bitcodes2/image_rs15_629_[hmjO9E3j].bc
Variants count 963
_ZN3std2io4Read5bytes17h38adebbc40ab3a18E already exist in ./bitcodes2/image_rs15_629_[hmjO9E3j].bc w:0
 Merging module ./bitcodes2/image_rs15_86_[lfY81GKX].bc
Variants count 964
 Merging module ./bitcodes2/image_rs15_511_[7yGA9Vs_].bc
_ZN5image6codecs3pnm7decoder19PnmDecoder$LT$R$GT$18read_bitmap_header17hdf1f299bfd8edaa3E already exist in ./bitcodes2/image_rs15_511_[7yGA9Vs_].bc w:0
 Merging module ./bitcodes2/image_rs15_496_[9Mij_Mah].bc
_ZN4core4iter6traits8iterator8Iterator4fold17hd88b9692991d2a0dE already exist in ./bitcodes2/image_rs15_496_[9Mij_Mah].bc w:0
 Merging module ./bitcodes2/image_rs15_626_[xg8YTtpJ].bc
Variants count 965
 Merging module ./bitcodes2/image_rs15_0_[iehi34cF][JiTLWbMt][XYZKP6aF][EtVzgGcg].bc
Variants count 966
 Merging module ./bitcodes2/png_rs13_169_[ndIVFP35][twTqMjd6][0VmoDsgu].bc
Variants count 967
 Merging module ./bitcodes2/image_rs15_125_[w9ViDBk6].bc
Variants count 968
_ZN4core4iter8adapters3map16Map$LT$I$C$F$GT$3new17h4fbee63e29420067E already exist in ./bitcodes2/image_rs15_125_[w9ViDBk6].bc w:0
_ZN5image8imageops6affine8rotate9017h07814081b1ddd323E already exist in ./bitcodes2/image_rs15_125_[w9ViDBk6].bc w:0
 Merging module ./bitcodes2/png_rs13_1487_[NICLsLe5][BxbHw0TF][a7xLtLbM][5FeL0MIb][rdIjHoTo].bc
Variants count 969
 Merging module ./bitcodes2/image_rs15_239_[PpNhSNmQ].bc
Variants count 970
_ZN4core4iter6traits8iterator8Iterator10max_by_key3key17h7d25e6cf4f733365E already exist in ./bitcodes2/image_rs15_239_[PpNhSNmQ].bc w:0
 Merging module ./bitcodes2/image_rs15_626_[YSCqZpGB].bc
_ZN109_$LT$core..iter..adapters..scan..Scan$LT$I$C$St$C$F$GT$$u20$as$u20$core..iter..traits..iterator..Iterator$GT$8try_fold4scan28_$u7b$$u7b$closure$u7d$$u7d$17h77fbe3d04892ed88E already exist in ./bitcodes2/image_rs15_626_[YSCqZpGB].bc w:0
 Merging module ./bitcodes2/image_rs15_222_[llpQ7JFi].bc
Variants count 971
 Merging module ./bitcodes2/image_rs15_3_[FybGt_Fm].bc
Variants count 972
_ZN3png7decoder16Decoder$LT$R$GT$19set_transformations17h3db447a4863900d2E already exist in ./bitcodes2/image_rs15_3_[FybGt_Fm].bc w:0
_ZN5image6codecs3bmp7decoder19BmpDecoder$LT$R$GT$25read_full_byte_pixel_data17he90647b932761bd4E already exist in ./bitcodes2/image_rs15_3_[FybGt_Fm].bc w:0
 Merging module ./bitcodes2/image_rs15_112_[2Ee1n9wm].bc
Variants count 973
_ZN4core3ops12control_flow77ControlFlow$LT$R$C$$LT$R$u20$as$u20$core..ops..try_trait..Try$GT$..Output$GT$8from_try17hfa27bd65a5ae5641E already exist in ./bitcodes2/image_rs15_112_[2Ee1n9wm].bc w:0
_ZN5image8imageops8colorops8contrast17he99131cb2798383fE already exist in ./bitcodes2/image_rs15_112_[2Ee1n9wm].bc w:0
 Merging module ./bitcodes2/image_rs15_596_[H3JhJum5].bc
_ZN3png7decoder15Reader$LT$R$GT$19next_interlaced_row17h68379df29e9bf069E already exist in ./bitcodes2/image_rs15_596_[H3JhJum5].bc w:0
 Merging module ./bitcodes2/image_rs15_86_[_cM95_Ni].bc
Variants count 974
 Merging module ./bitcodes2/image_rs15_107_[O9VyrkHk].bc
Variants count 975
_ZN111_$LT$core..iter..adapters..zip..Zip$LT$A$C$B$GT$$u20$as$u20$core..iter..adapters..zip..ZipImpl$LT$A$C$B$GT$$GT$4next17h904ae9a5f7f17e7dE already exist in ./bitcodes2/image_rs15_107_[O9VyrkHk].bc w:0
_ZN153_$LT$core..result..Result$LT$T$C$F$GT$$u20$as$u20$core..ops..try_trait..FromResidual$LT$core..result..Result$LT$core..convert..Infallible$C$E$GT$$GT$$GT$13from_residual17he99b67180108ca9bE already exist in ./bitcodes2/image_rs15_107_[O9VyrkHk].bc w:0
_ZN63_$LT$I$u20$as$u20$core..iter..traits..collect..IntoIterator$GT$9into_iter17hf0d7f71adab83d70E already exist in ./bitcodes2/image_rs15_107_[O9VyrkHk].bc w:0
 Merging module ./bitcodes2/image_rs15_21_[4TZizWaJ].bc
Variants count 976
_ZN5alloc11collections5btree4node137Handle$LT$alloc..collections..btree..node..NodeRef$LT$BorrowType$C$K$C$V$C$NodeType$GT$$C$alloc..collections..btree..node..marker..KV$GT$10right_edge17hc8affa6734f1dd43E already exist in ./bitcodes2/image_rs15_21_[4TZizWaJ].bc w:0
_ZN97_$LT$alloc..vec..Vec$LT$T$C$A$GT$$u20$as$u20$alloc..vec..spec_extend..SpecExtend$LT$T$C$I$GT$$GT$11spec_extend17hef060f9900728987E already exist in ./bitcodes2/image_rs15_21_[4TZizWaJ].bc w:0
_ZN106_$LT$image..color..Rgb$LT$T$GT$$u20$as$u20$image..color..FromColor$LT$image..color..LumaA$LT$T$GT$$GT$$GT$10from_color17h3483d43fbbee6b31E already exist in ./bitcodes2/image_rs15_21_[4TZizWaJ].bc w:0
 Merging module ./bitcodes2/image_rs15_222_[BiZA4b48].bc
Variants count 977
 Merging module ./bitcodes2/image_rs15_3_[zfANumLs].bc
Variants count 978
_ZN3png7decoder16Decoder$LT$R$GT$19set_transformations17h3db447a4863900d2E already exist in ./bitcodes2/image_rs15_3_[zfANumLs].bc w:0
_ZN5image6codecs3bmp7decoder19BmpDecoder$LT$R$GT$25read_full_byte_pixel_data17he90647b932761bd4E already exist in ./bitcodes2/image_rs15_3_[zfANumLs].bc w:0
 Merging module ./bitcodes2/image_rs15_884_[7ZDM3ydp].bc
_ZN4core6option15Option$LT$T$GT$10ok_or_else17h714edbb4d408b0d8E already exist in ./bitcodes2/image_rs15_884_[7ZDM3ydp].bc w:0
 Merging module ./bitcodes2/image_rs15_222_[VEOHBL3U].bc
Variants count 979
 Merging module ./bitcodes2/image_rs15_890_[CAMEcm5m].bc
Variants count 980
 Merging module ./bitcodes2/image_rs15_164_[SkUURgdX].bc
Variants count 981
Variants count 982
 Merging module ./bitcodes2/image_rs15_107_[_qouO1K9].bc
Variants count 983
_ZN111_$LT$core..iter..adapters..zip..Zip$LT$A$C$B$GT$$u20$as$u20$core..iter..adapters..zip..ZipImpl$LT$A$C$B$GT$$GT$4next17h904ae9a5f7f17e7dE already exist in ./bitcodes2/image_rs15_107_[_qouO1K9].bc w:0
_ZN153_$LT$core..result..Result$LT$T$C$F$GT$$u20$as$u20$core..ops..try_trait..FromResidual$LT$core..result..Result$LT$core..convert..Infallible$C$E$GT$$GT$$GT$13from_residual17he99b67180108ca9bE already exist in ./bitcodes2/image_rs15_107_[_qouO1K9].bc w:0
_ZN63_$LT$I$u20$as$u20$core..iter..traits..collect..IntoIterator$GT$9into_iter17hf0d7f71adab83d70E already exist in ./bitcodes2/image_rs15_107_[_qouO1K9].bc w:0
 Merging module ./bitcodes2/image_rs15_818_[k0hcNN8y].bc
Variants count 984
_ZN5image5error10LimitError9from_kind17h5b0452e3cc9838c6E already exist in ./bitcodes2/image_rs15_818_[k0hcNN8y].bc w:0
_ZN99_$LT$image..buffer_..ImageBuffer$LT$P$C$Container$GT$$u20$as$u20$image..image..GenericImageView$GT$9get_pixel17h58e9e6d253fab205E already exist in ./bitcodes2/image_rs15_818_[k0hcNN8y].bc w:0
 Merging module ./bitcodes2/image_rs15_86_[Qw8whyAr].bc
Variants count 985
 Merging module ./bitcodes2/image_rs15_615_[kQiL8yyL].bc
Variants count 986
_ZN4core3ptr8non_null16NonNull$LT$T$GT$13new_unchecked17hf13979bfdc5a69a2E already exist in ./bitcodes2/image_rs15_615_[kQiL8yyL].bc w:0
 Merging module ./bitcodes2/image_rs15_676_[xUSj4k09].bc
Variants count 987
_ZN5image8dynimage12DynamicImage12from_decoder17h7f14f4ca4650afdfE already exist in ./bitcodes2/image_rs15_676_[xUSj4k09].bc w:0
 Merging module ./bitcodes2/image_rs15_0_[3a0tAgmo][jcTOXh_T][gkB_sozM][y2au5Q6r].bc
Variants count 988
 Merging module ./bitcodes2/image_rs15_222_[7N4y_bpI].bc
Variants count 989
 Merging module ./bitcodes2/image_rs15_190_[jpW7BYN3].bc
Variants count 990
 Merging module ./bitcodes2/image_rs15_86_[9h4qK8DK].bc
Variants count 991
 Merging module ./bitcodes2/image_rs15_222_[uzLWG4gb].bc
Variants count 992
 Merging module ./bitcodes2/image_rs15_107_[2Mhx6e3v].bc
Variants count 993
_ZN111_$LT$core..iter..adapters..zip..Zip$LT$A$C$B$GT$$u20$as$u20$core..iter..adapters..zip..ZipImpl$LT$A$C$B$GT$$GT$4next17h904ae9a5f7f17e7dE already exist in ./bitcodes2/image_rs15_107_[2Mhx6e3v].bc w:0
_ZN153_$LT$core..result..Result$LT$T$C$F$GT$$u20$as$u20$core..ops..try_trait..FromResidual$LT$core..result..Result$LT$core..convert..Infallible$C$E$GT$$GT$$GT$13from_residual17he99b67180108ca9bE already exist in ./bitcodes2/image_rs15_107_[2Mhx6e3v].bc w:0
_ZN63_$LT$I$u20$as$u20$core..iter..traits..collect..IntoIterator$GT$9into_iter17hf0d7f71adab83d70E already exist in ./bitcodes2/image_rs15_107_[2Mhx6e3v].bc w:0
 Merging module ./bitcodes2/image_rs15_222_[7gNw1INh].bc
Variants count 994
 Merging module ./bitcodes2/png_rs13_169_[ArPK0sYb][Xm_J_wDD][kKfM41Qh].bc
Variants count 995
 Merging module ./bitcodes2/image_rs15_222_[jrNeBSfN].bc
Variants count 996
 Merging module ./bitcodes2/image_rs15_0_[KqwNbtwd][DIbI5icl][FZHBu6fP][yJihKMGG].bc
Variants count 997
 Merging module ./bitcodes2/image_rs15_104_[zzS9XofI].bc
Variants count 998
Variants count 999
Variants count 1000
 Merging module ./bitcodes2/image_rs15_87_[TkTrkMyH].bc
Variants count 1001
 Merging module ./bitcodes2/image_rs15_114_[KysjyYpL].bc
Variants count 1002
 Merging module ./bitcodes2/image_rs15_222_[1Dv5NNtV].bc
Variants count 1003
 Merging module ./bitcodes2/image_rs15_222_[wuHue8LH].bc
Variants count 1004
 Merging module ./bitcodes2/image_rs15_684_[A6TkOrr_].bc
Variants count 1005
_ZN97_$LT$alloc..vec..Vec$LT$T$C$A$GT$$u20$as$u20$alloc..vec..spec_extend..SpecExtend$LT$T$C$I$GT$$GT$11spec_extend28_$u7b$$u7b$closure$u7d$$u7d$17h96619b169d7d8ec9E already exist in ./bitcodes2/image_rs15_684_[A6TkOrr_].bc w:0
 Merging module ./bitcodes2/image_rs15_222_[kbAoIpnQ].bc
Variants count 1006
 Merging module ./bitcodes2/image_rs15_222_[OsZ6Bw3V].bc
Variants count 1007
 Merging module ./bitcodes2/image_rs15_222_[UHU_bIhL].bc
Variants count 1008
 Merging module ./bitcodes2/image_rs15_676_[EwDeAVld].bc
Variants count 1009
_ZN5image8dynimage12DynamicImage12from_decoder17h7f14f4ca4650afdfE already exist in ./bitcodes2/image_rs15_676_[EwDeAVld].bc w:0
 Merging module ./bitcodes2/image_rs15_92_[cgKoVqKs].bc
Variants count 1010
Variants count 1011
Variants count 1012
Variants count 1013
 Merging module ./bitcodes2/image_rs15_107_[rYKVHbfi].bc
Variants count 1014
_ZN111_$LT$core..iter..adapters..zip..Zip$LT$A$C$B$GT$$u20$as$u20$core..iter..adapters..zip..ZipImpl$LT$A$C$B$GT$$GT$4next17h904ae9a5f7f17e7dE already exist in ./bitcodes2/image_rs15_107_[rYKVHbfi].bc w:0
_ZN153_$LT$core..result..Result$LT$T$C$F$GT$$u20$as$u20$core..ops..try_trait..FromResidual$LT$core..result..Result$LT$core..convert..Infallible$C$E$GT$$GT$$GT$13from_residual17he99b67180108ca9bE already exist in ./bitcodes2/image_rs15_107_[rYKVHbfi].bc w:0
_ZN63_$LT$I$u20$as$u20$core..iter..traits..collect..IntoIterator$GT$9into_iter17hf0d7f71adab83d70E already exist in ./bitcodes2/image_rs15_107_[rYKVHbfi].bc w:0
 Merging module ./bitcodes2/image_rs15_222_[P94rVogt].bc
Variants count 1015
 Merging module ./bitcodes2/image_rs15_107_[iK2CjxMm].bc
Variants count 1016
_ZN111_$LT$core..iter..adapters..zip..Zip$LT$A$C$B$GT$$u20$as$u20$core..iter..adapters..zip..ZipImpl$LT$A$C$B$GT$$GT$4next17h904ae9a5f7f17e7dE already exist in ./bitcodes2/image_rs15_107_[iK2CjxMm].bc w:0
_ZN153_$LT$core..result..Result$LT$T$C$F$GT$$u20$as$u20$core..ops..try_trait..FromResidual$LT$core..result..Result$LT$core..convert..Infallible$C$E$GT$$GT$$GT$13from_residual17he99b67180108ca9bE already exist in ./bitcodes2/image_rs15_107_[iK2CjxMm].bc w:0
_ZN63_$LT$I$u20$as$u20$core..iter..traits..collect..IntoIterator$GT$9into_iter17hf0d7f71adab83d70E already exist in ./bitcodes2/image_rs15_107_[iK2CjxMm].bc w:0
 Merging module ./bitcodes2/image_rs15_615_[mdkGq5qt].bc
_ZN4core3ptr65drop_in_place$LT$core..option..Option$LT$weezl..StreamBuf$GT$$GT$17hab39435439ff229fE already exist in ./bitcodes2/image_rs15_615_[mdkGq5qt].bc w:0
_ZN4core3ptr8non_null16NonNull$LT$T$GT$13new_unchecked17hf13979bfdc5a69a2E already exist in ./bitcodes2/image_rs15_615_[mdkGq5qt].bc w:0
 Merging module ./bitcodes2/image_rs15_22_[l9jMRYxr].bc
Variants count 1017
_ZN4core4iter6traits8iterator8Iterator3zip17h43464ae3c43581b8E already exist in ./bitcodes2/image_rs15_22_[l9jMRYxr].bc w:0
_ZN63_$LT$I$u20$as$u20$core..iter..traits..collect..IntoIterator$GT$9into_iter17hfc236f1a393ea9c0E already exist in ./bitcodes2/image_rs15_22_[l9jMRYxr].bc w:0
_ZN5image5error16UnsupportedError20from_format_and_kind17h8dd35d19527ffadbE already exist in ./bitcodes2/image_rs15_22_[l9jMRYxr].bc w:0
_ZN5image8imageops6sample9thumbnail17h418ac981c55a78dbE already exist in ./bitcodes2/image_rs15_22_[l9jMRYxr].bc w:0
 Merging module ./bitcodes2/image_rs15_222_[mSSzf6Sg].bc
Variants count 1018
 Merging module ./bitcodes2/image_rs15_840_[BYLh3xOV].bc
_ZN4core6result19Result$LT$T$C$E$GT$3map17h4d8bfd9bcd90b7b3E already exist in ./bitcodes2/image_rs15_840_[BYLh3xOV].bc w:0
_ZN4core3ptr1301drop_in_place$LT$core..iter..adapters..map..map_fold$LT$$LP$core..option..Option$LT$jpeg_decoder..huffman..HuffmanTable$GT$$C$core..option..Option$LT$jpeg_decoder..huffman..HuffmanTable$GT$$RP$$C$core..option..Option$LT$jpeg_decoder..huffman..HuffmanTable$GT$$C$$LP$$RP$$C$jpeg_decoder..decoder..Decoder$LT$std..io..buffered..bufreader..BufReader$LT$std..fs..File$GT$$GT$..decode_internal..$u7b$$u7b$closure$u7d$$u7d$$C$core..iter..traits..iterator..Iterator..for_each..call$LT$core..option..Option$LT$jpeg_decoder..huffman..HuffmanTable$GT$$C$$LT$alloc..vec..Vec$LT$core..option..Option$LT$jpeg_decoder..huffman..HuffmanTable$GT$$GT$$u20$as$u20$alloc..vec..spec_extend..SpecExtend$LT$core..option..Option$LT$jpeg_decoder..huffman..HuffmanTable$GT$$C$core..iter..adapters..map..Map$LT$core..iter..adapters..zip..Zip$LT$alloc..vec..into_iter..IntoIter$LT$core..option..Option$LT$jpeg_decoder..huffman..HuffmanTable$GT$$GT$$C$alloc..vec..into_iter..IntoIter$LT$core..option..Option$LT$jpeg_decoder..huffman..HuffmanTable$GT$$GT$$GT$$C$jpeg_decoder..decoder..Decoder$LT$std..io..buffered..bufreader..BufReader$LT$std..fs..File$GT$$GT$..decode_internal..$u7b$$u7b$closure$u7d$$u7d$$GT$$GT$$GT$..spec_extend..$u7b$$u7b$closure$u7d$$u7d$$GT$..$u7b$$u7b$closure$u7d$$u7d$$GT$..$u7b$$u7b$closure$u7d$$u7d$$GT$17h43f18c2da6dc3c94E already exist in ./bitcodes2/image_rs15_840_[BYLh3xOV].bc w:0
 Merging module ./bitcodes2/png_rs13_169_[CJMaXKme][21Xx_Hde][fDzccxS8].bc
Variants count 1019
 Merging module ./bitcodes2/image_rs15_3_[ahVp4RuH].bc
Variants count 1020
_ZN3png7decoder16Decoder$LT$R$GT$19set_transformations17h3db447a4863900d2E already exist in ./bitcodes2/image_rs15_3_[ahVp4RuH].bc w:0
_ZN5image6codecs3bmp7decoder19BmpDecoder$LT$R$GT$25read_full_byte_pixel_data17he90647b932761bd4E already exist in ./bitcodes2/image_rs15_3_[ahVp4RuH].bc w:0
 Merging module ./bitcodes2/image_rs15_87_[YeySlNtx].bc
Variants count 1021
 Merging module ./bitcodes2/image_rs15_31_[mgQJNyCk].bc
_ZN153_$LT$core..result..Result$LT$T$C$F$GT$$u20$as$u20$core..ops..try_trait..FromResidual$LT$core..result..Result$LT$core..convert..Infallible$C$E$GT$$GT$$GT$13from_residual17h571fa2b99265a39fE already exist in ./bitcodes2/image_rs15_31_[mgQJNyCk].bc w:0
_ZN3png7decoder15Reader$LT$R$GT$9line_size17hd697ec76058bfc83E already exist in ./bitcodes2/image_rs15_31_[mgQJNyCk].bc w:0
_ZN5image8dynimage12DynamicImage14as_luma_alpha817h884885172accc8c0E already exist in ./bitcodes2/image_rs15_31_[mgQJNyCk].bc w:0
 Merging module ./bitcodes2/image_rs15_125_[g6DIu4NO].bc
Variants count 1022
_ZN4core4iter8adapters3map16Map$LT$I$C$F$GT$3new17h4fbee63e29420067E already exist in ./bitcodes2/image_rs15_125_[g6DIu4NO].bc w:0
_ZN5image8imageops6affine8rotate9017h07814081b1ddd323E already exist in ./bitcodes2/image_rs15_125_[g6DIu4NO].bc w:0
 Merging module ./bitcodes2/image_rs15_222_[pZmDIY5_].bc
Variants count 1023
 Merging module ./bitcodes2/image_rs15_215_[tueYnt8P].bc
Variants count 1024
 Merging module ./bitcodes2/image_rs15_858_[LCHADxvh].bc
Variants count 1025
_ZN111_$LT$core..iter..adapters..zip..Zip$LT$A$C$B$GT$$u20$as$u20$core..iter..adapters..zip..ZipImpl$LT$A$C$B$GT$$GT$3new17hd9e89045f71da222E already exist in ./bitcodes2/image_rs15_858_[LCHADxvh].bc w:0
_ZN4core3ptr175drop_in_place$LT$std..io..buffered..bufreader..BufReader$LT$std..io..buffered..bufreader..BufReader$LT$std..io..buffered..bufreader..BufReader$LT$std..fs..File$GT$$GT$$GT$$GT$17hdbdf19a6169cce83E already exist in ./bitcodes2/image_rs15_858_[LCHADxvh].bc w:0
_ZN75_$LT$usize$u20$as$u20$core..slice..index..SliceIndex$LT$$u5b$T$u5d$$GT$$GT$9index_mut17h878438740c82fb14E already exist in ./bitcodes2/image_rs15_858_[LCHADxvh].bc w:0
_ZN95_$LT$image..codecs..ico..encoder..IcoEncoder$LT$W$GT$$u20$as$u20$image..image..ImageEncoder$GT$11write_image17h4263aacfd78fedfdE already exist in ./bitcodes2/image_rs15_858_[LCHADxvh].bc w:0
_ZN5image6codecs3pnm9autobreak18AutoBreak$LT$W$GT$9flush_buf17h350f213d0bcba396E already exist in ./bitcodes2/image_rs15_858_[LCHADxvh].bc w:0
 Merging module ./bitcodes2/image_rs15_112_[9PAI_856].bc
Variants count 1026
_ZN4core3ops12control_flow77ControlFlow$LT$R$C$$LT$R$u20$as$u20$core..ops..try_trait..Try$GT$..Output$GT$8from_try17hfa27bd65a5ae5641E already exist in ./bitcodes2/image_rs15_112_[9PAI_856].bc w:0
_ZN5image8imageops8colorops8contrast17he99131cb2798383fE already exist in ./bitcodes2/image_rs15_112_[9PAI_856].bc w:0
 Merging module ./bitcodes2/image_rs15_87_[cwxIEoAV].bc
Variants count 1027
 Merging module ./bitcodes2/image_rs15_847_[C2gQLU6W].bc
Variants count 1028
_ZN91_$LT$core..slice..iter..Iter$LT$T$GT$$u20$as$u20$core..iter..traits..iterator..Iterator$GT$8position17hbfc0843c92c6878aE already exist in ./bitcodes2/image_rs15_847_[C2gQLU6W].bc w:0
 Merging module ./bitcodes2/image_rs15_125_[7x__Utpe].bc
Variants count 1029
_ZN4core4iter8adapters3map16Map$LT$I$C$F$GT$3new17h4fbee63e29420067E already exist in ./bitcodes2/image_rs15_125_[7x__Utpe].bc w:0
_ZN5image8imageops6affine8rotate9017h07814081b1ddd323E already exist in ./bitcodes2/image_rs15_125_[7x__Utpe].bc w:0
 Merging module ./bitcodes2/image_rs15_222_[p1qcfgOl].bc
Variants count 1030
 Merging module ./bitcodes2/image_rs15_825_[qN6_d_3X].bc
_ZN5image6codecs3ico7decoder12read_entries17h1ec3cbec3442b257E already exist in ./bitcodes2/image_rs15_825_[qN6_d_3X].bc w:0
 Merging module ./bitcodes2/image_rs15_676_[AkCptiXn].bc
Variants count 1031
_ZN5image8dynimage12DynamicImage12from_decoder17h7f14f4ca4650afdfE already exist in ./bitcodes2/image_rs15_676_[AkCptiXn].bc w:0
 Merging module ./bitcodes2/image_rs15_222_[9yhq_ana].bc
Variants count 1032
 Merging module ./bitcodes2/image_rs15_840_[Pd3zVbmy].bc
_ZN4core3ptr1301drop_in_place$LT$core..iter..adapters..map..map_fold$LT$$LP$core..option..Option$LT$jpeg_decoder..huffman..HuffmanTable$GT$$C$core..option..Option$LT$jpeg_decoder..huffman..HuffmanTable$GT$$RP$$C$core..option..Option$LT$jpeg_decoder..huffman..HuffmanTable$GT$$C$$LP$$RP$$C$jpeg_decoder..decoder..Decoder$LT$std..io..buffered..bufreader..BufReader$LT$std..fs..File$GT$$GT$..decode_internal..$u7b$$u7b$closure$u7d$$u7d$$C$core..iter..traits..iterator..Iterator..for_each..call$LT$core..option..Option$LT$jpeg_decoder..huffman..HuffmanTable$GT$$C$$LT$alloc..vec..Vec$LT$core..option..Option$LT$jpeg_decoder..huffman..HuffmanTable$GT$$GT$$u20$as$u20$alloc..vec..spec_extend..SpecExtend$LT$core..option..Option$LT$jpeg_decoder..huffman..HuffmanTable$GT$$C$core..iter..adapters..map..Map$LT$core..iter..adapters..zip..Zip$LT$alloc..vec..into_iter..IntoIter$LT$core..option..Option$LT$jpeg_decoder..huffman..HuffmanTable$GT$$GT$$C$alloc..vec..into_iter..IntoIter$LT$core..option..Option$LT$jpeg_decoder..huffman..HuffmanTable$GT$$GT$$GT$$C$jpeg_decoder..decoder..Decoder$LT$std..io..buffered..bufreader..BufReader$LT$std..fs..File$GT$$GT$..decode_internal..$u7b$$u7b$closure$u7d$$u7d$$GT$$GT$$GT$..spec_extend..$u7b$$u7b$closure$u7d$$u7d$$GT$..$u7b$$u7b$closure$u7d$$u7d$$GT$..$u7b$$u7b$closure$u7d$$u7d$$GT$17h43f18c2da6dc3c94E already exist in ./bitcodes2/image_rs15_840_[Pd3zVbmy].bc w:0
_ZN4core6result19Result$LT$T$C$E$GT$3map17h4d8bfd9bcd90b7b3E already exist in ./bitcodes2/image_rs15_840_[Pd3zVbmy].bc w:0
 Merging module ./bitcodes2/image_rs15_897_[ybNTF7Qr].bc
Variants count 1033
_ZN94_$LT$core..slice..iter..IterMut$LT$T$GT$$u20$as$u20$core..iter..traits..iterator..Iterator$GT$24__iterator_get_unchecked17h58b6afa0e8024274E already exist in ./bitcodes2/image_rs15_897_[ybNTF7Qr].bc w:0
_ZN236_$LT$image..buffer_..ImageBuffer$LT$FromType$C$Container$GT$$u20$as$u20$image..buffer_..ConvertBuffer$LT$image..buffer_..ImageBuffer$LT$ToType$C$alloc..vec..Vec$LT$$LT$ToType$u20$as$u20$image..traits..Pixel$GT$..Subpixel$GT$$GT$$GT$$GT$7convert17he398e278debce516E already exist in ./bitcodes2/image_rs15_897_[ybNTF7Qr].bc w:0
 Merging module ./bitcodes2/image_rs15_112_[GjQlUcjt].bc
Variants count 1034
_ZN4core3ops12control_flow77ControlFlow$LT$R$C$$LT$R$u20$as$u20$core..ops..try_trait..Try$GT$..Output$GT$8from_try17hfa27bd65a5ae5641E already exist in ./bitcodes2/image_rs15_112_[GjQlUcjt].bc w:0
_ZN5image8imageops8colorops8contrast17he99131cb2798383fE already exist in ./bitcodes2/image_rs15_112_[GjQlUcjt].bc w:0
 Merging module ./bitcodes2/png_rs13_626_[kabIAUD5][ikW0_A3v][pKNdTzMJ][DnBEOMxS][LoTS2Lfn].bc
Variants count 1035
 Merging module ./bitcodes2/image_rs15_615_[33gFG_mB].bc
Variants count 1036
_ZN4core3ptr8non_null16NonNull$LT$T$GT$13new_unchecked17hf13979bfdc5a69a2E already exist in ./bitcodes2/image_rs15_615_[33gFG_mB].bc w:0
 Merging module ./bitcodes2/image_rs15_222_[JyKMOgi8].bc
Variants count 1037
 Merging module ./bitcodes2/image_rs15_87_[bHOow4rI].bc
Variants count 1038
 Merging module ./bitcodes2/image_rs15_107_[gLr55rrx].bc
Variants count 1039
_ZN111_$LT$core..iter..adapters..zip..Zip$LT$A$C$B$GT$$u20$as$u20$core..iter..adapters..zip..ZipImpl$LT$A$C$B$GT$$GT$4next17h904ae9a5f7f17e7dE already exist in ./bitcodes2/image_rs15_107_[gLr55rrx].bc w:0
_ZN153_$LT$core..result..Result$LT$T$C$F$GT$$u20$as$u20$core..ops..try_trait..FromResidual$LT$core..result..Result$LT$core..convert..Infallible$C$E$GT$$GT$$GT$13from_residual17he99b67180108ca9bE already exist in ./bitcodes2/image_rs15_107_[gLr55rrx].bc w:0
_ZN63_$LT$I$u20$as$u20$core..iter..traits..collect..IntoIterator$GT$9into_iter17hf0d7f71adab83d70E already exist in ./bitcodes2/image_rs15_107_[gLr55rrx].bc w:0
 Merging module ./bitcodes2/image_rs15_222_[M8rWxgy_].bc
Variants count 1040
 Merging module ./bitcodes2/image_rs15_809_[2bmCOltt].bc
_ZN85_$LT$std..io..buffered..bufreader..BufReader$LT$R$GT$$u20$as$u20$std..io..BufRead$GT$7consume17hf05299ba793de9a9E already exist in ./bitcodes2/image_rs15_809_[2bmCOltt].bc w:0
_ZN5image7buffer_32ImageBuffer$LT$P$C$Container$GT$9get_pixel17h3a889f5eea763470E already exist in ./bitcodes2/image_rs15_809_[2bmCOltt].bc w:0
 Merging module ./bitcodes2/image_rs15_248_[x35T697V].bc
Variants count 1041
_ZN5image6codecs4jpeg7encoder12PixelDensity3dpi17h76e5ade20be76fe1E already exist in ./bitcodes2/image_rs15_248_[x35T697V].bc w:0
 Merging module ./bitcodes2/image_rs15_3_[EtdGOPUq].bc
Variants count 1042
_ZN3png7decoder16Decoder$LT$R$GT$19set_transformations17h3db447a4863900d2E already exist in ./bitcodes2/image_rs15_3_[EtdGOPUq].bc w:0
_ZN5image6codecs3bmp7decoder19BmpDecoder$LT$R$GT$25read_full_byte_pixel_data17he90647b932761bd4E already exist in ./bitcodes2/image_rs15_3_[EtdGOPUq].bc w:0
 Merging module ./bitcodes2/image_rs15_676_[8b2OvlTN].bc
Variants count 1043
_ZN5image8dynimage12DynamicImage12from_decoder17h7f14f4ca4650afdfE already exist in ./bitcodes2/image_rs15_676_[8b2OvlTN].bc w:0
 Merging module ./bitcodes2/image_rs15_502_[QIXiikai].bc
Variants count 1044
 Merging module ./bitcodes2/image_rs15_112_[EHUzjZnW].bc
Variants count 1045
_ZN4core3ops12control_flow77ControlFlow$LT$R$C$$LT$R$u20$as$u20$core..ops..try_trait..Try$GT$..Output$GT$8from_try17hfa27bd65a5ae5641E already exist in ./bitcodes2/image_rs15_112_[EHUzjZnW].bc w:0
_ZN5image8imageops8colorops8contrast17he99131cb2798383fE already exist in ./bitcodes2/image_rs15_112_[EHUzjZnW].bc w:0
 Merging module ./bitcodes2/image_rs15_21_[mCuo4Nvl].bc
Variants count 1046
_ZN5alloc11collections5btree4node137Handle$LT$alloc..collections..btree..node..NodeRef$LT$BorrowType$C$K$C$V$C$NodeType$GT$$C$alloc..collections..btree..node..marker..KV$GT$10right_edge17hc8affa6734f1dd43E already exist in ./bitcodes2/image_rs15_21_[mCuo4Nvl].bc w:0
_ZN97_$LT$alloc..vec..Vec$LT$T$C$A$GT$$u20$as$u20$alloc..vec..spec_extend..SpecExtend$LT$T$C$I$GT$$GT$11spec_extend17hef060f9900728987E already exist in ./bitcodes2/image_rs15_21_[mCuo4Nvl].bc w:0
_ZN106_$LT$image..color..Rgb$LT$T$GT$$u20$as$u20$image..color..FromColor$LT$image..color..LumaA$LT$T$GT$$GT$$GT$10from_color17h3483d43fbbee6b31E already exist in ./bitcodes2/image_rs15_21_[mCuo4Nvl].bc w:0
 Merging module ./bitcodes2/png_rs13_2897_[kzEYqN12][Xm6_QWPM].bc
Variants count 1047
 Merging module ./bitcodes2/image_rs15_158_[9O4uVA6a].bc
Variants count 1048
 Merging module ./bitcodes2/image_rs15_496_[3vR_jqTX].bc
_ZN4core4iter6traits8iterator8Iterator4fold17hd88b9692991d2a0dE already exist in ./bitcodes2/image_rs15_496_[3vR_jqTX].bc w:0
 Merging module ./bitcodes2/png_rs13_601_[5OSB5_p3][lrkenrIX].bc
Variants count 1049
 Merging module ./bitcodes2/image_rs15_86_[lWxDQDWw].bc
Variants count 1050
 Merging module ./bitcodes2/image_rs15_3_[kh8slGKk].bc
Variants count 1051
_ZN3png7decoder16Decoder$LT$R$GT$19set_transformations17h3db447a4863900d2E already exist in ./bitcodes2/image_rs15_3_[kh8slGKk].bc w:0
_ZN5image6codecs3bmp7decoder19BmpDecoder$LT$R$GT$25read_full_byte_pixel_data17he90647b932761bd4E already exist in ./bitcodes2/image_rs15_3_[kh8slGKk].bc w:0
 Merging module ./bitcodes2/image_rs15_144_[IO9IybZf].bc
Variants count 1052
_ZN5image8imageops10crop_dimms17h39cdb411ca80a1b2E already exist in ./bitcodes2/image_rs15_144_[IO9IybZf].bc w:0
 Merging module ./bitcodes2/image_rs15_222_[y4akUdNY].bc
Variants count 1053
 Merging module ./bitcodes2/image_rs15_222_[F1ECVBaD].bc
Variants count 1054
 Merging module ./bitcodes2/image_rs15_87_[VZT2NpoN].bc
Variants count 1055
 Merging module ./bitcodes2/image_rs15_215_[7s6GRire].bc
Variants count 1056
 Merging module ./bitcodes2/image_rs15_618_[K9wYEwsI].bc
_ZN79_$LT$core..result..Result$LT$T$C$E$GT$$u20$as$u20$core..ops..try_trait..Try$GT$6branch17h2345af5a05185ac1E already exist in ./bitcodes2/image_rs15_618_[K9wYEwsI].bc w:0
 Merging module ./bitcodes2/image_rs15_222_[qgdoHBR0].bc
Variants count 1057
 Merging module ./bitcodes2/image_rs15_86_[a5BGbM48].bc
Variants count 1058
 Merging module ./bitcodes2/image_rs15_125_[n2ojmZrL].bc
Variants count 1059
_ZN4core4iter8adapters3map16Map$LT$I$C$F$GT$3new17h4fbee63e29420067E already exist in ./bitcodes2/image_rs15_125_[n2ojmZrL].bc w:0
_ZN5image8imageops6affine8rotate9017h07814081b1ddd323E already exist in ./bitcodes2/image_rs15_125_[n2ojmZrL].bc w:0
 Merging module ./bitcodes2/image_rs15_222_[QloU9JhG].bc
Variants count 1060
 Merging module ./bitcodes2/image_rs15_86_[a6sa6Zls].bc
Variants count 1061
 Merging module ./bitcodes2/image_rs15_222_[i9hC3wEf].bc
Variants count 1062
 Merging module ./bitcodes2/png_rs13_626_[rIjntKBu][eNvZveWn][UZudEZDt][3Him5BWu][aKBk_kwL].bc
Variants count 1063
 Merging module ./bitcodes2/image_rs15_684_[2ZI8gxD9].bc
Variants count 1064
_ZN97_$LT$alloc..vec..Vec$LT$T$C$A$GT$$u20$as$u20$alloc..vec..spec_extend..SpecExtend$LT$T$C$I$GT$$GT$11spec_extend28_$u7b$$u7b$closure$u7d$$u7d$17h96619b169d7d8ec9E already exist in ./bitcodes2/image_rs15_684_[2ZI8gxD9].bc w:0
 Merging module ./bitcodes2/png_rs13_158_[5N2pR473][GPlw_uJQ][Y_6BdOF1].bc
Variants count 1065
 Merging module ./bitcodes2/image_rs15_125_[DHgYGsXd].bc
Variants count 1066
_ZN4core4iter8adapters3map16Map$LT$I$C$F$GT$3new17h4fbee63e29420067E already exist in ./bitcodes2/image_rs15_125_[DHgYGsXd].bc w:0
_ZN5image8imageops6affine8rotate9017h07814081b1ddd323E already exist in ./bitcodes2/image_rs15_125_[DHgYGsXd].bc w:0
 Merging module ./bitcodes2/image_rs15_818_[Xdg__nkr].bc
Variants count 1067
_ZN5image5error10LimitError9from_kind17h5b0452e3cc9838c6E already exist in ./bitcodes2/image_rs15_818_[Xdg__nkr].bc w:0
_ZN99_$LT$image..buffer_..ImageBuffer$LT$P$C$Container$GT$$u20$as$u20$image..image..GenericImageView$GT$9get_pixel17h58e9e6d253fab205E already exist in ./bitcodes2/image_rs15_818_[Xdg__nkr].bc w:0
 Merging module ./bitcodes2/image_rs15_222_[ZPYQ2eyX].bc
Variants count 1068
 Merging module ./bitcodes2/image_rs15_142_[4x8Z_0Rs].bc
Variants count 1069
_ZN97_$LT$alloc..vec..Vec$LT$T$C$A$GT$$u20$as$u20$alloc..vec..spec_extend..SpecExtend$LT$T$C$I$GT$$GT$11spec_extend17h23e2afbd79d2bf65E already exist in ./bitcodes2/image_rs15_142_[4x8Z_0Rs].bc w:0
 Merging module ./bitcodes2/image_rs15_87_[_yKEV0Is].bc
Variants count 1070
 Merging module ./bitcodes2/image_rs15_144_[XCxXndfM].bc
Variants count 1071
_ZN5image8imageops10crop_dimms17h39cdb411ca80a1b2E already exist in ./bitcodes2/image_rs15_144_[XCxXndfM].bc w:0
 Merging module ./bitcodes2/image_rs15_222_[Vp_exCKb].bc
Variants count 1072
 Merging module ./bitcodes2/image_rs15_107_[ChVNejgU].bc
Variants count 1073
_ZN111_$LT$core..iter..adapters..zip..Zip$LT$A$C$B$GT$$u20$as$u20$core..iter..adapters..zip..ZipImpl$LT$A$C$B$GT$$GT$4next17h904ae9a5f7f17e7dE already exist in ./bitcodes2/image_rs15_107_[ChVNejgU].bc w:0
_ZN153_$LT$core..result..Result$LT$T$C$F$GT$$u20$as$u20$core..ops..try_trait..FromResidual$LT$core..result..Result$LT$core..convert..Infallible$C$E$GT$$GT$$GT$13from_residual17he99b67180108ca9bE already exist in ./bitcodes2/image_rs15_107_[ChVNejgU].bc w:0
_ZN63_$LT$I$u20$as$u20$core..iter..traits..collect..IntoIterator$GT$9into_iter17hf0d7f71adab83d70E already exist in ./bitcodes2/image_rs15_107_[ChVNejgU].bc w:0
 Merging module ./bitcodes2/image_rs15_67_[WTEuBOwr].bc
Variants count 1074
Variants count 1075
Variants count 1076
 Merging module ./bitcodes2/image_rs15_160_[QTgtYnJd].bc
Variants count 1077
 Merging module ./bitcodes2/image_rs15_239_[dyHKBM_x].bc
Variants count 1078
_ZN4core4iter6traits8iterator8Iterator10max_by_key3key17h7d25e6cf4f733365E already exist in ./bitcodes2/image_rs15_239_[dyHKBM_x].bc w:0
 Merging module ./bitcodes2/image_rs15_239_[8pYj_Hhc].bc
_ZN3gif7encoder16Encoder$LT$W$GT$15write_extension17h31216512db391286E already exist in ./bitcodes2/image_rs15_239_[8pYj_Hhc].bc w:0
_ZN4core4iter6traits8iterator8Iterator10max_by_key3key17h7d25e6cf4f733365E already exist in ./bitcodes2/image_rs15_239_[8pYj_Hhc].bc w:0
 Merging module ./bitcodes2/image_rs15_248_[u3_jb9g0].bc
Variants count 1079
_ZN5image6codecs4jpeg7encoder12PixelDensity3dpi17h76e5ade20be76fe1E already exist in ./bitcodes2/image_rs15_248_[u3_jb9g0].bc w:0
 Merging module ./bitcodes2/image_rs15_21_[YCqha60Z].bc
Variants count 1080
_ZN5alloc11collections5btree4node137Handle$LT$alloc..collections..btree..node..NodeRef$LT$BorrowType$C$K$C$V$C$NodeType$GT$$C$alloc..collections..btree..node..marker..KV$GT$10right_edge17hc8affa6734f1dd43E already exist in ./bitcodes2/image_rs15_21_[YCqha60Z].bc w:0
_ZN97_$LT$alloc..vec..Vec$LT$T$C$A$GT$$u20$as$u20$alloc..vec..spec_extend..SpecExtend$LT$T$C$I$GT$$GT$11spec_extend17hef060f9900728987E already exist in ./bitcodes2/image_rs15_21_[YCqha60Z].bc w:0
_ZN106_$LT$image..color..Rgb$LT$T$GT$$u20$as$u20$image..color..FromColor$LT$image..color..LumaA$LT$T$GT$$GT$$GT$10from_color17h3483d43fbbee6b31E already exist in ./bitcodes2/image_rs15_21_[YCqha60Z].bc w:0
 Merging module ./bitcodes2/image_rs15_897_[2gpKeAW5].bc
Variants count 1081
_ZN94_$LT$core..slice..iter..IterMut$LT$T$GT$$u20$as$u20$core..iter..traits..iterator..Iterator$GT$24__iterator_get_unchecked17h58b6afa0e8024274E already exist in ./bitcodes2/image_rs15_897_[2gpKeAW5].bc w:0
_ZN236_$LT$image..buffer_..ImageBuffer$LT$FromType$C$Container$GT$$u20$as$u20$image..buffer_..ConvertBuffer$LT$image..buffer_..ImageBuffer$LT$ToType$C$alloc..vec..Vec$LT$$LT$ToType$u20$as$u20$image..traits..Pixel$GT$..Subpixel$GT$$GT$$GT$$GT$7convert17he398e278debce516E already exist in ./bitcodes2/image_rs15_897_[2gpKeAW5].bc w:0
 Merging module ./bitcodes2/image_rs15_222_[vHH1RImI].bc
Variants count 1082
 Merging module ./bitcodes2/image_rs15_222_[SOsoo0y4].bc
Variants count 1083
 Merging module ./bitcodes2/image_rs15_222_[k6YQjda4].bc
Variants count 1084
 Merging module ./bitcodes2/image_rs15_490_[gn_fCffA].bc
Variants count 1085
 Merging module ./bitcodes2/image_rs15_125_[i1A0pVdS].bc
Variants count 1086
_ZN4core4iter8adapters3map16Map$LT$I$C$F$GT$3new17h4fbee63e29420067E already exist in ./bitcodes2/image_rs15_125_[i1A0pVdS].bc w:0
_ZN5image8imageops6affine8rotate9017h07814081b1ddd323E already exist in ./bitcodes2/image_rs15_125_[i1A0pVdS].bc w:0
 Merging module ./bitcodes2/image_rs15_610_[Y5zpat_D].bc
Variants count 1087
 Merging module ./bitcodes2/image_rs15_878_[ImyM1tg9].bc
_ZN4tiff7decoder16Decoder$LT$R$GT$10next_image17h0972891b5629e687E already exist in ./bitcodes2/image_rs15_878_[ImyM1tg9].bc w:0
_ZN84_$LT$core..option..Option$LT$T$GT$$u20$as$u20$core..ops..try_trait..FromResidual$GT$13from_residual17h867e0f47ab24da24E already exist in ./bitcodes2/image_rs15_878_[ImyM1tg9].bc w:0
 Merging module ./bitcodes2/image_rs15_222_[BimPC6wx].bc
Variants count 1088
 Merging module ./bitcodes2/image_rs15_3_[hEdfiqHP].bc
Variants count 1089
_ZN3png7decoder16Decoder$LT$R$GT$19set_transformations17h3db447a4863900d2E already exist in ./bitcodes2/image_rs15_3_[hEdfiqHP].bc w:0
_ZN5image6codecs3bmp7decoder19BmpDecoder$LT$R$GT$25read_full_byte_pixel_data17he90647b932761bd4E already exist in ./bitcodes2/image_rs15_3_[hEdfiqHP].bc w:0
 Merging module ./bitcodes2/image_rs15_676_[6eMGcYzO].bc
Variants count 1090
_ZN5image8dynimage12DynamicImage12from_decoder17h7f14f4ca4650afdfE already exist in ./bitcodes2/image_rs15_676_[6eMGcYzO].bc w:0
 Merging module ./bitcodes2/image_rs15_22_[Cmomgvio].bc
Variants count 1091
_ZN4core4iter6traits8iterator8Iterator3zip17h43464ae3c43581b8E already exist in ./bitcodes2/image_rs15_22_[Cmomgvio].bc w:0
_ZN63_$LT$I$u20$as$u20$core..iter..traits..collect..IntoIterator$GT$9into_iter17hfc236f1a393ea9c0E already exist in ./bitcodes2/image_rs15_22_[Cmomgvio].bc w:0
_ZN5image5error16UnsupportedError20from_format_and_kind17h8dd35d19527ffadbE already exist in ./bitcodes2/image_rs15_22_[Cmomgvio].bc w:0
_ZN5image8imageops6sample9thumbnail17h418ac981c55a78dbE already exist in ./bitcodes2/image_rs15_22_[Cmomgvio].bc w:0
 Merging module ./bitcodes2/image_rs15_233_[5toPl6p2].bc
Variants count 1092
_ZN5image6codecs4jpeg7encoder18BitWriter$LT$W$GT$13write_segment17h1f584c4ee0ce62ecE already exist in ./bitcodes2/image_rs15_233_[5toPl6p2].bc w:0
 Merging module ./bitcodes2/image_rs15_847_[XqNsakN_].bc
Variants count 1093
_ZN91_$LT$core..slice..iter..Iter$LT$T$GT$$u20$as$u20$core..iter..traits..iterator..Iterator$GT$8position17hbfc0843c92c6878aE already exist in ./bitcodes2/image_rs15_847_[XqNsakN_].bc w:0
 Merging module ./bitcodes2/image_rs15_222_[ptFOJvOU].bc
Variants count 1094
 Merging module ./bitcodes2/image_rs15_829_[og5iQRhK].bc
Variants count 1095
 Merging module ./bitcodes2/image_rs15_222_[pSYzPiHf].bc
Variants count 1096
 Merging module ./bitcodes2/image_rs15_112_[EjMKOW0N].bc
Variants count 1097
_ZN4core3ops12control_flow77ControlFlow$LT$R$C$$LT$R$u20$as$u20$core..ops..try_trait..Try$GT$..Output$GT$8from_try17hfa27bd65a5ae5641E already exist in ./bitcodes2/image_rs15_112_[EjMKOW0N].bc w:0
_ZN5image8imageops8colorops8contrast17he99131cb2798383fE already exist in ./bitcodes2/image_rs15_112_[EjMKOW0N].bc w:0
 Merging module ./bitcodes2/image_rs15_222_[rqbmBSCC].bc
Variants count 1098
 Merging module ./bitcodes2/image_rs15_142_[VuQVOkqJ].bc
Variants count 1099
_ZN97_$LT$alloc..vec..Vec$LT$T$C$A$GT$$u20$as$u20$alloc..vec..spec_extend..SpecExtend$LT$T$C$I$GT$$GT$11spec_extend17h23e2afbd79d2bf65E already exist in ./bitcodes2/image_rs15_142_[VuQVOkqJ].bc w:0
 Merging module ./bitcodes2/image_rs15_684_[3kNy9G7Y].bc
Variants count 1100
_ZN97_$LT$alloc..vec..Vec$LT$T$C$A$GT$$u20$as$u20$alloc..vec..spec_extend..SpecExtend$LT$T$C$I$GT$$GT$11spec_extend28_$u7b$$u7b$closure$u7d$$u7d$17h96619b169d7d8ec9E already exist in ./bitcodes2/image_rs15_684_[3kNy9G7Y].bc w:0
 Merging module ./bitcodes2/image_rs15_3_[qfrK0Zyt].bc
Variants count 1101
_ZN3png7decoder16Decoder$LT$R$GT$19set_transformations17h3db447a4863900d2E already exist in ./bitcodes2/image_rs15_3_[qfrK0Zyt].bc w:0
_ZN5image6codecs3bmp7decoder19BmpDecoder$LT$R$GT$25read_full_byte_pixel_data17he90647b932761bd4E already exist in ./bitcodes2/image_rs15_3_[qfrK0Zyt].bc w:0
 Merging module ./bitcodes2/image_rs15_222_[IKXrFEvK].bc
Variants count 1102
 Merging module ./bitcodes2/image_rs15_3_[D7DBSF9W].bc
Variants count 1103
_ZN3png7decoder16Decoder$LT$R$GT$19set_transformations17h3db447a4863900d2E already exist in ./bitcodes2/image_rs15_3_[D7DBSF9W].bc w:0
_ZN5image6codecs3bmp7decoder19BmpDecoder$LT$R$GT$25read_full_byte_pixel_data17he90647b932761bd4E already exist in ./bitcodes2/image_rs15_3_[D7DBSF9W].bc w:0
 Merging module ./bitcodes2/image_rs15_222_[VCrUYzUV].bc
Variants count 1104
 Merging module ./bitcodes2/image_rs15_0_[Kh_23Iam][XfYvmwN7][keZXTa9Z][_e8nrsc7].bc
Variants count 1105
 Merging module ./bitcodes2/image_rs15_890_[pfyawJxL].bc
Variants count 1106
 Merging module ./bitcodes2/image_rs15_676_[Utpqz9Aa].bc
Variants count 1107
_ZN5image8dynimage12DynamicImage12from_decoder17h7f14f4ca4650afdfE already exist in ./bitcodes2/image_rs15_676_[Utpqz9Aa].bc w:0
 Merging module ./bitcodes2/image_rs15_829_[SIkVKMi0].bc
Variants count 1108
 Merging module ./bitcodes2/image_rs15_87_[wyuUyZSq].bc
Variants count 1109
 Merging module ./bitcodes2/image_rs15_886_[vewIf2rq].bc
_ZN5alloc7raw_vec19RawVec$LT$T$C$A$GT$14current_memory17h2ebfc26687c09d8bE already exist in ./bitcodes2/image_rs15_886_[vewIf2rq].bc w:0
_ZN105_$LT$image..color..Rgb$LT$T$GT$$u20$as$u20$image..color..FromColor$LT$image..color..Luma$LT$T$GT$$GT$$GT$10from_color17hfded6d83c20eeff5E already exist in ./bitcodes2/image_rs15_886_[vewIf2rq].bc w:0
 Merging module ./bitcodes2/image_rs15_858_[usAF6H6S].bc
Variants count 1110
_ZN111_$LT$core..iter..adapters..zip..Zip$LT$A$C$B$GT$$u20$as$u20$core..iter..adapters..zip..ZipImpl$LT$A$C$B$GT$$GT$3new17hd9e89045f71da222E already exist in ./bitcodes2/image_rs15_858_[usAF6H6S].bc w:0
_ZN4core3ptr175drop_in_place$LT$std..io..buffered..bufreader..BufReader$LT$std..io..buffered..bufreader..BufReader$LT$std..io..buffered..bufreader..BufReader$LT$std..fs..File$GT$$GT$$GT$$GT$17hdbdf19a6169cce83E already exist in ./bitcodes2/image_rs15_858_[usAF6H6S].bc w:0
_ZN75_$LT$usize$u20$as$u20$core..slice..index..SliceIndex$LT$$u5b$T$u5d$$GT$$GT$9index_mut17h878438740c82fb14E already exist in ./bitcodes2/image_rs15_858_[usAF6H6S].bc w:0
_ZN95_$LT$image..codecs..ico..encoder..IcoEncoder$LT$W$GT$$u20$as$u20$image..image..ImageEncoder$GT$11write_image17h4263aacfd78fedfdE already exist in ./bitcodes2/image_rs15_858_[usAF6H6S].bc w:0
_ZN5image6codecs3pnm9autobreak18AutoBreak$LT$W$GT$9flush_buf17h350f213d0bcba396E already exist in ./bitcodes2/image_rs15_858_[usAF6H6S].bc w:0
 Merging module ./bitcodes2/image_rs15_125_[TEI6fZ_J].bc
Variants count 1111
_ZN4core4iter8adapters3map16Map$LT$I$C$F$GT$3new17h4fbee63e29420067E already exist in ./bitcodes2/image_rs15_125_[TEI6fZ_J].bc w:0
_ZN5image8imageops6affine8rotate9017h07814081b1ddd323E already exist in ./bitcodes2/image_rs15_125_[TEI6fZ_J].bc w:0
 Merging module ./bitcodes2/image_rs15_80_[sYQj4BO2].bc
Variants count 1112
_ZN4core3ptr104drop_in_place$LT$alloc..raw_vec..RawVec$LT$$LP$alloc..string..String$C$alloc..string..String$RP$$GT$$GT$17hb0979317a97b05b1E already exist in ./bitcodes2/image_rs15_80_[sYQj4BO2].bc w:0
 Merging module ./bitcodes2/image_rs15_222_[pkAOL_7p].bc
Variants count 1113
 Merging module ./bitcodes2/image_rs15_239_[4UO0LuRn].bc
Variants count 1114
_ZN4core4iter6traits8iterator8Iterator10max_by_key3key17h7d25e6cf4f733365E already exist in ./bitcodes2/image_rs15_239_[4UO0LuRn].bc w:0
 Merging module ./bitcodes2/image_rs15_605_[b4En_Ybs].bc
Variants count 1115
 Merging module ./bitcodes2/png_rs13_169_[HGN0R_nk][LxTKuzsl][60MPcgmP].bc
Variants count 1116
 Merging module ./bitcodes2/image_rs15_3_[YYFTpW5A].bc
Variants count 1117
_ZN3png7decoder16Decoder$LT$R$GT$19set_transformations17h3db447a4863900d2E already exist in ./bitcodes2/image_rs15_3_[YYFTpW5A].bc w:0
_ZN5image6codecs3bmp7decoder19BmpDecoder$LT$R$GT$25read_full_byte_pixel_data17he90647b932761bd4E already exist in ./bitcodes2/image_rs15_3_[YYFTpW5A].bc w:0
 Merging module ./bitcodes2/image_rs15_3_[93LgR42f].bc
Variants count 1118
_ZN3png7decoder16Decoder$LT$R$GT$19set_transformations17h3db447a4863900d2E already exist in ./bitcodes2/image_rs15_3_[93LgR42f].bc w:0
_ZN5image6codecs3bmp7decoder19BmpDecoder$LT$R$GT$25read_full_byte_pixel_data17he90647b932761bd4E already exist in ./bitcodes2/image_rs15_3_[93LgR42f].bc w:0
 Merging module ./bitcodes2/image_rs15_880_[keS3GL1b].bc
_ZN5alloc7raw_vec19RawVec$LT$T$C$A$GT$11allocate_in17hd8b1a6075d764de3E already exist in ./bitcodes2/image_rs15_880_[keS3GL1b].bc w:0
 Merging module ./bitcodes2/image_rs15_116_[kYeCOgXT].bc
Variants count 1119
Variants count 1120
Variants count 1121
 Merging module ./bitcodes2/image_rs15_144_[2s668eAK].bc
Variants count 1122
_ZN5image8imageops10crop_dimms17h39cdb411ca80a1b2E already exist in ./bitcodes2/image_rs15_144_[2s668eAK].bc w:0
 Merging module ./bitcodes2/png_rs13_2897_[sbN85F8x][ZKvUP1qm].bc
Variants count 1123
 Merging module ./bitcodes2/image_rs15_222_[SEZ8MJ1g].bc
Variants count 1124
 Merging module ./bitcodes2/image_rs15_222_[_e4LfY_w].bc
Variants count 1125
 Merging module ./bitcodes2/image_rs15_112_[groUcizZ].bc
Variants count 1126
_ZN4core3ops12control_flow77ControlFlow$LT$R$C$$LT$R$u20$as$u20$core..ops..try_trait..Try$GT$..Output$GT$8from_try17hfa27bd65a5ae5641E already exist in ./bitcodes2/image_rs15_112_[groUcizZ].bc w:0
_ZN5image8imageops8colorops8contrast17he99131cb2798383fE already exist in ./bitcodes2/image_rs15_112_[groUcizZ].bc w:0
 Merging module ./bitcodes2/image_rs15_86_[QHndvfs2].bc
Variants count 1127
 Merging module ./bitcodes2/image_rs15_215_[_xd6wza3].bc
Variants count 1128
 Merging module ./bitcodes2/image_rs15_222_[sCjhyaX5].bc
Variants count 1129
 Merging module ./bitcodes2/image_rs15_144_[h_WZFyd3].bc
Variants count 1130
_ZN5image8imageops10crop_dimms17h39cdb411ca80a1b2E already exist in ./bitcodes2/image_rs15_144_[h_WZFyd3].bc w:0
 Merging module ./bitcodes2/png_rs13_626_[DamynuKs][lTRUuFhb][oIgwlnNy][CJZLX8aI][wPemXorM].bc
Variants count 1131
 Merging module ./bitcodes2/image_rs15_222_[zOmlxxwa].bc
Variants count 1132
 Merging module ./bitcodes2/image_rs15_21_[VAT51A6y].bc
Variants count 1133
_ZN5alloc11collections5btree4node137Handle$LT$alloc..collections..btree..node..NodeRef$LT$BorrowType$C$K$C$V$C$NodeType$GT$$C$alloc..collections..btree..node..marker..KV$GT$10right_edge17hc8affa6734f1dd43E already exist in ./bitcodes2/image_rs15_21_[VAT51A6y].bc w:0
_ZN97_$LT$alloc..vec..Vec$LT$T$C$A$GT$$u20$as$u20$alloc..vec..spec_extend..SpecExtend$LT$T$C$I$GT$$GT$11spec_extend17hef060f9900728987E already exist in ./bitcodes2/image_rs15_21_[VAT51A6y].bc w:0
_ZN106_$LT$image..color..Rgb$LT$T$GT$$u20$as$u20$image..color..FromColor$LT$image..color..LumaA$LT$T$GT$$GT$$GT$10from_color17h3483d43fbbee6b31E already exist in ./bitcodes2/image_rs15_21_[VAT51A6y].bc w:0
 Merging module ./bitcodes2/image_rs15_12_[xGbf01rX].bc
Variants count 1134
Variants count 1135
 Merging module ./bitcodes2/image_rs15_125_[Xf0p2r8q].bc
Variants count 1136
_ZN4core4iter8adapters3map16Map$LT$I$C$F$GT$3new17h4fbee63e29420067E already exist in ./bitcodes2/image_rs15_125_[Xf0p2r8q].bc w:0
_ZN5image8imageops6affine8rotate9017h07814081b1ddd323E already exist in ./bitcodes2/image_rs15_125_[Xf0p2r8q].bc w:0
 Merging module ./bitcodes2/image_rs15_86_[_y7m02K9].bc
Variants count 1137
 Merging module ./bitcodes2/image_rs15_890_[e3Byq0O3].bc
Variants count 1138
 Merging module ./bitcodes2/image_rs15_503_[GD4_hRVk].bc
_ZN71_$LT$image..codecs..dds..DecoderError$u20$as$u20$core..fmt..Display$GT$3fmt17h6219249a85ea5eebE already exist in ./bitcodes2/image_rs15_503_[GD4_hRVk].bc w:0
 Merging module ./bitcodes2/image_rs15_22_[3xTMK8Lm].bc
Variants count 1139
_ZN4core4iter6traits8iterator8Iterator3zip17h43464ae3c43581b8E already exist in ./bitcodes2/image_rs15_22_[3xTMK8Lm].bc w:0
_ZN63_$LT$I$u20$as$u20$core..iter..traits..collect..IntoIterator$GT$9into_iter17hfc236f1a393ea9c0E already exist in ./bitcodes2/image_rs15_22_[3xTMK8Lm].bc w:0
_ZN5image5error16UnsupportedError20from_format_and_kind17h8dd35d19527ffadbE already exist in ./bitcodes2/image_rs15_22_[3xTMK8Lm].bc w:0
_ZN5image8imageops6sample9thumbnail17h418ac981c55a78dbE already exist in ./bitcodes2/image_rs15_22_[3xTMK8Lm].bc w:0
 Merging module ./bitcodes2/image_rs15_21_[MLmpo6Ss].bc
Variants count 1140
_ZN5alloc11collections5btree4node137Handle$LT$alloc..collections..btree..node..NodeRef$LT$BorrowType$C$K$C$V$C$NodeType$GT$$C$alloc..collections..btree..node..marker..KV$GT$10right_edge17hc8affa6734f1dd43E already exist in ./bitcodes2/image_rs15_21_[MLmpo6Ss].bc w:0
_ZN97_$LT$alloc..vec..Vec$LT$T$C$A$GT$$u20$as$u20$alloc..vec..spec_extend..SpecExtend$LT$T$C$I$GT$$GT$11spec_extend17hef060f9900728987E already exist in ./bitcodes2/image_rs15_21_[MLmpo6Ss].bc w:0
_ZN106_$LT$image..color..Rgb$LT$T$GT$$u20$as$u20$image..color..FromColor$LT$image..color..LumaA$LT$T$GT$$GT$$GT$10from_color17h3483d43fbbee6b31E already exist in ./bitcodes2/image_rs15_21_[MLmpo6Ss].bc w:0
 Merging module ./bitcodes2/image_rs15_843_[BX1HoRhQ].bc
Variants count 1141
_ZN5image7buffer_32ImageBuffer$LT$P$C$Container$GT$16check_image_fits17h89836d9f979b2413E already exist in ./bitcodes2/image_rs15_843_[BX1HoRhQ].bc w:0
_ZN5image5image16GenericImageView5width17hc8a2a9f5f4c99d2bE already exist in ./bitcodes2/image_rs15_843_[BX1HoRhQ].bc w:0
 Merging module ./bitcodes2/image_rs15_684_[pzj3R_R5].bc
_ZN75_$LT$core..option..Option$LT$T$GT$$u20$as$u20$core..ops..try_trait..Try$GT$6branch17ha92a25d5a9328bd1E already exist in ./bitcodes2/image_rs15_684_[pzj3R_R5].bc w:0
_ZN97_$LT$alloc..vec..Vec$LT$T$C$A$GT$$u20$as$u20$alloc..vec..spec_extend..SpecExtend$LT$T$C$I$GT$$GT$11spec_extend28_$u7b$$u7b$closure$u7d$$u7d$17h96619b169d7d8ec9E already exist in ./bitcodes2/image_rs15_684_[pzj3R_R5].bc w:0
 Merging module ./bitcodes2/image_rs15_222_[kJ2ol9_L].bc
Variants count 1142
 Merging module ./bitcodes2/image_rs15_86_[Zbt_5Tn9].bc
Variants count 1143
 Merging module ./bitcodes2/image_rs15_112_[hPv2_8MQ].bc
Variants count 1144
_ZN4core3ops12control_flow77ControlFlow$LT$R$C$$LT$R$u20$as$u20$core..ops..try_trait..Try$GT$..Output$GT$8from_try17hfa27bd65a5ae5641E already exist in ./bitcodes2/image_rs15_112_[hPv2_8MQ].bc w:0
_ZN5image8imageops8colorops8contrast17he99131cb2798383fE already exist in ./bitcodes2/image_rs15_112_[hPv2_8MQ].bc w:0
 Merging module ./bitcodes2/image_rs15_539_[eADB_SL0].bc
_ZN5image8imageops6sample30thumbnail_sample_fraction_both17h23649c2c1c595432E already exist in ./bitcodes2/image_rs15_539_[eADB_SL0].bc w:0
 Merging module ./bitcodes2/image_rs15_222_[3uugtu1t].bc
Variants count 1145
 Merging module ./bitcodes2/image_rs15_615_[Z6qr58na].bc
Variants count 1146
_ZN4core3ptr8non_null16NonNull$LT$T$GT$13new_unchecked17hf13979bfdc5a69a2E already exist in ./bitcodes2/image_rs15_615_[Z6qr58na].bc w:0
 Merging module ./bitcodes2/image_rs15_618_[Xd5JQQdr].bc
Variants count 1147
 Merging module ./bitcodes2/image_rs15_233_[fCUXTkHg].bc
Variants count 1148
_ZN5image6codecs4jpeg7encoder18BitWriter$LT$W$GT$13write_segment17h1f584c4ee0ce62ecE already exist in ./bitcodes2/image_rs15_233_[fCUXTkHg].bc w:0
 Merging module ./bitcodes2/image_rs15_222_[R_983_n1].bc
Variants count 1149
 Merging module ./bitcodes2/image_rs15_144_[I_1Zh1Hv].bc
Variants count 1150
_ZN5image8imageops10crop_dimms17h39cdb411ca80a1b2E already exist in ./bitcodes2/image_rs15_144_[I_1Zh1Hv].bc w:0
 Merging module ./bitcodes2/image_rs15_818_[5mVc278l].bc
Variants count 1151
_ZN5image5error10LimitError9from_kind17h5b0452e3cc9838c6E already exist in ./bitcodes2/image_rs15_818_[5mVc278l].bc w:0
_ZN99_$LT$image..buffer_..ImageBuffer$LT$P$C$Container$GT$$u20$as$u20$image..image..GenericImageView$GT$9get_pixel17h58e9e6d253fab205E already exist in ./bitcodes2/image_rs15_818_[5mVc278l].bc w:0
 Merging module ./bitcodes2/image_rs15_222_[RGtnYgpp].bc
Variants count 1152
 Merging module ./bitcodes2/image_rs15_676_[c90jwAHV].bc
Variants count 1153
_ZN5image8dynimage12DynamicImage12from_decoder17h7f14f4ca4650afdfE already exist in ./bitcodes2/image_rs15_676_[c90jwAHV].bc w:0
 Merging module ./bitcodes2/image_rs15_604_[xEI8TVxB].bc
_ZN4core7convert3num63_$LT$impl$u20$core..convert..From$LT$u8$GT$$u20$for$u20$u16$GT$4from17h01d2f81b7455f64fE already exist in ./bitcodes2/image_rs15_604_[xEI8TVxB].bc w:0
 Merging module ./bitcodes2/image_rs15_86_[JA1sFEjm].bc
Variants count 1154
 Merging module ./bitcodes2/image_rs15_676_[WdoGjc_P].bc
Variants count 1155
_ZN5image8dynimage12DynamicImage12from_decoder17h7f14f4ca4650afdfE already exist in ./bitcodes2/image_rs15_676_[WdoGjc_P].bc w:0
 Merging module ./bitcodes2/image_rs15_78_[W6afWv85].bc
Variants count 1156
_ZN4tiff7decoder3ifd5Entry13decode_offset17h10f22d8c5f7ba5ffE already exist in ./bitcodes2/image_rs15_78_[W6afWv85].bc w:0
_ZN98_$LT$alloc..vec..Vec$LT$T$GT$$u20$as$u20$alloc..vec..spec_from_iter..SpecFromIter$LT$T$C$I$GT$$GT$9from_iter17h81fc7b7cb1966dbcE already exist in ./bitcodes2/image_rs15_78_[W6afWv85].bc w:0
 Merging module ./bitcodes2/image_rs15_3_[VL7__8nG].bc
Variants count 1157
_ZN3png7decoder16Decoder$LT$R$GT$19set_transformations17h3db447a4863900d2E already exist in ./bitcodes2/image_rs15_3_[VL7__8nG].bc w:0
_ZN5image6codecs3bmp7decoder19BmpDecoder$LT$R$GT$25read_full_byte_pixel_data17he90647b932761bd4E already exist in ./bitcodes2/image_rs15_3_[VL7__8nG].bc w:0
 Merging module ./bitcodes2/png_rs13_464_[0boGXCtP][moSqTZi7][m6qax2mZ][QjZK2YVb][c9s0Vu0o].bc
Variants count 1158
 Merging module ./bitcodes2/image_rs15_843_[OQoxqpGH].bc
Variants count 1159
_ZN5image7buffer_32ImageBuffer$LT$P$C$Container$GT$16check_image_fits17h89836d9f979b2413E already exist in ./bitcodes2/image_rs15_843_[OQoxqpGH].bc w:0
_ZN5image5image16GenericImageView5width17hc8a2a9f5f4c99d2bE already exist in ./bitcodes2/image_rs15_843_[OQoxqpGH].bc w:0
 Merging module ./bitcodes2/image_rs15_676_[YXnCxcPM].bc
Variants count 1160
_ZN5image8dynimage12DynamicImage12from_decoder17h7f14f4ca4650afdfE already exist in ./bitcodes2/image_rs15_676_[YXnCxcPM].bc w:0
 Merging module ./bitcodes2/image_rs15_3_[7s28PKhH].bc
Variants count 1161
_ZN3png7decoder16Decoder$LT$R$GT$19set_transformations17h3db447a4863900d2E already exist in ./bitcodes2/image_rs15_3_[7s28PKhH].bc w:0
_ZN5image6codecs3bmp7decoder19BmpDecoder$LT$R$GT$25read_full_byte_pixel_data17he90647b932761bd4E already exist in ./bitcodes2/image_rs15_3_[7s28PKhH].bc w:0
 Merging module ./bitcodes2/image_rs15_880_[K4IA1RbC].bc
_ZN5alloc7raw_vec19RawVec$LT$T$C$A$GT$11allocate_in17hd8b1a6075d764de3E already exist in ./bitcodes2/image_rs15_880_[K4IA1RbC].bc w:0
 Merging module ./bitcodes2/image_rs15_86_[6btHVkMN].bc
Variants count 1162
 Merging module ./bitcodes2/image_rs15_233_[1yQ4EiIG].bc
Variants count 1163
_ZN5image6codecs4jpeg7encoder18BitWriter$LT$W$GT$13write_segment17h1f584c4ee0ce62ecE already exist in ./bitcodes2/image_rs15_233_[1yQ4EiIG].bc w:0
 Merging module ./bitcodes2/image_rs15_222_[BMZsXxSU].bc
Variants count 1164
 Merging module ./bitcodes2/image_rs15_222_[czQUtBkl].bc
Variants count 1165
 Merging module ./bitcodes2/png_rs13_1076_[UFKtLCdM].bc
Variants count 1166
 Merging module ./bitcodes2/image_rs15_222_[c_8kVNSj].bc
Variants count 1167
 Merging module ./bitcodes2/image_rs15_222_[NrlM44AK].bc
Variants count 1168
 Merging module ./bitcodes2/image_rs15_3_[uWWPcZKx].bc
Variants count 1169
_ZN3png7decoder16Decoder$LT$R$GT$19set_transformations17h3db447a4863900d2E already exist in ./bitcodes2/image_rs15_3_[uWWPcZKx].bc w:0
_ZN5image6codecs3bmp7decoder19BmpDecoder$LT$R$GT$25read_full_byte_pixel_data17he90647b932761bd4E already exist in ./bitcodes2/image_rs15_3_[uWWPcZKx].bc w:0
 Merging module ./bitcodes2/image_rs15_604_[G_JdcykY].bc
_ZN4core7convert3num63_$LT$impl$u20$core..convert..From$LT$u8$GT$$u20$for$u20$u16$GT$4from17h01d2f81b7455f64fE already exist in ./bitcodes2/image_rs15_604_[G_JdcykY].bc w:0
 Merging module ./bitcodes2/image_rs15_107_[rkjU44qY].bc
Variants count 1170
_ZN111_$LT$core..iter..adapters..zip..Zip$LT$A$C$B$GT$$u20$as$u20$core..iter..adapters..zip..ZipImpl$LT$A$C$B$GT$$GT$4next17h904ae9a5f7f17e7dE already exist in ./bitcodes2/image_rs15_107_[rkjU44qY].bc w:0
_ZN153_$LT$core..result..Result$LT$T$C$F$GT$$u20$as$u20$core..ops..try_trait..FromResidual$LT$core..result..Result$LT$core..convert..Infallible$C$E$GT$$GT$$GT$13from_residual17he99b67180108ca9bE already exist in ./bitcodes2/image_rs15_107_[rkjU44qY].bc w:0
_ZN63_$LT$I$u20$as$u20$core..iter..traits..collect..IntoIterator$GT$9into_iter17hf0d7f71adab83d70E already exist in ./bitcodes2/image_rs15_107_[rkjU44qY].bc w:0
 Merging module ./bitcodes2/image_rs15_810_[Q2v7mWr8].bc
_ZN4core3ptr681drop_in_place$LT$$LT$alloc..vec..Vec$LT$core..option..Option$LT$jpeg_decoder..huffman..HuffmanTable$GT$$GT$$u20$as$u20$alloc..vec..spec_extend..SpecExtend$LT$core..option..Option$LT$jpeg_decoder..huffman..HuffmanTable$GT$$C$core..iter..adapters..map..Map$LT$core..iter..adapters..zip..Zip$LT$alloc..vec..into_iter..IntoIter$LT$core..option..Option$LT$jpeg_decoder..huffman..HuffmanTable$GT$$GT$$C$alloc..vec..into_iter..IntoIter$LT$core..option..Option$LT$jpeg_decoder..huffman..HuffmanTable$GT$$GT$$GT$$C$jpeg_decoder..decoder..Decoder$LT$tiff..decoder..stream..JpegReader$GT$..decode_internal..$u7b$$u7b$closure$u7d$$u7d$$GT$$GT$$GT$..spec_extend..$u7b$$u7b$closure$u7d$$u7d$$GT$17hae631fefea5cec7cE already exist in ./bitcodes2/image_rs15_810_[Q2v7mWr8].bc w:0
Variants count 1171
 Merging module ./bitcodes2/image_rs15_222_[5_64tU5r].bc
Variants count 1172
 Merging module ./bitcodes2/image_rs15_86_[RDGYgp6g].bc
Variants count 1173
 Merging module ./bitcodes2/png_rs13_169_[Txh8VpBf][vVeQZO8l][1Yb3c4kk].bc
Variants count 1174
 Merging module ./bitcodes2/image_rs15_222_[XDFE6S16].bc
Variants count 1175
 Merging module ./bitcodes2/image_rs15_3_[7PboF7_U].bc
Variants count 1176
_ZN3png7decoder16Decoder$LT$R$GT$19set_transformations17h3db447a4863900d2E already exist in ./bitcodes2/image_rs15_3_[7PboF7_U].bc w:0
_ZN5image6codecs3bmp7decoder19BmpDecoder$LT$R$GT$25read_full_byte_pixel_data17he90647b932761bd4E already exist in ./bitcodes2/image_rs15_3_[7PboF7_U].bc w:0
 Merging module ./bitcodes2/image_rs15_248_[MZuQEIDj].bc
Variants count 1177
_ZN5image6codecs4jpeg7encoder12PixelDensity3dpi17h76e5ade20be76fe1E already exist in ./bitcodes2/image_rs15_248_[MZuQEIDj].bc w:0
 Merging module ./bitcodes2/image_rs15_0_[2C24DXRg][utqcflpR][eJ10TFql][yKFVdJmP].bc
Variants count 1178
 Merging module ./bitcodes2/image_rs15_829_[jIcQIUwT].bc
Variants count 1179
 Merging module ./bitcodes2/image_rs15_222_[AefXzW5z].bc
Variants count 1180
 Merging module ./bitcodes2/image_rs15_812_[b1JY221x].bc
Variants count 1181
_ZN4core3ptr9const_ptr33_$LT$impl$u20$$BP$const$u20$T$GT$7is_null17hf11ad46952c36b76E already exist in ./bitcodes2/image_rs15_812_[b1JY221x].bc w:0
_ZN4core4iter6traits8iterator8Iterator8for_each4call17h0ad03cb1a658a361E already exist in ./bitcodes2/image_rs15_812_[b1JY221x].bc w:0
_ZN98_$LT$alloc..vec..Vec$LT$T$GT$$u20$as$u20$alloc..vec..spec_from_iter..SpecFromIter$LT$T$C$I$GT$$GT$9from_iter17h35ff34e0489eb1b7E already exist in ./bitcodes2/image_rs15_812_[b1JY221x].bc w:0
_ZN5image9animation5Frame6buffer17h50094e6e6ad79b5eE already exist in ./bitcodes2/image_rs15_812_[b1JY221x].bc w:0
 Merging module ./bitcodes2/image_rs15_684_[0FLou_Pq].bc
Variants count 1182
_ZN97_$LT$alloc..vec..Vec$LT$T$C$A$GT$$u20$as$u20$alloc..vec..spec_extend..SpecExtend$LT$T$C$I$GT$$GT$11spec_extend28_$u7b$$u7b$closure$u7d$$u7d$17h96619b169d7d8ec9E already exist in ./bitcodes2/image_rs15_684_[0FLou_Pq].bc w:0
 Merging module ./bitcodes2/image_rs15_222_[En1CrFAE].bc
Variants count 1183
 Merging module ./bitcodes2/image_rs15_125_[HG7h__VR].bc
Variants count 1184
_ZN4core4iter8adapters3map16Map$LT$I$C$F$GT$3new17h4fbee63e29420067E already exist in ./bitcodes2/image_rs15_125_[HG7h__VR].bc w:0
_ZN5image8imageops6affine8rotate9017h07814081b1ddd323E already exist in ./bitcodes2/image_rs15_125_[HG7h__VR].bc w:0
 Merging module ./bitcodes2/image_rs15_215_[QatmLxmY].bc
Variants count 1185
 Merging module ./bitcodes2/image_rs15_843_[D2vRttWV].bc
Variants count 1186
_ZN5image7buffer_32ImageBuffer$LT$P$C$Container$GT$16check_image_fits17h89836d9f979b2413E already exist in ./bitcodes2/image_rs15_843_[D2vRttWV].bc w:0
_ZN5image5image16GenericImageView5width17hc8a2a9f5f4c99d2bE already exist in ./bitcodes2/image_rs15_843_[D2vRttWV].bc w:0
 Merging module ./bitcodes2/image_rs15_107_[uolmEcFS].bc
Variants count 1187
_ZN111_$LT$core..iter..adapters..zip..Zip$LT$A$C$B$GT$$u20$as$u20$core..iter..adapters..zip..ZipImpl$LT$A$C$B$GT$$GT$4next17h904ae9a5f7f17e7dE already exist in ./bitcodes2/image_rs15_107_[uolmEcFS].bc w:0
_ZN153_$LT$core..result..Result$LT$T$C$F$GT$$u20$as$u20$core..ops..try_trait..FromResidual$LT$core..result..Result$LT$core..convert..Infallible$C$E$GT$$GT$$GT$13from_residual17he99b67180108ca9bE already exist in ./bitcodes2/image_rs15_107_[uolmEcFS].bc w:0
_ZN63_$LT$I$u20$as$u20$core..iter..traits..collect..IntoIterator$GT$9into_iter17hf0d7f71adab83d70E already exist in ./bitcodes2/image_rs15_107_[uolmEcFS].bc w:0
 Merging module ./bitcodes2/image_rs15_78_[KWykCuJK].bc
Variants count 1188
_ZN4tiff7decoder3ifd5Entry13decode_offset17h10f22d8c5f7ba5ffE already exist in ./bitcodes2/image_rs15_78_[KWykCuJK].bc w:0
_ZN98_$LT$alloc..vec..Vec$LT$T$GT$$u20$as$u20$alloc..vec..spec_from_iter..SpecFromIter$LT$T$C$I$GT$$GT$9from_iter17h81fc7b7cb1966dbcE already exist in ./bitcodes2/image_rs15_78_[KWykCuJK].bc w:0
 Merging module ./bitcodes2/image_rs15_222_[OT_xjF42].bc
Variants count 1189
 Merging module ./bitcodes2/image_rs15_222_[bLa5QhtZ].bc
Variants count 1190
 Merging module ./bitcodes2/image_rs15_791_[E57_MtyF].bc
_ZN4core3fmt3num49_$LT$impl$u20$core..fmt..Debug$u20$for$u20$u8$GT$3fmt17h9b13b8336b79af1fE already exist in ./bitcodes2/image_rs15_791_[E57_MtyF].bc w:0
 Merging module ./bitcodes2/image_rs15_890_[ic4hLef3].bc
Variants count 1191
 Merging module ./bitcodes2/image_rs15_812_[r5AEqVYA].bc
Variants count 1192
_ZN4core3ptr9const_ptr33_$LT$impl$u20$$BP$const$u20$T$GT$7is_null17hf11ad46952c36b76E already exist in ./bitcodes2/image_rs15_812_[r5AEqVYA].bc w:0
_ZN4core4iter6traits8iterator8Iterator8for_each4call17h0ad03cb1a658a361E already exist in ./bitcodes2/image_rs15_812_[r5AEqVYA].bc w:0
_ZN98_$LT$alloc..vec..Vec$LT$T$GT$$u20$as$u20$alloc..vec..spec_from_iter..SpecFromIter$LT$T$C$I$GT$$GT$9from_iter17h35ff34e0489eb1b7E already exist in ./bitcodes2/image_rs15_812_[r5AEqVYA].bc w:0
_ZN5image9animation5Frame6buffer17h50094e6e6ad79b5eE already exist in ./bitcodes2/image_rs15_812_[r5AEqVYA].bc w:0
 Merging module ./bitcodes2/image_rs15_144_[IGGIgy60].bc
Variants count 1193
_ZN5image8imageops10crop_dimms17h39cdb411ca80a1b2E already exist in ./bitcodes2/image_rs15_144_[IGGIgy60].bc w:0
 Merging module ./bitcodes2/image_rs15_239_[sKFFToXi].bc
Variants count 1194
_ZN4core4iter6traits8iterator8Iterator10max_by_key3key17h7d25e6cf4f733365E already exist in ./bitcodes2/image_rs15_239_[sKFFToXi].bc w:0
 Merging module ./bitcodes2/image_rs15_78_[mWeZomK3].bc
Variants count 1195
_ZN4tiff7decoder3ifd5Entry13decode_offset17h10f22d8c5f7ba5ffE already exist in ./bitcodes2/image_rs15_78_[mWeZomK3].bc w:0
_ZN98_$LT$alloc..vec..Vec$LT$T$GT$$u20$as$u20$alloc..vec..spec_from_iter..SpecFromIter$LT$T$C$I$GT$$GT$9from_iter17h81fc7b7cb1966dbcE already exist in ./bitcodes2/image_rs15_78_[mWeZomK3].bc w:0
 Merging module ./bitcodes2/image_rs15_676_[o1o_UJhU].bc
_ZN5image6codecs3tga7decoder19TgaDecoder$LT$R$GT$21is_flipped_vertically17h77aed2b06b6c01daE already exist in ./bitcodes2/image_rs15_676_[o1o_UJhU].bc w:0
_ZN5image8dynimage12DynamicImage12from_decoder17h7f14f4ca4650afdfE already exist in ./bitcodes2/image_rs15_676_[o1o_UJhU].bc w:0
 Merging module ./bitcodes2/image_rs15_78_[iOLEbgrw].bc
Variants count 1196
_ZN4tiff7decoder3ifd5Entry13decode_offset17h10f22d8c5f7ba5ffE already exist in ./bitcodes2/image_rs15_78_[iOLEbgrw].bc w:0
_ZN98_$LT$alloc..vec..Vec$LT$T$GT$$u20$as$u20$alloc..vec..spec_from_iter..SpecFromIter$LT$T$C$I$GT$$GT$9from_iter17h81fc7b7cb1966dbcE already exist in ./bitcodes2/image_rs15_78_[iOLEbgrw].bc w:0
 Merging module ./bitcodes2/image_rs15_107_[68GyWEC4].bc
Variants count 1197
_ZN111_$LT$core..iter..adapters..zip..Zip$LT$A$C$B$GT$$u20$as$u20$core..iter..adapters..zip..ZipImpl$LT$A$C$B$GT$$GT$4next17h904ae9a5f7f17e7dE already exist in ./bitcodes2/image_rs15_107_[68GyWEC4].bc w:0
_ZN153_$LT$core..result..Result$LT$T$C$F$GT$$u20$as$u20$core..ops..try_trait..FromResidual$LT$core..result..Result$LT$core..convert..Infallible$C$E$GT$$GT$$GT$13from_residual17he99b67180108ca9bE already exist in ./bitcodes2/image_rs15_107_[68GyWEC4].bc w:0
_ZN63_$LT$I$u20$as$u20$core..iter..traits..collect..IntoIterator$GT$9into_iter17hf0d7f71adab83d70E already exist in ./bitcodes2/image_rs15_107_[68GyWEC4].bc w:0
 Merging module ./bitcodes2/image_rs15_107_[pbrMu_hL].bc
Variants count 1198
_ZN111_$LT$core..iter..adapters..zip..Zip$LT$A$C$B$GT$$u20$as$u20$core..iter..adapters..zip..ZipImpl$LT$A$C$B$GT$$GT$4next17h904ae9a5f7f17e7dE already exist in ./bitcodes2/image_rs15_107_[pbrMu_hL].bc w:0
_ZN153_$LT$core..result..Result$LT$T$C$F$GT$$u20$as$u20$core..ops..try_trait..FromResidual$LT$core..result..Result$LT$core..convert..Infallible$C$E$GT$$GT$$GT$13from_residual17he99b67180108ca9bE already exist in ./bitcodes2/image_rs15_107_[pbrMu_hL].bc w:0
_ZN63_$LT$I$u20$as$u20$core..iter..traits..collect..IntoIterator$GT$9into_iter17hf0d7f71adab83d70E already exist in ./bitcodes2/image_rs15_107_[pbrMu_hL].bc w:0
 Merging module ./bitcodes2/image_rs15_812_[Dl_kfqnF].bc
Variants count 1199
_ZN4core3ptr9const_ptr33_$LT$impl$u20$$BP$const$u20$T$GT$7is_null17hf11ad46952c36b76E already exist in ./bitcodes2/image_rs15_812_[Dl_kfqnF].bc w:0
_ZN4core4iter6traits8iterator8Iterator8for_each4call17h0ad03cb1a658a361E already exist in ./bitcodes2/image_rs15_812_[Dl_kfqnF].bc w:0
_ZN98_$LT$alloc..vec..Vec$LT$T$GT$$u20$as$u20$alloc..vec..spec_from_iter..SpecFromIter$LT$T$C$I$GT$$GT$9from_iter17h35ff34e0489eb1b7E already exist in ./bitcodes2/image_rs15_812_[Dl_kfqnF].bc w:0
_ZN5image9animation5Frame6buffer17h50094e6e6ad79b5eE already exist in ./bitcodes2/image_rs15_812_[Dl_kfqnF].bc w:0
 Merging module ./bitcodes2/image_rs15_222_[ifLWyd74].bc
Variants count 1200
 Merging module ./bitcodes2/image_rs15_160_[GrhPMdMm].bc
Variants count 1201
 Merging module ./bitcodes2/image_rs15_125_[CLLQRYxX].bc
Variants count 1202
_ZN4core4iter8adapters3map16Map$LT$I$C$F$GT$3new17h4fbee63e29420067E already exist in ./bitcodes2/image_rs15_125_[CLLQRYxX].bc w:0
_ZN5image8imageops6affine8rotate9017h07814081b1ddd323E already exist in ./bitcodes2/image_rs15_125_[CLLQRYxX].bc w:0
 Merging module ./bitcodes2/image_rs15_3_[mWGeGKY4].bc
Variants count 1203
_ZN3png7decoder16Decoder$LT$R$GT$19set_transformations17h3db447a4863900d2E already exist in ./bitcodes2/image_rs15_3_[mWGeGKY4].bc w:0
_ZN5image6codecs3bmp7decoder19BmpDecoder$LT$R$GT$25read_full_byte_pixel_data17he90647b932761bd4E already exist in ./bitcodes2/image_rs15_3_[mWGeGKY4].bc w:0
 Merging module ./bitcodes2/png_rs13_169_[becnAJpJ][VvVRigd4][l1IR9uM7].bc
Variants count 1204
 Merging module ./bitcodes2/image_rs15_222_[UYG5WH0V].bc
Variants count 1205
 Merging module ./bitcodes2/image_rs15_684_[6NgH0cZt].bc
Variants count 1206
_ZN97_$LT$alloc..vec..Vec$LT$T$C$A$GT$$u20$as$u20$alloc..vec..spec_extend..SpecExtend$LT$T$C$I$GT$$GT$11spec_extend28_$u7b$$u7b$closure$u7d$$u7d$17h96619b169d7d8ec9E already exist in ./bitcodes2/image_rs15_684_[6NgH0cZt].bc w:0
 Merging module ./bitcodes2/image_rs15_222_[vl9Fh3MA].bc
Variants count 1207
 Merging module ./bitcodes2/image_rs15_605_[IY8qG7IB].bc
Variants count 1208
 Merging module ./bitcodes2/image_rs15_222_[sKpzu8SI].bc
Variants count 1209
 Merging module ./bitcodes2/image_rs15_112_[iONC7aa8].bc
Variants count 1210
_ZN4core3ops12control_flow77ControlFlow$LT$R$C$$LT$R$u20$as$u20$core..ops..try_trait..Try$GT$..Output$GT$8from_try17hfa27bd65a5ae5641E already exist in ./bitcodes2/image_rs15_112_[iONC7aa8].bc w:0
_ZN5image8imageops8colorops8contrast17he99131cb2798383fE already exist in ./bitcodes2/image_rs15_112_[iONC7aa8].bc w:0
 Merging module ./bitcodes2/image_rs15_618_[nQHhvbfw].bc
_ZN79_$LT$core..result..Result$LT$T$C$E$GT$$u20$as$u20$core..ops..try_trait..Try$GT$6branch17h2345af5a05185ac1E already exist in ./bitcodes2/image_rs15_618_[nQHhvbfw].bc w:0
 Merging module ./bitcodes2/image_rs15_144_[ro_4bR2j].bc
Variants count 1211
_ZN5image8imageops10crop_dimms17h39cdb411ca80a1b2E already exist in ./bitcodes2/image_rs15_144_[ro_4bR2j].bc w:0
 Merging module ./bitcodes2/image_rs15_86_[nDkE7jkS].bc
Variants count 1212
 Merging module ./bitcodes2/png_rs13_464_[VxVA8d_K][Iihxs3ep][uFNkG3IU][VVDyX8Gs][2CPs0bBH].bc
Variants count 1213
 Merging module ./bitcodes2/image_rs15_222_[LDI0eOBR].bc
Variants count 1214
 Merging module ./bitcodes2/image_rs15_215_[Uo9Jcaz6].bc
Variants count 1215
 Merging module ./bitcodes2/image_rs15_3_[lgxHGE29].bc
Variants count 1216
_ZN3png7decoder16Decoder$LT$R$GT$19set_transformations17h3db447a4863900d2E already exist in ./bitcodes2/image_rs15_3_[lgxHGE29].bc w:0
_ZN5image6codecs3bmp7decoder19BmpDecoder$LT$R$GT$25read_full_byte_pixel_data17he90647b932761bd4E already exist in ./bitcodes2/image_rs15_3_[lgxHGE29].bc w:0
 Merging module ./bitcodes2/image_rs15_890_[KEx_CmGj].bc
Variants count 1217
 Merging module ./bitcodes2/image_rs15_142_[CHLz5JRe].bc
Variants count 1218
_ZN97_$LT$alloc..vec..Vec$LT$T$C$A$GT$$u20$as$u20$alloc..vec..spec_extend..SpecExtend$LT$T$C$I$GT$$GT$11spec_extend17h23e2afbd79d2bf65E already exist in ./bitcodes2/image_rs15_142_[CHLz5JRe].bc w:0
 Merging module ./bitcodes2/image_rs15_239_[_eDd2TYC].bc
Variants count 1219
_ZN4core4iter6traits8iterator8Iterator10max_by_key3key17h7d25e6cf4f733365E already exist in ./bitcodes2/image_rs15_239_[_eDd2TYC].bc w:0
 Merging module ./bitcodes2/image_rs15_142_[TWMbO5l5].bc
Variants count 1220
_ZN97_$LT$alloc..vec..Vec$LT$T$C$A$GT$$u20$as$u20$alloc..vec..spec_extend..SpecExtend$LT$T$C$I$GT$$GT$11spec_extend17h23e2afbd79d2bf65E already exist in ./bitcodes2/image_rs15_142_[TWMbO5l5].bc w:0
 Merging module ./bitcodes2/image_rs15_222_[AXGkC_nZ].bc
Variants count 1221
 Merging module ./bitcodes2/image_rs15_142_[Ih4D81Hb].bc
Variants count 1222
_ZN97_$LT$alloc..vec..Vec$LT$T$C$A$GT$$u20$as$u20$alloc..vec..spec_extend..SpecExtend$LT$T$C$I$GT$$GT$11spec_extend17h23e2afbd79d2bf65E already exist in ./bitcodes2/image_rs15_142_[Ih4D81Hb].bc w:0
 Merging module ./bitcodes2/image_rs15_222_[1SemtfGr].bc
Variants count 1223
 Merging module ./bitcodes2/image_rs15_222_[U2hVPQDi].bc
Variants count 1224
 Merging module ./bitcodes2/image_rs15_107_[Pa0EQ6my].bc
Variants count 1225
_ZN111_$LT$core..iter..adapters..zip..Zip$LT$A$C$B$GT$$u20$as$u20$core..iter..adapters..zip..ZipImpl$LT$A$C$B$GT$$GT$4next17h904ae9a5f7f17e7dE already exist in ./bitcodes2/image_rs15_107_[Pa0EQ6my].bc w:0
_ZN153_$LT$core..result..Result$LT$T$C$F$GT$$u20$as$u20$core..ops..try_trait..FromResidual$LT$core..result..Result$LT$core..convert..Infallible$C$E$GT$$GT$$GT$13from_residual17he99b67180108ca9bE already exist in ./bitcodes2/image_rs15_107_[Pa0EQ6my].bc w:0
_ZN63_$LT$I$u20$as$u20$core..iter..traits..collect..IntoIterator$GT$9into_iter17hf0d7f71adab83d70E already exist in ./bitcodes2/image_rs15_107_[Pa0EQ6my].bc w:0
 Merging module ./bitcodes2/png_rs13_169_[S7PfpTVj][roO7U2Ys][QTXwBU6A].bc
Variants count 1226
 Merging module ./bitcodes2/image_rs15_886_[ch9U_TwD].bc
_ZN5alloc7raw_vec19RawVec$LT$T$C$A$GT$14current_memory17h2ebfc26687c09d8bE already exist in ./bitcodes2/image_rs15_886_[ch9U_TwD].bc w:0
_ZN105_$LT$image..color..Rgb$LT$T$GT$$u20$as$u20$image..color..FromColor$LT$image..color..Luma$LT$T$GT$$GT$$GT$10from_color17hfded6d83c20eeff5E already exist in ./bitcodes2/image_rs15_886_[ch9U_TwD].bc w:0
 Merging module ./bitcodes2/image_rs15_818_[SlBHjay5].bc
Variants count 1227
_ZN5image5error10LimitError9from_kind17h5b0452e3cc9838c6E already exist in ./bitcodes2/image_rs15_818_[SlBHjay5].bc w:0
_ZN99_$LT$image..buffer_..ImageBuffer$LT$P$C$Container$GT$$u20$as$u20$image..image..GenericImageView$GT$9get_pixel17h58e9e6d253fab205E already exist in ./bitcodes2/image_rs15_818_[SlBHjay5].bc w:0
 Merging module ./bitcodes2/image_rs15_615_[3ceyMmLf].bc
Variants count 1228
_ZN4core3ptr8non_null16NonNull$LT$T$GT$13new_unchecked17hf13979bfdc5a69a2E already exist in ./bitcodes2/image_rs15_615_[3ceyMmLf].bc w:0
 Merging module ./bitcodes2/image_rs15_222_[mDZWTncF].bc
Variants count 1229
 Merging module ./bitcodes2/image_rs15_3_[KIarel3d].bc
Variants count 1230
_ZN3png7decoder16Decoder$LT$R$GT$19set_transformations17h3db447a4863900d2E already exist in ./bitcodes2/image_rs15_3_[KIarel3d].bc w:0
_ZN5image6codecs3bmp7decoder19BmpDecoder$LT$R$GT$25read_full_byte_pixel_data17he90647b932761bd4E already exist in ./bitcodes2/image_rs15_3_[KIarel3d].bc w:0
 Merging module ./bitcodes2/image_rs15_886_[66RW1MWD].bc
_ZN5alloc7raw_vec19RawVec$LT$T$C$A$GT$14current_memory17h2ebfc26687c09d8bE already exist in ./bitcodes2/image_rs15_886_[66RW1MWD].bc w:0
_ZN105_$LT$image..color..Rgb$LT$T$GT$$u20$as$u20$image..color..FromColor$LT$image..color..Luma$LT$T$GT$$GT$$GT$10from_color17hfded6d83c20eeff5E already exist in ./bitcodes2/image_rs15_886_[66RW1MWD].bc w:0
 Merging module ./bitcodes2/png_rs13_169_[Z3i5dw55][jtmj3_H5][ovl_J4g6].bc
Variants count 1231
 Merging module ./bitcodes2/image_rs15_21_[CT9qxACD].bc
Variants count 1232
_ZN5alloc11collections5btree4node137Handle$LT$alloc..collections..btree..node..NodeRef$LT$BorrowType$C$K$C$V$C$NodeType$GT$$C$alloc..collections..btree..node..marker..KV$GT$10right_edge17hc8affa6734f1dd43E already exist in ./bitcodes2/image_rs15_21_[CT9qxACD].bc w:0
_ZN97_$LT$alloc..vec..Vec$LT$T$C$A$GT$$u20$as$u20$alloc..vec..spec_extend..SpecExtend$LT$T$C$I$GT$$GT$11spec_extend17hef060f9900728987E already exist in ./bitcodes2/image_rs15_21_[CT9qxACD].bc w:0
_ZN106_$LT$image..color..Rgb$LT$T$GT$$u20$as$u20$image..color..FromColor$LT$image..color..LumaA$LT$T$GT$$GT$$GT$10from_color17h3483d43fbbee6b31E already exist in ./bitcodes2/image_rs15_21_[CT9qxACD].bc w:0
 Merging module ./bitcodes2/image_rs15_86_[h5KF7G0w].bc
Variants count 1233
 Merging module ./bitcodes2/image_rs15_858_[Qko4KFcz].bc
Variants count 1234
_ZN111_$LT$core..iter..adapters..zip..Zip$LT$A$C$B$GT$$u20$as$u20$core..iter..adapters..zip..ZipImpl$LT$A$C$B$GT$$GT$3new17hd9e89045f71da222E already exist in ./bitcodes2/image_rs15_858_[Qko4KFcz].bc w:0
_ZN4core3ptr175drop_in_place$LT$std..io..buffered..bufreader..BufReader$LT$std..io..buffered..bufreader..BufReader$LT$std..io..buffered..bufreader..BufReader$LT$std..fs..File$GT$$GT$$GT$$GT$17hdbdf19a6169cce83E already exist in ./bitcodes2/image_rs15_858_[Qko4KFcz].bc w:0
_ZN75_$LT$usize$u20$as$u20$core..slice..index..SliceIndex$LT$$u5b$T$u5d$$GT$$GT$9index_mut17h878438740c82fb14E already exist in ./bitcodes2/image_rs15_858_[Qko4KFcz].bc w:0
_ZN95_$LT$image..codecs..ico..encoder..IcoEncoder$LT$W$GT$$u20$as$u20$image..image..ImageEncoder$GT$11write_image17h4263aacfd78fedfdE already exist in ./bitcodes2/image_rs15_858_[Qko4KFcz].bc w:0
_ZN5image6codecs3pnm9autobreak18AutoBreak$LT$W$GT$9flush_buf17h350f213d0bcba396E already exist in ./bitcodes2/image_rs15_858_[Qko4KFcz].bc w:0
 Merging module ./bitcodes2/image_rs15_222_[yaH0pJwO].bc
Variants count 1235
 Merging module ./bitcodes2/image_rs15_222_[msWyIgw6].bc
Variants count 1236
 Merging module ./bitcodes2/image_rs15_107_[aUzEPOiX].bc
Variants count 1237
_ZN111_$LT$core..iter..adapters..zip..Zip$LT$A$C$B$GT$$u20$as$u20$core..iter..adapters..zip..ZipImpl$LT$A$C$B$GT$$GT$4next17h904ae9a5f7f17e7dE already exist in ./bitcodes2/image_rs15_107_[aUzEPOiX].bc w:0
_ZN153_$LT$core..result..Result$LT$T$C$F$GT$$u20$as$u20$core..ops..try_trait..FromResidual$LT$core..result..Result$LT$core..convert..Infallible$C$E$GT$$GT$$GT$13from_residual17he99b67180108ca9bE already exist in ./bitcodes2/image_rs15_107_[aUzEPOiX].bc w:0
_ZN63_$LT$I$u20$as$u20$core..iter..traits..collect..IntoIterator$GT$9into_iter17hf0d7f71adab83d70E already exist in ./bitcodes2/image_rs15_107_[aUzEPOiX].bc w:0
 Merging module ./bitcodes2/image_rs15_21_[qW96qjhQ].bc
Variants count 1238
_ZN5alloc11collections5btree4node137Handle$LT$alloc..collections..btree..node..NodeRef$LT$BorrowType$C$K$C$V$C$NodeType$GT$$C$alloc..collections..btree..node..marker..KV$GT$10right_edge17hc8affa6734f1dd43E already exist in ./bitcodes2/image_rs15_21_[qW96qjhQ].bc w:0
_ZN97_$LT$alloc..vec..Vec$LT$T$C$A$GT$$u20$as$u20$alloc..vec..spec_extend..SpecExtend$LT$T$C$I$GT$$GT$11spec_extend17hef060f9900728987E already exist in ./bitcodes2/image_rs15_21_[qW96qjhQ].bc w:0
_ZN106_$LT$image..color..Rgb$LT$T$GT$$u20$as$u20$image..color..FromColor$LT$image..color..LumaA$LT$T$GT$$GT$$GT$10from_color17h3483d43fbbee6b31E already exist in ./bitcodes2/image_rs15_21_[qW96qjhQ].bc w:0
 Merging module ./bitcodes2/image_rs15_222_[oVIORXHc].bc
Variants count 1239
 Merging module ./bitcodes2/image_rs15_615_[_cR_37HO].bc
Variants count 1240
_ZN4core3ptr8non_null16NonNull$LT$T$GT$13new_unchecked17hf13979bfdc5a69a2E already exist in ./bitcodes2/image_rs15_615_[_cR_37HO].bc w:0
 Merging module ./bitcodes2/image_rs15_676_[37Wu1SAV].bc
Variants count 1241
_ZN5image8dynimage12DynamicImage12from_decoder17h7f14f4ca4650afdfE already exist in ./bitcodes2/image_rs15_676_[37Wu1SAV].bc w:0
 Merging module ./bitcodes2/png_rs13_2897_[FY_e4kgz][evW_HfJd].bc
Variants count 1242
 Merging module ./bitcodes2/image_rs15_142_[S_didZOp].bc
Variants count 1243
_ZN97_$LT$alloc..vec..Vec$LT$T$C$A$GT$$u20$as$u20$alloc..vec..spec_extend..SpecExtend$LT$T$C$I$GT$$GT$11spec_extend17h23e2afbd79d2bf65E already exist in ./bitcodes2/image_rs15_142_[S_didZOp].bc w:0
 Merging module ./bitcodes2/image_rs15_237_[xwhqHDdG].bc
Variants count 1244
Variants count 1245
 Merging module ./bitcodes2/image_rs15_222_[sebibEq_].bc
Variants count 1246
 Merging module ./bitcodes2/image_rs15_676_[iRDNzbss].bc
Variants count 1247
_ZN5image8dynimage12DynamicImage12from_decoder17h7f14f4ca4650afdfE already exist in ./bitcodes2/image_rs15_676_[iRDNzbss].bc w:0
 Merging module ./bitcodes2/image_rs15_615_[R_gkLppI].bc
Variants count 1248
_ZN4core3ptr8non_null16NonNull$LT$T$GT$13new_unchecked17hf13979bfdc5a69a2E already exist in ./bitcodes2/image_rs15_615_[R_gkLppI].bc w:0
 Merging module ./bitcodes2/image_rs15_215_[08K6IRr_].bc
Variants count 1249
 Merging module ./bitcodes2/image_rs15_86_[lLxadI_t].bc
Variants count 1250
 Merging module ./bitcodes2/image_rs15_222_[J_IAR94I].bc
Variants count 1251
 Merging module ./bitcodes2/image_rs15_222_[_cYu7xVs].bc
Variants count 1252
 Merging module ./bitcodes2/image_rs15_880_[fUdYKHfL].bc
_ZN5alloc7raw_vec19RawVec$LT$T$C$A$GT$11allocate_in17hd8b1a6075d764de3E already exist in ./bitcodes2/image_rs15_880_[fUdYKHfL].bc w:0
 Merging module ./bitcodes2/png_rs13_169_[Y83hS0GU][QIFQoBkU][lFzGZik1].bc
Variants count 1253
 Merging module ./bitcodes2/image_rs15_222_[bE291VoF].bc
Variants count 1254
 Merging module ./bitcodes2/image_rs15_86_[XmCJzCdU].bc
Variants count 1255
 Merging module ./bitcodes2/image_rs15_676_[eY607yZD].bc
Variants count 1256
_ZN5image8dynimage12DynamicImage12from_decoder17h7f14f4ca4650afdfE already exist in ./bitcodes2/image_rs15_676_[eY607yZD].bc w:0
 Merging module ./bitcodes2/image_rs15_222_[ReNQHZSR].bc
Variants count 1257
 Merging module ./bitcodes2/image_rs15_144_[l3mFKZaW].bc
Variants count 1258
_ZN5image8imageops10crop_dimms17h39cdb411ca80a1b2E already exist in ./bitcodes2/image_rs15_144_[l3mFKZaW].bc w:0
 Merging module ./bitcodes2/png_rs13_169_[r0fjEPbG][nu0wLUNR][4Yualfek].bc
Variants count 1259
 Merging module ./bitcodes2/image_rs15_809_[S9D_0uGS].bc
_ZN85_$LT$std..io..buffered..bufreader..BufReader$LT$R$GT$$u20$as$u20$std..io..BufRead$GT$7consume17hf05299ba793de9a9E already exist in ./bitcodes2/image_rs15_809_[S9D_0uGS].bc w:0
_ZN5image7buffer_32ImageBuffer$LT$P$C$Container$GT$9get_pixel17h3a889f5eea763470E already exist in ./bitcodes2/image_rs15_809_[S9D_0uGS].bc w:0
 Merging module ./bitcodes2/image_rs15_618_[mb3YfntS].bc
Variants count 1260
 Merging module ./bitcodes2/image_rs15_0_[9lc5jmB1][DWr0akl2][XWvPCuCk][oggmGH8U].bc
Variants count 1261
 Merging module ./bitcodes2/image_rs15_222_[g9jGz1Wv].bc
Variants count 1262
 Merging module ./bitcodes2/image_rs15_21_[iSTuiAQ3].bc
_ZN4core6option15Option$LT$T$GT$5ok_or17ha615b22f03a42152E already exist in ./bitcodes2/image_rs15_21_[iSTuiAQ3].bc w:0
_ZN5alloc11collections5btree4node137Handle$LT$alloc..collections..btree..node..NodeRef$LT$BorrowType$C$K$C$V$C$NodeType$GT$$C$alloc..collections..btree..node..marker..KV$GT$10right_edge17hc8affa6734f1dd43E already exist in ./bitcodes2/image_rs15_21_[iSTuiAQ3].bc w:0
_ZN97_$LT$alloc..vec..Vec$LT$T$C$A$GT$$u20$as$u20$alloc..vec..spec_extend..SpecExtend$LT$T$C$I$GT$$GT$11spec_extend17hef060f9900728987E already exist in ./bitcodes2/image_rs15_21_[iSTuiAQ3].bc w:0
_ZN106_$LT$image..color..Rgb$LT$T$GT$$u20$as$u20$image..color..FromColor$LT$image..color..LumaA$LT$T$GT$$GT$$GT$10from_color17h3483d43fbbee6b31E already exist in ./bitcodes2/image_rs15_21_[iSTuiAQ3].bc w:0
 Merging module ./bitcodes2/image_rs15_222_[UBzCifL2].bc
Variants count 1263
 Merging module ./bitcodes2/image_rs15_86_[iB4pf_n_].bc
Variants count 1264
 Merging module ./bitcodes2/image_rs15_87_[WhHzIba_].bc
Variants count 1265
 Merging module ./bitcodes2/image_rs15_107_[iDns2G76].bc
Variants count 1266
_ZN111_$LT$core..iter..adapters..zip..Zip$LT$A$C$B$GT$$u20$as$u20$core..iter..adapters..zip..ZipImpl$LT$A$C$B$GT$$GT$4next17h904ae9a5f7f17e7dE already exist in ./bitcodes2/image_rs15_107_[iDns2G76].bc w:0
_ZN153_$LT$core..result..Result$LT$T$C$F$GT$$u20$as$u20$core..ops..try_trait..FromResidual$LT$core..result..Result$LT$core..convert..Infallible$C$E$GT$$GT$$GT$13from_residual17he99b67180108ca9bE already exist in ./bitcodes2/image_rs15_107_[iDns2G76].bc w:0
_ZN63_$LT$I$u20$as$u20$core..iter..traits..collect..IntoIterator$GT$9into_iter17hf0d7f71adab83d70E already exist in ./bitcodes2/image_rs15_107_[iDns2G76].bc w:0
 Merging module ./bitcodes2/png_rs13_2897_[fIzlqqOW][wE4HgUoo].bc
Variants count 1267
 Merging module ./bitcodes2/image_rs15_239_[QH77eDWq].bc
Variants count 1268
_ZN4core4iter6traits8iterator8Iterator10max_by_key3key17h7d25e6cf4f733365E already exist in ./bitcodes2/image_rs15_239_[QH77eDWq].bc w:0
 Merging module ./bitcodes2/image_rs15_125_[50fGqqOe].bc
Variants count 1269
_ZN4core4iter8adapters3map16Map$LT$I$C$F$GT$3new17h4fbee63e29420067E already exist in ./bitcodes2/image_rs15_125_[50fGqqOe].bc w:0
_ZN5image8imageops6affine8rotate9017h07814081b1ddd323E already exist in ./bitcodes2/image_rs15_125_[50fGqqOe].bc w:0
 Merging module ./bitcodes2/image_rs15_0_[t88up51m][RhPCNZSl][7mWr1iHN][vShJgb2g].bc
Variants count 1270
 Merging module ./bitcodes2/image_rs15_222_[MBgl3Lfe].bc
Variants count 1271
 Merging module ./bitcodes2/image_rs15_142_[tMJ5ftBs].bc
Variants count 1272
_ZN97_$LT$alloc..vec..Vec$LT$T$C$A$GT$$u20$as$u20$alloc..vec..spec_extend..SpecExtend$LT$T$C$I$GT$$GT$11spec_extend17h23e2afbd79d2bf65E already exist in ./bitcodes2/image_rs15_142_[tMJ5ftBs].bc w:0
 Merging module ./bitcodes2/image_rs15_222_[_3hhLQ64].bc
Variants count 1273
 Merging module ./bitcodes2/image_rs15_222_[u4z962VO].bc
Variants count 1274
 Merging module ./bitcodes2/image_rs15_615_[qV3ejiaU].bc
Variants count 1275
_ZN4core3ptr8non_null16NonNull$LT$T$GT$13new_unchecked17hf13979bfdc5a69a2E already exist in ./bitcodes2/image_rs15_615_[qV3ejiaU].bc w:0
 Merging module ./bitcodes2/image_rs15_676_[cacQWeyL].bc
Variants count 1276
_ZN5image8dynimage12DynamicImage12from_decoder17h7f14f4ca4650afdfE already exist in ./bitcodes2/image_rs15_676_[cacQWeyL].bc w:0
 Merging module ./bitcodes2/image_rs15_3_[EFOEsgo1].bc
Variants count 1277
_ZN3png7decoder16Decoder$LT$R$GT$19set_transformations17h3db447a4863900d2E already exist in ./bitcodes2/image_rs15_3_[EFOEsgo1].bc w:0
_ZN5image6codecs3bmp7decoder19BmpDecoder$LT$R$GT$25read_full_byte_pixel_data17he90647b932761bd4E already exist in ./bitcodes2/image_rs15_3_[EFOEsgo1].bc w:0
 Merging module ./bitcodes2/image_rs15_3_[WMb14P3W].bc
Variants count 1278
_ZN3png7decoder16Decoder$LT$R$GT$19set_transformations17h3db447a4863900d2E already exist in ./bitcodes2/image_rs15_3_[WMb14P3W].bc w:0
_ZN5image6codecs3bmp7decoder19BmpDecoder$LT$R$GT$25read_full_byte_pixel_data17he90647b932761bd4E already exist in ./bitcodes2/image_rs15_3_[WMb14P3W].bc w:0
 Merging module ./bitcodes2/png_rs13_2897_[F71NeJny][OGe4HYqA].bc
Variants count 1279
 Merging module ./bitcodes2/png_rs13_2897_[Pria2p2j][NFgfQDEO].bc
Variants count 1280
 Merging module ./bitcodes2/image_rs15_222_[LiLB1t7V].bc
Variants count 1281
 Merging module ./bitcodes2/image_rs15_3_[NSQ1_yUN].bc
Variants count 1282
_ZN3png7decoder16Decoder$LT$R$GT$19set_transformations17h3db447a4863900d2E already exist in ./bitcodes2/image_rs15_3_[NSQ1_yUN].bc w:0
_ZN5image6codecs3bmp7decoder19BmpDecoder$LT$R$GT$25read_full_byte_pixel_data17he90647b932761bd4E already exist in ./bitcodes2/image_rs15_3_[NSQ1_yUN].bc w:0
 Merging module ./bitcodes2/image_rs15_610_[yYmtMg3W].bc
Variants count 1283
 Merging module ./bitcodes2/image_rs15_847_[pF_q3yUk].bc
Variants count 1284
_ZN91_$LT$core..slice..iter..Iter$LT$T$GT$$u20$as$u20$core..iter..traits..iterator..Iterator$GT$8position17hbfc0843c92c6878aE already exist in ./bitcodes2/image_rs15_847_[pF_q3yUk].bc w:0
 Merging module ./bitcodes2/image_rs15_87_[i9kEAFc8].bc
Variants count 1285
 Merging module ./bitcodes2/image_rs15_222_[PClxlDri].bc
Variants count 1286
 Merging module ./bitcodes2/image_rs15_112_[OfWLov6I].bc
Variants count 1287
_ZN4core3ops12control_flow77ControlFlow$LT$R$C$$LT$R$u20$as$u20$core..ops..try_trait..Try$GT$..Output$GT$8from_try17hfa27bd65a5ae5641E already exist in ./bitcodes2/image_rs15_112_[OfWLov6I].bc w:0
_ZN5image8imageops8colorops8contrast17he99131cb2798383fE already exist in ./bitcodes2/image_rs15_112_[OfWLov6I].bc w:0
 Merging module ./bitcodes2/image_rs15_222_[9GHDXKnp].bc
Variants count 1288
 Merging module ./bitcodes2/image_rs15_248_[9tJFOlHV].bc
Variants count 1289
_ZN5image6codecs4jpeg7encoder12PixelDensity3dpi17h76e5ade20be76fe1E already exist in ./bitcodes2/image_rs15_248_[9tJFOlHV].bc w:0
 Merging module ./bitcodes2/image_rs15_222_[GlI0_6sL].bc
Variants count 1290
 Merging module ./bitcodes2/image_rs15_615_[QdSd5RYH].bc
Variants count 1291
_ZN4core3ptr8non_null16NonNull$LT$T$GT$13new_unchecked17hf13979bfdc5a69a2E already exist in ./bitcodes2/image_rs15_615_[QdSd5RYH].bc w:0
 Merging module ./bitcodes2/png_rs13_464_[7wONwJ7D][0osZgzeH][SZlzY4MF][dLNXcWle][odYor1Cj].bc
Variants count 1292
 Merging module ./bitcodes2/image_rs15_812_[hNfHvUop].bc
Variants count 1293
_ZN4core3ptr9const_ptr33_$LT$impl$u20$$BP$const$u20$T$GT$7is_null17hf11ad46952c36b76E already exist in ./bitcodes2/image_rs15_812_[hNfHvUop].bc w:0
_ZN4core4iter6traits8iterator8Iterator8for_each4call17h0ad03cb1a658a361E already exist in ./bitcodes2/image_rs15_812_[hNfHvUop].bc w:0
_ZN98_$LT$alloc..vec..Vec$LT$T$GT$$u20$as$u20$alloc..vec..spec_from_iter..SpecFromIter$LT$T$C$I$GT$$GT$9from_iter17h35ff34e0489eb1b7E already exist in ./bitcodes2/image_rs15_812_[hNfHvUop].bc w:0
_ZN5image9animation5Frame6buffer17h50094e6e6ad79b5eE already exist in ./bitcodes2/image_rs15_812_[hNfHvUop].bc w:0
 Merging module ./bitcodes2/image_rs15_222_[GEbJf8N_].bc
Variants count 1294
 Merging module ./bitcodes2/image_rs15_684_[KVdRD4H4].bc
Variants count 1295
_ZN97_$LT$alloc..vec..Vec$LT$T$C$A$GT$$u20$as$u20$alloc..vec..spec_extend..SpecExtend$LT$T$C$I$GT$$GT$11spec_extend28_$u7b$$u7b$closure$u7d$$u7d$17h96619b169d7d8ec9E already exist in ./bitcodes2/image_rs15_684_[KVdRD4H4].bc w:0
 Merging module ./bitcodes2/image_rs15_78_[V0XQjn5F].bc
Variants count 1296
_ZN4tiff7decoder3ifd5Entry13decode_offset17h10f22d8c5f7ba5ffE already exist in ./bitcodes2/image_rs15_78_[V0XQjn5F].bc w:0
_ZN98_$LT$alloc..vec..Vec$LT$T$GT$$u20$as$u20$alloc..vec..spec_from_iter..SpecFromIter$LT$T$C$I$GT$$GT$9from_iter17h81fc7b7cb1966dbcE already exist in ./bitcodes2/image_rs15_78_[V0XQjn5F].bc w:0
 Merging module ./bitcodes2/image_rs15_222_[Rn2AFXi_].bc
Variants count 1297
 Merging module ./bitcodes2/image_rs15_3_[Bfsr2G3W].bc
Variants count 1298
_ZN3png7decoder16Decoder$LT$R$GT$19set_transformations17h3db447a4863900d2E already exist in ./bitcodes2/image_rs15_3_[Bfsr2G3W].bc w:0
_ZN5image6codecs3bmp7decoder19BmpDecoder$LT$R$GT$25read_full_byte_pixel_data17he90647b932761bd4E already exist in ./bitcodes2/image_rs15_3_[Bfsr2G3W].bc w:0
 Merging module ./bitcodes2/image_rs15_3_[6sZu7Czl].bc
Variants count 1299
_ZN3png7decoder16Decoder$LT$R$GT$19set_transformations17h3db447a4863900d2E already exist in ./bitcodes2/image_rs15_3_[6sZu7Czl].bc w:0
_ZN5image6codecs3bmp7decoder19BmpDecoder$LT$R$GT$25read_full_byte_pixel_data17he90647b932761bd4E already exist in ./bitcodes2/image_rs15_3_[6sZu7Czl].bc w:0
 Merging module ./bitcodes2/image_rs15_86_[w1TTQ2Xe].bc
Variants count 1300
 Merging module ./bitcodes2/image_rs15_222_[0dlOSRV2].bc
Variants count 1301
 Merging module ./bitcodes2/image_rs15_160_[THqzyIYn].bc
Variants count 1302
 Merging module ./bitcodes2/image_rs15_215_[UMZ03_Wg].bc
Variants count 1303
 Merging module ./bitcodes2/image_rs15_626_[QO2xHRVN].bc
_ZN109_$LT$core..iter..adapters..scan..Scan$LT$I$C$St$C$F$GT$$u20$as$u20$core..iter..traits..iterator..Iterator$GT$8try_fold4scan28_$u7b$$u7b$closure$u7d$$u7d$17h77fbe3d04892ed88E already exist in ./bitcodes2/image_rs15_626_[QO2xHRVN].bc w:0
 Merging module ./bitcodes2/image_rs15_3_[FuDybka2].bc
Variants count 1304
_ZN3png7decoder16Decoder$LT$R$GT$19set_transformations17h3db447a4863900d2E already exist in ./bitcodes2/image_rs15_3_[FuDybka2].bc w:0
_ZN5image6codecs3bmp7decoder19BmpDecoder$LT$R$GT$25read_full_byte_pixel_data17he90647b932761bd4E already exist in ./bitcodes2/image_rs15_3_[FuDybka2].bc w:0
 Merging module ./bitcodes2/image_rs15_222_[K_2FSctb].bc
Variants count 1305
 Merging module ./bitcodes2/image_rs15_112_[wci3zatv].bc
Variants count 1306
_ZN4core3ops12control_flow77ControlFlow$LT$R$C$$LT$R$u20$as$u20$core..ops..try_trait..Try$GT$..Output$GT$8from_try17hfa27bd65a5ae5641E already exist in ./bitcodes2/image_rs15_112_[wci3zatv].bc w:0
_ZN5image8imageops8colorops8contrast17he99131cb2798383fE already exist in ./bitcodes2/image_rs15_112_[wci3zatv].bc w:0
 Merging module ./bitcodes2/image_rs15_248_[zHJXYQPQ].bc
Variants count 1307
_ZN5image6codecs4jpeg7encoder12PixelDensity3dpi17h76e5ade20be76fe1E already exist in ./bitcodes2/image_rs15_248_[zHJXYQPQ].bc w:0
 Merging module ./bitcodes2/image_rs15_3_[B0D5xQDC].bc
Variants count 1308
_ZN3png7decoder16Decoder$LT$R$GT$19set_transformations17h3db447a4863900d2E already exist in ./bitcodes2/image_rs15_3_[B0D5xQDC].bc w:0
_ZN5image6codecs3bmp7decoder19BmpDecoder$LT$R$GT$25read_full_byte_pixel_data17he90647b932761bd4E already exist in ./bitcodes2/image_rs15_3_[B0D5xQDC].bc w:0
 Merging module ./bitcodes2/png_rs13_2897_[yWpsA06F][s8MYIGE6].bc
Variants count 1309
 Merging module ./bitcodes2/image_rs15_812_[rw__xsfm].bc
Variants count 1310
_ZN4core3ptr9const_ptr33_$LT$impl$u20$$BP$const$u20$T$GT$7is_null17hf11ad46952c36b76E already exist in ./bitcodes2/image_rs15_812_[rw__xsfm].bc w:0
_ZN4core4iter6traits8iterator8Iterator8for_each4call17h0ad03cb1a658a361E already exist in ./bitcodes2/image_rs15_812_[rw__xsfm].bc w:0
_ZN98_$LT$alloc..vec..Vec$LT$T$GT$$u20$as$u20$alloc..vec..spec_from_iter..SpecFromIter$LT$T$C$I$GT$$GT$9from_iter17h35ff34e0489eb1b7E already exist in ./bitcodes2/image_rs15_812_[rw__xsfm].bc w:0
_ZN5image9animation5Frame6buffer17h50094e6e6ad79b5eE already exist in ./bitcodes2/image_rs15_812_[rw__xsfm].bc w:0
 Merging module ./bitcodes2/image_rs15_222_[GFz85_JB].bc
Variants count 1311
 Merging module ./bitcodes2/image_rs15_222_[_KG1wIH4].bc
Variants count 1312
 Merging module ./bitcodes2/image_rs15_222_[aa4B9O7I].bc
Variants count 1313
 Merging module ./bitcodes2/png_rs13_169_[hQYeVEOx][DijXGOyK][Nlo0rYsz].bc
Variants count 1314
 Merging module ./bitcodes2/image_rs15_204_[yKoHT3ui].bc
Variants count 1315
 Merging module ./bitcodes2/image_rs15_86_[tUcixMPR].bc
Variants count 1316
 Merging module ./bitcodes2/image_rs15_222_[S2NjBGTV].bc
Variants count 1317
 Merging module ./bitcodes2/image_rs15_610_[GwzSt9Ri].bc
Variants count 1318
 Merging module ./bitcodes2/png_rs13_1411_[oIgSFLKm][TNCcoFwo].bc
Variants count 1319
 Merging module ./bitcodes2/image_rs15_897_[0tkt2saA].bc
Variants count 1320
_ZN94_$LT$core..slice..iter..IterMut$LT$T$GT$$u20$as$u20$core..iter..traits..iterator..Iterator$GT$24__iterator_get_unchecked17h58b6afa0e8024274E already exist in ./bitcodes2/image_rs15_897_[0tkt2saA].bc w:0
_ZN236_$LT$image..buffer_..ImageBuffer$LT$FromType$C$Container$GT$$u20$as$u20$image..buffer_..ConvertBuffer$LT$image..buffer_..ImageBuffer$LT$ToType$C$alloc..vec..Vec$LT$$LT$ToType$u20$as$u20$image..traits..Pixel$GT$..Subpixel$GT$$GT$$GT$$GT$7convert17he398e278debce516E already exist in ./bitcodes2/image_rs15_897_[0tkt2saA].bc w:0
 Merging module ./bitcodes2/png_rs13_169_[IWr3zcOf][pniL8MFp][FxIFnAWs].bc
Variants count 1321
 Merging module ./bitcodes2/image_rs15_87_[qoSYeXvE].bc
Variants count 1322
 Merging module ./bitcodes2/image_rs15_239_[9XDpcxUD].bc
Variants count 1323
_ZN4core4iter6traits8iterator8Iterator10max_by_key3key17h7d25e6cf4f733365E already exist in ./bitcodes2/image_rs15_239_[9XDpcxUD].bc w:0
 Merging module ./bitcodes2/image_rs15_78_[TLdCI4sQ][yrge81u2].bc
Variants count 1324
_ZN4tiff7decoder3ifd5Entry13decode_offset17h10f22d8c5f7ba5ffE already exist in ./bitcodes2/image_rs15_78_[TLdCI4sQ][yrge81u2].bc w:0
_ZN98_$LT$alloc..vec..Vec$LT$T$GT$$u20$as$u20$alloc..vec..spec_from_iter..SpecFromIter$LT$T$C$I$GT$$GT$9from_iter17h81fc7b7cb1966dbcE already exist in ./bitcodes2/image_rs15_78_[TLdCI4sQ][yrge81u2].bc w:0
 Merging module ./bitcodes2/image_rs15_144_[Nw9rVNaB].bc
Variants count 1325
_ZN5image8imageops10crop_dimms17h39cdb411ca80a1b2E already exist in ./bitcodes2/image_rs15_144_[Nw9rVNaB].bc w:0
 Merging module ./bitcodes2/image_rs15_222_[cKsdHA1B].bc
Variants count 1326
 Merging module ./bitcodes2/image_rs15_840_[9tniDkw8].bc
_ZN4core3ptr1301drop_in_place$LT$core..iter..adapters..map..map_fold$LT$$LP$core..option..Option$LT$jpeg_decoder..huffman..HuffmanTable$GT$$C$core..option..Option$LT$jpeg_decoder..huffman..HuffmanTable$GT$$RP$$C$core..option..Option$LT$jpeg_decoder..huffman..HuffmanTable$GT$$C$$LP$$RP$$C$jpeg_decoder..decoder..Decoder$LT$std..io..buffered..bufreader..BufReader$LT$std..fs..File$GT$$GT$..decode_internal..$u7b$$u7b$closure$u7d$$u7d$$C$core..iter..traits..iterator..Iterator..for_each..call$LT$core..option..Option$LT$jpeg_decoder..huffman..HuffmanTable$GT$$C$$LT$alloc..vec..Vec$LT$core..option..Option$LT$jpeg_decoder..huffman..HuffmanTable$GT$$GT$$u20$as$u20$alloc..vec..spec_extend..SpecExtend$LT$core..option..Option$LT$jpeg_decoder..huffman..HuffmanTable$GT$$C$core..iter..adapters..map..Map$LT$core..iter..adapters..zip..Zip$LT$alloc..vec..into_iter..IntoIter$LT$core..option..Option$LT$jpeg_decoder..huffman..HuffmanTable$GT$$GT$$C$alloc..vec..into_iter..IntoIter$LT$core..option..Option$LT$jpeg_decoder..huffman..HuffmanTable$GT$$GT$$GT$$C$jpeg_decoder..decoder..Decoder$LT$std..io..buffered..bufreader..BufReader$LT$std..fs..File$GT$$GT$..decode_internal..$u7b$$u7b$closure$u7d$$u7d$$GT$$GT$$GT$..spec_extend..$u7b$$u7b$closure$u7d$$u7d$$GT$..$u7b$$u7b$closure$u7d$$u7d$$GT$..$u7b$$u7b$closure$u7d$$u7d$$GT$17h43f18c2da6dc3c94E already exist in ./bitcodes2/image_rs15_840_[9tniDkw8].bc w:0
Variants count 1327
 Merging module ./bitcodes2/image_rs15_3_[9U0G8Zim].bc
Variants count 1328
_ZN3png7decoder16Decoder$LT$R$GT$19set_transformations17h3db447a4863900d2E already exist in ./bitcodes2/image_rs15_3_[9U0G8Zim].bc w:0
_ZN5image6codecs3bmp7decoder19BmpDecoder$LT$R$GT$25read_full_byte_pixel_data17he90647b932761bd4E already exist in ./bitcodes2/image_rs15_3_[9U0G8Zim].bc w:0
 Merging module ./bitcodes2/image_rs15_112_[1_DUGERS].bc
Variants count 1329
_ZN4core3ops12control_flow77ControlFlow$LT$R$C$$LT$R$u20$as$u20$core..ops..try_trait..Try$GT$..Output$GT$8from_try17hfa27bd65a5ae5641E already exist in ./bitcodes2/image_rs15_112_[1_DUGERS].bc w:0
_ZN5image8imageops8colorops8contrast17he99131cb2798383fE already exist in ./bitcodes2/image_rs15_112_[1_DUGERS].bc w:0
 Merging module ./bitcodes2/image_rs15_222_[1ESGThsh].bc
Variants count 1330
 Merging module ./bitcodes2/image_rs15_604_[BKE8TYQV].bc
_ZN4core7convert3num63_$LT$impl$u20$core..convert..From$LT$u8$GT$$u20$for$u20$u16$GT$4from17h01d2f81b7455f64fE already exist in ./bitcodes2/image_rs15_604_[BKE8TYQV].bc w:0
 Merging module ./bitcodes2/image_rs15_222_[5aVQqYCz].bc
Variants count 1331
 Merging module ./bitcodes2/png_rs13_158_[IZeLeB8h][tkRDe0NW][8pEpan7h].bc
Variants count 1332
 Merging module ./bitcodes2/image_rs15_222_[WtjdP0YO].bc
Variants count 1333
 Merging module ./bitcodes2/image_rs15_21_[8PPmPBzE].bc
Variants count 1334
_ZN5alloc11collections5btree4node137Handle$LT$alloc..collections..btree..node..NodeRef$LT$BorrowType$C$K$C$V$C$NodeType$GT$$C$alloc..collections..btree..node..marker..KV$GT$10right_edge17hc8affa6734f1dd43E already exist in ./bitcodes2/image_rs15_21_[8PPmPBzE].bc w:0
_ZN97_$LT$alloc..vec..Vec$LT$T$C$A$GT$$u20$as$u20$alloc..vec..spec_extend..SpecExtend$LT$T$C$I$GT$$GT$11spec_extend17hef060f9900728987E already exist in ./bitcodes2/image_rs15_21_[8PPmPBzE].bc w:0
_ZN106_$LT$image..color..Rgb$LT$T$GT$$u20$as$u20$image..color..FromColor$LT$image..color..LumaA$LT$T$GT$$GT$$GT$10from_color17h3483d43fbbee6b31E already exist in ./bitcodes2/image_rs15_21_[8PPmPBzE].bc w:0
 Merging module ./bitcodes2/image_rs15_222_[_UTOLyiL].bc
Variants count 1335
 Merging module ./bitcodes2/image_rs15_107_[Y2QqNNey].bc
Variants count 1336
_ZN111_$LT$core..iter..adapters..zip..Zip$LT$A$C$B$GT$$u20$as$u20$core..iter..adapters..zip..ZipImpl$LT$A$C$B$GT$$GT$4next17h904ae9a5f7f17e7dE already exist in ./bitcodes2/image_rs15_107_[Y2QqNNey].bc w:0
_ZN153_$LT$core..result..Result$LT$T$C$F$GT$$u20$as$u20$core..ops..try_trait..FromResidual$LT$core..result..Result$LT$core..convert..Infallible$C$E$GT$$GT$$GT$13from_residual17he99b67180108ca9bE already exist in ./bitcodes2/image_rs15_107_[Y2QqNNey].bc w:0
_ZN63_$LT$I$u20$as$u20$core..iter..traits..collect..IntoIterator$GT$9into_iter17hf0d7f71adab83d70E already exist in ./bitcodes2/image_rs15_107_[Y2QqNNey].bc w:0
 Merging module ./bitcodes2/image_rs15_144_[ZGKDs89s].bc
Variants count 1337
_ZN5image8imageops10crop_dimms17h39cdb411ca80a1b2E already exist in ./bitcodes2/image_rs15_144_[ZGKDs89s].bc w:0
 Merging module ./bitcodes2/image_rs15_112_[ybqdukT3].bc
Variants count 1338
_ZN4core3ops12control_flow77ControlFlow$LT$R$C$$LT$R$u20$as$u20$core..ops..try_trait..Try$GT$..Output$GT$8from_try17hfa27bd65a5ae5641E already exist in ./bitcodes2/image_rs15_112_[ybqdukT3].bc w:0
_ZN5image8imageops8colorops8contrast17he99131cb2798383fE already exist in ./bitcodes2/image_rs15_112_[ybqdukT3].bc w:0
 Merging module ./bitcodes2/image_rs15_222_[Grd64TjN].bc
Variants count 1339
 Merging module ./bitcodes2/image_rs15_78_[AJqGFsm_].bc
Variants count 1340
_ZN4tiff7decoder3ifd5Entry13decode_offset17h10f22d8c5f7ba5ffE already exist in ./bitcodes2/image_rs15_78_[AJqGFsm_].bc w:0
_ZN98_$LT$alloc..vec..Vec$LT$T$GT$$u20$as$u20$alloc..vec..spec_from_iter..SpecFromIter$LT$T$C$I$GT$$GT$9from_iter17h81fc7b7cb1966dbcE already exist in ./bitcodes2/image_rs15_78_[AJqGFsm_].bc w:0
 Merging module ./bitcodes2/image_rs15_809_[kOtTL86G].bc
_ZN85_$LT$std..io..buffered..bufreader..BufReader$LT$R$GT$$u20$as$u20$std..io..BufRead$GT$7consume17hf05299ba793de9a9E already exist in ./bitcodes2/image_rs15_809_[kOtTL86G].bc w:0
_ZN5image7buffer_32ImageBuffer$LT$P$C$Container$GT$9get_pixel17h3a889f5eea763470E already exist in ./bitcodes2/image_rs15_809_[kOtTL86G].bc w:0
 Merging module ./bitcodes2/image_rs15_222_[cOoWnY5c].bc
Variants count 1341
 Merging module ./bitcodes2/image_rs15_858_[ukCd0tfM].bc
_ZN68_$LT$core..option..Option$LT$T$GT$$u20$as$u20$core..clone..Clone$GT$5clone17h7c4ed7cc0844d274E already exist in ./bitcodes2/image_rs15_858_[ukCd0tfM].bc w:0
_ZN111_$LT$core..iter..adapters..zip..Zip$LT$A$C$B$GT$$u20$as$u20$core..iter..adapters..zip..ZipImpl$LT$A$C$B$GT$$GT$3new17hd9e89045f71da222E already exist in ./bitcodes2/image_rs15_858_[ukCd0tfM].bc w:0
_ZN4core3ptr175drop_in_place$LT$std..io..buffered..bufreader..BufReader$LT$std..io..buffered..bufreader..BufReader$LT$std..io..buffered..bufreader..BufReader$LT$std..fs..File$GT$$GT$$GT$$GT$17hdbdf19a6169cce83E already exist in ./bitcodes2/image_rs15_858_[ukCd0tfM].bc w:0
_ZN75_$LT$usize$u20$as$u20$core..slice..index..SliceIndex$LT$$u5b$T$u5d$$GT$$GT$9index_mut17h878438740c82fb14E already exist in ./bitcodes2/image_rs15_858_[ukCd0tfM].bc w:0
_ZN95_$LT$image..codecs..ico..encoder..IcoEncoder$LT$W$GT$$u20$as$u20$image..image..ImageEncoder$GT$11write_image17h4263aacfd78fedfdE already exist in ./bitcodes2/image_rs15_858_[ukCd0tfM].bc w:0
_ZN5image6codecs3pnm9autobreak18AutoBreak$LT$W$GT$9flush_buf17h350f213d0bcba396E already exist in ./bitcodes2/image_rs15_858_[ukCd0tfM].bc w:0
 Merging module ./bitcodes2/image_rs15_676_[Q6yAQ47y].bc
Variants count 1342
_ZN5image8dynimage12DynamicImage12from_decoder17h7f14f4ca4650afdfE already exist in ./bitcodes2/image_rs15_676_[Q6yAQ47y].bc w:0
 Merging module ./bitcodes2/image_rs15_248_[T3duwe37].bc
Variants count 1343
_ZN5image6codecs4jpeg7encoder12PixelDensity3dpi17h76e5ade20be76fe1E already exist in ./bitcodes2/image_rs15_248_[T3duwe37].bc w:0
 Merging module ./bitcodes2/image_rs15_21_[sAPvH54b].bc
Variants count 1344
_ZN5alloc11collections5btree4node137Handle$LT$alloc..collections..btree..node..NodeRef$LT$BorrowType$C$K$C$V$C$NodeType$GT$$C$alloc..collections..btree..node..marker..KV$GT$10right_edge17hc8affa6734f1dd43E already exist in ./bitcodes2/image_rs15_21_[sAPvH54b].bc w:0
_ZN97_$LT$alloc..vec..Vec$LT$T$C$A$GT$$u20$as$u20$alloc..vec..spec_extend..SpecExtend$LT$T$C$I$GT$$GT$11spec_extend17hef060f9900728987E already exist in ./bitcodes2/image_rs15_21_[sAPvH54b].bc w:0
_ZN106_$LT$image..color..Rgb$LT$T$GT$$u20$as$u20$image..color..FromColor$LT$image..color..LumaA$LT$T$GT$$GT$$GT$10from_color17h3483d43fbbee6b31E already exist in ./bitcodes2/image_rs15_21_[sAPvH54b].bc w:0
 Merging module ./bitcodes2/image_rs15_87_[rB_NGvpB].bc
Variants count 1345
 Merging module ./bitcodes2/image_rs15_144_[srNt54iw].bc
Variants count 1346
_ZN5image8imageops10crop_dimms17h39cdb411ca80a1b2E already exist in ./bitcodes2/image_rs15_144_[srNt54iw].bc w:0
 Merging module ./bitcodes2/image_rs15_3_[tnuJF14n].bc
Variants count 1347
_ZN3png7decoder16Decoder$LT$R$GT$19set_transformations17h3db447a4863900d2E already exist in ./bitcodes2/image_rs15_3_[tnuJF14n].bc w:0
_ZN5image6codecs3bmp7decoder19BmpDecoder$LT$R$GT$25read_full_byte_pixel_data17he90647b932761bd4E already exist in ./bitcodes2/image_rs15_3_[tnuJF14n].bc w:0
 Merging module ./bitcodes2/image_rs15_604_[iyml05q1].bc
_ZN4core7convert3num63_$LT$impl$u20$core..convert..From$LT$u8$GT$$u20$for$u20$u16$GT$4from17h01d2f81b7455f64fE already exist in ./bitcodes2/image_rs15_604_[iyml05q1].bc w:0
 Merging module ./bitcodes2/image_rs15_610_[8LbERNSt].bc
Variants count 1348
 Merging module ./bitcodes2/image_rs15_86_[gDM6v7Ae].bc
Variants count 1349
 Merging module ./bitcodes2/image_rs15_3_[PiV_ZSCV].bc
Variants count 1350
_ZN3png7decoder16Decoder$LT$R$GT$19set_transformations17h3db447a4863900d2E already exist in ./bitcodes2/image_rs15_3_[PiV_ZSCV].bc w:0
_ZN5image6codecs3bmp7decoder19BmpDecoder$LT$R$GT$25read_full_byte_pixel_data17he90647b932761bd4E already exist in ./bitcodes2/image_rs15_3_[PiV_ZSCV].bc w:0
 Merging module ./bitcodes2/image_rs15_215_[y9T4P7h5].bc
Variants count 1351
 Merging module ./bitcodes2/image_rs15_676_[Tp4JWj06].bc
Variants count 1352
_ZN5image8dynimage12DynamicImage12from_decoder17h7f14f4ca4650afdfE already exist in ./bitcodes2/image_rs15_676_[Tp4JWj06].bc w:0
 Merging module ./bitcodes2/image_rs15_3_[PfpYxWfA].bc
Variants count 1353
_ZN3png7decoder16Decoder$LT$R$GT$19set_transformations17h3db447a4863900d2E already exist in ./bitcodes2/image_rs15_3_[PfpYxWfA].bc w:0
_ZN5image6codecs3bmp7decoder19BmpDecoder$LT$R$GT$25read_full_byte_pixel_data17he90647b932761bd4E already exist in ./bitcodes2/image_rs15_3_[PfpYxWfA].bc w:0
 Merging module ./bitcodes2/image_rs15_222_[_L_KaA1c].bc
Variants count 1354
 Merging module ./bitcodes2/png_rs13_169_[RKqJTWLH][E5r_RpHf][O6luMLrb].bc
Variants count 1355
 Merging module ./bitcodes2/image_rs15_610_[lmh_gSkm].bc
Variants count 1356
 Merging module ./bitcodes2/image_rs15_125_[QqzeCkc_].bc
Variants count 1357
_ZN4core4iter8adapters3map16Map$LT$I$C$F$GT$3new17h4fbee63e29420067E already exist in ./bitcodes2/image_rs15_125_[QqzeCkc_].bc w:0
_ZN5image8imageops6affine8rotate9017h07814081b1ddd323E already exist in ./bitcodes2/image_rs15_125_[QqzeCkc_].bc w:0
 Merging module ./bitcodes2/image_rs15_222_[XPjKMlt3].bc
Variants count 1358
 Merging module ./bitcodes2/image_rs15_895_[KdTuhtX5].bc
_ZN4tiff7encoder25ImageEncoder$LT$W$C$T$GT$3new28_$u7b$$u7b$closure$u7d$$u7d$17h5829a8e49adae91fE already exist in ./bitcodes2/image_rs15_895_[KdTuhtX5].bc w:0
 Merging module ./bitcodes2/image_rs15_818_[3m_IatQs].bc
Variants count 1359
_ZN5image5error10LimitError9from_kind17h5b0452e3cc9838c6E already exist in ./bitcodes2/image_rs15_818_[3m_IatQs].bc w:0
_ZN99_$LT$image..buffer_..ImageBuffer$LT$P$C$Container$GT$$u20$as$u20$image..image..GenericImageView$GT$9get_pixel17h58e9e6d253fab205E already exist in ./bitcodes2/image_rs15_818_[3m_IatQs].bc w:0
 Merging module ./bitcodes2/image_rs15_3_[mVNkD0ao].bc
Variants count 1360
_ZN3png7decoder16Decoder$LT$R$GT$19set_transformations17h3db447a4863900d2E already exist in ./bitcodes2/image_rs15_3_[mVNkD0ao].bc w:0
_ZN5image6codecs3bmp7decoder19BmpDecoder$LT$R$GT$25read_full_byte_pixel_data17he90647b932761bd4E already exist in ./bitcodes2/image_rs15_3_[mVNkD0ao].bc w:0
 Merging module ./bitcodes2/image_rs15_222_[SLsUCDQd].bc
Variants count 1361
 Merging module ./bitcodes2/image_rs15_95_[E5HCqcur].bc
Variants count 1362
 Merging module ./bitcodes2/image_rs15_811_[9ae_NNnl].bc
_ZN4core3cmp6min_by17h1d6323d90622e113E already exist in ./bitcodes2/image_rs15_811_[9ae_NNnl].bc w:0
_ZN4core4iter6traits8iterator8Iterator8try_fold17h38d7b2253440eee9E already exist in ./bitcodes2/image_rs15_811_[9ae_NNnl].bc w:0
 Merging module ./bitcodes2/image_rs15_222_[rf24MQRf].bc
Variants count 1363
 Merging module ./bitcodes2/png_rs13_464_[nFMxEfny][jbBAXhS1][l8LdJznd][qgIzycpG][PqOxZOvY].bc
Variants count 1364
 Merging module ./bitcodes2/image_rs15_3_[SxwfzPZV].bc
Variants count 1365
_ZN3png7decoder16Decoder$LT$R$GT$19set_transformations17h3db447a4863900d2E already exist in ./bitcodes2/image_rs15_3_[SxwfzPZV].bc w:0
_ZN5image6codecs3bmp7decoder19BmpDecoder$LT$R$GT$25read_full_byte_pixel_data17he90647b932761bd4E already exist in ./bitcodes2/image_rs15_3_[SxwfzPZV].bc w:0
 Merging module ./bitcodes2/image_rs15_21_[YNR1mj5m].bc
Variants count 1366
_ZN5alloc11collections5btree4node137Handle$LT$alloc..collections..btree..node..NodeRef$LT$BorrowType$C$K$C$V$C$NodeType$GT$$C$alloc..collections..btree..node..marker..KV$GT$10right_edge17hc8affa6734f1dd43E already exist in ./bitcodes2/image_rs15_21_[YNR1mj5m].bc w:0
_ZN97_$LT$alloc..vec..Vec$LT$T$C$A$GT$$u20$as$u20$alloc..vec..spec_extend..SpecExtend$LT$T$C$I$GT$$GT$11spec_extend17hef060f9900728987E already exist in ./bitcodes2/image_rs15_21_[YNR1mj5m].bc w:0
_ZN106_$LT$image..color..Rgb$LT$T$GT$$u20$as$u20$image..color..FromColor$LT$image..color..LumaA$LT$T$GT$$GT$$GT$10from_color17h3483d43fbbee6b31E already exist in ./bitcodes2/image_rs15_21_[YNR1mj5m].bc w:0
 Merging module ./bitcodes2/image_rs15_3_[PMcXlBNg].bc
Variants count 1367
_ZN3png7decoder16Decoder$LT$R$GT$19set_transformations17h3db447a4863900d2E already exist in ./bitcodes2/image_rs15_3_[PMcXlBNg].bc w:0
_ZN5image6codecs3bmp7decoder19BmpDecoder$LT$R$GT$25read_full_byte_pixel_data17he90647b932761bd4E already exist in ./bitcodes2/image_rs15_3_[PMcXlBNg].bc w:0
 Merging module ./bitcodes2/image_rs15_222_[pTzu5YDr].bc
Variants count 1368
 Merging module ./bitcodes2/image_rs15_78_[22bOmm4G].bc
Variants count 1369
_ZN4tiff7decoder3ifd5Entry13decode_offset17h10f22d8c5f7ba5ffE already exist in ./bitcodes2/image_rs15_78_[22bOmm4G].bc w:0
_ZN98_$LT$alloc..vec..Vec$LT$T$GT$$u20$as$u20$alloc..vec..spec_from_iter..SpecFromIter$LT$T$C$I$GT$$GT$9from_iter17h81fc7b7cb1966dbcE already exist in ./bitcodes2/image_rs15_78_[22bOmm4G].bc w:0
 Merging module ./bitcodes2/image_rs15_87_[9nUFlX3L].bc
Variants count 1370
 Merging module ./bitcodes2/image_rs15_0_[f4WjgeIH][d2W493tR][EG8HpBuE][xfEteiid].bc
Variants count 1371
 Merging module ./bitcodes2/image_rs15_222_[2UX2iIBu].bc
Variants count 1372
 Merging module ./bitcodes2/png_rs13_220_[5ui7kmDI].bc
Variants count 1373
Variants count 1374
 Merging module ./bitcodes2/image_rs15_610_[kMVATMu9].bc
Variants count 1375
 Merging module ./bitcodes2/image_rs15_222_[XKOUJqIQ].bc
Variants count 1376
 Merging module ./bitcodes2/image_rs15_858_[gpv5djCW].bc
_ZN111_$LT$core..iter..adapters..zip..Zip$LT$A$C$B$GT$$u20$as$u20$core..iter..adapters..zip..ZipImpl$LT$A$C$B$GT$$GT$3new17hd9e89045f71da222E already exist in ./bitcodes2/image_rs15_858_[gpv5djCW].bc w:0
_ZN4core3ptr175drop_in_place$LT$std..io..buffered..bufreader..BufReader$LT$std..io..buffered..bufreader..BufReader$LT$std..io..buffered..bufreader..BufReader$LT$std..fs..File$GT$$GT$$GT$$GT$17hdbdf19a6169cce83E already exist in ./bitcodes2/image_rs15_858_[gpv5djCW].bc w:0
Variants count 1377
_ZN75_$LT$usize$u20$as$u20$core..slice..index..SliceIndex$LT$$u5b$T$u5d$$GT$$GT$9index_mut17h878438740c82fb14E already exist in ./bitcodes2/image_rs15_858_[gpv5djCW].bc w:0
_ZN95_$LT$image..codecs..ico..encoder..IcoEncoder$LT$W$GT$$u20$as$u20$image..image..ImageEncoder$GT$11write_image17h4263aacfd78fedfdE already exist in ./bitcodes2/image_rs15_858_[gpv5djCW].bc w:0
_ZN5image6codecs3pnm9autobreak18AutoBreak$LT$W$GT$9flush_buf17h350f213d0bcba396E already exist in ./bitcodes2/image_rs15_858_[gpv5djCW].bc w:0
 Merging module ./bitcodes2/image_rs15_86_[5eBVmS_h].bc
Variants count 1378
 Merging module ./bitcodes2/image_rs15_107_[tH_MXmiP].bc
Variants count 1379
_ZN111_$LT$core..iter..adapters..zip..Zip$LT$A$C$B$GT$$u20$as$u20$core..iter..adapters..zip..ZipImpl$LT$A$C$B$GT$$GT$4next17h904ae9a5f7f17e7dE already exist in ./bitcodes2/image_rs15_107_[tH_MXmiP].bc w:0
_ZN153_$LT$core..result..Result$LT$T$C$F$GT$$u20$as$u20$core..ops..try_trait..FromResidual$LT$core..result..Result$LT$core..convert..Infallible$C$E$GT$$GT$$GT$13from_residual17he99b67180108ca9bE already exist in ./bitcodes2/image_rs15_107_[tH_MXmiP].bc w:0
_ZN63_$LT$I$u20$as$u20$core..iter..traits..collect..IntoIterator$GT$9into_iter17hf0d7f71adab83d70E already exist in ./bitcodes2/image_rs15_107_[tH_MXmiP].bc w:0
 Merging module ./bitcodes2/image_rs15_222_[cU4ORy5z].bc
Variants count 1380
 Merging module ./bitcodes2/image_rs15_818_[tvPUfYWD].bc
Variants count 1381
_ZN5image5error10LimitError9from_kind17h5b0452e3cc9838c6E already exist in ./bitcodes2/image_rs15_818_[tvPUfYWD].bc w:0
_ZN99_$LT$image..buffer_..ImageBuffer$LT$P$C$Container$GT$$u20$as$u20$image..image..GenericImageView$GT$9get_pixel17h58e9e6d253fab205E already exist in ./bitcodes2/image_rs15_818_[tvPUfYWD].bc w:0
 Merging module ./bitcodes2/image_rs15_144_[WAmVQecX].bc
Variants count 1382
_ZN5image8imageops10crop_dimms17h39cdb411ca80a1b2E already exist in ./bitcodes2/image_rs15_144_[WAmVQecX].bc w:0
 Merging module ./bitcodes2/image_rs15_222_[54KcGxnb].bc
Variants count 1383
 Merging module ./bitcodes2/image_rs15_496_[MLSTrGbz].bc
Variants count 1384
 Merging module ./bitcodes2/image_rs15_605_[8RRHw7j5].bc
Variants count 1385
 Merging module ./bitcodes2/image_rs15_222_[3hFZacJ_].bc
Variants count 1386
 Merging module ./bitcodes2/png_rs13_158_[bqHAZm9J][KiUEXbZY][h0GnNqZk].bc
Variants count 1387
 Merging module ./bitcodes2/image_rs15_222_[5lu3mGWm].bc
Variants count 1388
 Merging module ./bitcodes2/image_rs15_222_[bGDkvBRm].bc
Variants count 1389
 Merging module ./bitcodes2/image_rs15_80_[p8u6dlrA].bc
Variants count 1390
_ZN4core3ptr104drop_in_place$LT$alloc..raw_vec..RawVec$LT$$LP$alloc..string..String$C$alloc..string..String$RP$$GT$$GT$17hb0979317a97b05b1E already exist in ./bitcodes2/image_rs15_80_[p8u6dlrA].bc w:0
 Merging module ./bitcodes2/image_rs15_222_[xs6Q0fhS].bc
Variants count 1391
 Merging module ./bitcodes2/image_rs15_3_[UaCMC1oF].bc
Variants count 1392
_ZN3png7decoder16Decoder$LT$R$GT$19set_transformations17h3db447a4863900d2E already exist in ./bitcodes2/image_rs15_3_[UaCMC1oF].bc w:0
_ZN5image6codecs3bmp7decoder19BmpDecoder$LT$R$GT$25read_full_byte_pixel_data17he90647b932761bd4E already exist in ./bitcodes2/image_rs15_3_[UaCMC1oF].bc w:0
 Merging module ./bitcodes2/image_rs15_899_[D00pOjed].bc
_ZN4core4iter6traits8iterator8Iterator10take_while17hcc43c0837567068bE already exist in ./bitcodes2/image_rs15_899_[D00pOjed].bc w:0
_ZN5alloc11collections5btree4node180Handle$LT$alloc..collections..btree..node..NodeRef$LT$BorrowType$C$K$C$V$C$alloc..collections..btree..node..marker..Internal$GT$$C$alloc..collections..btree..node..marker..Edge$GT$7descend17hf4281fdda17f351dE already exist in ./bitcodes2/image_rs15_899_[D00pOjed].bc w:0
_ZN5image9animation5Delay19from_numer_denom_ms17h7548f7460285471eE already exist in ./bitcodes2/image_rs15_899_[D00pOjed].bc w:0
_ZN236_$LT$image..buffer_..ImageBuffer$LT$FromType$C$Container$GT$$u20$as$u20$image..buffer_..ConvertBuffer$LT$image..buffer_..ImageBuffer$LT$ToType$C$alloc..vec..Vec$LT$$LT$ToType$u20$as$u20$image..traits..Pixel$GT$..Subpixel$GT$$GT$$GT$$GT$7convert17hbaa3e972a3d25c44E already exist in ./bitcodes2/image_rs15_899_[D00pOjed].bc w:0
 Merging module ./bitcodes2/image_rs15_222_[taWZnSlk].bc
Variants count 1393
 Merging module ./bitcodes2/image_rs15_86_[_QJzwuG0].bc
Variants count 1394
 Merging module ./bitcodes2/image_rs15_825_[_4gYMdZS].bc
_ZN5image6codecs3ico7decoder12read_entries17h1ec3cbec3442b257E already exist in ./bitcodes2/image_rs15_825_[_4gYMdZS].bc w:0
 Merging module ./bitcodes2/image_rs15_791_[coGnmlB_].bc
_ZN4core3fmt3num49_$LT$impl$u20$core..fmt..Debug$u20$for$u20$u8$GT$3fmt17h9b13b8336b79af1fE already exist in ./bitcodes2/image_rs15_791_[coGnmlB_].bc w:0
 Merging module ./bitcodes2/image_rs15_233_[DxAbXRRo].bc
Variants count 1395
_ZN5image6codecs4jpeg7encoder18BitWriter$LT$W$GT$13write_segment17h1f584c4ee0ce62ecE already exist in ./bitcodes2/image_rs15_233_[DxAbXRRo].bc w:0
 Merging module ./bitcodes2/image_rs15_3_[BmNPaDpT].bc
Variants count 1396
_ZN3png7decoder16Decoder$LT$R$GT$19set_transformations17h3db447a4863900d2E already exist in ./bitcodes2/image_rs15_3_[BmNPaDpT].bc w:0
_ZN5image6codecs3bmp7decoder19BmpDecoder$LT$R$GT$25read_full_byte_pixel_data17he90647b932761bd4E already exist in ./bitcodes2/image_rs15_3_[BmNPaDpT].bc w:0
 Merging module ./bitcodes2/image_rs15_843_[_HybcK62].bc
Variants count 1397
_ZN5image7buffer_32ImageBuffer$LT$P$C$Container$GT$16check_image_fits17h89836d9f979b2413E already exist in ./bitcodes2/image_rs15_843_[_HybcK62].bc w:0
_ZN5image5image16GenericImageView5width17hc8a2a9f5f4c99d2bE already exist in ./bitcodes2/image_rs15_843_[_HybcK62].bc w:0
 Merging module ./bitcodes2/image_rs15_22_[l7PQGvHi].bc
Variants count 1398
_ZN4core4iter6traits8iterator8Iterator3zip17h43464ae3c43581b8E already exist in ./bitcodes2/image_rs15_22_[l7PQGvHi].bc w:0
_ZN63_$LT$I$u20$as$u20$core..iter..traits..collect..IntoIterator$GT$9into_iter17hfc236f1a393ea9c0E already exist in ./bitcodes2/image_rs15_22_[l7PQGvHi].bc w:0
_ZN5image5error16UnsupportedError20from_format_and_kind17h8dd35d19527ffadbE already exist in ./bitcodes2/image_rs15_22_[l7PQGvHi].bc w:0
_ZN5image8imageops6sample9thumbnail17h418ac981c55a78dbE already exist in ./bitcodes2/image_rs15_22_[l7PQGvHi].bc w:0
 Merging module ./bitcodes2/image_rs15_222_[vrh3AqNV].bc
Variants count 1399
 Merging module ./bitcodes2/image_rs15_222_[JCZEPxS9].bc
Variants count 1400
 Merging module ./bitcodes2/image_rs15_248_[9iWkDww6].bc
Variants count 1401
_ZN5image6codecs4jpeg7encoder12PixelDensity3dpi17h76e5ade20be76fe1E already exist in ./bitcodes2/image_rs15_248_[9iWkDww6].bc w:0
 Merging module ./bitcodes2/image_rs15_86_[EDBm5Pqk].bc
Variants count 1402
 Merging module ./bitcodes2/image_rs15_222_[fzVsyY7I].bc
Variants count 1403
 Merging module ./bitcodes2/image_rs15_125_[shW9mACx].bc
Variants count 1404
_ZN4core4iter8adapters3map16Map$LT$I$C$F$GT$3new17h4fbee63e29420067E already exist in ./bitcodes2/image_rs15_125_[shW9mACx].bc w:0
_ZN5image8imageops6affine8rotate9017h07814081b1ddd323E already exist in ./bitcodes2/image_rs15_125_[shW9mACx].bc w:0
 Merging module ./bitcodes2/image_rs15_0_[Z1vA74mH][TMTG_4yZ][apTOQCya][_Wwl0nGM].bc
Variants count 1405
 Merging module ./bitcodes2/image_rs15_878_[rRiALgz6].bc
_ZN4tiff7decoder16Decoder$LT$R$GT$10next_image17h0972891b5629e687E already exist in ./bitcodes2/image_rs15_878_[rRiALgz6].bc w:0
_ZN84_$LT$core..option..Option$LT$T$GT$$u20$as$u20$core..ops..try_trait..FromResidual$GT$13from_residual17h867e0f47ab24da24E already exist in ./bitcodes2/image_rs15_878_[rRiALgz6].bc w:0
 Merging module ./bitcodes2/image_rs15_86_[UD02Cg8B].bc
Variants count 1406
 Merging module ./bitcodes2/image_rs15_107_[gM28B7zg].bc
Variants count 1407
_ZN111_$LT$core..iter..adapters..zip..Zip$LT$A$C$B$GT$$u20$as$u20$core..iter..adapters..zip..ZipImpl$LT$A$C$B$GT$$GT$4next17h904ae9a5f7f17e7dE already exist in ./bitcodes2/image_rs15_107_[gM28B7zg].bc w:0
_ZN153_$LT$core..result..Result$LT$T$C$F$GT$$u20$as$u20$core..ops..try_trait..FromResidual$LT$core..result..Result$LT$core..convert..Infallible$C$E$GT$$GT$$GT$13from_residual17he99b67180108ca9bE already exist in ./bitcodes2/image_rs15_107_[gM28B7zg].bc w:0
_ZN63_$LT$I$u20$as$u20$core..iter..traits..collect..IntoIterator$GT$9into_iter17hf0d7f71adab83d70E already exist in ./bitcodes2/image_rs15_107_[gM28B7zg].bc w:0
 Merging module ./bitcodes2/image_rs15_86_[uNmGJFjp].bc
Variants count 1408
 Merging module ./bitcodes2/image_rs15_21_[Yc9iorEY].bc
Variants count 1409
_ZN5alloc11collections5btree4node137Handle$LT$alloc..collections..btree..node..NodeRef$LT$BorrowType$C$K$C$V$C$NodeType$GT$$C$alloc..collections..btree..node..marker..KV$GT$10right_edge17hc8affa6734f1dd43E already exist in ./bitcodes2/image_rs15_21_[Yc9iorEY].bc w:0
_ZN97_$LT$alloc..vec..Vec$LT$T$C$A$GT$$u20$as$u20$alloc..vec..spec_extend..SpecExtend$LT$T$C$I$GT$$GT$11spec_extend17hef060f9900728987E already exist in ./bitcodes2/image_rs15_21_[Yc9iorEY].bc w:0
_ZN106_$LT$image..color..Rgb$LT$T$GT$$u20$as$u20$image..color..FromColor$LT$image..color..LumaA$LT$T$GT$$GT$$GT$10from_color17h3483d43fbbee6b31E already exist in ./bitcodes2/image_rs15_21_[Yc9iorEY].bc w:0
 Merging module ./bitcodes2/image_rs15_3_[GY4v5RJA].bc
Variants count 1410
_ZN3png7decoder16Decoder$LT$R$GT$19set_transformations17h3db447a4863900d2E already exist in ./bitcodes2/image_rs15_3_[GY4v5RJA].bc w:0
_ZN5image6codecs3bmp7decoder19BmpDecoder$LT$R$GT$25read_full_byte_pixel_data17he90647b932761bd4E already exist in ./bitcodes2/image_rs15_3_[GY4v5RJA].bc w:0
 Merging module ./bitcodes2/image_rs15_3_[mj2pwh5D].bc
Variants count 1411
_ZN3png7decoder16Decoder$LT$R$GT$19set_transformations17h3db447a4863900d2E already exist in ./bitcodes2/image_rs15_3_[mj2pwh5D].bc w:0
_ZN5image6codecs3bmp7decoder19BmpDecoder$LT$R$GT$25read_full_byte_pixel_data17he90647b932761bd4E already exist in ./bitcodes2/image_rs15_3_[mj2pwh5D].bc w:0
 Merging module ./bitcodes2/image_rs15_890_[A5fqk_yb].bc
Variants count 1412
 Merging module ./bitcodes2/image_rs15_233_[mP89wzgl].bc
Variants count 1413
_ZN5image6codecs4jpeg7encoder18BitWriter$LT$W$GT$13write_segment17h1f584c4ee0ce62ecE already exist in ./bitcodes2/image_rs15_233_[mP89wzgl].bc w:0
 Merging module ./bitcodes2/image_rs15_3_[6vNNdezs].bc
Variants count 1414
_ZN3png7decoder16Decoder$LT$R$GT$19set_transformations17h3db447a4863900d2E already exist in ./bitcodes2/image_rs15_3_[6vNNdezs].bc w:0
_ZN5image6codecs3bmp7decoder19BmpDecoder$LT$R$GT$25read_full_byte_pixel_data17he90647b932761bd4E already exist in ./bitcodes2/image_rs15_3_[6vNNdezs].bc w:0
 Merging module ./bitcodes2/image_rs15_248_[xN7dtZRE].bc
Variants count 1415
_ZN5image6codecs4jpeg7encoder12PixelDensity3dpi17h76e5ade20be76fe1E already exist in ./bitcodes2/image_rs15_248_[xN7dtZRE].bc w:0
 Merging module ./bitcodes2/image_rs15_3_[qGmqtU7W].bc
Variants count 1416
_ZN3png7decoder16Decoder$LT$R$GT$19set_transformations17h3db447a4863900d2E already exist in ./bitcodes2/image_rs15_3_[qGmqtU7W].bc w:0
_ZN5image6codecs3bmp7decoder19BmpDecoder$LT$R$GT$25read_full_byte_pixel_data17he90647b932761bd4E already exist in ./bitcodes2/image_rs15_3_[qGmqtU7W].bc w:0
 Merging module ./bitcodes2/image_rs15_615_[jzFtojLa].bc
Variants count 1417
_ZN4core3ptr8non_null16NonNull$LT$T$GT$13new_unchecked17hf13979bfdc5a69a2E already exist in ./bitcodes2/image_rs15_615_[jzFtojLa].bc w:0
 Merging module ./bitcodes2/image_rs15_890_[7SrXJ_NI].bc
_ZN80_$LT$core..str..pattern..StrSearcher$u20$as$u20$core..str..pattern..Searcher$GT$4next17he812986a6604b9f8E already exist in ./bitcodes2/image_rs15_890_[7SrXJ_NI].bc w:0
 Merging module ./bitcodes2/image_rs15_3_[HbwPYR_C].bc
Variants count 1418
_ZN3png7decoder16Decoder$LT$R$GT$19set_transformations17h3db447a4863900d2E already exist in ./bitcodes2/image_rs15_3_[HbwPYR_C].bc w:0
_ZN5image6codecs3bmp7decoder19BmpDecoder$LT$R$GT$25read_full_byte_pixel_data17he90647b932761bd4E already exist in ./bitcodes2/image_rs15_3_[HbwPYR_C].bc w:0
 Merging module ./bitcodes2/image_rs15_610_[505mhedm].bc
Variants count 1419
 Merging module ./bitcodes2/image_rs15_222_[dfpnCExV].bc
Variants count 1420
 Merging module ./bitcodes2/image_rs15_107_[XzHytnbE].bc
Variants count 1421
_ZN111_$LT$core..iter..adapters..zip..Zip$LT$A$C$B$GT$$u20$as$u20$core..iter..adapters..zip..ZipImpl$LT$A$C$B$GT$$GT$4next17h904ae9a5f7f17e7dE already exist in ./bitcodes2/image_rs15_107_[XzHytnbE].bc w:0
_ZN153_$LT$core..result..Result$LT$T$C$F$GT$$u20$as$u20$core..ops..try_trait..FromResidual$LT$core..result..Result$LT$core..convert..Infallible$C$E$GT$$GT$$GT$13from_residual17he99b67180108ca9bE already exist in ./bitcodes2/image_rs15_107_[XzHytnbE].bc w:0
_ZN63_$LT$I$u20$as$u20$core..iter..traits..collect..IntoIterator$GT$9into_iter17hf0d7f71adab83d70E already exist in ./bitcodes2/image_rs15_107_[XzHytnbE].bc w:0
 Merging module ./bitcodes2/image_rs15_142_[TKaFAN9x].bc
Variants count 1422
_ZN97_$LT$alloc..vec..Vec$LT$T$C$A$GT$$u20$as$u20$alloc..vec..spec_extend..SpecExtend$LT$T$C$I$GT$$GT$11spec_extend17h23e2afbd79d2bf65E already exist in ./bitcodes2/image_rs15_142_[TKaFAN9x].bc w:0
 Merging module ./bitcodes2/image_rs15_222_[JD5U7Q94].bc
Variants count 1423
 Merging module ./bitcodes2/image_rs15_0_[ajLfn7z5][8JI9Zpsb][SCuevAj6][ii_7FPMQ].bc
_ZN4tiff7decoder6stream12EndianReader8read_i3217hfdbca248c262029aE already exist in ./bitcodes2/image_rs15_0_[ajLfn7z5][8JI9Zpsb][SCuevAj6][ii_7FPMQ].bc w:0
 Merging module ./bitcodes2/png_rs13_2745_[wQ3cePts][ynmHn2nc][iw8sl2Mi][4qSDjOX5][62X9hXRv].bc
_ZN130_$LT$png..common..Transformations$u20$as$u20$$LT$png..common..Transformations$u20$as$u20$core..fmt..Debug$GT$..fmt..__BitFlags$GT$8IDENTITY17h975fe46c9f22a26dE already exist in ./bitcodes2/png_rs13_2745_[wQ3cePts][ynmHn2nc][iw8sl2Mi][4qSDjOX5][62X9hXRv].bc w:0
 Merging module ./bitcodes2/image_rs15_618_[fF2ErcCv].bc
Variants count 1424
 Merging module ./bitcodes2/image_rs15_107_[8ns__Kc0].bc
Variants count 1425
_ZN111_$LT$core..iter..adapters..zip..Zip$LT$A$C$B$GT$$u20$as$u20$core..iter..adapters..zip..ZipImpl$LT$A$C$B$GT$$GT$4next17h904ae9a5f7f17e7dE already exist in ./bitcodes2/image_rs15_107_[8ns__Kc0].bc w:0
_ZN153_$LT$core..result..Result$LT$T$C$F$GT$$u20$as$u20$core..ops..try_trait..FromResidual$LT$core..result..Result$LT$core..convert..Infallible$C$E$GT$$GT$$GT$13from_residual17he99b67180108ca9bE already exist in ./bitcodes2/image_rs15_107_[8ns__Kc0].bc w:0
_ZN63_$LT$I$u20$as$u20$core..iter..traits..collect..IntoIterator$GT$9into_iter17hf0d7f71adab83d70E already exist in ./bitcodes2/image_rs15_107_[8ns__Kc0].bc w:0
 Merging module ./bitcodes2/image_rs15_160_[L6y5vgX7].bc
Variants count 1426
 Merging module ./bitcodes2/image_rs15_112_[gIzsD5AI].bc
Variants count 1427
_ZN4core3ops12control_flow77ControlFlow$LT$R$C$$LT$R$u20$as$u20$core..ops..try_trait..Try$GT$..Output$GT$8from_try17hfa27bd65a5ae5641E already exist in ./bitcodes2/image_rs15_112_[gIzsD5AI].bc w:0
_ZN5image8imageops8colorops8contrast17he99131cb2798383fE already exist in ./bitcodes2/image_rs15_112_[gIzsD5AI].bc w:0
 Merging module ./bitcodes2/image_rs15_496_[I6IV_GoT].bc
_ZN4core4iter6traits8iterator8Iterator4fold17hd88b9692991d2a0dE already exist in ./bitcodes2/image_rs15_496_[I6IV_GoT].bc w:0
 Merging module ./bitcodes2/image_rs15_107_[hZ9k9RUo].bc
Variants count 1428
_ZN111_$LT$core..iter..adapters..zip..Zip$LT$A$C$B$GT$$u20$as$u20$core..iter..adapters..zip..ZipImpl$LT$A$C$B$GT$$GT$4next17h904ae9a5f7f17e7dE already exist in ./bitcodes2/image_rs15_107_[hZ9k9RUo].bc w:0
_ZN153_$LT$core..result..Result$LT$T$C$F$GT$$u20$as$u20$core..ops..try_trait..FromResidual$LT$core..result..Result$LT$core..convert..Infallible$C$E$GT$$GT$$GT$13from_residual17he99b67180108ca9bE already exist in ./bitcodes2/image_rs15_107_[hZ9k9RUo].bc w:0
_ZN63_$LT$I$u20$as$u20$core..iter..traits..collect..IntoIterator$GT$9into_iter17hf0d7f71adab83d70E already exist in ./bitcodes2/image_rs15_107_[hZ9k9RUo].bc w:0
 Merging module ./bitcodes2/image_rs15_222_[u_VoEkvN].bc
Variants count 1429
 Merging module ./bitcodes2/image_rs15_3_[sN4GvTJN].bc
Variants count 1430
_ZN3png7decoder16Decoder$LT$R$GT$19set_transformations17h3db447a4863900d2E already exist in ./bitcodes2/image_rs15_3_[sN4GvTJN].bc w:0
_ZN5image6codecs3bmp7decoder19BmpDecoder$LT$R$GT$25read_full_byte_pixel_data17he90647b932761bd4E already exist in ./bitcodes2/image_rs15_3_[sN4GvTJN].bc w:0
 Merging module ./bitcodes2/image_rs15_222_[d9lT9Odx].bc
Variants count 1431
 Merging module ./bitcodes2/png_rs13_169_[AFCN_kaO][AfFCq_m_][CbIwcl93].bc
Variants count 1432
 Merging module ./bitcodes2/image_rs15_215_[G419B1o1].bc
Variants count 1433
 Merging module ./bitcodes2/image_rs15_222_[lh8_roeN].bc
Variants count 1434
 Merging module ./bitcodes2/image_rs15_3_[htgr9kpB].bc
Variants count 1435
_ZN3png7decoder16Decoder$LT$R$GT$19set_transformations17h3db447a4863900d2E already exist in ./bitcodes2/image_rs15_3_[htgr9kpB].bc w:0
_ZN5image6codecs3bmp7decoder19BmpDecoder$LT$R$GT$25read_full_byte_pixel_data17he90647b932761bd4E already exist in ./bitcodes2/image_rs15_3_[htgr9kpB].bc w:0
 Merging module ./bitcodes2/image_rs15_222_[weoEIevB].bc
Variants count 1436
 Merging module ./bitcodes2/image_rs15_215_[OUFF4E8B].bc
Variants count 1437
 Merging module ./bitcodes2/png_rs13_1267_[_4ScvSCy][7nPoZbFg][iTNNpIU1][guK2pJH8].bc
Variants count 1438
 Merging module ./bitcodes2/image_rs15_605_[WqTWzm4Y].bc
Variants count 1439
 Merging module ./bitcodes2/image_rs15_222_[fOVfrp0Z].bc
Variants count 1440
 Merging module ./bitcodes2/image_rs15_22_[BvG5svAK].bc
Variants count 1441
_ZN4core4iter6traits8iterator8Iterator3zip17h43464ae3c43581b8E already exist in ./bitcodes2/image_rs15_22_[BvG5svAK].bc w:0
_ZN63_$LT$I$u20$as$u20$core..iter..traits..collect..IntoIterator$GT$9into_iter17hfc236f1a393ea9c0E already exist in ./bitcodes2/image_rs15_22_[BvG5svAK].bc w:0
_ZN5image5error16UnsupportedError20from_format_and_kind17h8dd35d19527ffadbE already exist in ./bitcodes2/image_rs15_22_[BvG5svAK].bc w:0
_ZN5image8imageops6sample9thumbnail17h418ac981c55a78dbE already exist in ./bitcodes2/image_rs15_22_[BvG5svAK].bc w:0
 Merging module ./bitcodes2/image_rs15_829_[m3gN2_q_].bc
Variants count 1442
 Merging module ./bitcodes2/image_rs15_618_[yHZbPOF6].bc
Variants count 1443
 Merging module ./bitcodes2/image_rs15_605_[y9asjnG5].bc
Variants count 1444
 Merging module ./bitcodes2/image_rs15_222_[5ZSog1_w].bc
Variants count 1445
 Merging module ./bitcodes2/png_rs13_169_[PbdbKBHZ][5NAbBFh4][IA1iFuqY].bc
Variants count 1446
 Merging module ./bitcodes2/image_rs15_86_[GXkt5Vao].bc
Variants count 1447
 Merging module ./bitcodes2/image_rs15_843_[Dvz3NLoH].bc
Variants count 1448
_ZN5image7buffer_32ImageBuffer$LT$P$C$Container$GT$16check_image_fits17h89836d9f979b2413E already exist in ./bitcodes2/image_rs15_843_[Dvz3NLoH].bc w:0
_ZN5image5image16GenericImageView5width17hc8a2a9f5f4c99d2bE already exist in ./bitcodes2/image_rs15_843_[Dvz3NLoH].bc w:0
 Merging module ./bitcodes2/image_rs15_78_[HM5azVxs].bc
Variants count 1449
_ZN4tiff7decoder3ifd5Entry13decode_offset17h10f22d8c5f7ba5ffE already exist in ./bitcodes2/image_rs15_78_[HM5azVxs].bc w:0
_ZN98_$LT$alloc..vec..Vec$LT$T$GT$$u20$as$u20$alloc..vec..spec_from_iter..SpecFromIter$LT$T$C$I$GT$$GT$9from_iter17h81fc7b7cb1966dbcE already exist in ./bitcodes2/image_rs15_78_[HM5azVxs].bc w:0
 Merging module ./bitcodes2/image_rs15_676_[_ADEhNoq].bc
Variants count 1450
_ZN5image8dynimage12DynamicImage12from_decoder17h7f14f4ca4650afdfE already exist in ./bitcodes2/image_rs15_676_[_ADEhNoq].bc w:0
 Merging module ./bitcodes2/image_rs15_112_[R2B0_POi].bc
Variants count 1451
_ZN4core3ops12control_flow77ControlFlow$LT$R$C$$LT$R$u20$as$u20$core..ops..try_trait..Try$GT$..Output$GT$8from_try17hfa27bd65a5ae5641E already exist in ./bitcodes2/image_rs15_112_[R2B0_POi].bc w:0
_ZN5image8imageops8colorops8contrast17he99131cb2798383fE already exist in ./bitcodes2/image_rs15_112_[R2B0_POi].bc w:0
 Merging module ./bitcodes2/image_rs15_222_[KB9oUGpx].bc
Variants count 1452
 Merging module ./bitcodes2/image_rs15_222_[TJmQEDSb].bc
Variants count 1453
 Merging module ./bitcodes2/image_rs15_222_[57_JdgOU].bc
Variants count 1454
 Merging module ./bitcodes2/image_rs15_222_[mw_vRJxE].bc
Variants count 1455
 Merging module ./bitcodes2/image_rs15_489_[1FQqR_e7].bc
_ZN4core6option15Option$LT$T$GT$8and_then17h2631f28260702651E already exist in ./bitcodes2/image_rs15_489_[1FQqR_e7].bc w:0
_ZN5image6codecs3dxt13enc565_encode17hd6ee5c03322105c1E already exist in ./bitcodes2/image_rs15_489_[1FQqR_e7].bc w:0
 Merging module ./bitcodes2/png_rs13_169_[Cbk68Kkj][DnDU_8Aw][GumLSGjK].bc
Variants count 1456
 Merging module ./bitcodes2/image_rs15_3_[Y1r3_L0s].bc
Variants count 1457
_ZN3png7decoder16Decoder$LT$R$GT$19set_transformations17h3db447a4863900d2E already exist in ./bitcodes2/image_rs15_3_[Y1r3_L0s].bc w:0
_ZN5image6codecs3bmp7decoder19BmpDecoder$LT$R$GT$25read_full_byte_pixel_data17he90647b932761bd4E already exist in ./bitcodes2/image_rs15_3_[Y1r3_L0s].bc w:0
 Merging module ./bitcodes2/image_rs15_160_[HhR4OTKd].bc
Variants count 1458
 Merging module ./bitcodes2/image_rs15_222_[EmtauJFa].bc
Variants count 1459
 Merging module ./bitcodes2/image_rs15_3_[mMVGfx8_].bc
Variants count 1460
_ZN3png7decoder16Decoder$LT$R$GT$19set_transformations17h3db447a4863900d2E already exist in ./bitcodes2/image_rs15_3_[mMVGfx8_].bc w:0
_ZN5image6codecs3bmp7decoder19BmpDecoder$LT$R$GT$25read_full_byte_pixel_data17he90647b932761bd4E already exist in ./bitcodes2/image_rs15_3_[mMVGfx8_].bc w:0
 Merging module ./bitcodes2/image_rs15_222_[mpmWb5MW].bc
Variants count 1461
 Merging module ./bitcodes2/image_rs15_222_[2GOslsgr].bc
Variants count 1462
 Merging module ./bitcodes2/image_rs15_610_[Bl7jIUyI].bc
Variants count 1463
 Merging module ./bitcodes2/image_rs15_222_[XOHmpvcf].bc
Variants count 1464
 Merging module ./bitcodes2/image_rs15_626_[gCV6Oq2z].bc
_ZN109_$LT$core..iter..adapters..scan..Scan$LT$I$C$St$C$F$GT$$u20$as$u20$core..iter..traits..iterator..Iterator$GT$8try_fold4scan28_$u7b$$u7b$closure$u7d$$u7d$17h77fbe3d04892ed88E already exist in ./bitcodes2/image_rs15_626_[gCV6Oq2z].bc w:0
 Merging module ./bitcodes2/image_rs15_222_[vsrarARD].bc
Variants count 1465
 Merging module ./bitcodes2/image_rs15_618_[ZoEP6lls].bc
Variants count 1466
 Merging module ./bitcodes2/image_rs15_233_[_vmxqNjS].bc
Variants count 1467
_ZN5image6codecs4jpeg7encoder18BitWriter$LT$W$GT$13write_segment17h1f584c4ee0ce62ecE already exist in ./bitcodes2/image_rs15_233_[_vmxqNjS].bc w:0
 Merging module ./bitcodes2/image_rs15_107_[ildBIIyA].bc
Variants count 1468
_ZN111_$LT$core..iter..adapters..zip..Zip$LT$A$C$B$GT$$u20$as$u20$core..iter..adapters..zip..ZipImpl$LT$A$C$B$GT$$GT$4next17h904ae9a5f7f17e7dE already exist in ./bitcodes2/image_rs15_107_[ildBIIyA].bc w:0
_ZN153_$LT$core..result..Result$LT$T$C$F$GT$$u20$as$u20$core..ops..try_trait..FromResidual$LT$core..result..Result$LT$core..convert..Infallible$C$E$GT$$GT$$GT$13from_residual17he99b67180108ca9bE already exist in ./bitcodes2/image_rs15_107_[ildBIIyA].bc w:0
_ZN63_$LT$I$u20$as$u20$core..iter..traits..collect..IntoIterator$GT$9into_iter17hf0d7f71adab83d70E already exist in ./bitcodes2/image_rs15_107_[ildBIIyA].bc w:0
 Merging module ./bitcodes2/image_rs15_897_[aTfMorZx].bc
Variants count 1469
_ZN94_$LT$core..slice..iter..IterMut$LT$T$GT$$u20$as$u20$core..iter..traits..iterator..Iterator$GT$24__iterator_get_unchecked17h58b6afa0e8024274E already exist in ./bitcodes2/image_rs15_897_[aTfMorZx].bc w:0
_ZN236_$LT$image..buffer_..ImageBuffer$LT$FromType$C$Container$GT$$u20$as$u20$image..buffer_..ConvertBuffer$LT$image..buffer_..ImageBuffer$LT$ToType$C$alloc..vec..Vec$LT$$LT$ToType$u20$as$u20$image..traits..Pixel$GT$..Subpixel$GT$$GT$$GT$$GT$7convert17he398e278debce516E already exist in ./bitcodes2/image_rs15_897_[aTfMorZx].bc w:0
 Merging module ./bitcodes2/image_rs15_222_[13B0uaRM].bc
Variants count 1470
 Merging module ./bitcodes2/image_rs15_812_[ykf3BgHr].bc
Variants count 1471
_ZN4core3ptr9const_ptr33_$LT$impl$u20$$BP$const$u20$T$GT$7is_null17hf11ad46952c36b76E already exist in ./bitcodes2/image_rs15_812_[ykf3BgHr].bc w:0
_ZN4core4iter6traits8iterator8Iterator8for_each4call17h0ad03cb1a658a361E already exist in ./bitcodes2/image_rs15_812_[ykf3BgHr].bc w:0
_ZN98_$LT$alloc..vec..Vec$LT$T$GT$$u20$as$u20$alloc..vec..spec_from_iter..SpecFromIter$LT$T$C$I$GT$$GT$9from_iter17h35ff34e0489eb1b7E already exist in ./bitcodes2/image_rs15_812_[ykf3BgHr].bc w:0
_ZN5image9animation5Frame6buffer17h50094e6e6ad79b5eE already exist in ./bitcodes2/image_rs15_812_[ykf3BgHr].bc w:0
 Merging module ./bitcodes2/image_rs15_22_[Uh3I3f2I].bc
Variants count 1472
_ZN4core4iter6traits8iterator8Iterator3zip17h43464ae3c43581b8E already exist in ./bitcodes2/image_rs15_22_[Uh3I3f2I].bc w:0
_ZN63_$LT$I$u20$as$u20$core..iter..traits..collect..IntoIterator$GT$9into_iter17hfc236f1a393ea9c0E already exist in ./bitcodes2/image_rs15_22_[Uh3I3f2I].bc w:0
_ZN5image5error16UnsupportedError20from_format_and_kind17h8dd35d19527ffadbE already exist in ./bitcodes2/image_rs15_22_[Uh3I3f2I].bc w:0
_ZN5image8imageops6sample9thumbnail17h418ac981c55a78dbE already exist in ./bitcodes2/image_rs15_22_[Uh3I3f2I].bc w:0
 Merging module ./bitcodes2/image_rs15_3_[SNqNv55m].bc
Variants count 1473
_ZN3png7decoder16Decoder$LT$R$GT$19set_transformations17h3db447a4863900d2E already exist in ./bitcodes2/image_rs15_3_[SNqNv55m].bc w:0
_ZN5image6codecs3bmp7decoder19BmpDecoder$LT$R$GT$25read_full_byte_pixel_data17he90647b932761bd4E already exist in ./bitcodes2/image_rs15_3_[SNqNv55m].bc w:0
Finishing the switch case for _ZN100_$LT$core..iter..adapters..skip..Skip$LT$I$GT$$u20$as$u20$core..iter..traits..iterator..Iterator$GT$4next17hd07828de115ed256E. Final size 2
size 1
Finishing the switch case for _ZN100_$LT$core..iter..adapters..take..Take$LT$I$GT$$u20$as$u20$core..iter..traits..iterator..Iterator$GT$4next17hc1aee42f86ca97d1E. Final size 2
size 2
Finishing the switch case for _ZN102_$LT$core..iter..adapters..zip..Zip$LT$A$C$B$GT$$u20$as$u20$core..iter..traits..iterator..Iterator$GT$4next17h9fa731e74ddd253dE. Final size 2
size 3
Finishing the switch case for _ZN102_$LT$core..iter..adapters..zip..Zip$LT$A$C$B$GT$$u20$as$u20$core..iter..traits..iterator..Iterator$GT$4next17ha3efc2b8b7ff563eE. Final size 2
size 4
Finishing the switch case for _ZN102_$LT$core..iter..adapters..zip..Zip$LT$A$C$B$GT$$u20$as$u20$core..iter..traits..iterator..Iterator$GT$4next17hb64c490d1a6d3a73E. Final size 2
size 5
Finishing the switch case for _ZN105_$LT$core..iter..adapters..ResultShunt$LT$I$C$E$GT$$u20$as$u20$core..iter..traits..iterator..Iterator$GT$8try_fold17hf0d36d3f471aab62E. Final size 2
size 6
Finishing the switch case for _ZN105_$LT$core..iter..adapters..step_by..StepBy$LT$I$GT$$u20$as$u20$core..iter..traits..iterator..Iterator$GT$4next17ha56620f560e39d9eE. Final size 2
size 7
Finishing the switch case for _ZN105_$LT$image..color..Bgr$LT$T$GT$$u20$as$u20$image..color..FromColor$LT$image..color..Rgba$LT$T$GT$$GT$$GT$10from_color17h738b0de0f3283b7eE. Final size 2
size 8
Finishing the switch case for _ZN105_$LT$image..color..Rgb$LT$T$GT$$u20$as$u20$image..color..FromColor$LT$image..color..Luma$LT$T$GT$$GT$$GT$10from_color17hfded6d83c20eeff5E. Final size 2
size 9
Finishing the switch case for _ZN106_$LT$core..ops..range..Range$LT$usize$GT$$u20$as$u20$core..slice..index..SliceIndex$LT$$u5b$T$u5d$$GT$$GT$9index_mut17h10255d8b372cb7a2E. Final size 2
size 10
Finishing the switch case for _ZN106_$LT$image..color..Bgra$LT$T$GT$$u20$as$u20$image..color..FromColor$LT$image..color..Luma$LT$T$GT$$GT$$GT$10from_color17h8b14ebbd69728264E. Final size 2
size 11
Finishing the switch case for _ZN106_$LT$image..color..Rgb$LT$T$GT$$u20$as$u20$image..color..FromColor$LT$image..color..LumaA$LT$T$GT$$GT$$GT$10from_color17h3483d43fbbee6b31E. Final size 2
size 12
Finishing the switch case for _ZN107_$LT$core..iter..adapters..fuse..Fuse$LT$I$GT$$u20$as$u20$core..iter..adapters..fuse..FuseImpl$LT$I$GT$$GT$4next17h44f75264d3c0c0a9E. Final size 2
size 13
Finishing the switch case for _ZN107_$LT$core..iter..adapters..fuse..Fuse$LT$I$GT$$u20$as$u20$core..iter..adapters..fuse..FuseImpl$LT$I$GT$$GT$8try_fold17h957a34c799108b9eE. Final size 41
size 14
Finishing the switch case for _ZN108_$LT$core..ops..range..RangeTo$LT$usize$GT$$u20$as$u20$core..slice..index..SliceIndex$LT$$u5b$T$u5d$$GT$$GT$5index17hdb724b8c3e7a2507E. Final size 2
size 15
Finishing the switch case for _ZN108_$LT$image..color..Rgba$LT$u16$GT$$u20$as$u20$image..color..FromColor$LT$image..color..Rgb$LT$u8$GT$$GT$$GT$10from_color17h76fcdf3a3a485207E. Final size 2
size 16
Finishing the switch case for _ZN109_$LT$core..iter..adapters..scan..Scan$LT$I$C$St$C$F$GT$$u20$as$u20$core..iter..traits..iterator..Iterator$GT$8try_fold4scan28_$u7b$$u7b$closure$u7d$$u7d$17h77fbe3d04892ed88E. Final size 2
size 17
Finishing the switch case for _ZN111_$LT$alloc..vec..Vec$LT$T$GT$$u20$as$u20$alloc..vec..spec_from_iter_nested..SpecFromIterNested$LT$T$C$I$GT$$GT$9from_iter17h339176d3ca90d853E. Final size 2
size 18
Finishing the switch case for _ZN111_$LT$alloc..vec..Vec$LT$T$GT$$u20$as$u20$alloc..vec..spec_from_iter_nested..SpecFromIterNested$LT$T$C$I$GT$$GT$9from_iter17hc79e326a3aaaf41dE. Final size 2
size 19
Finishing the switch case for _ZN111_$LT$core..iter..adapters..zip..Zip$LT$A$C$B$GT$$u20$as$u20$core..iter..adapters..zip..ZipImpl$LT$A$C$B$GT$$GT$3new17hd9e89045f71da222E. Final size 2
size 20
Finishing the switch case for _ZN111_$LT$core..iter..adapters..zip..Zip$LT$A$C$B$GT$$u20$as$u20$core..iter..adapters..zip..ZipImpl$LT$A$C$B$GT$$GT$4next17h344b94838f46062aE. Final size 20
size 21
Finishing the switch case for _ZN111_$LT$core..iter..adapters..zip..Zip$LT$A$C$B$GT$$u20$as$u20$core..iter..adapters..zip..ZipImpl$LT$A$C$B$GT$$GT$4next17h495ad7648bf10354E. Final size 43
size 22
Finishing the switch case for _ZN111_$LT$core..iter..adapters..zip..Zip$LT$A$C$B$GT$$u20$as$u20$core..iter..adapters..zip..ZipImpl$LT$A$C$B$GT$$GT$4next17h904ae9a5f7f17e7dE. Final size 2
size 23
Finishing the switch case for _ZN111_$LT$core..iter..adapters..zip..Zip$LT$A$C$B$GT$$u20$as$u20$core..iter..adapters..zip..ZipImpl$LT$A$C$B$GT$$GT$4next17hc0ff4e9041e9037aE. Final size 17
size 24
Finishing the switch case for _ZN12jpeg_decoder6parser9parse_sos17hc7f5dff8533ec723E. Final size 2
size 25
Finishing the switch case for _ZN130_$LT$png..common..Transformations$u20$as$u20$$LT$png..common..Transformations$u20$as$u20$core..fmt..Debug$GT$..fmt..__BitFlags$GT$18STRIP_FILLER_AFTER17h8b2ff0bff4aeb853E. Final size 36
size 26
Finishing the switch case for _ZN130_$LT$png..common..Transformations$u20$as$u20$$LT$png..common..Transformations$u20$as$u20$core..fmt..Debug$GT$..fmt..__BitFlags$GT$8IDENTITY17h975fe46c9f22a26dE. Final size 2
size 27
Finishing the switch case for _ZN130_$LT$png..common..Transformations$u20$as$u20$$LT$png..common..Transformations$u20$as$u20$core..fmt..Debug$GT$..fmt..__BitFlags$GT$8STRIP_1617h8c011392a3bd3eccE. Final size 2
size 28
Finishing the switch case for _ZN153_$LT$core..result..Result$LT$T$C$F$GT$$u20$as$u20$core..ops..try_trait..FromResidual$LT$core..result..Result$LT$core..convert..Infallible$C$E$GT$$GT$$GT$13from_residual17h571fa2b99265a39fE. Final size 2
size 29
Finishing the switch case for _ZN153_$LT$core..result..Result$LT$T$C$F$GT$$u20$as$u20$core..ops..try_trait..FromResidual$LT$core..result..Result$LT$core..convert..Infallible$C$E$GT$$GT$$GT$13from_residual17he99b67180108ca9bE. Final size 2
size 30
Finishing the switch case for _ZN236_$LT$image..buffer_..ImageBuffer$LT$FromType$C$Container$GT$$u20$as$u20$image..buffer_..ConvertBuffer$LT$image..buffer_..ImageBuffer$LT$ToType$C$alloc..vec..Vec$LT$$LT$ToType$u20$as$u20$image..traits..Pixel$GT$..Subpixel$GT$$GT$$GT$$GT$7convert17h218796699906a13cE. Final size 6
size 31
Finishing the switch case for _ZN236_$LT$image..buffer_..ImageBuffer$LT$FromType$C$Container$GT$$u20$as$u20$image..buffer_..ConvertBuffer$LT$image..buffer_..ImageBuffer$LT$ToType$C$alloc..vec..Vec$LT$$LT$ToType$u20$as$u20$image..traits..Pixel$GT$..Subpixel$GT$$GT$$GT$$GT$7convert17h6e3e30968ef059d6E. Final size 2
size 32
Finishing the switch case for _ZN236_$LT$image..buffer_..ImageBuffer$LT$FromType$C$Container$GT$$u20$as$u20$image..buffer_..ConvertBuffer$LT$image..buffer_..ImageBuffer$LT$ToType$C$alloc..vec..Vec$LT$$LT$ToType$u20$as$u20$image..traits..Pixel$GT$..Subpixel$GT$$GT$$GT$$GT$7convert17hbaa3e972a3d25c44E. Final size 2
size 33
Finishing the switch case for _ZN236_$LT$image..buffer_..ImageBuffer$LT$FromType$C$Container$GT$$u20$as$u20$image..buffer_..ConvertBuffer$LT$image..buffer_..ImageBuffer$LT$ToType$C$alloc..vec..Vec$LT$$LT$ToType$u20$as$u20$image..traits..Pixel$GT$..Subpixel$GT$$GT$$GT$$GT$7convert17hcd7d15d86f3e3b99E. Final size 18
size 34
Finishing the switch case for _ZN236_$LT$image..buffer_..ImageBuffer$LT$FromType$C$Container$GT$$u20$as$u20$image..buffer_..ConvertBuffer$LT$image..buffer_..ImageBuffer$LT$ToType$C$alloc..vec..Vec$LT$$LT$ToType$u20$as$u20$image..traits..Pixel$GT$..Subpixel$GT$$GT$$GT$$GT$7convert17he398e278debce516E. Final size 2
size 35
Finishing the switch case for _ZN3gif6reader20ReadDecoder$LT$R$GT$11decode_next17h6bf907aecb954d28E. Final size 2
size 36
Finishing the switch case for _ZN3gif7encoder16Encoder$LT$W$GT$15write_extension17h31216512db391286E. Final size 17
size 37
Finishing the switch case for _ZN3png6common15deflate_convert130_$LT$impl$u20$core..convert..From$LT$png..common..Compression$GT$$u20$for$u20$deflate..compression_options..CompressionOptions$GT$4from17h47b47fc48ccaa619E. Final size 2
size 38
Finishing the switch case for _ZN3png7decoder15Reader$LT$R$GT$19next_interlaced_row17h68379df29e9bf069E. Final size 2
size 39
Finishing the switch case for _ZN3png7decoder15Reader$LT$R$GT$9line_size17hd697ec76058bfc83E. Final size 2
size 40
Finishing the switch case for _ZN3png7decoder15expand_paletted28_$u7b$$u7b$closure$u7d$$u7d$17h93da92ffc39ab0d2E. Final size 2
size 41
Finishing the switch case for _ZN3png7decoder16Decoder$LT$R$GT$19set_transformations17h3db447a4863900d2E. Final size 2
size 42
Finishing the switch case for _ZN3png7decoder4zlib10ZlibStream10decompress17he9e2f0c0aeca5ab8E. Final size 2
size 43
Finishing the switch case for _ZN3std2io11read_to_end17h668f271b057765a3E. Final size 2
size 44
Finishing the switch case for _ZN3std2io18default_read_exact17hb94d646ae2196fabE. Final size 2
size 45
Finishing the switch case for _ZN3std2io4Read5bytes17h38adebbc40ab3a18E. Final size 2
size 46
Finishing the switch case for _ZN3std2io4copy17stack_buffer_copy17hc2b3a0f758ad00ecE. Final size 2
size 47
Finishing the switch case for _ZN3std2io5impls60_$LT$impl$u20$std..io..Read$u20$for$u20$$RF$$u5b$u8$u5d$$GT$10read_exact17he57f488acdc27304E. Final size 2
size 48
Finishing the switch case for _ZN3std2io8buffered9bufwriter18BufWriter$LT$W$GT$25write_to_buffer_unchecked17h6ad8a360442e5a2fE. Final size 2
size 49
Finishing the switch case for _ZN3std5error5Error5cause17hbe7f47cd629cb24bE. Final size 2
size 50
Finishing the switch case for _ZN3std5error5Error7type_id17hfd955b4c1723556bE. Final size 2
size 51
Finishing the switch case for _ZN4core10intrinsics4copy17h1dd5756d1317fb5dE. Final size 2
size 52
Finishing the switch case for _ZN4core3cmp10PartialOrd2lt17h74a20fce2828e43eE. Final size 39
size 53
Finishing the switch case for _ZN4core3cmp5impls50_$LT$impl$u20$core..cmp..Ord$u20$for$u20$isize$GT$3cmp17h320342f6de7fecaaE. Final size 2
size 54
Finishing the switch case for _ZN4core3cmp5impls69_$LT$impl$u20$core..cmp..PartialEq$LT$$RF$B$GT$$u20$for$u20$$RF$A$GT$2ne17hda992074c04757ffE. Final size 2
size 55
Finishing the switch case for _ZN4core3cmp6min_by17h1d6323d90622e113E. Final size 2
size 56
Finishing the switch case for _ZN4core3fmt3num49_$LT$impl$u20$core..fmt..Debug$u20$for$u20$u8$GT$3fmt17h9b13b8336b79af1fE. Final size 2
size 57
Finishing the switch case for _ZN4core3num21_$LT$impl$u20$i16$GT$7from_le17h2224e58aef0ee9dcE. Final size 2
size 58
Finishing the switch case for _ZN4core3num21_$LT$impl$u20$u32$GT$13from_be_bytes17h814ffe1ac7107373E. Final size 2
size 59
Finishing the switch case for _ZN4core3ops12control_flow77ControlFlow$LT$R$C$$LT$R$u20$as$u20$core..ops..try_trait..Try$GT$..Output$GT$8from_try17hfa27bd65a5ae5641E. Final size 2
size 60
Finishing the switch case for _ZN4core3ops8function6FnOnce40call_once$u7b$$u7b$vtable.shim$u7d$$u7d$17h1638d214e154e1e5E. Final size 2
size 61
Finishing the switch case for _ZN4core3ops8function6FnOnce9call_once17hc3b3c146f0ec0a7bE. Final size 2
size 62
Finishing the switch case for _ZN4core3ptr104drop_in_place$LT$alloc..raw_vec..RawVec$LT$$LP$alloc..string..String$C$alloc..string..String$RP$$GT$$GT$17hb0979317a97b05b1E. Final size 2
size 63
Finishing the switch case for _ZN4core3ptr1301drop_in_place$LT$core..iter..adapters..map..map_fold$LT$$LP$core..option..Option$LT$jpeg_decoder..huffman..HuffmanTable$GT$$C$core..option..Option$LT$jpeg_decoder..huffman..HuffmanTable$GT$$RP$$C$core..option..Option$LT$jpeg_decoder..huffman..HuffmanTable$GT$$C$$LP$$RP$$C$jpeg_decoder..decoder..Decoder$LT$std..io..buffered..bufreader..BufReader$LT$std..fs..File$GT$$GT$..decode_internal..$u7b$$u7b$closure$u7d$$u7d$$C$core..iter..traits..iterator..Iterator..for_each..call$LT$core..option..Option$LT$jpeg_decoder..huffman..HuffmanTable$GT$$C$$LT$alloc..vec..Vec$LT$core..option..Option$LT$jpeg_decoder..huffman..HuffmanTable$GT$$GT$$u20$as$u20$alloc..vec..spec_extend..SpecExtend$LT$core..option..Option$LT$jpeg_decoder..huffman..HuffmanTable$GT$$C$core..iter..adapters..map..Map$LT$core..iter..adapters..zip..Zip$LT$alloc..vec..into_iter..IntoIter$LT$core..option..Option$LT$jpeg_decoder..huffman..HuffmanTable$GT$$GT$$C$alloc..vec..into_iter..IntoIter$LT$core..option..Option$LT$jpeg_decoder..huffman..HuffmanTable$GT$$GT$$GT$$C$jpeg_decoder..decoder..Decoder$LT$std..io..buffered..bufreader..BufReader$LT$std..fs..File$GT$$GT$..decode_internal..$u7b$$u7b$closure$u7d$$u7d$$GT$$GT$$GT$..spec_extend..$u7b$$u7b$closure$u7d$$u7d$$GT$..$u7b$$u7b$closure$u7d$$u7d$$GT$..$u7b$$u7b$closure$u7d$$u7d$$GT$17h43f18c2da6dc3c94E. Final size 2
size 64
Finishing the switch case for _ZN4core3ptr175drop_in_place$LT$std..io..buffered..bufreader..BufReader$LT$std..io..buffered..bufreader..BufReader$LT$std..io..buffered..bufreader..BufReader$LT$std..fs..File$GT$$GT$$GT$$GT$17hdbdf19a6169cce83E. Final size 2
size 65
Finishing the switch case for _ZN4core3ptr52drop_in_place$LT$image..imageops..sample..Filter$GT$17h6134def27f82e6b9E. Final size 2
size 66
Finishing the switch case for _ZN4core3ptr53drop_in_place$LT$image..error..ParameterErrorKind$GT$17h4d24f07b51c6ef13E. Final size 2
size 67
Finishing the switch case for _ZN4core3ptr65drop_in_place$LT$core..option..Option$LT$weezl..StreamBuf$GT$$GT$17hab39435439ff229fE. Final size 29
size 68
Finishing the switch case for _ZN4core3ptr681drop_in_place$LT$$LT$alloc..vec..Vec$LT$core..option..Option$LT$jpeg_decoder..huffman..HuffmanTable$GT$$GT$$u20$as$u20$alloc..vec..spec_extend..SpecExtend$LT$core..option..Option$LT$jpeg_decoder..huffman..HuffmanTable$GT$$C$core..iter..adapters..map..Map$LT$core..iter..adapters..zip..Zip$LT$alloc..vec..into_iter..IntoIter$LT$core..option..Option$LT$jpeg_decoder..huffman..HuffmanTable$GT$$GT$$C$alloc..vec..into_iter..IntoIter$LT$core..option..Option$LT$jpeg_decoder..huffman..HuffmanTable$GT$$GT$$GT$$C$jpeg_decoder..decoder..Decoder$LT$tiff..decoder..stream..JpegReader$GT$..decode_internal..$u7b$$u7b$closure$u7d$$u7d$$GT$$GT$$GT$..spec_extend..$u7b$$u7b$closure$u7d$$u7d$$GT$17hae631fefea5cec7cE. Final size 2
size 69
Finishing the switch case for _ZN4core3ptr6unique15Unique$LT$T$GT$4cast17hd3ccb5e051e3e570E. Final size 2
size 70
Finishing the switch case for _ZN4core3ptr77drop_in_place$LT$core..result..Result$LT$u32$C$tiff..error..TiffError$GT$$GT$17hcff680a2cec17025E. Final size 2
size 71
Finishing the switch case for _ZN4core3ptr8non_null16NonNull$LT$T$GT$13new_unchecked17hf13979bfdc5a69a2E. Final size 2
size 72
Finishing the switch case for _ZN4core3ptr9const_ptr33_$LT$impl$u20$$BP$const$u20$T$GT$7is_null17hf11ad46952c36b76E. Final size 2
size 73
Finishing the switch case for _ZN4core4char7methods15encode_utf8_raw17hfdc6ee0c7f45eaebE. Final size 2
size 74
Finishing the switch case for _ZN4core4char7methods22_$LT$impl$u20$char$GT$13is_whitespace17hcfe3bc6be7c06ca1E. Final size 2
size 75
Finishing the switch case for _ZN4core4iter6traits10exact_size17ExactSizeIterator3len17h68414b0f42dd36b4E. Final size 2
size 76
Finishing the switch case for _ZN4core4iter6traits8iterator8Iterator10max_by_key3key17h7d25e6cf4f733365E. Final size 2
size 77
Finishing the switch case for _ZN4core4iter6traits8iterator8Iterator10take_while17hcc43c0837567068bE. Final size 2
size 78
Finishing the switch case for _ZN4core4iter6traits8iterator8Iterator3nth17h7c59d588296c5d75E. Final size 7
size 79
Finishing the switch case for _ZN4core4iter6traits8iterator8Iterator3zip17h43464ae3c43581b8E. Final size 2
size 80
Finishing the switch case for _ZN4core4iter6traits8iterator8Iterator4find5check17h08b52e1c880d4b7dE. Final size 2
size 81
Finishing the switch case for _ZN4core4iter6traits8iterator8Iterator4fold17hd88b9692991d2a0dE. Final size 9
size 82
Finishing the switch case for _ZN4core4iter6traits8iterator8Iterator6max_by17h60a93aac51769605E. Final size 2
size 83
Finishing the switch case for _ZN4core4iter6traits8iterator8Iterator8for_each4call17h0ad03cb1a658a361E. Final size 2
size 84
Finishing the switch case for _ZN4core4iter6traits8iterator8Iterator8try_fold17h38d7b2253440eee9E. Final size 2
size 85
Finishing the switch case for _ZN4core4iter6traits8iterator8Iterator8try_fold17h6e3cb15cd4d0dd24E. Final size 80
size 86
Finishing the switch case for _ZN4core4iter8adapters3map16Map$LT$I$C$F$GT$3new17h4fbee63e29420067E. Final size 2
size 87
Finishing the switch case for _ZN4core4iter8adapters3zip19TrustedRandomAccess4size17h005b27c0879a5effE. Final size 2
size 88
Finishing the switch case for _ZN4core4iter8adapters4fuse13Fuse$LT$I$GT$3new17hfe3a979e5677b937E. Final size 2
size 89
Finishing the switch case for _ZN4core4iter8adapters6filter11filter_fold28_$u7b$$u7b$closure$u7d$$u7d$17h52f572e6d7578091E. Final size 2
size 90
Finishing the switch case for _ZN4core5alloc6layout10size_align17h9115a73bc73a48dbE. Final size 2
size 91
Finishing the switch case for _ZN4core5array85_$LT$impl$u20$core..ops..index..Index$LT$I$GT$$u20$for$u20$$u5b$T$u3b$$u20$N$u5d$$GT$5index17he2419c2324a34880E. Final size 2
size 92
Finishing the switch case for _ZN4core5clone5impls53_$LT$impl$u20$core..clone..Clone$u20$for$u20$bool$GT$5clone17h27147dd1e0e649cbE. Final size 2
size 93
Finishing the switch case for _ZN4core5slice4iter13Iter$LT$T$GT$3new17h2d390a54cc3f5928E. Final size 2
size 94
Finishing the switch case for _ZN4core5slice4iter13Iter$LT$T$GT$3new17h301371758931ef63E. Final size 2
size 95
Finishing the switch case for _ZN4core5slice4iter20ChunksExact$LT$T$GT$3new17h490f876282e7271dE. Final size 2
size 96
Finishing the switch case for _ZN4core5slice4iter23ChunksExactMut$LT$T$GT$3new17h75b820ef64bc508eE. Final size 2
size 97
Finishing the switch case for _ZN4core6option15Option$LT$T$GT$10ok_or_else17h714edbb4d408b0d8E. Final size 2
size 98
Finishing the switch case for _ZN4core6option15Option$LT$T$GT$14unwrap_or_else17ha4ad7e9fe9ceb4eeE. Final size 2
size 99
Finishing the switch case for _ZN4core6option15Option$LT$T$GT$3map17h23208d06afa71af3E. Final size 2
size 100
Finishing the switch case for _ZN4core6option15Option$LT$T$GT$3map17h2dfbad31fb31d4f7E. Final size 14
size 101
Finishing the switch case for _ZN4core6option15Option$LT$T$GT$3map17h62f15030b7c554b2E. Final size 26
size 102
Finishing the switch case for _ZN4core6option15Option$LT$T$GT$3map17h83ac2c71ca32f8a9E. Final size 98
size 103
Finishing the switch case for _ZN4core6option15Option$LT$T$GT$3map17ha90f874f66362a6eE. Final size 11
size 104
Finishing the switch case for _ZN4core6option15Option$LT$T$GT$3map17he740671f2e1f7c65E. Final size 2
size 105
Finishing the switch case for _ZN4core6option15Option$LT$T$GT$5ok_or17ha615b22f03a42152E. Final size 25
size 106
Finishing the switch case for _ZN4core6option15Option$LT$T$GT$6as_mut17hf71675d610d15f3fE. Final size 15
size 107
Finishing the switch case for _ZN4core6option15Option$LT$T$GT$6expect17h33b3d106e33e8437E. Final size 15
size 108
Finishing the switch case for _ZN4core6option15Option$LT$T$GT$8and_then17h2631f28260702651E. Final size 2
size 109
Finishing the switch case for _ZN4core6option15Option$LT$T$GT$9unwrap_or17h8ce80bed58c9da15E. Final size 382
size 110
Finishing the switch case for _ZN4core6option47Option$LT$core..result..Result$LT$T$C$E$GT$$GT$9transpose17he43841c2093c2f73E. Final size 33
size 111
Finishing the switch case for _ZN4core6result19Result$LT$T$C$E$GT$14unwrap_or_else17h0f0161efe2cdc057E. Final size 2
size 112
Finishing the switch case for _ZN4core6result19Result$LT$T$C$E$GT$3map17h4d8bfd9bcd90b7b3E. Final size 17
size 113
Finishing the switch case for _ZN4core6result19Result$LT$T$C$E$GT$3map17h5e6b2f1633f05291E. Final size 2
size 114
Finishing the switch case for _ZN4core6result19Result$LT$T$C$E$GT$5is_ok17h300de609953bd91dE. Final size 26
size 115
Finishing the switch case for _ZN4core6result19Result$LT$T$C$E$GT$7map_err17h99d4d0931147a915E. Final size 28
size 116
Finishing the switch case for _ZN4core6result19Result$LT$T$C$E$GT$8and_then17hcc5aed8b602e74c8E. Final size 2
size 117
Finishing the switch case for _ZN4core7convert3num63_$LT$impl$u20$core..convert..From$LT$u8$GT$$u20$for$u20$u16$GT$4from17h01d2f81b7455f64fE. Final size 2
size 118
Finishing the switch case for _ZN4core7convert3num63_$LT$impl$u20$core..convert..From$LT$u8$GT$$u20$for$u20$u16$GT$4from17h78bdd426a552bbc7E. Final size 2
size 119
Finishing the switch case for _ZN4core7convert3num67_$LT$impl$u20$core..convert..TryFrom$LT$u32$GT$$u20$for$u20$u16$GT$8try_from17h490304093f90db74E. Final size 2
size 120
Finishing the switch case for _ZN4tiff7decoder16Decoder$LT$R$GT$10next_image17h0972891b5629e687E. Final size 2
size 121
Finishing the switch case for _ZN4tiff7decoder3ifd5Entry13decode_offset17h10f22d8c5f7ba5ffE. Final size 2
size 122
Finishing the switch case for _ZN4tiff7decoder3ifd5Entry3val28_$u7b$$u7b$closure$u7d$$u7d$17h937d23834c44fd3fE. Final size 2
size 123
Finishing the switch case for _ZN4tiff7decoder6stream12EndianReader8read_i3217hfdbca248c262029aE. Final size 20
size 124
Finishing the switch case for _ZN4tiff7decoder6stream12EndianReader8read_u3217h75210e07a8306232E. Final size 2
size 125
Finishing the switch case for _ZN4tiff7encoder20TiffEncoder$LT$W$GT$11write_image17h71cd139daf78bf54E. Final size 2
size 126
Finishing the switch case for _ZN4tiff7encoder25ImageEncoder$LT$W$C$T$GT$3new28_$u7b$$u7b$closure$u7d$$u7d$17h5829a8e49adae91fE. Final size 2
size 127
Finishing the switch case for _ZN4tiff7encoder6writer17write_tiff_header17h295a856e521a2b60E. Final size 2
size 128
Finishing the switch case for _ZN52_$LT$T$u20$as$u20$alloc..slice..hack..ConvertVec$GT$6to_vec17ha0c24c61cd5c275cE. Final size 2
size 129
Finishing the switch case for _ZN57_$LT$png..common..BlendOp$u20$as$u20$core..fmt..Debug$GT$3fmt17hf31a4d638767ba53E. Final size 11
size 130
Finishing the switch case for _ZN5alloc11collections5btree4node137Handle$LT$alloc..collections..btree..node..NodeRef$LT$BorrowType$C$K$C$V$C$NodeType$GT$$C$alloc..collections..btree..node..marker..KV$GT$10right_edge17hc8affa6734f1dd43E. Final size 2
size 131
Finishing the switch case for _ZN5alloc11collections5btree4node180Handle$LT$alloc..collections..btree..node..NodeRef$LT$BorrowType$C$K$C$V$C$alloc..collections..btree..node..marker..Internal$GT$$C$alloc..collections..btree..node..marker..Edge$GT$7descend17hf4281fdda17f351dE. Final size 2
size 132
Finishing the switch case for _ZN5alloc11collections5btree6borrow22DormantMutRef$LT$T$GT$6awaken17hb7ab30de25de67feE. Final size 2
size 133
Finishing the switch case for _ZN5alloc3vec16Vec$LT$T$C$A$GT$10as_mut_ptr17hbb454a758f00eafaE. Final size 2
size 134
Finishing the switch case for _ZN5alloc5boxed16Box$LT$T$C$A$GT$23into_raw_with_allocator17h0a78cae795316ad4E. Final size 2
size 135
Finishing the switch case for _ZN5alloc5slice4hack6to_vec17hfd55395bf7646009E. Final size 2
size 136
Finishing the switch case for _ZN5alloc7raw_vec19RawVec$LT$T$C$A$GT$11allocate_in17hd8b1a6075d764de3E. Final size 3
size 137
Finishing the switch case for _ZN5alloc7raw_vec19RawVec$LT$T$C$A$GT$14current_memory17h2ebfc26687c09d8bE. Final size 3
size 138
Finishing the switch case for _ZN5image4math2nq8NeuQuant8index_of17h0afafc5acad13a7fE. Final size 2
size 139
Finishing the switch case for _ZN5image5error10LimitError9from_kind17h5b0452e3cc9838c6E. Final size 2
size 140
Finishing the switch case for _ZN5image5error16UnsupportedError20from_format_and_kind17h8dd35d19527ffadbE. Final size 2
size 141
Finishing the switch case for _ZN5image5image14decoder_to_vec17h93ce2dd8ccc8cf8dE. Final size 3
size 142
Finishing the switch case for _ZN5image5image16GenericImageView5width17hc8a2a9f5f4c99d2bE. Final size 2
size 143
Finishing the switch case for _ZN5image6codecs3bmp7decoder18set_2bit_pixel_run17hc34b365783160e24E. Final size 32
size 144
Finishing the switch case for _ZN5image6codecs3bmp7decoder19BmpDecoder$LT$R$GT$25read_full_byte_pixel_data17he90647b932761bd4E. Final size 2
size 145
Finishing the switch case for _ZN5image6codecs3bmp7encoder19BmpEncoder$LT$W$GT$10encode_rgb17hb6406b059794e6c9E. Final size 2
size 146
Finishing the switch case for _ZN5image6codecs3dxt13enc565_encode17hd6ee5c03322105c1E. Final size 2
size 147
Finishing the switch case for _ZN5image6codecs3ico7decoder10read_entry17h84ccb48ec7de8e00E. Final size 32
size 148
Finishing the switch case for _ZN5image6codecs3ico7decoder12read_entries17h1ec3cbec3442b257E. Final size 2
size 149
Finishing the switch case for _ZN5image6codecs3pnm6header9PnmHeader6height17hfff051970ee65114E. Final size 2
size 150
Finishing the switch case for _ZN5image6codecs3pnm7decoder19PnmDecoder$LT$R$GT$18read_bitmap_header17hdf1f299bfd8edaa3E. Final size 2
size 151
Finishing the switch case for _ZN5image6codecs3pnm7encoder19PnmEncoder$LT$W$GT$12with_subtype17h3f79a6698a44dc0eE. Final size 2
size 152
Finishing the switch case for _ZN5image6codecs3pnm9autobreak18AutoBreak$LT$W$GT$9flush_buf17h350f213d0bcba396E. Final size 2
size 153
Finishing the switch case for _ZN5image6codecs3tga7decoder19TgaDecoder$LT$R$GT$16expand_color_map17hf31f21953e494808E. Final size 13
size 154
Finishing the switch case for _ZN5image6codecs3tga7decoder19TgaDecoder$LT$R$GT$21is_flipped_vertically17h77aed2b06b6c01daE. Final size 40
size 155
Finishing the switch case for _ZN5image6codecs4jpeg7encoder12PixelDensity3dpi17h76e5ade20be76fe1E. Final size 2
size 156
Finishing the switch case for _ZN5image6codecs4jpeg7encoder17build_scan_header17h591a8464a2132c7cE. Final size 15
size 157
Finishing the switch case for _ZN5image6codecs4jpeg7encoder18BitWriter$LT$W$GT$13write_segment17h1f584c4ee0ce62ecE. Final size 2
size 158
Finishing the switch case for _ZN5image7buffer_32ImageBuffer$LT$P$C$Container$GT$16check_image_fits17h89836d9f979b2413E. Final size 2
size 159
Finishing the switch case for _ZN5image7buffer_32ImageBuffer$LT$P$C$Container$GT$9get_pixel17h3a889f5eea763470E. Final size 2
size 160
Finishing the switch case for _ZN5image8dynimage12DynamicImage12from_decoder17h7f14f4ca4650afdfE. Final size 2
size 161
Finishing the switch case for _ZN5image8dynimage12DynamicImage14as_luma_alpha817h884885172accc8c0E. Final size 2
size 162
Finishing the switch case for _ZN5image8dynimage12DynamicImage15into_luma_alpha17h3129ef38a1f67b69E. Final size 2
size 163
Finishing the switch case for _ZN5image8dynimage16decoder_to_image17ha15e58729865a10fE. Final size 2
size 164
Finishing the switch case for _ZN5image8imageops10crop_dimms17h39cdb411ca80a1b2E. Final size 2
size 165
Finishing the switch case for _ZN5image8imageops6affine8rotate9017h07814081b1ddd323E. Final size 2
size 166
Finishing the switch case for _ZN5image8imageops6sample15triangle_kernel17hf39ca2b51b1f6daeE. Final size 2
size 167
Finishing the switch case for _ZN5image8imageops6sample17horizontal_sample17h195072ca8be83925E. Final size 2
size 168
Finishing the switch case for _ZN5image8imageops6sample30thumbnail_sample_fraction_both17h23649c2c1c595432E. Final size 3
size 169
Finishing the switch case for _ZN5image8imageops6sample36thumbnail_sample_fraction_horizontal17hff111eca24d20b32E. Final size 2
size 170
Finishing the switch case for _ZN5image8imageops6sample9thumbnail17h418ac981c55a78dbE. Final size 2
size 171
Finishing the switch case for _ZN5image8imageops8colorops8contrast17he99131cb2798383fE. Final size 2
size 172
Finishing the switch case for _ZN5image9animation5Delay19from_numer_denom_ms17h7548f7460285471eE. Final size 2
size 173
Finishing the switch case for _ZN5image9animation5Frame6buffer17h50094e6e6ad79b5eE. Final size 2
size 174
Finishing the switch case for _ZN61_$LT$png..common..Compression$u20$as$u20$core..fmt..Debug$GT$3fmt17h3f947549fef23fb8E. Final size 2
size 175
Finishing the switch case for _ZN62_$LT$png..common..BitDepth$u20$as$u20$core..cmp..PartialEq$GT$2eq17h0525893abcd6e850E. Final size 2
size 176
Finishing the switch case for _ZN63_$LT$I$u20$as$u20$core..iter..traits..collect..IntoIterator$GT$9into_iter17h60d03248cbf2bb79E. Final size 2
size 177
Finishing the switch case for _ZN63_$LT$I$u20$as$u20$core..iter..traits..collect..IntoIterator$GT$9into_iter17h9905b3ee57967906E. Final size 2
size 178
Finishing the switch case for _ZN63_$LT$I$u20$as$u20$core..iter..traits..collect..IntoIterator$GT$9into_iter17hf0d7f71adab83d70E. Final size 2
size 179
Finishing the switch case for _ZN63_$LT$I$u20$as$u20$core..iter..traits..collect..IntoIterator$GT$9into_iter17hfc236f1a393ea9c0E. Final size 2
size 180
Finishing the switch case for _ZN66_$LT$core..option..Option$LT$T$GT$$u20$as$u20$core..fmt..Debug$GT$3fmt17h7f4a4b523075d69aE. Final size 19
size 181
Finishing the switch case for _ZN66_$LT$image..error..ParameterError$u20$as$u20$std..error..Error$GT$6source17h0ea6de21718273e4E. Final size 14
size 182
Finishing the switch case for _ZN68_$LT$core..option..Option$LT$T$GT$$u20$as$u20$core..clone..Clone$GT$5clone17h7c4ed7cc0844d274E. Final size 9
size 183
Finishing the switch case for _ZN71_$LT$image..codecs..dds..DecoderError$u20$as$u20$core..fmt..Display$GT$3fmt17h6219249a85ea5eebE. Final size 2
size 184
Finishing the switch case for _ZN75_$LT$core..option..Option$LT$T$GT$$u20$as$u20$core..ops..try_trait..Try$GT$6branch17h669e2b8645c1f23dE. Final size 2
size 185
Finishing the switch case for _ZN75_$LT$core..option..Option$LT$T$GT$$u20$as$u20$core..ops..try_trait..Try$GT$6branch17ha92a25d5a9328bd1E. Final size 15
size 186
Finishing the switch case for _ZN75_$LT$usize$u20$as$u20$core..slice..index..SliceIndex$LT$$u5b$T$u5d$$GT$$GT$17get_unchecked_mut17h300872ed10df0be7E. Final size 2
size 187
Finishing the switch case for _ZN75_$LT$usize$u20$as$u20$core..slice..index..SliceIndex$LT$$u5b$T$u5d$$GT$$GT$9index_mut17h878438740c82fb14E. Final size 2
size 188
Finishing the switch case for _ZN76_$LT$gif..encoder..BlockWriter$LT$W$GT$$u20$as$u20$core..ops..drop..Drop$GT$4drop17h42821cc4beeaa379E. Final size 2
size 189
Finishing the switch case for _ZN76_$LT$image..dynimage..DynamicImage$u20$as$u20$image..image..GenericImage$GT$9put_pixel17h09a99cb210be4246E. Final size 2
size 190
Finishing the switch case for _ZN78_$LT$image..codecs..hdr..decoder..DecoderError$u20$as$u20$core..fmt..Debug$GT$3fmt17ha86f6209a003f6e6E. Final size 2
size 191
Finishing the switch case for _ZN79_$LT$core..result..Result$LT$T$C$E$GT$$u20$as$u20$core..ops..try_trait..Try$GT$6branch17h2345af5a05185ac1E. Final size 11
size 192
Finishing the switch case for _ZN80_$LT$core..str..pattern..StrSearcher$u20$as$u20$core..str..pattern..Searcher$GT$4next17he812986a6604b9f8E. Final size 16
size 193
Finishing the switch case for _ZN82_$LT$std..io..buffered..bufreader..BufReader$LT$R$GT$$u20$as$u20$std..io..Read$GT$4read17hd3e35390d92b8406E. Final size 2
size 194
Finishing the switch case for _ZN82_$LT$tiff..encoder..ImageEncoder$LT$W$C$C$GT$$u20$as$u20$core..ops..drop..Drop$GT$4drop17h17f1ada82af839cfE. Final size 2
size 195
Finishing the switch case for _ZN84_$LT$core..option..Option$LT$T$GT$$u20$as$u20$core..ops..try_trait..FromResidual$GT$13from_residual17h867e0f47ab24da24E. Final size 2
size 196
Finishing the switch case for _ZN85_$LT$std..io..buffered..bufreader..BufReader$LT$R$GT$$u20$as$u20$std..io..BufRead$GT$7consume17hf05299ba793de9a9E. Final size 2
size 197
Finishing the switch case for _ZN8bytemuck10cast_slice17h7b28e47f7b743836E. Final size 14
size 198
Finishing the switch case for _ZN8bytemuck14cast_slice_mut17h4023ac7a00be0a7eE. Final size 9
size 199
Finishing the switch case for _ZN91_$LT$core..slice..iter..Iter$LT$T$GT$$u20$as$u20$core..iter..traits..iterator..Iterator$GT$3any17h86cdd884fc69f6d2E. Final size 13
size 200
Finishing the switch case for _ZN91_$LT$core..slice..iter..Iter$LT$T$GT$$u20$as$u20$core..iter..traits..iterator..Iterator$GT$8position17h171830cc48039656E. Final size 3
size 201
Finishing the switch case for _ZN91_$LT$core..slice..iter..Iter$LT$T$GT$$u20$as$u20$core..iter..traits..iterator..Iterator$GT$8position17hbfc0843c92c6878aE. Final size 2
size 202
Finishing the switch case for _ZN94_$LT$core..slice..iter..IterMut$LT$T$GT$$u20$as$u20$core..iter..traits..iterator..Iterator$GT$24__iterator_get_unchecked17h58b6afa0e8024274E. Final size 2
size 203
Finishing the switch case for _ZN95_$LT$alloc..vec..Vec$LT$T$GT$$u20$as$u20$core..iter..traits..collect..FromIterator$LT$T$GT$$GT$9from_iter17h7e8ec2f900e88a52E. Final size 2
size 204
Finishing the switch case for _ZN95_$LT$image..codecs..ico..encoder..IcoEncoder$LT$W$GT$$u20$as$u20$image..image..ImageEncoder$GT$11write_image17h4263aacfd78fedfdE. Final size 2
size 205
Finishing the switch case for _ZN95_$LT$image..codecs..tga..decoder..TgaDecoder$LT$R$GT$$u20$as$u20$image..image..ImageDecoder$GT$10read_image17h8fc8608ff4d8e3a2E. Final size 2
size 206
Finishing the switch case for _ZN96_$LT$hashbrown..raw..RawIterRange$LT$T$GT$$u20$as$u20$core..iter..traits..iterator..Iterator$GT$4next17h4466334b2ce48f77E. Final size 2
size 207
Finishing the switch case for _ZN97_$LT$alloc..vec..Vec$LT$T$C$A$GT$$u20$as$u20$alloc..vec..spec_extend..SpecExtend$LT$T$C$I$GT$$GT$11spec_extend17h23e2afbd79d2bf65E. Final size 2
size 208
Finishing the switch case for _ZN97_$LT$alloc..vec..Vec$LT$T$C$A$GT$$u20$as$u20$alloc..vec..spec_extend..SpecExtend$LT$T$C$I$GT$$GT$11spec_extend17hef060f9900728987E. Final size 2
size 209
Finishing the switch case for _ZN97_$LT$alloc..vec..Vec$LT$T$C$A$GT$$u20$as$u20$alloc..vec..spec_extend..SpecExtend$LT$T$C$I$GT$$GT$11spec_extend28_$u7b$$u7b$closure$u7d$$u7d$17h8cf060cbe1086963E. Final size 2
size 210
Finishing the switch case for _ZN97_$LT$alloc..vec..Vec$LT$T$C$A$GT$$u20$as$u20$alloc..vec..spec_extend..SpecExtend$LT$T$C$I$GT$$GT$11spec_extend28_$u7b$$u7b$closure$u7d$$u7d$17h96619b169d7d8ec9E. Final size 2
size 211
Finishing the switch case for _ZN97_$LT$core..str..pattern..MultiCharEqSearcher$LT$C$GT$$u20$as$u20$core..str..pattern..Searcher$GT$4next17he7ede27ad7b78d67E. Final size 2
size 212
Finishing the switch case for _ZN98_$LT$alloc..vec..Vec$LT$T$GT$$u20$as$u20$alloc..vec..spec_from_iter..SpecFromIter$LT$T$C$I$GT$$GT$9from_iter17h35ff34e0489eb1b7E. Final size 2
size 213
Finishing the switch case for _ZN98_$LT$alloc..vec..Vec$LT$T$GT$$u20$as$u20$alloc..vec..spec_from_iter..SpecFromIter$LT$T$C$I$GT$$GT$9from_iter17h81fc7b7cb1966dbcE. Final size 2
size 214
Finishing the switch case for _ZN99_$LT$image..buffer_..ImageBuffer$LT$P$C$Container$GT$$u20$as$u20$image..image..GenericImageView$GT$9get_pixel17h58e9e6d253fab205E. Final size 2
size 215
Variants map size 2118
_ZN107_$LT$core..iter..adapters..fuse..Fuse$LT$I$GT$$u20$as$u20$core..iter..adapters..fuse..FuseImpl$LT$I$GT$$GT$4next17h44f75264d3c0c0a9E_original, 0
_ZN4core4iter6traits8iterator8Iterator3nth17h7c59d588296c5d75E_original, 1
_ZN100_$LT$core..iter..adapters..skip..Skip$LT$I$GT$$u20$as$u20$core..iter..traits..iterator..Iterator$GT$4next17hd07828de115ed256E_original, 2
_ZN105_$LT$core..iter..adapters..step_by..StepBy$LT$I$GT$$u20$as$u20$core..iter..traits..iterator..Iterator$GT$4next17ha56620f560e39d9eE_original, 3
_ZN57_$LT$png..common..BlendOp$u20$as$u20$core..fmt..Debug$GT$3fmt17hf31a4d638767ba53E_original, 4
_ZN61_$LT$png..common..Compression$u20$as$u20$core..fmt..Debug$GT$3fmt17h3f947549fef23fb8E_original, 5
_ZN66_$LT$core..option..Option$LT$T$GT$$u20$as$u20$core..fmt..Debug$GT$3fmt17h7f4a4b523075d69aE_original, 6
_ZN4core4char7methods15encode_utf8_raw17hfdc6ee0c7f45eaebE_original, 7
_ZN4core3cmp5impls50_$LT$impl$u20$core..cmp..Ord$u20$for$u20$isize$GT$3cmp17h320342f6de7fecaaE_original, 8
_ZN4core5slice4iter20ChunksExact$LT$T$GT$3new17h490f876282e7271dE_original, 9
_ZN62_$LT$png..common..BitDepth$u20$as$u20$core..cmp..PartialEq$GT$2eq17h0525893abcd6e850E_original, 10
_ZN3png6common15deflate_convert130_$LT$impl$u20$core..convert..From$LT$png..common..Compression$GT$$u20$for$u20$deflate..compression_options..CompressionOptions$GT$4from17h47b47fc48ccaa619E_original, 11
_ZN3png7decoder4zlib10ZlibStream10decompress17he9e2f0c0aeca5ab8E_original, 12
_ZN3std2io5impls60_$LT$impl$u20$std..io..Read$u20$for$u20$$RF$$u5b$u8$u5d$$GT$10read_exact17he57f488acdc27304E_original, 13
_ZN4core3num21_$LT$impl$u20$u32$GT$13from_be_bytes17h814ffe1ac7107373E_original, 14
_ZN3png7decoder15expand_paletted28_$u7b$$u7b$closure$u7d$$u7d$17h93da92ffc39ab0d2E_original, 15
_ZN4core7convert3num63_$LT$impl$u20$core..convert..From$LT$u8$GT$$u20$for$u20$u16$GT$4from17h78bdd426a552bbc7E_original, 16
_ZN130_$LT$png..common..Transformations$u20$as$u20$$LT$png..common..Transformations$u20$as$u20$core..fmt..Debug$GT$..fmt..__BitFlags$GT$8STRIP_1617h8c011392a3bd3eccE_original, 17
_ZN130_$LT$png..common..Transformations$u20$as$u20$$LT$png..common..Transformations$u20$as$u20$core..fmt..Debug$GT$..fmt..__BitFlags$GT$18STRIP_FILLER_AFTER17h8b2ff0bff4aeb853E_original, 18
_ZN107_$LT$core..iter..adapters..fuse..Fuse$LT$I$GT$$u20$as$u20$core..iter..adapters..fuse..FuseImpl$LT$I$GT$$GT$8try_fold17h957a34c799108b9eE_original, 19
_ZN100_$LT$core..iter..adapters..take..Take$LT$I$GT$$u20$as$u20$core..iter..traits..iterator..Iterator$GT$4next17hc1aee42f86ca97d1E_original, 20
_ZN4core4iter6traits8iterator8Iterator8try_fold17h6e3cb15cd4d0dd24E_original, 21
_ZN4core3ptr53drop_in_place$LT$image..error..ParameterErrorKind$GT$17h4d24f07b51c6ef13E_original, 22
_ZN4core4iter8adapters6filter11filter_fold28_$u7b$$u7b$closure$u7d$$u7d$17h52f572e6d7578091E_original, 23
_ZN4core6option15Option$LT$T$GT$9unwrap_or17h8ce80bed58c9da15E_original, 24
_ZN4core4iter6traits8iterator8Iterator4find5check17h08b52e1c880d4b7dE_original, 25
_ZN82_$LT$std..io..buffered..bufreader..BufReader$LT$R$GT$$u20$as$u20$std..io..Read$GT$4read17hd3e35390d92b8406E_original, 26
_ZN5image6codecs3ico7decoder10read_entry17h84ccb48ec7de8e00E_original, 27
_ZN75_$LT$core..option..Option$LT$T$GT$$u20$as$u20$core..ops..try_trait..Try$GT$6branch17h669e2b8645c1f23dE_original, 28
_ZN111_$LT$core..iter..adapters..zip..Zip$LT$A$C$B$GT$$u20$as$u20$core..iter..adapters..zip..ZipImpl$LT$A$C$B$GT$$GT$4next17h344b94838f46062aE_original, 29
_ZN111_$LT$core..iter..adapters..zip..Zip$LT$A$C$B$GT$$u20$as$u20$core..iter..adapters..zip..ZipImpl$LT$A$C$B$GT$$GT$4next17hc0ff4e9041e9037aE_original, 30
_ZN111_$LT$core..iter..adapters..zip..Zip$LT$A$C$B$GT$$u20$as$u20$core..iter..adapters..zip..ZipImpl$LT$A$C$B$GT$$GT$4next17h495ad7648bf10354E_original, 31
_ZN102_$LT$core..iter..adapters..zip..Zip$LT$A$C$B$GT$$u20$as$u20$core..iter..traits..iterator..Iterator$GT$4next17h9fa731e74ddd253dE_original, 32
_ZN102_$LT$core..iter..adapters..zip..Zip$LT$A$C$B$GT$$u20$as$u20$core..iter..traits..iterator..Iterator$GT$4next17ha3efc2b8b7ff563eE_original, 33
_ZN102_$LT$core..iter..adapters..zip..Zip$LT$A$C$B$GT$$u20$as$u20$core..iter..traits..iterator..Iterator$GT$4next17hb64c490d1a6d3a73E_original, 34
_ZN4core4char7methods22_$LT$impl$u20$char$GT$13is_whitespace17hcfe3bc6be7c06ca1E_original, 35
_ZN4core6option15Option$LT$T$GT$3map17ha90f874f66362a6eE_original, 36
_ZN105_$LT$core..iter..adapters..ResultShunt$LT$I$C$E$GT$$u20$as$u20$core..iter..traits..iterator..Iterator$GT$8try_fold17hf0d36d3f471aab62E_original, 37
_ZN4core6result19Result$LT$T$C$E$GT$5is_ok17h300de609953bd91dE_original, 38
_ZN106_$LT$core..ops..range..Range$LT$usize$GT$$u20$as$u20$core..slice..index..SliceIndex$LT$$u5b$T$u5d$$GT$$GT$9index_mut17h10255d8b372cb7a2E_original, 39
_ZN108_$LT$core..ops..range..RangeTo$LT$usize$GT$$u20$as$u20$core..slice..index..SliceIndex$LT$$u5b$T$u5d$$GT$$GT$5index17hdb724b8c3e7a2507E_original, 40
_ZN111_$LT$alloc..vec..Vec$LT$T$GT$$u20$as$u20$alloc..vec..spec_from_iter_nested..SpecFromIterNested$LT$T$C$I$GT$$GT$9from_iter17h339176d3ca90d853E_original, 41
_ZN4core4iter6traits10exact_size17ExactSizeIterator3len17h68414b0f42dd36b4E_original, 42
_ZN4core5alloc6layout10size_align17h9115a73bc73a48dbE_original, 43
_ZN111_$LT$alloc..vec..Vec$LT$T$GT$$u20$as$u20$alloc..vec..spec_from_iter_nested..SpecFromIterNested$LT$T$C$I$GT$$GT$9from_iter17hc79e326a3aaaf41dE_original, 44
_ZN4core4iter8adapters3zip19TrustedRandomAccess4size17h005b27c0879a5effE_original, 45
_ZN3std2io4copy17stack_buffer_copy17hc2b3a0f758ad00ecE_original, 46
_ZN4core5array85_$LT$impl$u20$core..ops..index..Index$LT$I$GT$$u20$for$u20$$u5b$T$u3b$$u20$N$u5d$$GT$5index17he2419c2324a34880E_original, 47
_ZN12jpeg_decoder6parser9parse_sos17hc7f5dff8533ec723E_original, 48
_ZN91_$LT$core..slice..iter..Iter$LT$T$GT$$u20$as$u20$core..iter..traits..iterator..Iterator$GT$3any17h86cdd884fc69f6d2E_original, 49
_ZN63_$LT$I$u20$as$u20$core..iter..traits..collect..IntoIterator$GT$9into_iter17h60d03248cbf2bb79E_original, 50
_ZN4core5clone5impls53_$LT$impl$u20$core..clone..Clone$u20$for$u20$bool$GT$5clone17h27147dd1e0e649cbE_original, 51
_ZN78_$LT$image..codecs..hdr..decoder..DecoderError$u20$as$u20$core..fmt..Debug$GT$3fmt17ha86f6209a003f6e6E_original, 52
_ZN4core3ptr6unique15Unique$LT$T$GT$4cast17hd3ccb5e051e3e570E_original, 53
_ZN3gif6reader20ReadDecoder$LT$R$GT$11decode_next17h6bf907aecb954d28E_original, 54
_ZN76_$LT$gif..encoder..BlockWriter$LT$W$GT$$u20$as$u20$core..ops..drop..Drop$GT$4drop17h42821cc4beeaa379E_original, 55
_ZN4core4iter8adapters4fuse13Fuse$LT$I$GT$3new17hfe3a979e5677b937E_original, 56
_ZN4core6option15Option$LT$T$GT$3map17h23208d06afa71af3E_original, 57
_ZN96_$LT$hashbrown..raw..RawIterRange$LT$T$GT$$u20$as$u20$core..iter..traits..iterator..Iterator$GT$4next17h4466334b2ce48f77E_original, 58
_ZN3std2io11read_to_end17h668f271b057765a3E_original, 59
_ZN4core6result19Result$LT$T$C$E$GT$8and_then17hcc5aed8b602e74c8E_original, 60
_ZN3std2io18default_read_exact17hb94d646ae2196fabE_original, 61
_ZN3std2io8buffered9bufwriter18BufWriter$LT$W$GT$25write_to_buffer_unchecked17h6ad8a360442e5a2fE_original, 62
_ZN3std5error5Error5cause17hbe7f47cd629cb24bE_original, 63
_ZN3std5error5Error7type_id17hfd955b4c1723556bE_original, 64
_ZN4core5slice4iter13Iter$LT$T$GT$3new17h2d390a54cc3f5928E_original, 65
_ZN4core3cmp10PartialOrd2lt17h74a20fce2828e43eE_original, 66
_ZN4core6result19Result$LT$T$C$E$GT$14unwrap_or_else17h0f0161efe2cdc057E_original, 67
_ZN5alloc3vec16Vec$LT$T$C$A$GT$10as_mut_ptr17hbb454a758f00eafaE_original, 68
_ZN5alloc11collections5btree6borrow22DormantMutRef$LT$T$GT$6awaken17hb7ab30de25de67feE_original, 69
_ZN75_$LT$usize$u20$as$u20$core..slice..index..SliceIndex$LT$$u5b$T$u5d$$GT$$GT$17get_unchecked_mut17h300872ed10df0be7E_original, 70
_ZN82_$LT$tiff..encoder..ImageEncoder$LT$W$C$C$GT$$u20$as$u20$core..ops..drop..Drop$GT$4drop17h17f1ada82af839cfE_original, 71
_ZN4core3ptr52drop_in_place$LT$image..imageops..sample..Filter$GT$17h6134def27f82e6b9E_original, 72
_ZN4core3ptr77drop_in_place$LT$core..result..Result$LT$u32$C$tiff..error..TiffError$GT$$GT$17hcff680a2cec17025E_original, 73
_ZN97_$LT$core..str..pattern..MultiCharEqSearcher$LT$C$GT$$u20$as$u20$core..str..pattern..Searcher$GT$4next17he7ede27ad7b78d67E_original, 74
_ZN4core4iter6traits8iterator8Iterator6max_by17h60a93aac51769605E_original, 75
_ZN4core5slice4iter23ChunksExactMut$LT$T$GT$3new17h75b820ef64bc508eE_original, 76
_ZN4core5slice4iter13Iter$LT$T$GT$3new17h301371758931ef63E_original, 77
_ZN4core6option15Option$LT$T$GT$6expect17h33b3d106e33e8437E_original, 78
_ZN4core6option15Option$LT$T$GT$14unwrap_or_else17ha4ad7e9fe9ceb4eeE_original, 79
_ZN4core6option15Option$LT$T$GT$3map17h62f15030b7c554b2E_original, 80
_ZN4core6option15Option$LT$T$GT$3map17he740671f2e1f7c65E_original, 81
_ZN4core6option47Option$LT$core..result..Result$LT$T$C$E$GT$$GT$9transpose17he43841c2093c2f73E_original, 82
_ZN4core6result19Result$LT$T$C$E$GT$3map17h5e6b2f1633f05291E_original, 83
_ZN4core3ops8function6FnOnce9call_once17hc3b3c146f0ec0a7bE_original, 84
_ZN4core6result19Result$LT$T$C$E$GT$7map_err17h99d4d0931147a915E_original, 85
_ZN91_$LT$core..slice..iter..Iter$LT$T$GT$$u20$as$u20$core..iter..traits..iterator..Iterator$GT$8position17h171830cc48039656E_original, 86
_ZN4core3num21_$LT$impl$u20$i16$GT$7from_le17h2224e58aef0ee9dcE_original, 87
_ZN4tiff7decoder3ifd5Entry3val28_$u7b$$u7b$closure$u7d$$u7d$17h937d23834c44fd3fE_original, 88
_ZN4tiff7decoder6stream12EndianReader8read_u3217h75210e07a8306232E_original, 89
_ZN4tiff7encoder20TiffEncoder$LT$W$GT$11write_image17h71cd139daf78bf54E_original, 90
_ZN4tiff7encoder6writer17write_tiff_header17h295a856e521a2b60E_original, 91
_ZN52_$LT$T$u20$as$u20$alloc..slice..hack..ConvertVec$GT$6to_vec17ha0c24c61cd5c275cE_original, 92
_ZN5alloc5boxed16Box$LT$T$C$A$GT$23into_raw_with_allocator17h0a78cae795316ad4E_original, 93
_ZN5alloc5slice4hack6to_vec17hfd55395bf7646009E_original, 94
_ZN63_$LT$I$u20$as$u20$core..iter..traits..collect..IntoIterator$GT$9into_iter17h9905b3ee57967906E_original, 95
_ZN8bytemuck10cast_slice17h7b28e47f7b743836E_original, 96
_ZN66_$LT$image..error..ParameterError$u20$as$u20$std..error..Error$GT$6source17h0ea6de21718273e4E_original, 97
_ZN5image4math2nq8NeuQuant8index_of17h0afafc5acad13a7fE_original, 98
_ZN5image8imageops6sample15triangle_kernel17hf39ca2b51b1f6daeE_original, 99
_ZN5image8imageops6sample17horizontal_sample17h195072ca8be83925E_original, 100
_ZN5image8imageops6sample36thumbnail_sample_fraction_horizontal17hff111eca24d20b32E_original, 101
_ZN4core3ops8function6FnOnce40call_once$u7b$$u7b$vtable.shim$u7d$$u7d$17h1638d214e154e1e5E_original, 102
_ZN5image8dynimage16decoder_to_image17ha15e58729865a10fE_original, 103
_ZN5image6codecs3pnm6header9PnmHeader6height17hfff051970ee65114E_original, 104
_ZN5image6codecs3tga7decoder19TgaDecoder$LT$R$GT$16expand_color_map17hf31f21953e494808E_original, 105
_ZN5image6codecs3bmp7decoder18set_2bit_pixel_run17hc34b365783160e24E_original, 106
_ZN5image5image14decoder_to_vec17h93ce2dd8ccc8cf8dE_original, 107
_ZN95_$LT$image..codecs..tga..decoder..TgaDecoder$LT$R$GT$$u20$as$u20$image..image..ImageDecoder$GT$10read_image17h8fc8608ff4d8e3a2E_original, 108
_ZN5image6codecs3pnm7encoder19PnmEncoder$LT$W$GT$12with_subtype17h3f79a6698a44dc0eE_original, 109
_ZN4core7convert3num67_$LT$impl$u20$core..convert..TryFrom$LT$u32$GT$$u20$for$u20$u16$GT$8try_from17h490304093f90db74E_original, 110
_ZN5image6codecs3bmp7encoder19BmpEncoder$LT$W$GT$10encode_rgb17hb6406b059794e6c9E_original, 111
_ZN236_$LT$image..buffer_..ImageBuffer$LT$FromType$C$Container$GT$$u20$as$u20$image..buffer_..ConvertBuffer$LT$image..buffer_..ImageBuffer$LT$ToType$C$alloc..vec..Vec$LT$$LT$ToType$u20$as$u20$image..traits..Pixel$GT$..Subpixel$GT$$GT$$GT$$GT$7convert17h218796699906a13cE_original, 112
_ZN105_$LT$image..color..Bgr$LT$T$GT$$u20$as$u20$image..color..FromColor$LT$image..color..Rgba$LT$T$GT$$GT$$GT$10from_color17h738b0de0f3283b7eE_original, 113
_ZN236_$LT$image..buffer_..ImageBuffer$LT$FromType$C$Container$GT$$u20$as$u20$image..buffer_..ConvertBuffer$LT$image..buffer_..ImageBuffer$LT$ToType$C$alloc..vec..Vec$LT$$LT$ToType$u20$as$u20$image..traits..Pixel$GT$..Subpixel$GT$$GT$$GT$$GT$7convert17h6e3e30968ef059d6E_original, 114
_ZN106_$LT$image..color..Bgra$LT$T$GT$$u20$as$u20$image..color..FromColor$LT$image..color..Luma$LT$T$GT$$GT$$GT$10from_color17h8b14ebbd69728264E_original, 115
_ZN236_$LT$image..buffer_..ImageBuffer$LT$FromType$C$Container$GT$$u20$as$u20$image..buffer_..ConvertBuffer$LT$image..buffer_..ImageBuffer$LT$ToType$C$alloc..vec..Vec$LT$$LT$ToType$u20$as$u20$image..traits..Pixel$GT$..Subpixel$GT$$GT$$GT$$GT$7convert17hcd7d15d86f3e3b99E_original, 116
_ZN108_$LT$image..color..Rgba$LT$u16$GT$$u20$as$u20$image..color..FromColor$LT$image..color..Rgb$LT$u8$GT$$GT$$GT$10from_color17h76fcdf3a3a485207E_original, 117
_ZN5image8dynimage12DynamicImage15into_luma_alpha17h3129ef38a1f67b69E_original, 118
generate_fractal, 119
fliph_image, 120
blur_image, 121
crop_image, 122
grayscale_image, 123
invert_image, 124
rotate90_image, 125
unsharpen_image, 126
_ZN4core6option15Option$LT$T$GT$3map17h2dfbad31fb31d4f7E_0_, 127
_ZN4core4iter6traits8iterator8Iterator3zip17h43464ae3c43581b8E_1_, 128
_ZN63_$LT$I$u20$as$u20$core..iter..traits..collect..IntoIterator$GT$9into_iter17hfc236f1a393ea9c0E_1_, 129
_ZN8bytemuck10cast_slice17h7b28e47f7b743836E_1_, 130
_ZN5image5error16UnsupportedError20from_format_and_kind17h8dd35d19527ffadbE_1_, 131
_ZN5image8imageops6sample9thumbnail17h418ac981c55a78dbE_1_, 132
_ZN4core6option15Option$LT$T$GT$5ok_or17ha615b22f03a42152E_2_, 133
_ZN5alloc11collections5btree4node137Handle$LT$alloc..collections..btree..node..NodeRef$LT$BorrowType$C$K$C$V$C$NodeType$GT$$C$alloc..collections..btree..node..marker..KV$GT$10right_edge17hc8affa6734f1dd43E_2_, 134
_ZN97_$LT$alloc..vec..Vec$LT$T$C$A$GT$$u20$as$u20$alloc..vec..spec_extend..SpecExtend$LT$T$C$I$GT$$GT$11spec_extend17hef060f9900728987E_2_, 135
_ZN106_$LT$image..color..Rgb$LT$T$GT$$u20$as$u20$image..color..FromColor$LT$image..color..LumaA$LT$T$GT$$GT$$GT$10from_color17h3483d43fbbee6b31E_2_, 136
_ZN107_$LT$core..iter..adapters..fuse..Fuse$LT$I$GT$$u20$as$u20$core..iter..adapters..fuse..FuseImpl$LT$I$GT$$GT$8try_fold17h957a34c799108b9eE_3_, 137
_ZN4core3ops12control_flow77ControlFlow$LT$R$C$$LT$R$u20$as$u20$core..ops..try_trait..Try$GT$..Output$GT$8from_try17hfa27bd65a5ae5641E_3_, 138
_ZN5image8imageops8colorops8contrast17he99131cb2798383fE_3_, 139
_ZN4core6option15Option$LT$T$GT$9unwrap_or17h8ce80bed58c9da15E_4_, 140
_ZN4core6option15Option$LT$T$GT$9unwrap_or17h8ce80bed58c9da15E_5_, 141
_ZN4core6option15Option$LT$T$GT$9unwrap_or17h8ce80bed58c9da15E_6_, 142
_ZN4core6option15Option$LT$T$GT$9unwrap_or17h8ce80bed58c9da15E_7_, 143
_ZN4core6option15Option$LT$T$GT$9unwrap_or17h8ce80bed58c9da15E_8_, 144
_ZN111_$LT$core..iter..adapters..zip..Zip$LT$A$C$B$GT$$u20$as$u20$core..iter..adapters..zip..ZipImpl$LT$A$C$B$GT$$GT$3new17hd9e89045f71da222E_9_, 145
_ZN4core3ptr175drop_in_place$LT$std..io..buffered..bufreader..BufReader$LT$std..io..buffered..bufreader..BufReader$LT$std..io..buffered..bufreader..BufReader$LT$std..fs..File$GT$$GT$$GT$$GT$17hdbdf19a6169cce83E_9_, 146
_ZN68_$LT$core..option..Option$LT$T$GT$$u20$as$u20$core..clone..Clone$GT$5clone17h7c4ed7cc0844d274E_9_, 147
_ZN75_$LT$usize$u20$as$u20$core..slice..index..SliceIndex$LT$$u5b$T$u5d$$GT$$GT$9index_mut17h878438740c82fb14E_9_, 148
_ZN95_$LT$image..codecs..ico..encoder..IcoEncoder$LT$W$GT$$u20$as$u20$image..image..ImageEncoder$GT$11write_image17h4263aacfd78fedfdE_9_, 149
_ZN5image6codecs3pnm9autobreak18AutoBreak$LT$W$GT$9flush_buf17h350f213d0bcba396E_9_, 150
_ZN4core6option15Option$LT$T$GT$9unwrap_or17h8ce80bed58c9da15E_10_, 151
_ZN8bytemuck14cast_slice_mut17h4023ac7a00be0a7eE_11_, 152
_ZN94_$LT$core..slice..iter..IterMut$LT$T$GT$$u20$as$u20$core..iter..traits..iterator..Iterator$GT$24__iterator_get_unchecked17h58b6afa0e8024274E_11_, 153
_ZN236_$LT$image..buffer_..ImageBuffer$LT$FromType$C$Container$GT$$u20$as$u20$image..buffer_..ConvertBuffer$LT$image..buffer_..ImageBuffer$LT$ToType$C$alloc..vec..Vec$LT$$LT$ToType$u20$as$u20$image..traits..Pixel$GT$..Subpixel$GT$$GT$$GT$$GT$7convert17he398e278debce516E_11_, 154
_ZN111_$LT$core..iter..adapters..zip..Zip$LT$A$C$B$GT$$u20$as$u20$core..iter..adapters..zip..ZipImpl$LT$A$C$B$GT$$GT$4next17h495ad7648bf10354E_12_, 155
_ZN111_$LT$core..iter..adapters..zip..Zip$LT$A$C$B$GT$$u20$as$u20$core..iter..adapters..zip..ZipImpl$LT$A$C$B$GT$$GT$4next17h904ae9a5f7f17e7dE_12_, 156
_ZN153_$LT$core..result..Result$LT$T$C$F$GT$$u20$as$u20$core..ops..try_trait..FromResidual$LT$core..result..Result$LT$core..convert..Infallible$C$E$GT$$GT$$GT$13from_residual17he99b67180108ca9bE_12_, 157
_ZN63_$LT$I$u20$as$u20$core..iter..traits..collect..IntoIterator$GT$9into_iter17hf0d7f71adab83d70E_12_, 158
_ZN4core6option15Option$LT$T$GT$9unwrap_or17h8ce80bed58c9da15E_13_, 159
_ZN3std2io4Read5bytes17h38adebbc40ab3a18E_14_, 160
_ZN236_$LT$image..buffer_..ImageBuffer$LT$FromType$C$Container$GT$$u20$as$u20$image..buffer_..ConvertBuffer$LT$image..buffer_..ImageBuffer$LT$ToType$C$alloc..vec..Vec$LT$$LT$ToType$u20$as$u20$image..traits..Pixel$GT$..Subpixel$GT$$GT$$GT$$GT$7convert17h218796699906a13cE_14_, 161
_ZN4core6option15Option$LT$T$GT$3map17h62f15030b7c554b2E_15_, 162
_ZN4tiff7decoder3ifd5Entry13decode_offset17h10f22d8c5f7ba5ffE_15_, 163
_ZN98_$LT$alloc..vec..Vec$LT$T$GT$$u20$as$u20$alloc..vec..spec_from_iter..SpecFromIter$LT$T$C$I$GT$$GT$9from_iter17h81fc7b7cb1966dbcE_15_, 164
_ZN75_$LT$core..option..Option$LT$T$GT$$u20$as$u20$core..ops..try_trait..Try$GT$6branch17ha92a25d5a9328bd1E_16_, 165
_ZN97_$LT$alloc..vec..Vec$LT$T$C$A$GT$$u20$as$u20$alloc..vec..spec_extend..SpecExtend$LT$T$C$I$GT$$GT$11spec_extend28_$u7b$$u7b$closure$u7d$$u7d$17h96619b169d7d8ec9E_16_, 166
_ZN5alloc7raw_vec19RawVec$LT$T$C$A$GT$11allocate_in17hd8b1a6075d764de3E_17_, 167
_ZN4core6option15Option$LT$T$GT$9unwrap_or17h8ce80bed58c9da15E_18_, 168
_ZN3png7decoder16Decoder$LT$R$GT$19set_transformations17h3db447a4863900d2E_19_, 169
_ZN4core6option15Option$LT$T$GT$3map17h83ac2c71ca32f8a9E_19_, 170
_ZN5image6codecs3bmp7decoder19BmpDecoder$LT$R$GT$25read_full_byte_pixel_data17he90647b932761bd4E_19_, 171
_ZN5image6codecs3ico7decoder10read_entry17h84ccb48ec7de8e00E_20_, 172
_ZN5image6codecs4jpeg7encoder12PixelDensity3dpi17h76e5ade20be76fe1E_20_, 173
_ZN5image6codecs3ico7decoder10read_entry17h84ccb48ec7de8e00E_22_, 174
_ZN4core6option15Option$LT$T$GT$9unwrap_or17h8ce80bed58c9da15E_23_, 175
_ZN4core6result19Result$LT$T$C$E$GT$5is_ok17h300de609953bd91dE_24_, 176
_ZN5image8imageops10crop_dimms17h39cdb411ca80a1b2E_24_, 177
_ZN4core3ptr53drop_in_place$LT$image..error..ParameterErrorKind$GT$17h4d24f07b51c6ef13E_25_, 178
_ZN5image8imageops6sample36thumbnail_sample_fraction_horizontal17hff111eca24d20b32E_25_, 179
_ZN4core6option15Option$LT$T$GT$8and_then17h2631f28260702651E_26_, 180
_ZN5image6codecs3dxt13enc565_encode17hd6ee5c03322105c1E_26_, 181
_ZN57_$LT$png..common..BlendOp$u20$as$u20$core..fmt..Debug$GT$3fmt17hf31a4d638767ba53E_27_, 182
_ZN107_$LT$core..iter..adapters..fuse..Fuse$LT$I$GT$$u20$as$u20$core..iter..adapters..fuse..FuseImpl$LT$I$GT$$GT$8try_fold17h957a34c799108b9eE_28_, 183
_ZN111_$LT$core..iter..adapters..zip..Zip$LT$A$C$B$GT$$u20$as$u20$core..iter..adapters..zip..ZipImpl$LT$A$C$B$GT$$GT$4next17h495ad7648bf10354E_29_, 184
_ZN130_$LT$png..common..Transformations$u20$as$u20$$LT$png..common..Transformations$u20$as$u20$core..fmt..Debug$GT$..fmt..__BitFlags$GT$18STRIP_FILLER_AFTER17h8b2ff0bff4aeb853E_30_, 185
_ZN4core6option15Option$LT$T$GT$9unwrap_or17h8ce80bed58c9da15E_31_, 186
_ZN4core3ptr1301drop_in_place$LT$core..iter..adapters..map..map_fold$LT$$LP$core..option..Option$LT$jpeg_decoder..huffman..HuffmanTable$GT$$C$core..option..Option$LT$jpeg_decoder..huffman..HuffmanTable$GT$$RP$$C$core..option..Option$LT$jpeg_decoder..huffman..HuffmanTable$GT$$C$$LP$$RP$$C$jpeg_decoder..decoder..Decoder$LT$std..io..buffered..bufreader..BufReader$LT$std..fs..File$GT$$GT$..decode_internal..$u7b$$u7b$closure$u7d$$u7d$$C$core..iter..traits..iterator..Iterator..for_each..call$LT$core..option..Option$LT$jpeg_decoder..huffman..HuffmanTable$GT$$C$$LT$alloc..vec..Vec$LT$core..option..Option$LT$jpeg_decoder..huffman..HuffmanTable$GT$$GT$$u20$as$u20$alloc..vec..spec_extend..SpecExtend$LT$core..option..Option$LT$jpeg_decoder..huffman..HuffmanTable$GT$$C$core..iter..adapters..map..Map$LT$core..iter..adapters..zip..Zip$LT$alloc..vec..into_iter..IntoIter$LT$core..option..Option$LT$jpeg_decoder..huffman..HuffmanTable$GT$$GT$$C$alloc..vec..into_iter..IntoIter$LT$core..option..Option$LT$jpeg_decoder..huffman..HuffmanTable$GT$$GT$$GT$$C$jpeg_decoder..decoder..Decoder$LT$std..io..buffered..bufreader..BufReader$LT$std..fs..File$GT$$GT$..decode_internal..$u7b$$u7b$closure$u7d$$u7d$$GT$$GT$$GT$..spec_extend..$u7b$$u7b$closure$u7d$$u7d$$GT$..$u7b$$u7b$closure$u7d$$u7d$$GT$..$u7b$$u7b$closure$u7d$$u7d$$GT$17h43f18c2da6dc3c94E_32_, 187
_ZN4core6result19Result$LT$T$C$E$GT$3map17h4d8bfd9bcd90b7b3E_32_, 188
_ZN4core6option15Option$LT$T$GT$9unwrap_or17h8ce80bed58c9da15E_33_, 189
_ZN111_$LT$core..iter..adapters..zip..Zip$LT$A$C$B$GT$$u20$as$u20$core..iter..adapters..zip..ZipImpl$LT$A$C$B$GT$$GT$4next17h495ad7648bf10354E_34_, 190
_ZN4core4iter6traits8iterator8Iterator8try_fold17h6e3cb15cd4d0dd24E_35_, 191
_ZN79_$LT$core..result..Result$LT$T$C$E$GT$$u20$as$u20$core..ops..try_trait..Try$GT$6branch17h2345af5a05185ac1E_36_, 192
_ZN111_$LT$core..iter..adapters..zip..Zip$LT$A$C$B$GT$$u20$as$u20$core..iter..adapters..zip..ZipImpl$LT$A$C$B$GT$$GT$4next17hc0ff4e9041e9037aE_37_, 193
_ZN91_$LT$core..slice..iter..Iter$LT$T$GT$$u20$as$u20$core..iter..traits..iterator..Iterator$GT$8position17hbfc0843c92c6878aE_37_, 194
_ZN4core6option47Option$LT$core..result..Result$LT$T$C$E$GT$$GT$9transpose17he43841c2093c2f73E_38_, 195
_ZN4core6result19Result$LT$T$C$E$GT$5is_ok17h300de609953bd91dE_39_, 196
_ZN4core6option15Option$LT$T$GT$9unwrap_or17h8ce80bed58c9da15E_40_, 197
_ZN4core6option15Option$LT$T$GT$3map17h83ac2c71ca32f8a9E_41_, 198
_ZN130_$LT$png..common..Transformations$u20$as$u20$$LT$png..common..Transformations$u20$as$u20$core..fmt..Debug$GT$..fmt..__BitFlags$GT$18STRIP_FILLER_AFTER17h8b2ff0bff4aeb853E_42_, 199
_ZN4core6option15Option$LT$T$GT$9unwrap_or17h8ce80bed58c9da15E_43_, 200
_ZN4core6option15Option$LT$T$GT$9unwrap_or17h8ce80bed58c9da15E_44_, 201
_ZN4core6option47Option$LT$core..result..Result$LT$T$C$E$GT$$GT$9transpose17he43841c2093c2f73E_45_, 202
_ZN4core6option15Option$LT$T$GT$9unwrap_or17h8ce80bed58c9da15E_46_, 203
_ZN57_$LT$png..common..BlendOp$u20$as$u20$core..fmt..Debug$GT$3fmt17hf31a4d638767ba53E_47_, 204
_ZN107_$LT$core..iter..adapters..fuse..Fuse$LT$I$GT$$u20$as$u20$core..iter..adapters..fuse..FuseImpl$LT$I$GT$$GT$8try_fold17h957a34c799108b9eE_48_, 205
_ZN4core6option15Option$LT$T$GT$9unwrap_or17h8ce80bed58c9da15E_49_, 206
_ZN4core6result19Result$LT$T$C$E$GT$7map_err17h99d4d0931147a915E_50_, 207
_ZN97_$LT$alloc..vec..Vec$LT$T$C$A$GT$$u20$as$u20$alloc..vec..spec_extend..SpecExtend$LT$T$C$I$GT$$GT$11spec_extend17h23e2afbd79d2bf65E_50_, 208
_ZN8bytemuck10cast_slice17h7b28e47f7b743836E_51_, 209
_ZN4core3cmp10PartialOrd2lt17h74a20fce2828e43eE_52_, 210
_ZN4core4iter8adapters3map16Map$LT$I$C$F$GT$3new17h4fbee63e29420067E_52_, 211
_ZN5image8imageops6affine8rotate9017h07814081b1ddd323E_52_, 212
_ZN4core6option15Option$LT$T$GT$9unwrap_or17h8ce80bed58c9da15E_53_, 213
_ZN4core6option15Option$LT$T$GT$9unwrap_or17h8ce80bed58c9da15E_54_, 214
_ZN5alloc7raw_vec19RawVec$LT$T$C$A$GT$14current_memory17h2ebfc26687c09d8bE_55_, 215
_ZN105_$LT$image..color..Rgb$LT$T$GT$$u20$as$u20$image..color..FromColor$LT$image..color..Luma$LT$T$GT$$GT$$GT$10from_color17hfded6d83c20eeff5E_55_, 216
_ZN5image6codecs3tga7decoder19TgaDecoder$LT$R$GT$21is_flipped_vertically17h77aed2b06b6c01daE_56_, 217
_ZN5image8dynimage12DynamicImage12from_decoder17h7f14f4ca4650afdfE_56_, 218
_ZN4core6result19Result$LT$T$C$E$GT$7map_err17h99d4d0931147a915E_57_, 219
_ZN4core4iter6traits8iterator8Iterator8try_fold17h6e3cb15cd4d0dd24E_58_, 220
_ZN5image6codecs3ico7decoder10read_entry17h84ccb48ec7de8e00E_59_, 221
_ZN4core6option15Option$LT$T$GT$3map17h2dfbad31fb31d4f7E_60_, 222
_ZN4core6option15Option$LT$T$GT$9unwrap_or17h8ce80bed58c9da15E_61_, 223
_ZN4core6option15Option$LT$T$GT$9unwrap_or17h8ce80bed58c9da15E_62_, 224
_ZN4core6option15Option$LT$T$GT$6as_mut17hf71675d610d15f3fE_63_, 225
_ZN4core6option15Option$LT$T$GT$9unwrap_or17h8ce80bed58c9da15E_64_, 226
_ZN4core6option15Option$LT$T$GT$3map17h83ac2c71ca32f8a9E_65_, 227
_ZN91_$LT$core..slice..iter..Iter$LT$T$GT$$u20$as$u20$core..iter..traits..iterator..Iterator$GT$3any17h86cdd884fc69f6d2E_66_, 228
_ZN5image7buffer_32ImageBuffer$LT$P$C$Container$GT$16check_image_fits17h89836d9f979b2413E_66_, 229
_ZN5image5image16GenericImageView5width17hc8a2a9f5f4c99d2bE_66_, 230
_ZN153_$LT$core..result..Result$LT$T$C$F$GT$$u20$as$u20$core..ops..try_trait..FromResidual$LT$core..result..Result$LT$core..convert..Infallible$C$E$GT$$GT$$GT$13from_residual17h571fa2b99265a39fE_67_, 231
_ZN3png7decoder15Reader$LT$R$GT$9line_size17hd697ec76058bfc83E_67_, 232
_ZN5image8dynimage12DynamicImage14as_luma_alpha817h884885172accc8c0E_67_, 233
_ZN4core3ptr52drop_in_place$LT$image..imageops..sample..Filter$GT$17h6134def27f82e6b9E_68_, 234
_ZN4core4iter8adapters3zip19TrustedRandomAccess4size17h005b27c0879a5effE_68_, 235
_ZN4core6option15Option$LT$T$GT$3map17h62f15030b7c554b2E_69_, 236
_ZN4core6result19Result$LT$T$C$E$GT$3map17h4d8bfd9bcd90b7b3E_70_, 237
_ZN5image6codecs3ico7decoder10read_entry17h84ccb48ec7de8e00E_71_, 238
_ZN4core6option15Option$LT$T$GT$9unwrap_or17h8ce80bed58c9da15E_72_, 239
_ZN4core6option15Option$LT$T$GT$9unwrap_or17h8ce80bed58c9da15E_73_, 240
_ZN4core6option15Option$LT$T$GT$14unwrap_or_else17ha4ad7e9fe9ceb4eeE_74_, 241
_ZN8bytemuck10cast_slice17h7b28e47f7b743836E_75_, 242
_ZN4core6option15Option$LT$T$GT$9unwrap_or17h8ce80bed58c9da15E_76_, 243
_ZN4core6option15Option$LT$T$GT$9unwrap_or17h8ce80bed58c9da15E_77_, 244
_ZN4core6option15Option$LT$T$GT$9unwrap_or17h8ce80bed58c9da15E_78_, 245
_ZN4core6option15Option$LT$T$GT$3map17h83ac2c71ca32f8a9E_79_, 246
_ZN107_$LT$core..iter..adapters..fuse..Fuse$LT$I$GT$$u20$as$u20$core..iter..adapters..fuse..FuseImpl$LT$I$GT$$GT$8try_fold17h957a34c799108b9eE_80_, 247
_ZN4core6option15Option$LT$T$GT$9unwrap_or17h8ce80bed58c9da15E_81_, 248
_ZN4core4iter6traits8iterator8Iterator4fold17hd88b9692991d2a0dE_82_, 249
_ZN4core4iter6traits8iterator8Iterator8try_fold17h6e3cb15cd4d0dd24E_83_, 250
_ZN4core6option15Option$LT$T$GT$5ok_or17ha615b22f03a42152E_84_, 251
_ZN3gif7encoder16Encoder$LT$W$GT$15write_extension17h31216512db391286E_85_, 252
_ZN4core4iter6traits8iterator8Iterator10max_by_key3key17h7d25e6cf4f733365E_85_, 253
_ZN130_$LT$png..common..Transformations$u20$as$u20$$LT$png..common..Transformations$u20$as$u20$core..fmt..Debug$GT$..fmt..__BitFlags$GT$18STRIP_FILLER_AFTER17h8b2ff0bff4aeb853E_86_, 254
_ZN236_$LT$image..buffer_..ImageBuffer$LT$FromType$C$Container$GT$$u20$as$u20$image..buffer_..ConvertBuffer$LT$image..buffer_..ImageBuffer$LT$ToType$C$alloc..vec..Vec$LT$$LT$ToType$u20$as$u20$image..traits..Pixel$GT$..Subpixel$GT$$GT$$GT$$GT$7convert17hcd7d15d86f3e3b99E_87_, 255
_ZN4core4iter6traits8iterator8Iterator8try_fold17h6e3cb15cd4d0dd24E_88_, 256
_ZN4tiff7decoder16Decoder$LT$R$GT$10next_image17h0972891b5629e687E_89_, 257
_ZN84_$LT$core..option..Option$LT$T$GT$$u20$as$u20$core..ops..try_trait..FromResidual$GT$13from_residual17h867e0f47ab24da24E_89_, 258
_ZN4core6option15Option$LT$T$GT$9unwrap_or17h8ce80bed58c9da15E_90_, 259
_ZN4core6option15Option$LT$T$GT$9unwrap_or17h8ce80bed58c9da15E_91_, 260
_ZN111_$LT$core..iter..adapters..zip..Zip$LT$A$C$B$GT$$u20$as$u20$core..iter..adapters..zip..ZipImpl$LT$A$C$B$GT$$GT$4next17h344b94838f46062aE_92_, 261
_ZN5image6codecs4jpeg7encoder18BitWriter$LT$W$GT$13write_segment17h1f584c4ee0ce62ecE_92_, 262
_ZN4core6option15Option$LT$T$GT$3map17h62f15030b7c554b2E_93_, 263
_ZN4core6option47Option$LT$core..result..Result$LT$T$C$E$GT$$GT$9transpose17he43841c2093c2f73E_94_, 264
_ZN4core4iter6traits8iterator8Iterator8try_fold17h6e3cb15cd4d0dd24E_95_, 265
_ZN5image6codecs3ico7decoder10read_entry17h84ccb48ec7de8e00E_96_, 266
_ZN4core6option15Option$LT$T$GT$9unwrap_or17h8ce80bed58c9da15E_97_, 267
_ZN107_$LT$core..iter..adapters..fuse..Fuse$LT$I$GT$$u20$as$u20$core..iter..adapters..fuse..FuseImpl$LT$I$GT$$GT$8try_fold17h957a34c799108b9eE_98_, 268
_ZN80_$LT$core..str..pattern..StrSearcher$u20$as$u20$core..str..pattern..Searcher$GT$4next17he812986a6604b9f8E_99_, 269
_ZN4core6option15Option$LT$T$GT$9unwrap_or17h8ce80bed58c9da15E_100_, 270
_ZN4core6option15Option$LT$T$GT$9unwrap_or17h8ce80bed58c9da15E_101_, 271
_ZN91_$LT$core..slice..iter..Iter$LT$T$GT$$u20$as$u20$core..iter..traits..iterator..Iterator$GT$3any17h86cdd884fc69f6d2E_102_, 272
_ZN130_$LT$png..common..Transformations$u20$as$u20$$LT$png..common..Transformations$u20$as$u20$core..fmt..Debug$GT$..fmt..__BitFlags$GT$18STRIP_FILLER_AFTER17h8b2ff0bff4aeb853E_103_, 273
_ZN75_$LT$core..option..Option$LT$T$GT$$u20$as$u20$core..ops..try_trait..Try$GT$6branch17ha92a25d5a9328bd1E_104_, 274
_ZN5image6codecs3ico7decoder10read_entry17h84ccb48ec7de8e00E_105_, 275
_ZN4core6option15Option$LT$T$GT$3map17h83ac2c71ca32f8a9E_106_, 276
_ZN4core6option15Option$LT$T$GT$3map17h83ac2c71ca32f8a9E_107_, 277
_ZN80_$LT$core..str..pattern..StrSearcher$u20$as$u20$core..str..pattern..Searcher$GT$4next17he812986a6604b9f8E_108_, 278
_ZN4core6option15Option$LT$T$GT$9unwrap_or17h8ce80bed58c9da15E_109_, 279
_ZN111_$LT$core..iter..adapters..zip..Zip$LT$A$C$B$GT$$u20$as$u20$core..iter..adapters..zip..ZipImpl$LT$A$C$B$GT$$GT$4next17h344b94838f46062aE_110_, 280
_ZN107_$LT$core..iter..adapters..fuse..Fuse$LT$I$GT$$u20$as$u20$core..iter..adapters..fuse..FuseImpl$LT$I$GT$$GT$8try_fold17h957a34c799108b9eE_111_, 281
_ZN79_$LT$core..result..Result$LT$T$C$E$GT$$u20$as$u20$core..ops..try_trait..Try$GT$6branch17h2345af5a05185ac1E_112_, 282
_ZN107_$LT$core..iter..adapters..fuse..Fuse$LT$I$GT$$u20$as$u20$core..iter..adapters..fuse..FuseImpl$LT$I$GT$$GT$8try_fold17h957a34c799108b9eE_113_, 283
_ZN4core6option15Option$LT$T$GT$9unwrap_or17h8ce80bed58c9da15E_114_, 284
_ZN4core3cmp10PartialOrd2lt17h74a20fce2828e43eE_115_, 285
_ZN4core6option15Option$LT$T$GT$9unwrap_or17h8ce80bed58c9da15E_116_, 286
_ZN4core4iter6traits8iterator8Iterator4fold17hd88b9692991d2a0dE_117_, 287
_ZN4core6option15Option$LT$T$GT$3map17h83ac2c71ca32f8a9E_118_, 288
_ZN4core6option15Option$LT$T$GT$9unwrap_or17h8ce80bed58c9da15E_119_, 289
_ZN5image6codecs3tga7decoder19TgaDecoder$LT$R$GT$16expand_color_map17hf31f21953e494808E_120_, 290
_ZN4core4iter6traits8iterator8Iterator8try_fold17h6e3cb15cd4d0dd24E_121_, 291
_ZN4core6option15Option$LT$T$GT$3map17h2dfbad31fb31d4f7E_122_, 292
_ZN3gif7encoder16Encoder$LT$W$GT$15write_extension17h31216512db391286E_123_, 293
_ZN3std2io11read_to_end17h668f271b057765a3E_124_, 294
_ZN4core6result19Result$LT$T$C$E$GT$3map17h5e6b2f1633f05291E_124_, 295
_ZN4core6option47Option$LT$core..result..Result$LT$T$C$E$GT$$GT$9transpose17he43841c2093c2f73E_125_, 296
_ZN4core6result19Result$LT$T$C$E$GT$5is_ok17h300de609953bd91dE_126_, 297
_ZN5image6codecs3bmp7decoder18set_2bit_pixel_run17hc34b365783160e24E_127_, 298
_ZN4core6option15Option$LT$T$GT$9unwrap_or17h8ce80bed58c9da15E_128_, 299
_ZN5image8imageops6sample17horizontal_sample17h195072ca8be83925E_129_, 300
_ZN4core6option15Option$LT$T$GT$9unwrap_or17h8ce80bed58c9da15E_130_, 301
_ZN68_$LT$core..option..Option$LT$T$GT$$u20$as$u20$core..clone..Clone$GT$5clone17h7c4ed7cc0844d274E_131_, 302
_ZN4core6option15Option$LT$T$GT$9unwrap_or17h8ce80bed58c9da15E_132_, 303
_ZN4core6option15Option$LT$T$GT$3map17h83ac2c71ca32f8a9E_133_, 304
_ZN4core6option15Option$LT$T$GT$9unwrap_or17h8ce80bed58c9da15E_134_, 305
_ZN4core4iter6traits8iterator8Iterator8try_fold17h6e3cb15cd4d0dd24E_135_, 306
_ZN107_$LT$core..iter..adapters..fuse..Fuse$LT$I$GT$$u20$as$u20$core..iter..adapters..fuse..FuseImpl$LT$I$GT$$GT$8try_fold17h957a34c799108b9eE_136_, 307
_ZN4core3cmp10PartialOrd2lt17h74a20fce2828e43eE_137_, 308
_ZN4core6option15Option$LT$T$GT$9unwrap_or17h8ce80bed58c9da15E_138_, 309
_ZN107_$LT$core..iter..adapters..fuse..Fuse$LT$I$GT$$u20$as$u20$core..iter..adapters..fuse..FuseImpl$LT$I$GT$$GT$8try_fold17h957a34c799108b9eE_139_, 310
_ZN5image6codecs3bmp7decoder18set_2bit_pixel_run17hc34b365783160e24E_140_, 311
_ZN4tiff7decoder6stream12EndianReader8read_i3217hfdbca248c262029aE_141_, 312
_ZN4core4iter6traits8iterator8Iterator8try_fold17h6e3cb15cd4d0dd24E_142_, 313
_ZN111_$LT$core..iter..adapters..zip..Zip$LT$A$C$B$GT$$u20$as$u20$core..iter..adapters..zip..ZipImpl$LT$A$C$B$GT$$GT$4next17h344b94838f46062aE_143_, 314
_ZN5image6codecs3bmp7decoder18set_2bit_pixel_run17hc34b365783160e24E_144_, 315
_ZN4core6result19Result$LT$T$C$E$GT$5is_ok17h300de609953bd91dE_145_, 316
_ZN102_$LT$core..iter..adapters..zip..Zip$LT$A$C$B$GT$$u20$as$u20$core..iter..traits..iterator..Iterator$GT$4next17ha3efc2b8b7ff563eE_146_, 317
_ZN4core6option15Option$LT$T$GT$3map17h23208d06afa71af3E_146_, 318
_ZN4tiff7decoder3ifd5Entry3val28_$u7b$$u7b$closure$u7d$$u7d$17h937d23834c44fd3fE_146_, 319
_ZN4core3fmt3num49_$LT$impl$u20$core..fmt..Debug$u20$for$u20$u8$GT$3fmt17h9b13b8336b79af1fE_147_, 320
_ZN5image6codecs3bmp7decoder18set_2bit_pixel_run17hc34b365783160e24E_148_, 321
_ZN4core3ptr65drop_in_place$LT$core..option..Option$LT$weezl..StreamBuf$GT$$GT$17hab39435439ff229fE_149_, 322
_ZN4core3ptr8non_null16NonNull$LT$T$GT$13new_unchecked17hf13979bfdc5a69a2E_149_, 323
_ZN66_$LT$core..option..Option$LT$T$GT$$u20$as$u20$core..fmt..Debug$GT$3fmt17h7f4a4b523075d69aE_150_, 324
_ZN4core6option15Option$LT$T$GT$6as_mut17hf71675d610d15f3fE_151_, 325
_ZN4core6option47Option$LT$core..result..Result$LT$T$C$E$GT$$GT$9transpose17he43841c2093c2f73E_152_, 326
_ZN97_$LT$alloc..vec..Vec$LT$T$C$A$GT$$u20$as$u20$alloc..vec..spec_extend..SpecExtend$LT$T$C$I$GT$$GT$11spec_extend28_$u7b$$u7b$closure$u7d$$u7d$17h8cf060cbe1086963E_153_, 327
_ZN76_$LT$image..dynimage..DynamicImage$u20$as$u20$image..image..GenericImage$GT$9put_pixel17h09a99cb210be4246E_153_, 328
_ZN5image6codecs3bmp7decoder18set_2bit_pixel_run17hc34b365783160e24E_154_, 329
_ZN4core6option15Option$LT$T$GT$3map17h83ac2c71ca32f8a9E_155_, 330
_ZN4core6result19Result$LT$T$C$E$GT$5is_ok17h300de609953bd91dE_156_, 331
_ZN111_$LT$core..iter..adapters..zip..Zip$LT$A$C$B$GT$$u20$as$u20$core..iter..adapters..zip..ZipImpl$LT$A$C$B$GT$$GT$4next17hc0ff4e9041e9037aE_157_, 332
_ZN4core6result19Result$LT$T$C$E$GT$3map17h4d8bfd9bcd90b7b3E_158_, 333
_ZN4core6option47Option$LT$core..result..Result$LT$T$C$E$GT$$GT$9transpose17he43841c2093c2f73E_159_, 334
_ZN3gif6reader20ReadDecoder$LT$R$GT$11decode_next17h6bf907aecb954d28E_160_, 335
_ZN3std2io8buffered9bufwriter18BufWriter$LT$W$GT$25write_to_buffer_unchecked17h6ad8a360442e5a2fE_160_, 336
_ZN96_$LT$hashbrown..raw..RawIterRange$LT$T$GT$$u20$as$u20$core..iter..traits..iterator..Iterator$GT$4next17h4466334b2ce48f77E_160_, 337
_ZN236_$LT$image..buffer_..ImageBuffer$LT$FromType$C$Container$GT$$u20$as$u20$image..buffer_..ConvertBuffer$LT$image..buffer_..ImageBuffer$LT$ToType$C$alloc..vec..Vec$LT$$LT$ToType$u20$as$u20$image..traits..Pixel$GT$..Subpixel$GT$$GT$$GT$$GT$7convert17h6e3e30968ef059d6E_160_, 338
_ZN4core6option47Option$LT$core..result..Result$LT$T$C$E$GT$$GT$9transpose17he43841c2093c2f73E_161_, 339
_ZN130_$LT$png..common..Transformations$u20$as$u20$$LT$png..common..Transformations$u20$as$u20$core..fmt..Debug$GT$..fmt..__BitFlags$GT$18STRIP_FILLER_AFTER17h8b2ff0bff4aeb853E_162_, 340
_ZN4core3cmp10PartialOrd2lt17h74a20fce2828e43eE_163_, 341
_ZN4core6option15Option$LT$T$GT$10ok_or_else17h714edbb4d408b0d8E_164_, 342
_ZN4core3ptr65drop_in_place$LT$core..option..Option$LT$weezl..StreamBuf$GT$$GT$17hab39435439ff229fE_165_, 343
_ZN4core4iter6traits8iterator8Iterator8try_fold17h6e3cb15cd4d0dd24E_166_, 344
_ZN4core6option15Option$LT$T$GT$3map17h83ac2c71ca32f8a9E_168_, 345
_ZN5alloc7raw_vec19RawVec$LT$T$C$A$GT$11allocate_in17hd8b1a6075d764de3E_169_, 346
_ZN4core6option15Option$LT$T$GT$3map17h2dfbad31fb31d4f7E_170_, 347
_ZN5image8imageops6sample15triangle_kernel17hf39ca2b51b1f6daeE_171_, 348
_ZN5image6codecs3ico7decoder12read_entries17h1ec3cbec3442b257E_172_, 349
_ZN111_$LT$core..iter..adapters..zip..Zip$LT$A$C$B$GT$$u20$as$u20$core..iter..adapters..zip..ZipImpl$LT$A$C$B$GT$$GT$4next17h495ad7648bf10354E_173_, 350
_ZN3png7decoder4zlib10ZlibStream10decompress17he9e2f0c0aeca5ab8E_174_, 351
_ZN4core3ptr65drop_in_place$LT$core..option..Option$LT$weezl..StreamBuf$GT$$GT$17hab39435439ff229fE_175_, 352
_ZN4core3ptr104drop_in_place$LT$alloc..raw_vec..RawVec$LT$$LP$alloc..string..String$C$alloc..string..String$RP$$GT$$GT$17hb0979317a97b05b1E_176_, 353
_ZN4core6option15Option$LT$T$GT$6expect17h33b3d106e33e8437E_176_, 354
_ZN4core6option15Option$LT$T$GT$9unwrap_or17h8ce80bed58c9da15E_177_, 355
_ZN107_$LT$core..iter..adapters..fuse..Fuse$LT$I$GT$$u20$as$u20$core..iter..adapters..fuse..FuseImpl$LT$I$GT$$GT$8try_fold17h957a34c799108b9eE_178_, 356
_ZN5image6codecs3tga7decoder19TgaDecoder$LT$R$GT$16expand_color_map17hf31f21953e494808E_179_, 357
_ZN4tiff7decoder6stream12EndianReader8read_i3217hfdbca248c262029aE_180_, 358
_ZN4core6option15Option$LT$T$GT$9unwrap_or17h8ce80bed58c9da15E_181_, 359
_ZN4core6option15Option$LT$T$GT$3map17h83ac2c71ca32f8a9E_182_, 360
_ZN4core6option15Option$LT$T$GT$3map17h83ac2c71ca32f8a9E_183_, 361
_ZN4core4iter6traits8iterator8Iterator8try_fold17h6e3cb15cd4d0dd24E_184_, 362
_ZN5image8imageops6sample30thumbnail_sample_fraction_both17h23649c2c1c595432E_185_, 363
_ZN5image6codecs3ico7decoder10read_entry17h84ccb48ec7de8e00E_186_, 364
_ZN4core4iter6traits8iterator8Iterator8try_fold17h6e3cb15cd4d0dd24E_187_, 365
_ZN4core6option15Option$LT$T$GT$9unwrap_or17h8ce80bed58c9da15E_188_, 366
_ZN4core3ptr65drop_in_place$LT$core..option..Option$LT$weezl..StreamBuf$GT$$GT$17hab39435439ff229fE_189_, 367
_ZN5image6codecs3bmp7decoder18set_2bit_pixel_run17hc34b365783160e24E_190_, 368
_ZN4core6option15Option$LT$T$GT$9unwrap_or17h8ce80bed58c9da15E_191_, 369
_ZN97_$LT$core..str..pattern..MultiCharEqSearcher$LT$C$GT$$u20$as$u20$core..str..pattern..Searcher$GT$4next17he7ede27ad7b78d67E_192_, 370
_ZN4core4iter6traits8iterator8Iterator8try_fold17h6e3cb15cd4d0dd24E_193_, 371
_ZN236_$LT$image..buffer_..ImageBuffer$LT$FromType$C$Container$GT$$u20$as$u20$image..buffer_..ConvertBuffer$LT$image..buffer_..ImageBuffer$LT$ToType$C$alloc..vec..Vec$LT$$LT$ToType$u20$as$u20$image..traits..Pixel$GT$..Subpixel$GT$$GT$$GT$$GT$7convert17hcd7d15d86f3e3b99E_194_, 372
_ZN8bytemuck14cast_slice_mut17h4023ac7a00be0a7eE_195_, 373
_ZN236_$LT$image..buffer_..ImageBuffer$LT$FromType$C$Container$GT$$u20$as$u20$image..buffer_..ConvertBuffer$LT$image..buffer_..ImageBuffer$LT$ToType$C$alloc..vec..Vec$LT$$LT$ToType$u20$as$u20$image..traits..Pixel$GT$..Subpixel$GT$$GT$$GT$$GT$7convert17hcd7d15d86f3e3b99E_196_, 374
_ZN4core6option15Option$LT$T$GT$9unwrap_or17h8ce80bed58c9da15E_197_, 375
_ZN3png7decoder15Reader$LT$R$GT$19next_interlaced_row17h68379df29e9bf069E_198_, 376
_ZN130_$LT$png..common..Transformations$u20$as$u20$$LT$png..common..Transformations$u20$as$u20$core..fmt..Debug$GT$..fmt..__BitFlags$GT$18STRIP_FILLER_AFTER17h8b2ff0bff4aeb853E_199_, 377
_ZN4core6option15Option$LT$T$GT$9unwrap_or17h8ce80bed58c9da15E_200_, 378
_ZN106_$LT$core..ops..range..Range$LT$usize$GT$$u20$as$u20$core..slice..index..SliceIndex$LT$$u5b$T$u5d$$GT$$GT$9index_mut17h10255d8b372cb7a2E_201_, 379
_ZN4core5slice4iter13Iter$LT$T$GT$3new17h2d390a54cc3f5928E_201_, 380
_ZN4core5slice4iter13Iter$LT$T$GT$3new17h301371758931ef63E_201_, 381
_ZN111_$LT$core..iter..adapters..zip..Zip$LT$A$C$B$GT$$u20$as$u20$core..iter..adapters..zip..ZipImpl$LT$A$C$B$GT$$GT$4next17hc0ff4e9041e9037aE_202_, 382
_ZN3gif7encoder16Encoder$LT$W$GT$15write_extension17h31216512db391286E_203_, 383
_ZN130_$LT$png..common..Transformations$u20$as$u20$$LT$png..common..Transformations$u20$as$u20$core..fmt..Debug$GT$..fmt..__BitFlags$GT$8IDENTITY17h975fe46c9f22a26dE_204_, 384
_ZN4tiff7decoder6stream12EndianReader8read_i3217hfdbca248c262029aE_205_, 385
_ZN4tiff7decoder6stream12EndianReader8read_i3217hfdbca248c262029aE_206_, 386
_ZN66_$LT$core..option..Option$LT$T$GT$$u20$as$u20$core..fmt..Debug$GT$3fmt17h7f4a4b523075d69aE_207_, 387
_ZN108_$LT$core..ops..range..RangeTo$LT$usize$GT$$u20$as$u20$core..slice..index..SliceIndex$LT$$u5b$T$u5d$$GT$$GT$5index17hdb724b8c3e7a2507E_208_, 388
_ZN4core3ops8function6FnOnce40call_once$u7b$$u7b$vtable.shim$u7d$$u7d$17h1638d214e154e1e5E_208_, 389
_ZN4core6option15Option$LT$T$GT$3map17he740671f2e1f7c65E_208_, 390
_ZN75_$LT$core..option..Option$LT$T$GT$$u20$as$u20$core..ops..try_trait..Try$GT$6branch17h669e2b8645c1f23dE_208_, 391
_ZN4core6result19Result$LT$T$C$E$GT$3map17h4d8bfd9bcd90b7b3E_209_, 392
_ZN4core4iter8adapters6filter11filter_fold28_$u7b$$u7b$closure$u7d$$u7d$17h52f572e6d7578091E_210_, 393
_ZN5alloc5boxed16Box$LT$T$C$A$GT$23into_raw_with_allocator17h0a78cae795316ad4E_210_, 394
_ZN5image6codecs3ico7decoder10read_entry17h84ccb48ec7de8e00E_211_, 395
_ZN4core4iter6traits8iterator8Iterator8try_fold17h6e3cb15cd4d0dd24E_212_, 396
_ZN111_$LT$core..iter..adapters..zip..Zip$LT$A$C$B$GT$$u20$as$u20$core..iter..adapters..zip..ZipImpl$LT$A$C$B$GT$$GT$4next17h495ad7648bf10354E_213_, 397
_ZN4core6option15Option$LT$T$GT$9unwrap_or17h8ce80bed58c9da15E_214_, 398
_ZN4tiff7encoder25ImageEncoder$LT$W$C$T$GT$3new28_$u7b$$u7b$closure$u7d$$u7d$17h5829a8e49adae91fE_215_, 399
_ZN4core4iter6traits8iterator8Iterator8try_fold17h6e3cb15cd4d0dd24E_216_, 400
_ZN4core7convert3num63_$LT$impl$u20$core..convert..From$LT$u8$GT$$u20$for$u20$u16$GT$4from17h01d2f81b7455f64fE_217_, 401
_ZN4core4iter6traits8iterator8Iterator8try_fold17h6e3cb15cd4d0dd24E_218_, 402
_ZN79_$LT$core..result..Result$LT$T$C$E$GT$$u20$as$u20$core..ops..try_trait..Try$GT$6branch17h2345af5a05185ac1E_219_, 403
_ZN4core6option15Option$LT$T$GT$9unwrap_or17h8ce80bed58c9da15E_220_, 404
_ZN4core6option47Option$LT$core..result..Result$LT$T$C$E$GT$$GT$9transpose17he43841c2093c2f73E_221_, 405
_ZN4core4iter6traits8iterator8Iterator8try_fold17h6e3cb15cd4d0dd24E_222_, 406
_ZN4core6result19Result$LT$T$C$E$GT$7map_err17h99d4d0931147a915E_223_, 407
_ZN4core4iter6traits8iterator8Iterator8try_fold17h6e3cb15cd4d0dd24E_224_, 408
_ZN4core6option15Option$LT$T$GT$9unwrap_or17h8ce80bed58c9da15E_225_, 409
_ZN4core4iter6traits8iterator8Iterator8try_fold17h6e3cb15cd4d0dd24E_226_, 410
_ZN4core6option47Option$LT$core..result..Result$LT$T$C$E$GT$$GT$9transpose17he43841c2093c2f73E_228_, 411
_ZN80_$LT$core..str..pattern..StrSearcher$u20$as$u20$core..str..pattern..Searcher$GT$4next17he812986a6604b9f8E_229_, 412
_ZN5image6codecs3tga7decoder19TgaDecoder$LT$R$GT$21is_flipped_vertically17h77aed2b06b6c01daE_230_, 413
_ZN4core6option15Option$LT$T$GT$3map17ha90f874f66362a6eE_231_, 414
_ZN5image5error10LimitError9from_kind17h5b0452e3cc9838c6E_231_, 415
_ZN99_$LT$image..buffer_..ImageBuffer$LT$P$C$Container$GT$$u20$as$u20$image..image..GenericImageView$GT$9get_pixel17h58e9e6d253fab205E_231_, 416
_ZN4core6option15Option$LT$T$GT$9unwrap_or17h8ce80bed58c9da15E_232_, 417
_ZN130_$LT$png..common..Transformations$u20$as$u20$$LT$png..common..Transformations$u20$as$u20$core..fmt..Debug$GT$..fmt..__BitFlags$GT$18STRIP_FILLER_AFTER17h8b2ff0bff4aeb853E_234_, 418
_ZN4core6option15Option$LT$T$GT$9unwrap_or17h8ce80bed58c9da15E_235_, 419
_ZN4core6option15Option$LT$T$GT$3map17h2dfbad31fb31d4f7E_236_, 420
_ZN4core6option15Option$LT$T$GT$3map17ha90f874f66362a6eE_237_, 421
_ZN4core6option15Option$LT$T$GT$3map17h83ac2c71ca32f8a9E_238_, 422
_ZN75_$LT$core..option..Option$LT$T$GT$$u20$as$u20$core..ops..try_trait..Try$GT$6branch17ha92a25d5a9328bd1E_240_, 423
_ZN4core4iter6traits8iterator8Iterator8try_fold17h6e3cb15cd4d0dd24E_241_, 424
_ZN236_$LT$image..buffer_..ImageBuffer$LT$FromType$C$Container$GT$$u20$as$u20$image..buffer_..ConvertBuffer$LT$image..buffer_..ImageBuffer$LT$ToType$C$alloc..vec..Vec$LT$$LT$ToType$u20$as$u20$image..traits..Pixel$GT$..Subpixel$GT$$GT$$GT$$GT$7convert17hcd7d15d86f3e3b99E_242_, 425
_ZN4core6option15Option$LT$T$GT$3map17h83ac2c71ca32f8a9E_243_, 426
_ZN130_$LT$png..common..Transformations$u20$as$u20$$LT$png..common..Transformations$u20$as$u20$core..fmt..Debug$GT$..fmt..__BitFlags$GT$18STRIP_FILLER_AFTER17h8b2ff0bff4aeb853E_244_, 427
_ZN4core3ptr65drop_in_place$LT$core..option..Option$LT$weezl..StreamBuf$GT$$GT$17hab39435439ff229fE_245_, 428
_ZN4core6option15Option$LT$T$GT$9unwrap_or17h8ce80bed58c9da15E_246_, 429
_ZN111_$LT$core..iter..adapters..zip..Zip$LT$A$C$B$GT$$u20$as$u20$core..iter..adapters..zip..ZipImpl$LT$A$C$B$GT$$GT$4next17h495ad7648bf10354E_247_, 430
_ZN5image6codecs3ico7decoder10read_entry17h84ccb48ec7de8e00E_248_, 431
_ZN4core6option15Option$LT$T$GT$5ok_or17ha615b22f03a42152E_249_, 432
_ZN5image6codecs3bmp7decoder18set_2bit_pixel_run17hc34b365783160e24E_250_, 433
_ZN66_$LT$core..option..Option$LT$T$GT$$u20$as$u20$core..fmt..Debug$GT$3fmt17h7f4a4b523075d69aE_251_, 434
_ZN4core6option15Option$LT$T$GT$3map17h83ac2c71ca32f8a9E_252_, 435
_ZN4core6result19Result$LT$T$C$E$GT$5is_ok17h300de609953bd91dE_253_, 436
_ZN4core6option15Option$LT$T$GT$9unwrap_or17h8ce80bed58c9da15E_254_, 437
_ZN4core4iter6traits8iterator8Iterator8try_fold17h6e3cb15cd4d0dd24E_255_, 438
_ZN236_$LT$image..buffer_..ImageBuffer$LT$FromType$C$Container$GT$$u20$as$u20$image..buffer_..ConvertBuffer$LT$image..buffer_..ImageBuffer$LT$ToType$C$alloc..vec..Vec$LT$$LT$ToType$u20$as$u20$image..traits..Pixel$GT$..Subpixel$GT$$GT$$GT$$GT$7convert17hcd7d15d86f3e3b99E_256_, 439
_ZN4core3ptr65drop_in_place$LT$core..option..Option$LT$weezl..StreamBuf$GT$$GT$17hab39435439ff229fE_257_, 440
_ZN4core6option15Option$LT$T$GT$9unwrap_or17h8ce80bed58c9da15E_258_, 441
_ZN91_$LT$core..slice..iter..Iter$LT$T$GT$$u20$as$u20$core..iter..traits..iterator..Iterator$GT$3any17h86cdd884fc69f6d2E_259_, 442
_ZN4core6option15Option$LT$T$GT$9unwrap_or17h8ce80bed58c9da15E_260_, 443
_ZN4core6option15Option$LT$T$GT$3map17h83ac2c71ca32f8a9E_261_, 444
_ZN4core7convert3num63_$LT$impl$u20$core..convert..From$LT$u8$GT$$u20$for$u20$u16$GT$4from17h78bdd426a552bbc7E_262_, 445
_ZN66_$LT$core..option..Option$LT$T$GT$$u20$as$u20$core..fmt..Debug$GT$3fmt17h7f4a4b523075d69aE_263_, 446
_ZN4core6option15Option$LT$T$GT$6expect17h33b3d106e33e8437E_264_, 447
_ZN4core4iter6traits8iterator8Iterator8try_fold17h6e3cb15cd4d0dd24E_265_, 448
_ZN3gif7encoder16Encoder$LT$W$GT$15write_extension17h31216512db391286E_266_, 449
_ZN4core6option15Option$LT$T$GT$9unwrap_or17h8ce80bed58c9da15E_267_, 450
_ZN97_$LT$alloc..vec..Vec$LT$T$C$A$GT$$u20$as$u20$alloc..vec..spec_extend..SpecExtend$LT$T$C$I$GT$$GT$11spec_extend28_$u7b$$u7b$closure$u7d$$u7d$17h8cf060cbe1086963E_original, 451
_ZN76_$LT$image..dynimage..DynamicImage$u20$as$u20$image..image..GenericImage$GT$9put_pixel17h09a99cb210be4246E_original, 452
_ZN4core6option15Option$LT$T$GT$9unwrap_or17h8ce80bed58c9da15E_269_, 453
_ZN4core6option15Option$LT$T$GT$3map17h2dfbad31fb31d4f7E_original, 454
_ZN130_$LT$png..common..Transformations$u20$as$u20$$LT$png..common..Transformations$u20$as$u20$core..fmt..Debug$GT$..fmt..__BitFlags$GT$18STRIP_FILLER_AFTER17h8b2ff0bff4aeb853E_271_, 455
_ZN4core10intrinsics4copy17h1dd5756d1317fb5dE_272_, 456
_ZN4core6option15Option$LT$T$GT$9unwrap_or17h8ce80bed58c9da15E_273_, 457
_ZN4core6option47Option$LT$core..result..Result$LT$T$C$E$GT$$GT$9transpose17he43841c2093c2f73E_274_, 458
_ZN4core6result19Result$LT$T$C$E$GT$7map_err17h99d4d0931147a915E_275_, 459
_ZN4core6option15Option$LT$T$GT$3map17h83ac2c71ca32f8a9E_276_, 460
_ZN75_$LT$core..option..Option$LT$T$GT$$u20$as$u20$core..ops..try_trait..Try$GT$6branch17ha92a25d5a9328bd1E_277_, 461
_ZN4core6option15Option$LT$T$GT$9unwrap_or17h8ce80bed58c9da15E_278_, 462
_ZN5image6codecs3bmp7decoder18set_2bit_pixel_run17hc34b365783160e24E_279_, 463
_ZN4core6option15Option$LT$T$GT$5ok_or17ha615b22f03a42152E_280_, 464
_ZN4core6option47Option$LT$core..result..Result$LT$T$C$E$GT$$GT$9transpose17he43841c2093c2f73E_281_, 465
_ZN4core6option15Option$LT$T$GT$9unwrap_or17h8ce80bed58c9da15E_282_, 466
_ZN236_$LT$image..buffer_..ImageBuffer$LT$FromType$C$Container$GT$$u20$as$u20$image..buffer_..ConvertBuffer$LT$image..buffer_..ImageBuffer$LT$ToType$C$alloc..vec..Vec$LT$$LT$ToType$u20$as$u20$image..traits..Pixel$GT$..Subpixel$GT$$GT$$GT$$GT$7convert17hcd7d15d86f3e3b99E_283_, 467
_ZN4core3ptr65drop_in_place$LT$core..option..Option$LT$weezl..StreamBuf$GT$$GT$17hab39435439ff229fE_284_, 468
_ZN5image6codecs3tga7decoder19TgaDecoder$LT$R$GT$21is_flipped_vertically17h77aed2b06b6c01daE_285_, 469
_ZN4core6option15Option$LT$T$GT$9unwrap_or17h8ce80bed58c9da15E_286_, 470
_ZN111_$LT$core..iter..adapters..zip..Zip$LT$A$C$B$GT$$u20$as$u20$core..iter..adapters..zip..ZipImpl$LT$A$C$B$GT$$GT$4next17h495ad7648bf10354E_287_, 471
_ZN4core6option15Option$LT$T$GT$9unwrap_or17h8ce80bed58c9da15E_288_, 472
_ZN4core4iter6traits8iterator8Iterator3nth17h7c59d588296c5d75E_289_, 473
_ZN4core6option15Option$LT$T$GT$9unwrap_or17h8ce80bed58c9da15E_290_, 474
_ZN5image6codecs3tga7decoder19TgaDecoder$LT$R$GT$21is_flipped_vertically17h77aed2b06b6c01daE_291_, 475
_ZN4core6option15Option$LT$T$GT$6as_mut17hf71675d610d15f3fE_292_, 476
_ZN66_$LT$core..option..Option$LT$T$GT$$u20$as$u20$core..fmt..Debug$GT$3fmt17h7f4a4b523075d69aE_293_, 477
_ZN4core6option15Option$LT$T$GT$9unwrap_or17h8ce80bed58c9da15E_294_, 478
_ZN4core6option15Option$LT$T$GT$9unwrap_or17h8ce80bed58c9da15E_295_, 479
_ZN4core6option15Option$LT$T$GT$9unwrap_or17h8ce80bed58c9da15E_296_, 480
_ZN4core6option15Option$LT$T$GT$5ok_or17ha615b22f03a42152E_297_, 481
_ZN4core6option15Option$LT$T$GT$9unwrap_or17h8ce80bed58c9da15E_298_, 482
_ZN4tiff7decoder6stream12EndianReader8read_i3217hfdbca248c262029aE_299_, 483
_ZN4core6option47Option$LT$core..result..Result$LT$T$C$E$GT$$GT$9transpose17he43841c2093c2f73E_300_, 484
_ZN4core6option15Option$LT$T$GT$9unwrap_or17h8ce80bed58c9da15E_301_, 485
_ZN4core4iter6traits8iterator8Iterator8try_fold17h6e3cb15cd4d0dd24E_302_, 486
_ZN4core4iter6traits8iterator8Iterator4fold17hd88b9692991d2a0dE_303_, 487
_ZN4core6result19Result$LT$T$C$E$GT$5is_ok17h300de609953bd91dE_304_, 488
_ZN5image6codecs3tga7decoder19TgaDecoder$LT$R$GT$21is_flipped_vertically17h77aed2b06b6c01daE_306_, 489
_ZN4core6result19Result$LT$T$C$E$GT$7map_err17h99d4d0931147a915E_307_, 490
_ZN4core6option15Option$LT$T$GT$9unwrap_or17h8ce80bed58c9da15E_308_, 491
_ZN4core6result19Result$LT$T$C$E$GT$3map17h4d8bfd9bcd90b7b3E_309_, 492
_ZN4core4iter6traits8iterator8Iterator4fold17hd88b9692991d2a0dE_310_, 493
_ZN4core6option15Option$LT$T$GT$9unwrap_or17h8ce80bed58c9da15E_311_, 494
_ZN91_$LT$core..slice..iter..Iter$LT$T$GT$$u20$as$u20$core..iter..traits..iterator..Iterator$GT$3any17h86cdd884fc69f6d2E_312_, 495
_ZN79_$LT$core..result..Result$LT$T$C$E$GT$$u20$as$u20$core..ops..try_trait..Try$GT$6branch17h2345af5a05185ac1E_313_, 496
_ZN107_$LT$core..iter..adapters..fuse..Fuse$LT$I$GT$$u20$as$u20$core..iter..adapters..fuse..FuseImpl$LT$I$GT$$GT$8try_fold17h957a34c799108b9eE_314_, 497
_ZN130_$LT$png..common..Transformations$u20$as$u20$$LT$png..common..Transformations$u20$as$u20$core..fmt..Debug$GT$..fmt..__BitFlags$GT$18STRIP_FILLER_AFTER17h8b2ff0bff4aeb853E_315_, 498
_ZN4core6option15Option$LT$T$GT$9unwrap_or17h8ce80bed58c9da15E_316_, 499
_ZN4core3cmp10PartialOrd2lt17h74a20fce2828e43eE_317_, 500
_ZN4core6result19Result$LT$T$C$E$GT$3map17h4d8bfd9bcd90b7b3E_318_, 501
_ZN4core3ptr65drop_in_place$LT$core..option..Option$LT$weezl..StreamBuf$GT$$GT$17hab39435439ff229fE_319_, 502
_ZN4core4iter6traits8iterator8Iterator4fold17hd88b9692991d2a0dE_320_, 503
_ZN4core6result19Result$LT$T$C$E$GT$3map17h4d8bfd9bcd90b7b3E_321_, 504
_ZN4core6option15Option$LT$T$GT$3map17h83ac2c71ca32f8a9E_322_, 505
_ZN8bytemuck10cast_slice17h7b28e47f7b743836E_323_, 506
_ZN4core4iter6traits8iterator8Iterator3nth17h7c59d588296c5d75E_324_, 507
_ZN4core6option15Option$LT$T$GT$9unwrap_or17h8ce80bed58c9da15E_325_, 508
_ZN4core6option15Option$LT$T$GT$3map17h62f15030b7c554b2E_326_, 509
_ZN4core6option15Option$LT$T$GT$9unwrap_or17h8ce80bed58c9da15E_327_, 510
_ZN4core3cmp10PartialOrd2lt17h74a20fce2828e43eE_329_, 511
_ZN4core6option15Option$LT$T$GT$9unwrap_or17h8ce80bed58c9da15E_330_, 512
_ZN4core4iter6traits8iterator8Iterator8try_fold17h6e3cb15cd4d0dd24E_331_, 513
_ZN4core6option15Option$LT$T$GT$6as_mut17hf71675d610d15f3fE_332_, 514
_ZN4core6result19Result$LT$T$C$E$GT$7map_err17h99d4d0931147a915E_333_, 515
_ZN5image6codecs3ico7decoder10read_entry17h84ccb48ec7de8e00E_334_, 516
_ZN4core3ptr77drop_in_place$LT$core..result..Result$LT$u32$C$tiff..error..TiffError$GT$$GT$17hcff680a2cec17025E_335_, 517
_ZN4tiff7encoder6writer17write_tiff_header17h295a856e521a2b60E_335_, 518
_ZN236_$LT$image..buffer_..ImageBuffer$LT$FromType$C$Container$GT$$u20$as$u20$image..buffer_..ConvertBuffer$LT$image..buffer_..ImageBuffer$LT$ToType$C$alloc..vec..Vec$LT$$LT$ToType$u20$as$u20$image..traits..Pixel$GT$..Subpixel$GT$$GT$$GT$$GT$7convert17hcd7d15d86f3e3b99E_336_, 519
_ZN4tiff7decoder6stream12EndianReader8read_u3217h75210e07a8306232E_337_, 520
_ZN4core6option15Option$LT$T$GT$9unwrap_or17h8ce80bed58c9da15E_338_, 521
_ZN4core6option15Option$LT$T$GT$9unwrap_or17h8ce80bed58c9da15E_339_, 522
_ZN4core6option15Option$LT$T$GT$9unwrap_or17h8ce80bed58c9da15E_341_, 523
_ZN4core6option15Option$LT$T$GT$9unwrap_or17h8ce80bed58c9da15E_342_, 524
_ZN4core6option15Option$LT$T$GT$9unwrap_or17h8ce80bed58c9da15E_343_, 525
_ZN4core4iter6traits8iterator8Iterator8try_fold17h6e3cb15cd4d0dd24E_344_, 526
_ZN111_$LT$core..iter..adapters..zip..Zip$LT$A$C$B$GT$$u20$as$u20$core..iter..adapters..zip..ZipImpl$LT$A$C$B$GT$$GT$4next17hc0ff4e9041e9037aE_345_, 527
_ZN79_$LT$core..result..Result$LT$T$C$E$GT$$u20$as$u20$core..ops..try_trait..Try$GT$6branch17h2345af5a05185ac1E_346_, 528
_ZN4core6option15Option$LT$T$GT$9unwrap_or17h8ce80bed58c9da15E_347_, 529
_ZN75_$LT$core..option..Option$LT$T$GT$$u20$as$u20$core..ops..try_trait..Try$GT$6branch17ha92a25d5a9328bd1E_348_, 530
_ZN4core6option15Option$LT$T$GT$9unwrap_or17h8ce80bed58c9da15E_349_, 531
_ZN4core6option15Option$LT$T$GT$9unwrap_or17h8ce80bed58c9da15E_350_, 532
_ZN4core6option15Option$LT$T$GT$9unwrap_or17h8ce80bed58c9da15E_351_, 533
_ZN4core6option15Option$LT$T$GT$5ok_or17ha615b22f03a42152E_353_, 534
_ZN4core4iter6traits8iterator8Iterator8try_fold17h6e3cb15cd4d0dd24E_354_, 535
_ZN4core6result19Result$LT$T$C$E$GT$3map17h4d8bfd9bcd90b7b3E_355_, 536
_ZN4core6option15Option$LT$T$GT$9unwrap_or17h8ce80bed58c9da15E_356_, 537
_ZN5image6codecs4jpeg7encoder17build_scan_header17h591a8464a2132c7cE_357_, 538
_ZN4core6option15Option$LT$T$GT$9unwrap_or17h8ce80bed58c9da15E_358_, 539
_ZN4core6option15Option$LT$T$GT$9unwrap_or17h8ce80bed58c9da15E_359_, 540
_ZN4core6option15Option$LT$T$GT$9unwrap_or17h8ce80bed58c9da15E_360_, 541
_ZN4core6option15Option$LT$T$GT$3map17h83ac2c71ca32f8a9E_361_, 542
_ZN4core6option15Option$LT$T$GT$9unwrap_or17h8ce80bed58c9da15E_362_, 543
_ZN5image6codecs3ico7decoder10read_entry17h84ccb48ec7de8e00E_364_, 544
_ZN236_$LT$image..buffer_..ImageBuffer$LT$FromType$C$Container$GT$$u20$as$u20$image..buffer_..ConvertBuffer$LT$image..buffer_..ImageBuffer$LT$ToType$C$alloc..vec..Vec$LT$$LT$ToType$u20$as$u20$image..traits..Pixel$GT$..Subpixel$GT$$GT$$GT$$GT$7convert17hcd7d15d86f3e3b99E_365_, 545
_ZN4core6option15Option$LT$T$GT$3map17ha90f874f66362a6eE_366_, 546
_ZN4core6result19Result$LT$T$C$E$GT$7map_err17h99d4d0931147a915E_367_, 547
_ZN4core6option15Option$LT$T$GT$9unwrap_or17h8ce80bed58c9da15E_368_, 548
_ZN4core5clone5impls53_$LT$impl$u20$core..clone..Clone$u20$for$u20$bool$GT$5clone17h27147dd1e0e649cbE_369_, 549
_ZN57_$LT$png..common..BlendOp$u20$as$u20$core..fmt..Debug$GT$3fmt17hf31a4d638767ba53E_370_, 550
_ZN4core6option15Option$LT$T$GT$9unwrap_or17h8ce80bed58c9da15E_371_, 551
_ZN5image6codecs3tga7decoder19TgaDecoder$LT$R$GT$21is_flipped_vertically17h77aed2b06b6c01daE_372_, 552
_ZN4core3ptr9const_ptr33_$LT$impl$u20$$BP$const$u20$T$GT$7is_null17hf11ad46952c36b76E_373_, 553
_ZN4core4iter6traits8iterator8Iterator8for_each4call17h0ad03cb1a658a361E_373_, 554
_ZN98_$LT$alloc..vec..Vec$LT$T$GT$$u20$as$u20$alloc..vec..spec_from_iter..SpecFromIter$LT$T$C$I$GT$$GT$9from_iter17h35ff34e0489eb1b7E_373_, 555
_ZN66_$LT$image..error..ParameterError$u20$as$u20$std..error..Error$GT$6source17h0ea6de21718273e4E_373_, 556
_ZN5image9animation5Frame6buffer17h50094e6e6ad79b5eE_373_, 557
_ZN111_$LT$core..iter..adapters..zip..Zip$LT$A$C$B$GT$$u20$as$u20$core..iter..adapters..zip..ZipImpl$LT$A$C$B$GT$$GT$4next17h495ad7648bf10354E_374_, 558
_ZN4core6option15Option$LT$T$GT$3map17h62f15030b7c554b2E_375_, 559
_ZN5image6codecs3ico7decoder10read_entry17h84ccb48ec7de8e00E_376_, 560
_ZN4core6option15Option$LT$T$GT$3map17h83ac2c71ca32f8a9E_377_, 561
_ZN4core6option15Option$LT$T$GT$6expect17h33b3d106e33e8437E_378_, 562
_ZN4core3cmp10PartialOrd2lt17h74a20fce2828e43eE_379_, 563
_ZN4core3cmp10PartialOrd2lt17h74a20fce2828e43eE_380_, 564
_ZN4core6result19Result$LT$T$C$E$GT$7map_err17h99d4d0931147a915E_381_, 565
_ZN4core6result19Result$LT$T$C$E$GT$5is_ok17h300de609953bd91dE_382_, 566
_ZN4core6option15Option$LT$T$GT$3map17h62f15030b7c554b2E_383_, 567
_ZN4core6option15Option$LT$T$GT$9unwrap_or17h8ce80bed58c9da15E_384_, 568
_ZN4core6option15Option$LT$T$GT$9unwrap_or17h8ce80bed58c9da15E_386_, 569
_ZN4core6option15Option$LT$T$GT$9unwrap_or17h8ce80bed58c9da15E_387_, 570
_ZN107_$LT$core..iter..adapters..fuse..Fuse$LT$I$GT$$u20$as$u20$core..iter..adapters..fuse..FuseImpl$LT$I$GT$$GT$8try_fold17h957a34c799108b9eE_388_, 571
_ZN4core6option15Option$LT$T$GT$9unwrap_or17h8ce80bed58c9da15E_389_, 572
_ZN4core6option15Option$LT$T$GT$9unwrap_or17h8ce80bed58c9da15E_390_, 573
_ZN4core6option15Option$LT$T$GT$9unwrap_or17h8ce80bed58c9da15E_391_, 574
_ZN236_$LT$image..buffer_..ImageBuffer$LT$FromType$C$Container$GT$$u20$as$u20$image..buffer_..ConvertBuffer$LT$image..buffer_..ImageBuffer$LT$ToType$C$alloc..vec..Vec$LT$$LT$ToType$u20$as$u20$image..traits..Pixel$GT$..Subpixel$GT$$GT$$GT$$GT$7convert17hcd7d15d86f3e3b99E_392_, 575
_ZN4core6option15Option$LT$T$GT$3map17h83ac2c71ca32f8a9E_original, 576
_ZN4core6option15Option$LT$T$GT$9unwrap_or17h8ce80bed58c9da15E_394_, 577
_ZN4core6option15Option$LT$T$GT$6expect17h33b3d106e33e8437E_395_, 578
_ZN4core6option15Option$LT$T$GT$9unwrap_or17h8ce80bed58c9da15E_396_, 579
_ZN107_$LT$core..iter..adapters..fuse..Fuse$LT$I$GT$$u20$as$u20$core..iter..adapters..fuse..FuseImpl$LT$I$GT$$GT$8try_fold17h957a34c799108b9eE_397_, 580
_ZN4core6option15Option$LT$T$GT$9unwrap_or17h8ce80bed58c9da15E_398_, 581
_ZN4core6option15Option$LT$T$GT$5ok_or17ha615b22f03a42152E_399_, 582
_ZN5image6codecs3bmp7decoder18set_2bit_pixel_run17hc34b365783160e24E_400_, 583
_ZN4core3ptr681drop_in_place$LT$$LT$alloc..vec..Vec$LT$core..option..Option$LT$jpeg_decoder..huffman..HuffmanTable$GT$$GT$$u20$as$u20$alloc..vec..spec_extend..SpecExtend$LT$core..option..Option$LT$jpeg_decoder..huffman..HuffmanTable$GT$$C$core..iter..adapters..map..Map$LT$core..iter..adapters..zip..Zip$LT$alloc..vec..into_iter..IntoIter$LT$core..option..Option$LT$jpeg_decoder..huffman..HuffmanTable$GT$$GT$$C$alloc..vec..into_iter..IntoIter$LT$core..option..Option$LT$jpeg_decoder..huffman..HuffmanTable$GT$$GT$$GT$$C$jpeg_decoder..decoder..Decoder$LT$tiff..decoder..stream..JpegReader$GT$..decode_internal..$u7b$$u7b$closure$u7d$$u7d$$GT$$GT$$GT$..spec_extend..$u7b$$u7b$closure$u7d$$u7d$$GT$17hae631fefea5cec7cE_401_, 584
_ZN91_$LT$core..slice..iter..Iter$LT$T$GT$$u20$as$u20$core..iter..traits..iterator..Iterator$GT$8position17h171830cc48039656E_401_, 585
_ZN4core6option15Option$LT$T$GT$9unwrap_or17h8ce80bed58c9da15E_402_, 586
_ZN107_$LT$core..iter..adapters..fuse..Fuse$LT$I$GT$$u20$as$u20$core..iter..adapters..fuse..FuseImpl$LT$I$GT$$GT$8try_fold17h957a34c799108b9eE_403_, 587
_ZN4core6option15Option$LT$T$GT$9unwrap_or17h8ce80bed58c9da15E_404_, 588
_ZN4core3cmp10PartialOrd2lt17h74a20fce2828e43eE_405_, 589
_ZN4core5slice4iter23ChunksExactMut$LT$T$GT$3new17h75b820ef64bc508eE_406_, 590
_ZN5alloc11collections5btree6borrow22DormantMutRef$LT$T$GT$6awaken17hb7ab30de25de67feE_406_, 591
_ZN4core6option15Option$LT$T$GT$9unwrap_or17h8ce80bed58c9da15E_407_, 592
_ZN4core6option15Option$LT$T$GT$9unwrap_or17h8ce80bed58c9da15E_408_, 593
_ZN4core6option15Option$LT$T$GT$3map17h62f15030b7c554b2E_409_, 594
_ZN5image6codecs3tga7decoder19TgaDecoder$LT$R$GT$21is_flipped_vertically17h77aed2b06b6c01daE_410_, 595
_ZN4core4iter6traits8iterator8Iterator8try_fold17h6e3cb15cd4d0dd24E_411_, 596
_ZN4core3cmp10PartialOrd2lt17h74a20fce2828e43eE_412_, 597
_ZN3gif7encoder16Encoder$LT$W$GT$15write_extension17h31216512db391286E_413_, 598
_ZN5image6codecs3tga7decoder19TgaDecoder$LT$R$GT$16expand_color_map17hf31f21953e494808E_414_, 599
_ZN111_$LT$core..iter..adapters..zip..Zip$LT$A$C$B$GT$$u20$as$u20$core..iter..adapters..zip..ZipImpl$LT$A$C$B$GT$$GT$4next17h495ad7648bf10354E_415_, 600
_ZN66_$LT$core..option..Option$LT$T$GT$$u20$as$u20$core..fmt..Debug$GT$3fmt17h7f4a4b523075d69aE_416_, 601
_ZN4core6option15Option$LT$T$GT$9unwrap_or17h8ce80bed58c9da15E_417_, 602
_ZN4core6option15Option$LT$T$GT$3map17h83ac2c71ca32f8a9E_418_, 603
_ZN4core6option15Option$LT$T$GT$9unwrap_or17h8ce80bed58c9da15E_419_, 604
_ZN5image6codecs3ico7decoder10read_entry17h84ccb48ec7de8e00E_420_, 605
_ZN4core6option47Option$LT$core..result..Result$LT$T$C$E$GT$$GT$9transpose17he43841c2093c2f73E_421_, 606
_ZN5image6codecs3ico7decoder10read_entry17h84ccb48ec7de8e00E_422_, 607
_ZN5image6codecs3tga7decoder19TgaDecoder$LT$R$GT$16expand_color_map17hf31f21953e494808E_423_, 608
_ZN130_$LT$png..common..Transformations$u20$as$u20$$LT$png..common..Transformations$u20$as$u20$core..fmt..Debug$GT$..fmt..__BitFlags$GT$18STRIP_FILLER_AFTER17h8b2ff0bff4aeb853E_424_, 609
_ZN107_$LT$core..iter..adapters..fuse..Fuse$LT$I$GT$$u20$as$u20$core..iter..adapters..fuse..FuseImpl$LT$I$GT$$GT$8try_fold17h957a34c799108b9eE_425_, 610
_ZN4core4iter6traits8iterator8Iterator8try_fold17h6e3cb15cd4d0dd24E_426_, 611
_ZN4core6result19Result$LT$T$C$E$GT$7map_err17h99d4d0931147a915E_427_, 612
_ZN4core6option15Option$LT$T$GT$9unwrap_or17h8ce80bed58c9da15E_428_, 613
_ZN4core6option15Option$LT$T$GT$3map17h83ac2c71ca32f8a9E_429_, 614
_ZN4tiff7decoder6stream12EndianReader8read_i3217hfdbca248c262029aE_430_, 615
_ZN4core6option15Option$LT$T$GT$9unwrap_or17h8ce80bed58c9da15E_431_, 616
_ZN4core4iter6traits8iterator8Iterator8try_fold17h6e3cb15cd4d0dd24E_432_, 617
_ZN4core6option15Option$LT$T$GT$3map17h83ac2c71ca32f8a9E_433_, 618
_ZN3gif7encoder16Encoder$LT$W$GT$15write_extension17h31216512db391286E_434_, 619
_ZN4core4iter6traits8iterator8Iterator8try_fold17h6e3cb15cd4d0dd24E_435_, 620
_ZN4core3cmp10PartialOrd2lt17h74a20fce2828e43eE_436_, 621
_ZN5image6codecs4jpeg7encoder17build_scan_header17h591a8464a2132c7cE_437_, 622
_ZN4core6option15Option$LT$T$GT$9unwrap_or17h8ce80bed58c9da15E_438_, 623
_ZN4core6option15Option$LT$T$GT$3map17h83ac2c71ca32f8a9E_439_, 624
_ZN4core4iter6traits8iterator8Iterator8try_fold17h6e3cb15cd4d0dd24E_440_, 625
_ZN4core6option15Option$LT$T$GT$9unwrap_or17h8ce80bed58c9da15E_441_, 626
_ZN57_$LT$png..common..BlendOp$u20$as$u20$core..fmt..Debug$GT$3fmt17hf31a4d638767ba53E_442_, 627
_ZN5image6codecs3tga7decoder19TgaDecoder$LT$R$GT$21is_flipped_vertically17h77aed2b06b6c01daE_443_, 628
_ZN5image6codecs3tga7decoder19TgaDecoder$LT$R$GT$21is_flipped_vertically17h77aed2b06b6c01daE_444_, 629
_ZN3png7decoder15expand_paletted28_$u7b$$u7b$closure$u7d$$u7d$17h93da92ffc39ab0d2E_445_, 630
_ZN4core6option15Option$LT$T$GT$9unwrap_or17h8ce80bed58c9da15E_446_, 631
_ZN236_$LT$image..buffer_..ImageBuffer$LT$FromType$C$Container$GT$$u20$as$u20$image..buffer_..ConvertBuffer$LT$image..buffer_..ImageBuffer$LT$ToType$C$alloc..vec..Vec$LT$$LT$ToType$u20$as$u20$image..traits..Pixel$GT$..Subpixel$GT$$GT$$GT$$GT$7convert17hcd7d15d86f3e3b99E_447_, 632
_ZN71_$LT$image..codecs..dds..DecoderError$u20$as$u20$core..fmt..Display$GT$3fmt17h6219249a85ea5eebE_448_, 633
_ZN4core6option15Option$LT$T$GT$9unwrap_or17h8ce80bed58c9da15E_449_, 634
_ZN4core6option15Option$LT$T$GT$9unwrap_or17h8ce80bed58c9da15E_450_, 635
_ZN4core3cmp10PartialOrd2lt17h74a20fce2828e43eE_451_, 636
_ZN95_$LT$image..codecs..tga..decoder..TgaDecoder$LT$R$GT$$u20$as$u20$image..image..ImageDecoder$GT$10read_image17h8fc8608ff4d8e3a2E_452_, 637
_ZN130_$LT$png..common..Transformations$u20$as$u20$$LT$png..common..Transformations$u20$as$u20$core..fmt..Debug$GT$..fmt..__BitFlags$GT$18STRIP_FILLER_AFTER17h8b2ff0bff4aeb853E_453_, 638
_ZN4core6option15Option$LT$T$GT$3map17h83ac2c71ca32f8a9E_454_, 639
_ZN66_$LT$image..error..ParameterError$u20$as$u20$std..error..Error$GT$6source17h0ea6de21718273e4E_455_, 640
_ZN4core6option15Option$LT$T$GT$9unwrap_or17h8ce80bed58c9da15E_456_, 641
_ZN107_$LT$core..iter..adapters..fuse..Fuse$LT$I$GT$$u20$as$u20$core..iter..adapters..fuse..FuseImpl$LT$I$GT$$GT$8try_fold17h957a34c799108b9eE_457_, 642
_ZN4core6option15Option$LT$T$GT$9unwrap_or17h8ce80bed58c9da15E_458_, 643
_ZN4core6option15Option$LT$T$GT$6as_mut17hf71675d610d15f3fE_459_, 644
_ZN4core6option15Option$LT$T$GT$9unwrap_or17h8ce80bed58c9da15E_460_, 645
_ZN4core6option15Option$LT$T$GT$9unwrap_or17h8ce80bed58c9da15E_461_, 646
_ZN4core4iter6traits10exact_size17ExactSizeIterator3len17h68414b0f42dd36b4E_462_, 647
_ZN4core6option15Option$LT$T$GT$9unwrap_or17h8ce80bed58c9da15E_463_, 648
_ZN4core6result19Result$LT$T$C$E$GT$5is_ok17h300de609953bd91dE_464_, 649
_ZN5image6codecs3ico7decoder10read_entry17h84ccb48ec7de8e00E_466_, 650
_ZN4core6option15Option$LT$T$GT$9unwrap_or17h8ce80bed58c9da15E_467_, 651
_ZN4core6option15Option$LT$T$GT$9unwrap_or17h8ce80bed58c9da15E_468_, 652
_ZN4core6result19Result$LT$T$C$E$GT$3map17h4d8bfd9bcd90b7b3E_469_, 653
_ZN4core6option15Option$LT$T$GT$9unwrap_or17h8ce80bed58c9da15E_470_, 654
_ZN4core6result19Result$LT$T$C$E$GT$7map_err17h99d4d0931147a915E_471_, 655
_ZN111_$LT$core..iter..adapters..zip..Zip$LT$A$C$B$GT$$u20$as$u20$core..iter..adapters..zip..ZipImpl$LT$A$C$B$GT$$GT$4next17h495ad7648bf10354E_472_, 656
_ZN5image6codecs3tga7decoder19TgaDecoder$LT$R$GT$21is_flipped_vertically17h77aed2b06b6c01daE_473_, 657
_ZN5image6codecs3bmp7decoder18set_2bit_pixel_run17hc34b365783160e24E_474_, 658
_ZN4core6option15Option$LT$T$GT$9unwrap_or17h8ce80bed58c9da15E_475_, 659
_ZN4core6option15Option$LT$T$GT$3map17h62f15030b7c554b2E_477_, 660
_ZN4core6option15Option$LT$T$GT$9unwrap_or17h8ce80bed58c9da15E_478_, 661
_ZN80_$LT$core..str..pattern..StrSearcher$u20$as$u20$core..str..pattern..Searcher$GT$4next17he812986a6604b9f8E_479_, 662
_ZN4core6option15Option$LT$T$GT$9unwrap_or17h8ce80bed58c9da15E_480_, 663
_ZN4tiff7decoder6stream12EndianReader8read_i3217hfdbca248c262029aE_481_, 664
_ZN4core6option15Option$LT$T$GT$9unwrap_or17h8ce80bed58c9da15E_482_, 665
_ZN4core4iter6traits8iterator8Iterator8try_fold17h6e3cb15cd4d0dd24E_483_, 666
_ZN5image6codecs3tga7decoder19TgaDecoder$LT$R$GT$21is_flipped_vertically17h77aed2b06b6c01daE_484_, 667
_ZN4core3cmp6min_by17h1d6323d90622e113E_485_, 668
_ZN4core4iter6traits8iterator8Iterator8try_fold17h38d7b2253440eee9E_485_, 669
_ZN68_$LT$core..option..Option$LT$T$GT$$u20$as$u20$core..clone..Clone$GT$5clone17h7c4ed7cc0844d274E_486_, 670
_ZN4core6option15Option$LT$T$GT$9unwrap_or17h8ce80bed58c9da15E_487_, 671
_ZN68_$LT$core..option..Option$LT$T$GT$$u20$as$u20$core..clone..Clone$GT$5clone17h7c4ed7cc0844d274E_488_, 672
_ZN4core6option15Option$LT$T$GT$9unwrap_or17h8ce80bed58c9da15E_489_, 673
_ZN57_$LT$png..common..BlendOp$u20$as$u20$core..fmt..Debug$GT$3fmt17hf31a4d638767ba53E_490_, 674
_ZN4core6option15Option$LT$T$GT$3map17h83ac2c71ca32f8a9E_491_, 675
_ZN4core3ptr65drop_in_place$LT$core..option..Option$LT$weezl..StreamBuf$GT$$GT$17hab39435439ff229fE_493_, 676
_ZN4core7convert3num67_$LT$impl$u20$core..convert..TryFrom$LT$u32$GT$$u20$for$u20$u16$GT$8try_from17h490304093f90db74E_494_, 677
_ZN4core6option15Option$LT$T$GT$9unwrap_or17h8ce80bed58c9da15E_495_, 678
_ZN5image6codecs3bmp7decoder18set_2bit_pixel_run17hc34b365783160e24E_496_, 679
_ZN5image6codecs3ico7decoder10read_entry17h84ccb48ec7de8e00E_498_, 680
_ZN111_$LT$core..iter..adapters..zip..Zip$LT$A$C$B$GT$$u20$as$u20$core..iter..adapters..zip..ZipImpl$LT$A$C$B$GT$$GT$4next17h495ad7648bf10354E_499_, 681
_ZN4core6option15Option$LT$T$GT$9unwrap_or17h8ce80bed58c9da15E_500_, 682
_ZN4core3cmp10PartialOrd2lt17h74a20fce2828e43eE_501_, 683
_ZN107_$LT$core..iter..adapters..fuse..Fuse$LT$I$GT$$u20$as$u20$core..iter..adapters..fuse..FuseImpl$LT$I$GT$$GT$8try_fold17h957a34c799108b9eE_502_, 684
_ZN4core6option47Option$LT$core..result..Result$LT$T$C$E$GT$$GT$9transpose17he43841c2093c2f73E_503_, 685
_ZN4core6option15Option$LT$T$GT$9unwrap_or17h8ce80bed58c9da15E_505_, 686
_ZN4core3cmp10PartialOrd2lt17h74a20fce2828e43eE_506_, 687
_ZN4core6option15Option$LT$T$GT$6expect17h33b3d106e33e8437E_507_, 688
_ZN4core6option47Option$LT$core..result..Result$LT$T$C$E$GT$$GT$9transpose17he43841c2093c2f73E_508_, 689
_ZN4core4iter6traits8iterator8Iterator8try_fold17h6e3cb15cd4d0dd24E_509_, 690
_ZN3gif7encoder16Encoder$LT$W$GT$15write_extension17h31216512db391286E_510_, 691
_ZN4core6option15Option$LT$T$GT$3map17h83ac2c71ca32f8a9E_511_, 692
_ZN4core6option15Option$LT$T$GT$6as_mut17hf71675d610d15f3fE_512_, 693
_ZN91_$LT$core..slice..iter..Iter$LT$T$GT$$u20$as$u20$core..iter..traits..iterator..Iterator$GT$3any17h86cdd884fc69f6d2E_513_, 694
_ZN4core6option15Option$LT$T$GT$3map17ha90f874f66362a6eE_514_, 695
_ZN4core6option15Option$LT$T$GT$3map17h83ac2c71ca32f8a9E_515_, 696
_ZN5image6codecs3tga7decoder19TgaDecoder$LT$R$GT$21is_flipped_vertically17h77aed2b06b6c01daE_516_, 697
_ZN4core6option15Option$LT$T$GT$9unwrap_or17h8ce80bed58c9da15E_517_, 698
_ZN91_$LT$core..slice..iter..Iter$LT$T$GT$$u20$as$u20$core..iter..traits..iterator..Iterator$GT$3any17h86cdd884fc69f6d2E_518_, 699
_ZN4core4iter6traits8iterator8Iterator8try_fold17h6e3cb15cd4d0dd24E_519_, 700
_ZN111_$LT$core..iter..adapters..zip..Zip$LT$A$C$B$GT$$u20$as$u20$core..iter..adapters..zip..ZipImpl$LT$A$C$B$GT$$GT$4next17h344b94838f46062aE_520_, 701
_ZN4core6option15Option$LT$T$GT$9unwrap_or17h8ce80bed58c9da15E_521_, 702
_ZN4tiff7decoder6stream12EndianReader8read_i3217hfdbca248c262029aE_522_, 703
_ZN4core6result19Result$LT$T$C$E$GT$7map_err17h99d4d0931147a915E_523_, 704
_ZN4core4iter6traits8iterator8Iterator8try_fold17h6e3cb15cd4d0dd24E_524_, 705
_ZN4core6option15Option$LT$T$GT$9unwrap_or17h8ce80bed58c9da15E_525_, 706
_ZN4core6option15Option$LT$T$GT$5ok_or17ha615b22f03a42152E_526_, 707
_ZN4core6result19Result$LT$T$C$E$GT$5is_ok17h300de609953bd91dE_527_, 708
_ZN4core6option15Option$LT$T$GT$9unwrap_or17h8ce80bed58c9da15E_528_, 709
_ZN4core6option15Option$LT$T$GT$3map17h83ac2c71ca32f8a9E_529_, 710
_ZN4core6result19Result$LT$T$C$E$GT$7map_err17h99d4d0931147a915E_530_, 711
_ZN4core6option15Option$LT$T$GT$9unwrap_or17h8ce80bed58c9da15E_532_, 712
_ZN4core6option15Option$LT$T$GT$9unwrap_or17h8ce80bed58c9da15E_533_, 713
_ZN111_$LT$core..iter..adapters..zip..Zip$LT$A$C$B$GT$$u20$as$u20$core..iter..adapters..zip..ZipImpl$LT$A$C$B$GT$$GT$4next17hc0ff4e9041e9037aE_534_, 714
_ZN4core6option15Option$LT$T$GT$9unwrap_or17h8ce80bed58c9da15E_536_, 715
_ZN4core6option15Option$LT$T$GT$3map17h83ac2c71ca32f8a9E_537_, 716
_ZN4core6option15Option$LT$T$GT$3map17h83ac2c71ca32f8a9E_538_, 717
_ZN4core6option15Option$LT$T$GT$9unwrap_or17h8ce80bed58c9da15E_539_, 718
_ZN236_$LT$image..buffer_..ImageBuffer$LT$FromType$C$Container$GT$$u20$as$u20$image..buffer_..ConvertBuffer$LT$image..buffer_..ImageBuffer$LT$ToType$C$alloc..vec..Vec$LT$$LT$ToType$u20$as$u20$image..traits..Pixel$GT$..Subpixel$GT$$GT$$GT$$GT$7convert17h218796699906a13cE_540_, 719
_ZN4core6result19Result$LT$T$C$E$GT$3map17h4d8bfd9bcd90b7b3E_541_, 720
_ZN4core6option15Option$LT$T$GT$9unwrap_or17h8ce80bed58c9da15E_542_, 721
_ZN4core6option15Option$LT$T$GT$9unwrap_or17h8ce80bed58c9da15E_543_, 722
_ZN5image6codecs3tga7decoder19TgaDecoder$LT$R$GT$16expand_color_map17hf31f21953e494808E_544_, 723
_ZN4core6option15Option$LT$T$GT$9unwrap_or17h8ce80bed58c9da15E_545_, 724
_ZN4core6option15Option$LT$T$GT$9unwrap_or17h8ce80bed58c9da15E_546_, 725
_ZN111_$LT$core..iter..adapters..zip..Zip$LT$A$C$B$GT$$u20$as$u20$core..iter..adapters..zip..ZipImpl$LT$A$C$B$GT$$GT$4next17h344b94838f46062aE_547_, 726
_ZN5image6codecs3bmp7decoder18set_2bit_pixel_run17hc34b365783160e24E_548_, 727
_ZN4core4iter6traits8iterator8Iterator8try_fold17h6e3cb15cd4d0dd24E_549_, 728
_ZN80_$LT$core..str..pattern..StrSearcher$u20$as$u20$core..str..pattern..Searcher$GT$4next17he812986a6604b9f8E_550_, 729
_ZN4core6option15Option$LT$T$GT$9unwrap_or17h8ce80bed58c9da15E_551_, 730
_ZN4core3ptr65drop_in_place$LT$core..option..Option$LT$weezl..StreamBuf$GT$$GT$17hab39435439ff229fE_552_, 731
_ZN107_$LT$core..iter..adapters..fuse..Fuse$LT$I$GT$$u20$as$u20$core..iter..adapters..fuse..FuseImpl$LT$I$GT$$GT$8try_fold17h957a34c799108b9eE_554_, 732
_ZN4core6option15Option$LT$T$GT$9unwrap_or17h8ce80bed58c9da15E_556_, 733
_ZN3gif7encoder16Encoder$LT$W$GT$15write_extension17h31216512db391286E_557_, 734
_ZN4core4iter6traits8iterator8Iterator8try_fold17h6e3cb15cd4d0dd24E_558_, 735
_ZN236_$LT$image..buffer_..ImageBuffer$LT$FromType$C$Container$GT$$u20$as$u20$image..buffer_..ConvertBuffer$LT$image..buffer_..ImageBuffer$LT$ToType$C$alloc..vec..Vec$LT$$LT$ToType$u20$as$u20$image..traits..Pixel$GT$..Subpixel$GT$$GT$$GT$$GT$7convert17h218796699906a13cE_559_, 736
_ZN4core6result19Result$LT$T$C$E$GT$3map17h4d8bfd9bcd90b7b3E_560_, 737
_ZN4core6option15Option$LT$T$GT$9unwrap_or17h8ce80bed58c9da15E_561_, 738
_ZN4core6option15Option$LT$T$GT$3map17h83ac2c71ca32f8a9E_562_, 739
_ZN4core6option15Option$LT$T$GT$9unwrap_or17h8ce80bed58c9da15E_563_, 740
_ZN4core6option15Option$LT$T$GT$9unwrap_or17h8ce80bed58c9da15E_564_, 741
_ZN4core6option15Option$LT$T$GT$9unwrap_or17h8ce80bed58c9da15E_565_, 742
_ZN4core6option47Option$LT$core..result..Result$LT$T$C$E$GT$$GT$9transpose17he43841c2093c2f73E_566_, 743
_ZN4core3ptr65drop_in_place$LT$core..option..Option$LT$weezl..StreamBuf$GT$$GT$17hab39435439ff229fE_567_, 744
_ZN4core6option15Option$LT$T$GT$9unwrap_or17h8ce80bed58c9da15E_568_, 745
_ZN5image6codecs3ico7decoder10read_entry17h84ccb48ec7de8e00E_571_, 746
_ZN111_$LT$core..iter..adapters..zip..Zip$LT$A$C$B$GT$$u20$as$u20$core..iter..adapters..zip..ZipImpl$LT$A$C$B$GT$$GT$4next17h344b94838f46062aE_572_, 747
_ZN4core4iter6traits8iterator8Iterator8try_fold17h6e3cb15cd4d0dd24E_573_, 748
_ZN4core6option15Option$LT$T$GT$6expect17h33b3d106e33e8437E_574_, 749
_ZN5image6codecs3pnm7decoder19PnmDecoder$LT$R$GT$18read_bitmap_header17hdf1f299bfd8edaa3E_575_, 750
_ZN4core6option47Option$LT$core..result..Result$LT$T$C$E$GT$$GT$9transpose17he43841c2093c2f73E_576_, 751
_ZN4core6option15Option$LT$T$GT$9unwrap_or17h8ce80bed58c9da15E_577_, 752
_ZN4core6option15Option$LT$T$GT$9unwrap_or17h8ce80bed58c9da15E_578_, 753
_ZN4core6option15Option$LT$T$GT$9unwrap_or17h8ce80bed58c9da15E_579_, 754
_ZN4core6option15Option$LT$T$GT$9unwrap_or17h8ce80bed58c9da15E_580_, 755
_ZN4core3cmp10PartialOrd2lt17h74a20fce2828e43eE_581_, 756
_ZN4core6option15Option$LT$T$GT$9unwrap_or17h8ce80bed58c9da15E_582_, 757
_ZN66_$LT$core..option..Option$LT$T$GT$$u20$as$u20$core..fmt..Debug$GT$3fmt17h7f4a4b523075d69aE_583_, 758
_ZN4core6option15Option$LT$T$GT$9unwrap_or17h8ce80bed58c9da15E_585_, 759
_ZN4core5alloc6layout10size_align17h9115a73bc73a48dbE_586_, 760
_ZN4core6result19Result$LT$T$C$E$GT$8and_then17hcc5aed8b602e74c8E_586_, 761
_ZN5image6codecs3tga7decoder19TgaDecoder$LT$R$GT$21is_flipped_vertically17h77aed2b06b6c01daE_587_, 762
_ZN4core6option15Option$LT$T$GT$9unwrap_or17h8ce80bed58c9da15E_589_, 763
_ZN4core6option15Option$LT$T$GT$9unwrap_or17h8ce80bed58c9da15E_590_, 764
_ZN4core6option15Option$LT$T$GT$6expect17h33b3d106e33e8437E_591_, 765
_ZN111_$LT$core..iter..adapters..zip..Zip$LT$A$C$B$GT$$u20$as$u20$core..iter..adapters..zip..ZipImpl$LT$A$C$B$GT$$GT$4next17h495ad7648bf10354E_592_, 766
_ZN111_$LT$core..iter..adapters..zip..Zip$LT$A$C$B$GT$$u20$as$u20$core..iter..adapters..zip..ZipImpl$LT$A$C$B$GT$$GT$4next17h344b94838f46062aE_593_, 767
_ZN57_$LT$png..common..BlendOp$u20$as$u20$core..fmt..Debug$GT$3fmt17hf31a4d638767ba53E_594_, 768
_ZN4core6option15Option$LT$T$GT$9unwrap_or17h8ce80bed58c9da15E_595_, 769
_ZN130_$LT$png..common..Transformations$u20$as$u20$$LT$png..common..Transformations$u20$as$u20$core..fmt..Debug$GT$..fmt..__BitFlags$GT$18STRIP_FILLER_AFTER17h8b2ff0bff4aeb853E_596_, 770
_ZN130_$LT$png..common..Transformations$u20$as$u20$$LT$png..common..Transformations$u20$as$u20$core..fmt..Debug$GT$..fmt..__BitFlags$GT$18STRIP_FILLER_AFTER17h8b2ff0bff4aeb853E_597_, 771
_ZN5image6codecs4jpeg7encoder17build_scan_header17h591a8464a2132c7cE_598_, 772
_ZN4tiff7decoder6stream12EndianReader8read_i3217hfdbca248c262029aE_599_, 773
_ZN4core6option15Option$LT$T$GT$6expect17h33b3d106e33e8437E_600_, 774
_ZN4core6option15Option$LT$T$GT$9unwrap_or17h8ce80bed58c9da15E_601_, 775
_ZN4core6option15Option$LT$T$GT$3map17h83ac2c71ca32f8a9E_602_, 776
_ZN107_$LT$core..iter..adapters..fuse..Fuse$LT$I$GT$$u20$as$u20$core..iter..adapters..fuse..FuseImpl$LT$I$GT$$GT$8try_fold17h957a34c799108b9eE_603_, 777
_ZN4core3ptr65drop_in_place$LT$core..option..Option$LT$weezl..StreamBuf$GT$$GT$17hab39435439ff229fE_604_, 778
_ZN4core6option15Option$LT$T$GT$9unwrap_or17h8ce80bed58c9da15E_605_, 779
_ZN4core3cmp5impls69_$LT$impl$u20$core..cmp..PartialEq$LT$$RF$B$GT$$u20$for$u20$$RF$A$GT$2ne17hda992074c04757ffE_606_, 780
_ZN95_$LT$alloc..vec..Vec$LT$T$GT$$u20$as$u20$core..iter..traits..collect..FromIterator$LT$T$GT$$GT$9from_iter17h7e8ec2f900e88a52E_606_, 781
_ZN5image5image14decoder_to_vec17h93ce2dd8ccc8cf8dE_606_, 782
_ZN4core6option15Option$LT$T$GT$3map17h62f15030b7c554b2E_607_, 783
_ZN4core6option15Option$LT$T$GT$9unwrap_or17h8ce80bed58c9da15E_608_, 784
_ZN4core6option15Option$LT$T$GT$3map17h83ac2c71ca32f8a9E_609_, 785
_ZN4core6option15Option$LT$T$GT$9unwrap_or17h8ce80bed58c9da15E_610_, 786
_ZN100_$LT$core..iter..adapters..take..Take$LT$I$GT$$u20$as$u20$core..iter..traits..iterator..Iterator$GT$4next17hc1aee42f86ca97d1E_611_, 787
_ZN4core6option15Option$LT$T$GT$3map17h83ac2c71ca32f8a9E_612_, 788
_ZN80_$LT$core..str..pattern..StrSearcher$u20$as$u20$core..str..pattern..Searcher$GT$4next17he812986a6604b9f8E_613_, 789
_ZN4core6option15Option$LT$T$GT$6as_mut17hf71675d610d15f3fE_614_, 790
_ZN4core6option15Option$LT$T$GT$9unwrap_or17h8ce80bed58c9da15E_615_, 791
_ZN5image6codecs3bmp7decoder18set_2bit_pixel_run17hc34b365783160e24E_616_, 792
_ZN4core6option15Option$LT$T$GT$9unwrap_or17h8ce80bed58c9da15E_617_, 793
_ZN8bytemuck10cast_slice17h7b28e47f7b743836E_618_, 794
_ZN4core6option15Option$LT$T$GT$9unwrap_or17h8ce80bed58c9da15E_619_, 795
_ZN4core6result19Result$LT$T$C$E$GT$5is_ok17h300de609953bd91dE_620_, 796
_ZN5image6codecs3bmp7decoder18set_2bit_pixel_run17hc34b365783160e24E_621_, 797
_ZN130_$LT$png..common..Transformations$u20$as$u20$$LT$png..common..Transformations$u20$as$u20$core..fmt..Debug$GT$..fmt..__BitFlags$GT$18STRIP_FILLER_AFTER17h8b2ff0bff4aeb853E_622_, 798
_ZN4core6result19Result$LT$T$C$E$GT$3map17h4d8bfd9bcd90b7b3E_623_, 799
_ZN5image6codecs3bmp7decoder18set_2bit_pixel_run17hc34b365783160e24E_624_, 800
_ZN80_$LT$core..str..pattern..StrSearcher$u20$as$u20$core..str..pattern..Searcher$GT$4next17he812986a6604b9f8E_625_, 801
_ZN66_$LT$core..option..Option$LT$T$GT$$u20$as$u20$core..fmt..Debug$GT$3fmt17h7f4a4b523075d69aE_626_, 802
_ZN236_$LT$image..buffer_..ImageBuffer$LT$FromType$C$Container$GT$$u20$as$u20$image..buffer_..ConvertBuffer$LT$image..buffer_..ImageBuffer$LT$ToType$C$alloc..vec..Vec$LT$$LT$ToType$u20$as$u20$image..traits..Pixel$GT$..Subpixel$GT$$GT$$GT$$GT$7convert17h218796699906a13cE_627_, 803
_ZN4core3cmp10PartialOrd2lt17h74a20fce2828e43eE_628_, 804
_ZN66_$LT$image..error..ParameterError$u20$as$u20$std..error..Error$GT$6source17h0ea6de21718273e4E_629_, 805
_ZN236_$LT$image..buffer_..ImageBuffer$LT$FromType$C$Container$GT$$u20$as$u20$image..buffer_..ConvertBuffer$LT$image..buffer_..ImageBuffer$LT$ToType$C$alloc..vec..Vec$LT$$LT$ToType$u20$as$u20$image..traits..Pixel$GT$..Subpixel$GT$$GT$$GT$$GT$7convert17hcd7d15d86f3e3b99E_630_, 806
_ZN4core6option15Option$LT$T$GT$9unwrap_or17h8ce80bed58c9da15E_631_, 807
_ZN111_$LT$core..iter..adapters..zip..Zip$LT$A$C$B$GT$$u20$as$u20$core..iter..adapters..zip..ZipImpl$LT$A$C$B$GT$$GT$4next17h495ad7648bf10354E_632_, 808
_ZN85_$LT$std..io..buffered..bufreader..BufReader$LT$R$GT$$u20$as$u20$std..io..BufRead$GT$7consume17hf05299ba793de9a9E_633_, 809
_ZN5image7buffer_32ImageBuffer$LT$P$C$Container$GT$9get_pixel17h3a889f5eea763470E_633_, 810
_ZN4core6option15Option$LT$T$GT$9unwrap_or17h8ce80bed58c9da15E_634_, 811
_ZN4core6option15Option$LT$T$GT$3map17h83ac2c71ca32f8a9E_637_, 812
_ZN4core6option15Option$LT$T$GT$9unwrap_or17h8ce80bed58c9da15E_638_, 813
_ZN66_$LT$image..error..ParameterError$u20$as$u20$std..error..Error$GT$6source17h0ea6de21718273e4E_639_, 814
_ZN5alloc7raw_vec19RawVec$LT$T$C$A$GT$14current_memory17h2ebfc26687c09d8bE_640_, 815
_ZN4core6option15Option$LT$T$GT$3map17h83ac2c71ca32f8a9E_641_, 816
_ZN4core6option15Option$LT$T$GT$9unwrap_or17h8ce80bed58c9da15E_642_, 817
_ZN4core6option15Option$LT$T$GT$9unwrap_or17h8ce80bed58c9da15E_643_, 818
_ZN4core6option15Option$LT$T$GT$3map17h83ac2c71ca32f8a9E_644_, 819
_ZN4core6option15Option$LT$T$GT$9unwrap_or17h8ce80bed58c9da15E_645_, 820
_ZN4core6option15Option$LT$T$GT$9unwrap_or17h8ce80bed58c9da15E_646_, 821
_ZN4core4iter6traits8iterator8Iterator8try_fold17h6e3cb15cd4d0dd24E_647_, 822
_ZN111_$LT$core..iter..adapters..zip..Zip$LT$A$C$B$GT$$u20$as$u20$core..iter..adapters..zip..ZipImpl$LT$A$C$B$GT$$GT$4next17hc0ff4e9041e9037aE_648_, 823
_ZN4core6option15Option$LT$T$GT$3map17h83ac2c71ca32f8a9E_649_, 824
_ZN4core6option15Option$LT$T$GT$9unwrap_or17h8ce80bed58c9da15E_650_, 825
_ZN4core6option15Option$LT$T$GT$5ok_or17ha615b22f03a42152E_651_, 826
_ZN4core4iter6traits8iterator8Iterator8try_fold17h6e3cb15cd4d0dd24E_652_, 827
_ZN66_$LT$core..option..Option$LT$T$GT$$u20$as$u20$core..fmt..Debug$GT$3fmt17h7f4a4b523075d69aE_653_, 828
_ZN4core6result19Result$LT$T$C$E$GT$5is_ok17h300de609953bd91dE_654_, 829
_ZN5image6codecs3tga7decoder19TgaDecoder$LT$R$GT$21is_flipped_vertically17h77aed2b06b6c01daE_655_, 830
_ZN4core3ptr65drop_in_place$LT$core..option..Option$LT$weezl..StreamBuf$GT$$GT$17hab39435439ff229fE_656_, 831
_ZN57_$LT$png..common..BlendOp$u20$as$u20$core..fmt..Debug$GT$3fmt17hf31a4d638767ba53E_657_, 832
_ZN4core6option15Option$LT$T$GT$9unwrap_or17h8ce80bed58c9da15E_658_, 833
_ZN4core4iter6traits8iterator8Iterator8try_fold17h6e3cb15cd4d0dd24E_659_, 834
_ZN4core6result19Result$LT$T$C$E$GT$5is_ok17h300de609953bd91dE_662_, 835
_ZN4core6option15Option$LT$T$GT$9unwrap_or17h8ce80bed58c9da15E_663_, 836
_ZN4core6option15Option$LT$T$GT$9unwrap_or17h8ce80bed58c9da15E_664_, 837
_ZN5image6codecs4jpeg7encoder17build_scan_header17h591a8464a2132c7cE_667_, 838
_ZN107_$LT$core..iter..adapters..fuse..Fuse$LT$I$GT$$u20$as$u20$core..iter..adapters..fuse..FuseImpl$LT$I$GT$$GT$8try_fold17h957a34c799108b9eE_668_, 839
_ZN5image6codecs3ico7decoder10read_entry17h84ccb48ec7de8e00E_669_, 840
_ZN4core6option15Option$LT$T$GT$9unwrap_or17h8ce80bed58c9da15E_670_, 841
_ZN4core6option15Option$LT$T$GT$9unwrap_or17h8ce80bed58c9da15E_671_, 842
_ZN4core6option15Option$LT$T$GT$9unwrap_or17h8ce80bed58c9da15E_673_, 843
_ZN4core3ptr65drop_in_place$LT$core..option..Option$LT$weezl..StreamBuf$GT$$GT$17hab39435439ff229fE_674_, 844
_ZN4core6option15Option$LT$T$GT$3map17h83ac2c71ca32f8a9E_675_, 845
_ZN4core6option15Option$LT$T$GT$5ok_or17ha615b22f03a42152E_676_, 846
_ZN4core6option15Option$LT$T$GT$9unwrap_or17h8ce80bed58c9da15E_677_, 847
_ZN5image6codecs3tga7decoder19TgaDecoder$LT$R$GT$21is_flipped_vertically17h77aed2b06b6c01daE_678_, 848
_ZN66_$LT$image..error..ParameterError$u20$as$u20$std..error..Error$GT$6source17h0ea6de21718273e4E_679_, 849
_ZN80_$LT$core..str..pattern..StrSearcher$u20$as$u20$core..str..pattern..Searcher$GT$4next17he812986a6604b9f8E_680_, 850
_ZN5image6codecs3ico7decoder10read_entry17h84ccb48ec7de8e00E_681_, 851
_ZN4core6option47Option$LT$core..result..Result$LT$T$C$E$GT$$GT$9transpose17he43841c2093c2f73E_682_, 852
_ZN5image6codecs3tga7decoder19TgaDecoder$LT$R$GT$21is_flipped_vertically17h77aed2b06b6c01daE_683_, 853
_ZN4core6option15Option$LT$T$GT$3map17h83ac2c71ca32f8a9E_684_, 854
_ZN4core6option15Option$LT$T$GT$9unwrap_or17h8ce80bed58c9da15E_685_, 855
_ZN5image6codecs3bmp7decoder18set_2bit_pixel_run17hc34b365783160e24E_686_, 856
_ZN4core6option15Option$LT$T$GT$3map17h62f15030b7c554b2E_688_, 857
_ZN4core6option15Option$LT$T$GT$3map17h62f15030b7c554b2E_689_, 858
_ZN4core4iter6traits8iterator8Iterator8try_fold17h6e3cb15cd4d0dd24E_690_, 859
_ZN4core6option15Option$LT$T$GT$9unwrap_or17h8ce80bed58c9da15E_691_, 860
_ZN4core3num21_$LT$impl$u20$u32$GT$13from_be_bytes17h814ffe1ac7107373E_692_, 861
_ZN4core6option15Option$LT$T$GT$9unwrap_or17h8ce80bed58c9da15E_694_, 862
_ZN5image6codecs3tga7decoder19TgaDecoder$LT$R$GT$16expand_color_map17hf31f21953e494808E_695_, 863
_ZN4core6result19Result$LT$T$C$E$GT$7map_err17h99d4d0931147a915E_696_, 864
_ZN4core6result19Result$LT$T$C$E$GT$7map_err17h99d4d0931147a915E_697_, 865
_ZN5image6codecs3tga7decoder19TgaDecoder$LT$R$GT$21is_flipped_vertically17h77aed2b06b6c01daE_698_, 866
_ZN4core6option15Option$LT$T$GT$9unwrap_or17h8ce80bed58c9da15E_699_, 867
_ZN4core6option15Option$LT$T$GT$9unwrap_or17h8ce80bed58c9da15E_700_, 868
_ZN4core6option15Option$LT$T$GT$9unwrap_or17h8ce80bed58c9da15E_701_, 869
_ZN4core4iter6traits8iterator8Iterator8try_fold17h6e3cb15cd4d0dd24E_702_, 870
_ZN5image8imageops6sample30thumbnail_sample_fraction_both17h23649c2c1c595432E_703_, 871
_ZN4core6option15Option$LT$T$GT$9unwrap_or17h8ce80bed58c9da15E_704_, 872
_ZN4core6option15Option$LT$T$GT$3map17h83ac2c71ca32f8a9E_705_, 873
_ZN75_$LT$core..option..Option$LT$T$GT$$u20$as$u20$core..ops..try_trait..Try$GT$6branch17ha92a25d5a9328bd1E_706_, 874
_ZN4core4iter6traits8iterator8Iterator8try_fold17h6e3cb15cd4d0dd24E_708_, 875
_ZN4core6option15Option$LT$T$GT$9unwrap_or17h8ce80bed58c9da15E_709_, 876
_ZN52_$LT$T$u20$as$u20$alloc..slice..hack..ConvertVec$GT$6to_vec17ha0c24c61cd5c275cE_710_, 877
_ZN4core6option15Option$LT$T$GT$9unwrap_or17h8ce80bed58c9da15E_711_, 878
_ZN4core3ptr65drop_in_place$LT$core..option..Option$LT$weezl..StreamBuf$GT$$GT$17hab39435439ff229fE_712_, 879
_ZN4core6option15Option$LT$T$GT$3map17h83ac2c71ca32f8a9E_713_, 880
_ZN111_$LT$core..iter..adapters..zip..Zip$LT$A$C$B$GT$$u20$as$u20$core..iter..adapters..zip..ZipImpl$LT$A$C$B$GT$$GT$4next17hc0ff4e9041e9037aE_714_, 881
_ZN5alloc3vec16Vec$LT$T$C$A$GT$10as_mut_ptr17hbb454a758f00eafaE_715_, 882
_ZN4core6option15Option$LT$T$GT$9unwrap_or17h8ce80bed58c9da15E_716_, 883
_ZN4core6result19Result$LT$T$C$E$GT$7map_err17h99d4d0931147a915E_717_, 884
_ZN4core6option15Option$LT$T$GT$9unwrap_or17h8ce80bed58c9da15E_718_, 885
_ZN111_$LT$core..iter..adapters..zip..Zip$LT$A$C$B$GT$$u20$as$u20$core..iter..adapters..zip..ZipImpl$LT$A$C$B$GT$$GT$4next17h495ad7648bf10354E_719_, 886
_ZN4core6result19Result$LT$T$C$E$GT$7map_err17h99d4d0931147a915E_720_, 887
_ZN4core6option15Option$LT$T$GT$9unwrap_or17h8ce80bed58c9da15E_721_, 888
_ZN4core6option15Option$LT$T$GT$9unwrap_or17h8ce80bed58c9da15E_722_, 889
_ZN4core4iter6traits8iterator8Iterator8try_fold17h6e3cb15cd4d0dd24E_723_, 890
_ZN107_$LT$core..iter..adapters..fuse..Fuse$LT$I$GT$$u20$as$u20$core..iter..adapters..fuse..FuseImpl$LT$I$GT$$GT$8try_fold17h957a34c799108b9eE_724_, 891
_ZN111_$LT$core..iter..adapters..zip..Zip$LT$A$C$B$GT$$u20$as$u20$core..iter..adapters..zip..ZipImpl$LT$A$C$B$GT$$GT$4next17h344b94838f46062aE_725_, 892
_ZN130_$LT$png..common..Transformations$u20$as$u20$$LT$png..common..Transformations$u20$as$u20$core..fmt..Debug$GT$..fmt..__BitFlags$GT$8STRIP_1617h8c011392a3bd3eccE_726_, 893
_ZN106_$LT$image..color..Bgra$LT$T$GT$$u20$as$u20$image..color..FromColor$LT$image..color..Luma$LT$T$GT$$GT$$GT$10from_color17h8b14ebbd69728264E_727_, 894
_ZN5image6codecs3tga7decoder19TgaDecoder$LT$R$GT$21is_flipped_vertically17h77aed2b06b6c01daE_728_, 895
_ZN4core6option15Option$LT$T$GT$9unwrap_or17h8ce80bed58c9da15E_729_, 896
_ZN4core6option15Option$LT$T$GT$3map17h83ac2c71ca32f8a9E_730_, 897
_ZN4core6option15Option$LT$T$GT$3map17h83ac2c71ca32f8a9E_731_, 898
_ZN111_$LT$core..iter..adapters..zip..Zip$LT$A$C$B$GT$$u20$as$u20$core..iter..adapters..zip..ZipImpl$LT$A$C$B$GT$$GT$4next17h344b94838f46062aE_732_, 899
_ZN4core6option15Option$LT$T$GT$9unwrap_or17h8ce80bed58c9da15E_733_, 900
_ZN8bytemuck14cast_slice_mut17h4023ac7a00be0a7eE_original, 901
_ZN4core6option15Option$LT$T$GT$9unwrap_or17h8ce80bed58c9da15E_735_, 902
_ZN4core6result19Result$LT$T$C$E$GT$7map_err17h99d4d0931147a915E_736_, 903
_ZN4core6option15Option$LT$T$GT$3map17h83ac2c71ca32f8a9E_738_, 904
_ZN5image6codecs3bmp7decoder18set_2bit_pixel_run17hc34b365783160e24E_739_, 905
_ZN4core6option15Option$LT$T$GT$9unwrap_or17h8ce80bed58c9da15E_740_, 906
_ZN4core6option15Option$LT$T$GT$9unwrap_or17h8ce80bed58c9da15E_741_, 907
_ZN4core6option15Option$LT$T$GT$9unwrap_or17h8ce80bed58c9da15E_742_, 908
_ZN5image6codecs3tga7decoder19TgaDecoder$LT$R$GT$21is_flipped_vertically17h77aed2b06b6c01daE_743_, 909
_ZN111_$LT$core..iter..adapters..zip..Zip$LT$A$C$B$GT$$u20$as$u20$core..iter..adapters..zip..ZipImpl$LT$A$C$B$GT$$GT$4next17h344b94838f46062aE_744_, 910
_ZN91_$LT$core..slice..iter..Iter$LT$T$GT$$u20$as$u20$core..iter..traits..iterator..Iterator$GT$3any17h86cdd884fc69f6d2E_745_, 911
_ZN111_$LT$core..iter..adapters..zip..Zip$LT$A$C$B$GT$$u20$as$u20$core..iter..adapters..zip..ZipImpl$LT$A$C$B$GT$$GT$4next17h495ad7648bf10354E_746_, 912
_ZN4core6option15Option$LT$T$GT$9unwrap_or17h8ce80bed58c9da15E_747_, 913
_ZN4core6option15Option$LT$T$GT$9unwrap_or17h8ce80bed58c9da15E_748_, 914
_ZN4core6result19Result$LT$T$C$E$GT$3map17h4d8bfd9bcd90b7b3E_749_, 915
_ZN4core4iter6traits8iterator8Iterator8try_fold17h6e3cb15cd4d0dd24E_750_, 916
_ZN4core6option15Option$LT$T$GT$9unwrap_or17h8ce80bed58c9da15E_751_, 917
_ZN3gif7encoder16Encoder$LT$W$GT$15write_extension17h31216512db391286E_752_, 918
_ZN66_$LT$core..option..Option$LT$T$GT$$u20$as$u20$core..fmt..Debug$GT$3fmt17h7f4a4b523075d69aE_753_, 919
_ZN4core6option15Option$LT$T$GT$9unwrap_or17h8ce80bed58c9da15E_754_, 920
_ZN5image6codecs3ico7decoder10read_entry17h84ccb48ec7de8e00E_755_, 921
_ZN4core4iter6traits8iterator8Iterator10take_while17hcc43c0837567068bE_756_, 922
_ZN5alloc11collections5btree4node180Handle$LT$alloc..collections..btree..node..NodeRef$LT$BorrowType$C$K$C$V$C$alloc..collections..btree..node..marker..Internal$GT$$C$alloc..collections..btree..node..marker..Edge$GT$7descend17hf4281fdda17f351dE_756_, 923
_ZN5image9animation5Delay19from_numer_denom_ms17h7548f7460285471eE_756_, 924
_ZN236_$LT$image..buffer_..ImageBuffer$LT$FromType$C$Container$GT$$u20$as$u20$image..buffer_..ConvertBuffer$LT$image..buffer_..ImageBuffer$LT$ToType$C$alloc..vec..Vec$LT$$LT$ToType$u20$as$u20$image..traits..Pixel$GT$..Subpixel$GT$$GT$$GT$$GT$7convert17hbaa3e972a3d25c44E_756_, 925
_ZN130_$LT$png..common..Transformations$u20$as$u20$$LT$png..common..Transformations$u20$as$u20$core..fmt..Debug$GT$..fmt..__BitFlags$GT$18STRIP_FILLER_AFTER17h8b2ff0bff4aeb853E_757_, 926
_ZN4core6option15Option$LT$T$GT$9unwrap_or17h8ce80bed58c9da15E_758_, 927
_ZN4core6option15Option$LT$T$GT$9unwrap_or17h8ce80bed58c9da15E_759_, 928
_ZN4core6option15Option$LT$T$GT$9unwrap_or17h8ce80bed58c9da15E_760_, 929
_ZN66_$LT$image..error..ParameterError$u20$as$u20$std..error..Error$GT$6source17h0ea6de21718273e4E_761_, 930
_ZN4core6option15Option$LT$T$GT$9unwrap_or17h8ce80bed58c9da15E_762_, 931
_ZN8bytemuck14cast_slice_mut17h4023ac7a00be0a7eE_763_, 932
_ZN4core6option15Option$LT$T$GT$9unwrap_or17h8ce80bed58c9da15E_764_, 933
_ZN4core6option15Option$LT$T$GT$6expect17h33b3d106e33e8437E_765_, 934
_ZN4core4iter6traits8iterator8Iterator8try_fold17h6e3cb15cd4d0dd24E_766_, 935
_ZN4core6option15Option$LT$T$GT$9unwrap_or17h8ce80bed58c9da15E_767_, 936
_ZN105_$LT$core..iter..adapters..ResultShunt$LT$I$C$E$GT$$u20$as$u20$core..iter..traits..iterator..Iterator$GT$8try_fold17hf0d36d3f471aab62E_769_, 937
_ZN5image6codecs3bmp7decoder18set_2bit_pixel_run17hc34b365783160e24E_770_, 938
_ZN4core6option15Option$LT$T$GT$3map17h83ac2c71ca32f8a9E_771_, 939
_ZN4core6option15Option$LT$T$GT$9unwrap_or17h8ce80bed58c9da15E_772_, 940
_ZN4core6option15Option$LT$T$GT$9unwrap_or17h8ce80bed58c9da15E_773_, 941
_ZN4core6option15Option$LT$T$GT$9unwrap_or17h8ce80bed58c9da15E_774_, 942
_ZN4core4iter6traits8iterator8Iterator4fold17hd88b9692991d2a0dE_775_, 943
_ZN107_$LT$core..iter..adapters..fuse..Fuse$LT$I$GT$$u20$as$u20$core..iter..adapters..fuse..FuseImpl$LT$I$GT$$GT$8try_fold17h957a34c799108b9eE_776_, 944
_ZN5image6codecs3tga7decoder19TgaDecoder$LT$R$GT$21is_flipped_vertically17h77aed2b06b6c01daE_777_, 945
_ZN111_$LT$core..iter..adapters..zip..Zip$LT$A$C$B$GT$$u20$as$u20$core..iter..adapters..zip..ZipImpl$LT$A$C$B$GT$$GT$4next17h495ad7648bf10354E_778_, 946
_ZN130_$LT$png..common..Transformations$u20$as$u20$$LT$png..common..Transformations$u20$as$u20$core..fmt..Debug$GT$..fmt..__BitFlags$GT$18STRIP_FILLER_AFTER17h8b2ff0bff4aeb853E_779_, 947
_ZN4core10intrinsics4copy17h1dd5756d1317fb5dE_original, 948
_ZN4core6option15Option$LT$T$GT$3map17h62f15030b7c554b2E_781_, 949
_ZN66_$LT$core..option..Option$LT$T$GT$$u20$as$u20$core..fmt..Debug$GT$3fmt17h7f4a4b523075d69aE_782_, 950
_ZN4core6option15Option$LT$T$GT$9unwrap_or17h8ce80bed58c9da15E_783_, 951
_ZN4core3ptr65drop_in_place$LT$core..option..Option$LT$weezl..StreamBuf$GT$$GT$17hab39435439ff229fE_784_, 952
_ZN111_$LT$core..iter..adapters..zip..Zip$LT$A$C$B$GT$$u20$as$u20$core..iter..adapters..zip..ZipImpl$LT$A$C$B$GT$$GT$4next17hc0ff4e9041e9037aE_785_, 953
_ZN5image6codecs3bmp7decoder18set_2bit_pixel_run17hc34b365783160e24E_786_, 954
_ZN4core3cmp5impls69_$LT$impl$u20$core..cmp..PartialEq$LT$$RF$B$GT$$u20$for$u20$$RF$A$GT$2ne17hda992074c04757ffE_original, 955
_ZN95_$LT$alloc..vec..Vec$LT$T$GT$$u20$as$u20$core..iter..traits..collect..FromIterator$LT$T$GT$$GT$9from_iter17h7e8ec2f900e88a52E_original, 956
_ZN5image5image14decoder_to_vec17h93ce2dd8ccc8cf8dE_787_, 957
_ZN4core6option15Option$LT$T$GT$9unwrap_or17h8ce80bed58c9da15E_788_, 958
_ZN4core6option15Option$LT$T$GT$9unwrap_or17h8ce80bed58c9da15E_789_, 959
_ZN4core6option15Option$LT$T$GT$9unwrap_or17h8ce80bed58c9da15E_790_, 960
_ZN4core3cmp10PartialOrd2lt17h74a20fce2828e43eE_791_, 961
_ZN4core6option15Option$LT$T$GT$6expect17h33b3d106e33e8437E_792_, 962
_ZN5image6codecs3tga7decoder19TgaDecoder$LT$R$GT$16expand_color_map17hf31f21953e494808E_793_, 963
_ZN4core6option15Option$LT$T$GT$9unwrap_or17h8ce80bed58c9da15E_794_, 964
_ZN5image6codecs3ico7decoder10read_entry17h84ccb48ec7de8e00E_795_, 965
_ZN4core6option15Option$LT$T$GT$9unwrap_or17h8ce80bed58c9da15E_796_, 966
_ZN5image6codecs4jpeg7encoder17build_scan_header17h591a8464a2132c7cE_797_, 967
_ZN4core6option15Option$LT$T$GT$3map17h2dfbad31fb31d4f7E_798_, 968
_ZN4core6option15Option$LT$T$GT$3map17h83ac2c71ca32f8a9E_799_, 969
_ZN4core6option15Option$LT$T$GT$9unwrap_or17h8ce80bed58c9da15E_801_, 970
_ZN4core3cmp10PartialOrd2lt17h74a20fce2828e43eE_802_, 971
_ZN4core6option15Option$LT$T$GT$3map17h2dfbad31fb31d4f7E_803_, 972
_ZN4core3cmp10PartialOrd2lt17h74a20fce2828e43eE_804_, 973
_ZN4core6option15Option$LT$T$GT$3map17h83ac2c71ca32f8a9E_805_, 974
_ZN4core6option15Option$LT$T$GT$9unwrap_or17h8ce80bed58c9da15E_806_, 975
_ZN5image6codecs3tga7decoder19TgaDecoder$LT$R$GT$21is_flipped_vertically17h77aed2b06b6c01daE_807_, 976
_ZN4core6option15Option$LT$T$GT$5ok_or17ha615b22f03a42152E_809_, 977
_ZN4core6option15Option$LT$T$GT$9unwrap_or17h8ce80bed58c9da15E_810_, 978
_ZN4core6option15Option$LT$T$GT$9unwrap_or17h8ce80bed58c9da15E_811_, 979
_ZN130_$LT$png..common..Transformations$u20$as$u20$$LT$png..common..Transformations$u20$as$u20$core..fmt..Debug$GT$..fmt..__BitFlags$GT$18STRIP_FILLER_AFTER17h8b2ff0bff4aeb853E_812_, 980
_ZN4core4iter6traits8iterator8Iterator4fold17hd88b9692991d2a0dE_813_, 981
_ZN4core6option15Option$LT$T$GT$9unwrap_or17h8ce80bed58c9da15E_814_, 982
_ZN4core6option15Option$LT$T$GT$3map17h62f15030b7c554b2E_815_, 983
_ZN111_$LT$core..iter..adapters..zip..Zip$LT$A$C$B$GT$$u20$as$u20$core..iter..adapters..zip..ZipImpl$LT$A$C$B$GT$$GT$4next17h344b94838f46062aE_816_, 984
_ZN4core4iter6traits8iterator8Iterator8try_fold17h6e3cb15cd4d0dd24E_817_, 985
_ZN66_$LT$core..option..Option$LT$T$GT$$u20$as$u20$core..fmt..Debug$GT$3fmt17h7f4a4b523075d69aE_818_, 986
_ZN4core6option15Option$LT$T$GT$9unwrap_or17h8ce80bed58c9da15E_819_, 987
_ZN5image6codecs3ico7decoder10read_entry17h84ccb48ec7de8e00E_820_, 988
_ZN4core3cmp10PartialOrd2lt17h74a20fce2828e43eE_821_, 989
_ZN4core6option15Option$LT$T$GT$9unwrap_or17h8ce80bed58c9da15E_822_, 990
_ZN4core6option15Option$LT$T$GT$9unwrap_or17h8ce80bed58c9da15E_823_, 991
_ZN4core3ptr65drop_in_place$LT$core..option..Option$LT$weezl..StreamBuf$GT$$GT$17hab39435439ff229fE_824_, 992
_ZN111_$LT$core..iter..adapters..zip..Zip$LT$A$C$B$GT$$u20$as$u20$core..iter..adapters..zip..ZipImpl$LT$A$C$B$GT$$GT$4next17h495ad7648bf10354E_825_, 993
_ZN8bytemuck10cast_slice17h7b28e47f7b743836E_827_, 994
_ZN4core6option15Option$LT$T$GT$3map17h83ac2c71ca32f8a9E_828_, 995
_ZN4core6option15Option$LT$T$GT$3map17h62f15030b7c554b2E_829_, 996
_ZN111_$LT$core..iter..adapters..zip..Zip$LT$A$C$B$GT$$u20$as$u20$core..iter..adapters..zip..ZipImpl$LT$A$C$B$GT$$GT$4next17hc0ff4e9041e9037aE_830_, 997
_ZN4core3cmp5impls50_$LT$impl$u20$core..cmp..Ord$u20$for$u20$isize$GT$3cmp17h320342f6de7fecaaE_831_, 998
_ZN66_$LT$image..error..ParameterError$u20$as$u20$std..error..Error$GT$6source17h0ea6de21718273e4E_833_, 999
_ZN66_$LT$core..option..Option$LT$T$GT$$u20$as$u20$core..fmt..Debug$GT$3fmt17h7f4a4b523075d69aE_834_, 1000
_ZN107_$LT$core..iter..adapters..fuse..Fuse$LT$I$GT$$u20$as$u20$core..iter..adapters..fuse..FuseImpl$LT$I$GT$$GT$8try_fold17h957a34c799108b9eE_835_, 1001
_ZN4core5slice4iter20ChunksExact$LT$T$GT$3new17h490f876282e7271dE_837_, 1002
_ZN4core6result19Result$LT$T$C$E$GT$7map_err17h99d4d0931147a915E_838_, 1003
_ZN75_$LT$core..option..Option$LT$T$GT$$u20$as$u20$core..ops..try_trait..Try$GT$6branch17ha92a25d5a9328bd1E_839_, 1004
_ZN4core3cmp10PartialOrd2lt17h74a20fce2828e43eE_840_, 1005
_ZN111_$LT$core..iter..adapters..zip..Zip$LT$A$C$B$GT$$u20$as$u20$core..iter..adapters..zip..ZipImpl$LT$A$C$B$GT$$GT$4next17h344b94838f46062aE_841_, 1006
_ZN4core4char7methods22_$LT$impl$u20$char$GT$13is_whitespace17hcfe3bc6be7c06ca1E_842_, 1007
_ZN63_$LT$I$u20$as$u20$core..iter..traits..collect..IntoIterator$GT$9into_iter17h9905b3ee57967906E_842_, 1008
_ZN4core3ptr65drop_in_place$LT$core..option..Option$LT$weezl..StreamBuf$GT$$GT$17hab39435439ff229fE_843_, 1009
_ZN4core4iter6traits8iterator8Iterator8try_fold17h6e3cb15cd4d0dd24E_844_, 1010
_ZN107_$LT$core..iter..adapters..fuse..Fuse$LT$I$GT$$u20$as$u20$core..iter..adapters..fuse..FuseImpl$LT$I$GT$$GT$8try_fold17h957a34c799108b9eE_845_, 1011
_ZN4core6option15Option$LT$T$GT$3map17h2dfbad31fb31d4f7E_846_, 1012
_ZN105_$LT$image..color..Bgr$LT$T$GT$$u20$as$u20$image..color..FromColor$LT$image..color..Rgba$LT$T$GT$$GT$$GT$10from_color17h738b0de0f3283b7eE_847_, 1013
_ZN4core6option15Option$LT$T$GT$9unwrap_or17h8ce80bed58c9da15E_848_, 1014
_ZN5image6codecs4jpeg7encoder17build_scan_header17h591a8464a2132c7cE_849_, 1015
_ZN5image6codecs3ico7decoder10read_entry17h84ccb48ec7de8e00E_851_, 1016
_ZN4core4iter8adapters4fuse13Fuse$LT$I$GT$3new17hfe3a979e5677b937E_852_, 1017
_ZN76_$LT$gif..encoder..BlockWriter$LT$W$GT$$u20$as$u20$core..ops..drop..Drop$GT$4drop17h42821cc4beeaa379E_852_, 1018
_ZN4core6option15Option$LT$T$GT$9unwrap_or17h8ce80bed58c9da15E_853_, 1019
_ZN4core6option15Option$LT$T$GT$9unwrap_or17h8ce80bed58c9da15E_854_, 1020
_ZN111_$LT$core..iter..adapters..zip..Zip$LT$A$C$B$GT$$u20$as$u20$core..iter..adapters..zip..ZipImpl$LT$A$C$B$GT$$GT$4next17hc0ff4e9041e9037aE_855_, 1021
_ZN5image6codecs3bmp7decoder18set_2bit_pixel_run17hc34b365783160e24E_856_, 1022
_ZN4core3cmp10PartialOrd2lt17h74a20fce2828e43eE_857_, 1023
_ZN4core6option47Option$LT$core..result..Result$LT$T$C$E$GT$$GT$9transpose17he43841c2093c2f73E_859_, 1024
_ZN5image6codecs3tga7decoder19TgaDecoder$LT$R$GT$21is_flipped_vertically17h77aed2b06b6c01daE_860_, 1025
_ZN4core6option15Option$LT$T$GT$9unwrap_or17h8ce80bed58c9da15E_861_, 1026
_ZN4core4iter6traits8iterator8Iterator8try_fold17h6e3cb15cd4d0dd24E_862_, 1027
_ZN66_$LT$core..option..Option$LT$T$GT$$u20$as$u20$core..fmt..Debug$GT$3fmt17h7f4a4b523075d69aE_863_, 1028
_ZN4core4iter6traits8iterator8Iterator8try_fold17h6e3cb15cd4d0dd24E_864_, 1029
_ZN111_$LT$core..iter..adapters..zip..Zip$LT$A$C$B$GT$$u20$as$u20$core..iter..adapters..zip..ZipImpl$LT$A$C$B$GT$$GT$4next17hc0ff4e9041e9037aE_865_, 1030
_ZN4core3ops8function6FnOnce9call_once17hc3b3c146f0ec0a7bE_867_, 1031
_ZN4tiff7encoder20TiffEncoder$LT$W$GT$11write_image17h71cd139daf78bf54E_867_, 1032
_ZN80_$LT$core..str..pattern..StrSearcher$u20$as$u20$core..str..pattern..Searcher$GT$4next17he812986a6604b9f8E_869_, 1033
_ZN4core6option15Option$LT$T$GT$3map17h83ac2c71ca32f8a9E_870_, 1034
_ZN4core6option15Option$LT$T$GT$9unwrap_or17h8ce80bed58c9da15E_871_, 1035
_ZN111_$LT$core..iter..adapters..zip..Zip$LT$A$C$B$GT$$u20$as$u20$core..iter..adapters..zip..ZipImpl$LT$A$C$B$GT$$GT$4next17h495ad7648bf10354E_872_, 1036
_ZN5image6codecs4jpeg7encoder17build_scan_header17h591a8464a2132c7cE_original, 1037
_ZN4core6option15Option$LT$T$GT$9unwrap_or17h8ce80bed58c9da15E_874_, 1038
_ZN4core6option15Option$LT$T$GT$3map17h62f15030b7c554b2E_875_, 1039
_ZN5image6codecs3tga7decoder19TgaDecoder$LT$R$GT$16expand_color_map17hf31f21953e494808E_876_, 1040
_ZN4core6option15Option$LT$T$GT$9unwrap_or17h8ce80bed58c9da15E_877_, 1041
_ZN4core6option15Option$LT$T$GT$9unwrap_or17h8ce80bed58c9da15E_878_, 1042
_ZN8bytemuck10cast_slice17h7b28e47f7b743836E_879_, 1043
_ZN4core6option15Option$LT$T$GT$9unwrap_or17h8ce80bed58c9da15E_881_, 1044
_ZN4core6option15Option$LT$T$GT$9unwrap_or17h8ce80bed58c9da15E_882_, 1045
_ZN4core6option15Option$LT$T$GT$6expect17h33b3d106e33e8437E_883_, 1046
_ZN111_$LT$core..iter..adapters..zip..Zip$LT$A$C$B$GT$$u20$as$u20$core..iter..adapters..zip..ZipImpl$LT$A$C$B$GT$$GT$4next17hc0ff4e9041e9037aE_884_, 1047
_ZN4core6option15Option$LT$T$GT$3map17h83ac2c71ca32f8a9E_885_, 1048
_ZN4core6option15Option$LT$T$GT$9unwrap_or17h8ce80bed58c9da15E_886_, 1049
_ZN4core6option15Option$LT$T$GT$9unwrap_or17h8ce80bed58c9da15E_887_, 1050
_ZN4core3cmp10PartialOrd2lt17h74a20fce2828e43eE_888_, 1051
_ZN5image6codecs3tga7decoder19TgaDecoder$LT$R$GT$21is_flipped_vertically17h77aed2b06b6c01daE_889_, 1052
_ZN4core6option15Option$LT$T$GT$5ok_or17ha615b22f03a42152E_890_, 1053
_ZN82_$LT$std..io..buffered..bufreader..BufReader$LT$R$GT$$u20$as$u20$std..io..Read$GT$4read17hd3e35390d92b8406E_891_, 1054
_ZN82_$LT$tiff..encoder..ImageEncoder$LT$W$C$C$GT$$u20$as$u20$core..ops..drop..Drop$GT$4drop17h17f1ada82af839cfE_891_, 1055
_ZN8bytemuck14cast_slice_mut17h4023ac7a00be0a7eE_892_, 1056
_ZN111_$LT$core..iter..adapters..zip..Zip$LT$A$C$B$GT$$u20$as$u20$core..iter..adapters..zip..ZipImpl$LT$A$C$B$GT$$GT$4next17h495ad7648bf10354E_893_, 1057
_ZN130_$LT$png..common..Transformations$u20$as$u20$$LT$png..common..Transformations$u20$as$u20$core..fmt..Debug$GT$..fmt..__BitFlags$GT$18STRIP_FILLER_AFTER17h8b2ff0bff4aeb853E_894_, 1058
_ZN111_$LT$core..iter..adapters..zip..Zip$LT$A$C$B$GT$$u20$as$u20$core..iter..adapters..zip..ZipImpl$LT$A$C$B$GT$$GT$4next17h344b94838f46062aE_895_, 1059
_ZN4core6option15Option$LT$T$GT$9unwrap_or17h8ce80bed58c9da15E_896_, 1060
_ZN5image6codecs3bmp7decoder18set_2bit_pixel_run17hc34b365783160e24E_897_, 1061
_ZN111_$LT$core..iter..adapters..zip..Zip$LT$A$C$B$GT$$u20$as$u20$core..iter..adapters..zip..ZipImpl$LT$A$C$B$GT$$GT$4next17h495ad7648bf10354E_898_, 1062
_ZN4core6result19Result$LT$T$C$E$GT$3map17h4d8bfd9bcd90b7b3E_899_, 1063
_ZN4core6option15Option$LT$T$GT$9unwrap_or17h8ce80bed58c9da15E_900_, 1064
_ZN4core3cmp10PartialOrd2lt17h74a20fce2828e43eE_901_, 1065
_ZN4core4iter6traits8iterator8Iterator8try_fold17h6e3cb15cd4d0dd24E_902_, 1066
_ZN4tiff7decoder6stream12EndianReader8read_i3217hfdbca248c262029aE_903_, 1067
_ZN111_$LT$core..iter..adapters..zip..Zip$LT$A$C$B$GT$$u20$as$u20$core..iter..adapters..zip..ZipImpl$LT$A$C$B$GT$$GT$4next17h495ad7648bf10354E_904_, 1068
_ZN4core6option15Option$LT$T$GT$9unwrap_or17h8ce80bed58c9da15E_905_, 1069
_ZN4core6option15Option$LT$T$GT$9unwrap_or17h8ce80bed58c9da15E_906_, 1070
_ZN4core6option15Option$LT$T$GT$9unwrap_or17h8ce80bed58c9da15E_907_, 1071
_ZN107_$LT$core..iter..adapters..fuse..Fuse$LT$I$GT$$u20$as$u20$core..iter..adapters..fuse..FuseImpl$LT$I$GT$$GT$8try_fold17h957a34c799108b9eE_908_, 1072
_ZN111_$LT$core..iter..adapters..zip..Zip$LT$A$C$B$GT$$u20$as$u20$core..iter..adapters..zip..ZipImpl$LT$A$C$B$GT$$GT$4next17hc0ff4e9041e9037aE_909_, 1073
_ZN4core6option15Option$LT$T$GT$9unwrap_or17h8ce80bed58c9da15E_910_, 1074
_ZN3png6common15deflate_convert130_$LT$impl$u20$core..convert..From$LT$png..common..Compression$GT$$u20$for$u20$deflate..compression_options..CompressionOptions$GT$4from17h47b47fc48ccaa619E_911_, 1075
_ZN4core4iter6traits8iterator8Iterator3nth17h7c59d588296c5d75E_912_, 1076
_ZN4core6option15Option$LT$T$GT$6expect17h33b3d106e33e8437E_913_, 1077
_ZN4core6option15Option$LT$T$GT$5ok_or17ha615b22f03a42152E_914_, 1078
_ZN4core6result19Result$LT$T$C$E$GT$3map17h4d8bfd9bcd90b7b3E_915_, 1079
_ZN4core3ptr65drop_in_place$LT$core..option..Option$LT$weezl..StreamBuf$GT$$GT$17hab39435439ff229fE_916_, 1080
_ZN4core6option15Option$LT$T$GT$3map17h83ac2c71ca32f8a9E_917_, 1081
_ZN4core6option15Option$LT$T$GT$3map17h83ac2c71ca32f8a9E_918_, 1082
_ZN4core6option15Option$LT$T$GT$3map17h62f15030b7c554b2E_919_, 1083
_ZN4core3cmp10PartialOrd2lt17h74a20fce2828e43eE_920_, 1084
_ZN4core6option15Option$LT$T$GT$6as_mut17hf71675d610d15f3fE_original, 1085
_ZN4core6option15Option$LT$T$GT$9unwrap_or17h8ce80bed58c9da15E_922_, 1086
_ZN4core4iter6traits8iterator8Iterator8try_fold17h6e3cb15cd4d0dd24E_923_, 1087
_ZN4core6option15Option$LT$T$GT$9unwrap_or17h8ce80bed58c9da15E_924_, 1088
_ZN236_$LT$image..buffer_..ImageBuffer$LT$FromType$C$Container$GT$$u20$as$u20$image..buffer_..ConvertBuffer$LT$image..buffer_..ImageBuffer$LT$ToType$C$alloc..vec..Vec$LT$$LT$ToType$u20$as$u20$image..traits..Pixel$GT$..Subpixel$GT$$GT$$GT$$GT$7convert17hcd7d15d86f3e3b99E_925_, 1089
_ZN4core6option15Option$LT$T$GT$9unwrap_or17h8ce80bed58c9da15E_926_, 1090
_ZN107_$LT$core..iter..adapters..fuse..Fuse$LT$I$GT$$u20$as$u20$core..iter..adapters..fuse..FuseImpl$LT$I$GT$$GT$8try_fold17h957a34c799108b9eE_928_, 1091
_ZN4core6option47Option$LT$core..result..Result$LT$T$C$E$GT$$GT$9transpose17he43841c2093c2f73E_929_, 1092
_ZN75_$LT$core..option..Option$LT$T$GT$$u20$as$u20$core..ops..try_trait..Try$GT$6branch17ha92a25d5a9328bd1E_930_, 1093
_ZN4core6option15Option$LT$T$GT$9unwrap_or17h8ce80bed58c9da15E_931_, 1094
_ZN4core6option15Option$LT$T$GT$9unwrap_or17h8ce80bed58c9da15E_932_, 1095
_ZN4core6option15Option$LT$T$GT$9unwrap_or17h8ce80bed58c9da15E_933_, 1096
_ZN4core6option15Option$LT$T$GT$9unwrap_or17h8ce80bed58c9da15E_934_, 1097
_ZN4core6result19Result$LT$T$C$E$GT$7map_err17h99d4d0931147a915E_935_, 1098
_ZN3std2io4Read5bytes17h38adebbc40ab3a18E_original, 1099
_ZN236_$LT$image..buffer_..ImageBuffer$LT$FromType$C$Container$GT$$u20$as$u20$image..buffer_..ConvertBuffer$LT$image..buffer_..ImageBuffer$LT$ToType$C$alloc..vec..Vec$LT$$LT$ToType$u20$as$u20$image..traits..Pixel$GT$..Subpixel$GT$$GT$$GT$$GT$7convert17h218796699906a13cE_936_, 1100
_ZN4core4iter6traits8iterator8Iterator8try_fold17h6e3cb15cd4d0dd24E_937_, 1101
_ZN5image6codecs3pnm7decoder19PnmDecoder$LT$R$GT$18read_bitmap_header17hdf1f299bfd8edaa3E_original, 1102
_ZN109_$LT$core..iter..adapters..scan..Scan$LT$I$C$St$C$F$GT$$u20$as$u20$core..iter..traits..iterator..Iterator$GT$8try_fold4scan28_$u7b$$u7b$closure$u7d$$u7d$17h77fbe3d04892ed88E_940_, 1103
_ZN4tiff7decoder6stream12EndianReader8read_i3217hfdbca248c262029aE_941_, 1104
_ZN130_$LT$png..common..Transformations$u20$as$u20$$LT$png..common..Transformations$u20$as$u20$core..fmt..Debug$GT$..fmt..__BitFlags$GT$18STRIP_FILLER_AFTER17h8b2ff0bff4aeb853E_942_, 1105
_ZN4core3cmp10PartialOrd2lt17h74a20fce2828e43eE_943_, 1106
_ZN61_$LT$png..common..Compression$u20$as$u20$core..fmt..Debug$GT$3fmt17h3f947549fef23fb8E_944_, 1107
_ZN3gif7encoder16Encoder$LT$W$GT$15write_extension17h31216512db391286E_945_, 1108
_ZN4core6option15Option$LT$T$GT$9unwrap_or17h8ce80bed58c9da15E_947_, 1109
_ZN4core6option15Option$LT$T$GT$3map17h83ac2c71ca32f8a9E_948_, 1110
_ZN107_$LT$core..iter..adapters..fuse..Fuse$LT$I$GT$$u20$as$u20$core..iter..adapters..fuse..FuseImpl$LT$I$GT$$GT$8try_fold17h957a34c799108b9eE_949_, 1111
_ZN3png7decoder15Reader$LT$R$GT$19next_interlaced_row17h68379df29e9bf069E_original, 1112
_ZN4core4iter6traits8iterator8Iterator8try_fold17h6e3cb15cd4d0dd24E_951_, 1113
_ZN111_$LT$core..iter..adapters..zip..Zip$LT$A$C$B$GT$$u20$as$u20$core..iter..adapters..zip..ZipImpl$LT$A$C$B$GT$$GT$4next17h495ad7648bf10354E_952_, 1114
_ZN4core6option15Option$LT$T$GT$5ok_or17ha615b22f03a42152E_953_, 1115
_ZN4core6option15Option$LT$T$GT$9unwrap_or17h8ce80bed58c9da15E_954_, 1116
_ZN4core6option15Option$LT$T$GT$3map17h83ac2c71ca32f8a9E_955_, 1117
_ZN4core6option15Option$LT$T$GT$10ok_or_else17h714edbb4d408b0d8E_original, 1118
_ZN4core6option15Option$LT$T$GT$9unwrap_or17h8ce80bed58c9da15E_957_, 1119
_ZN80_$LT$core..str..pattern..StrSearcher$u20$as$u20$core..str..pattern..Searcher$GT$4next17he812986a6604b9f8E_958_, 1120
_ZN108_$LT$image..color..Rgba$LT$u16$GT$$u20$as$u20$image..color..FromColor$LT$image..color..Rgb$LT$u8$GT$$GT$$GT$10from_color17h76fcdf3a3a485207E_959_, 1121
_ZN78_$LT$image..codecs..hdr..decoder..DecoderError$u20$as$u20$core..fmt..Debug$GT$3fmt17ha86f6209a003f6e6E_959_, 1122
_ZN111_$LT$core..iter..adapters..zip..Zip$LT$A$C$B$GT$$u20$as$u20$core..iter..adapters..zip..ZipImpl$LT$A$C$B$GT$$GT$4next17h495ad7648bf10354E_960_, 1123
_ZN4core6option15Option$LT$T$GT$3map17ha90f874f66362a6eE_961_, 1124
_ZN4core4iter6traits8iterator8Iterator8try_fold17h6e3cb15cd4d0dd24E_962_, 1125
_ZN4core3ptr65drop_in_place$LT$core..option..Option$LT$weezl..StreamBuf$GT$$GT$17hab39435439ff229fE_963_, 1126
_ZN5image6codecs3tga7decoder19TgaDecoder$LT$R$GT$21is_flipped_vertically17h77aed2b06b6c01daE_964_, 1127
_ZN4tiff7decoder6stream12EndianReader8read_i3217hfdbca248c262029aE_965_, 1128
_ZN4core6option15Option$LT$T$GT$9unwrap_or17h8ce80bed58c9da15E_966_, 1129
_ZN3std5error5Error7type_id17hfd955b4c1723556bE_967_, 1130
_ZN4core4iter6traits8iterator8Iterator8try_fold17h6e3cb15cd4d0dd24E_968_, 1131
_ZN4core6option15Option$LT$T$GT$9unwrap_or17h8ce80bed58c9da15E_969_, 1132
_ZN111_$LT$core..iter..adapters..zip..Zip$LT$A$C$B$GT$$u20$as$u20$core..iter..adapters..zip..ZipImpl$LT$A$C$B$GT$$GT$4next17h495ad7648bf10354E_970_, 1133
_ZN4core6option15Option$LT$T$GT$9unwrap_or17h8ce80bed58c9da15E_971_, 1134
_ZN130_$LT$png..common..Transformations$u20$as$u20$$LT$png..common..Transformations$u20$as$u20$core..fmt..Debug$GT$..fmt..__BitFlags$GT$18STRIP_FILLER_AFTER17h8b2ff0bff4aeb853E_972_, 1135
_ZN4core6option15Option$LT$T$GT$9unwrap_or17h8ce80bed58c9da15E_973_, 1136
_ZN4tiff7decoder6stream12EndianReader8read_i3217hfdbca248c262029aE_974_, 1137
_ZN102_$LT$core..iter..adapters..zip..Zip$LT$A$C$B$GT$$u20$as$u20$core..iter..traits..iterator..Iterator$GT$4next17h9fa731e74ddd253dE_975_, 1138
_ZN3std2io18default_read_exact17hb94d646ae2196fabE_975_, 1139
_ZN75_$LT$usize$u20$as$u20$core..slice..index..SliceIndex$LT$$u5b$T$u5d$$GT$$GT$17get_unchecked_mut17h300872ed10df0be7E_975_, 1140
_ZN4core6option47Option$LT$core..result..Result$LT$T$C$E$GT$$GT$9transpose17he43841c2093c2f73E_976_, 1141
_ZN12jpeg_decoder6parser9parse_sos17hc7f5dff8533ec723E_977_, 1142
_ZN4core6option15Option$LT$T$GT$9unwrap_or17h8ce80bed58c9da15E_978_, 1143
_ZN4core6option15Option$LT$T$GT$9unwrap_or17h8ce80bed58c9da15E_979_, 1144
_ZN75_$LT$core..option..Option$LT$T$GT$$u20$as$u20$core..ops..try_trait..Try$GT$6branch17ha92a25d5a9328bd1E_980_, 1145
_ZN4core6option15Option$LT$T$GT$9unwrap_or17h8ce80bed58c9da15E_981_, 1146
_ZN4core6option15Option$LT$T$GT$9unwrap_or17h8ce80bed58c9da15E_982_, 1147
_ZN4core6option15Option$LT$T$GT$9unwrap_or17h8ce80bed58c9da15E_983_, 1148
_ZN5image6codecs3tga7decoder19TgaDecoder$LT$R$GT$21is_flipped_vertically17h77aed2b06b6c01daE_984_, 1149
_ZN111_$LT$alloc..vec..Vec$LT$T$GT$$u20$as$u20$alloc..vec..spec_from_iter_nested..SpecFromIterNested$LT$T$C$I$GT$$GT$9from_iter17hc79e326a3aaaf41dE_985_, 1150
_ZN3std5error5Error5cause17hbe7f47cd629cb24bE_985_, 1151
_ZN4core3num21_$LT$impl$u20$i16$GT$7from_le17h2224e58aef0ee9dcE_985_, 1152
_ZN4core4iter6traits8iterator8Iterator4find5check17h08b52e1c880d4b7dE_985_, 1153
_ZN111_$LT$core..iter..adapters..zip..Zip$LT$A$C$B$GT$$u20$as$u20$core..iter..adapters..zip..ZipImpl$LT$A$C$B$GT$$GT$4next17h495ad7648bf10354E_986_, 1154
_ZN4core6option15Option$LT$T$GT$9unwrap_or17h8ce80bed58c9da15E_987_, 1155
_ZN111_$LT$core..iter..adapters..zip..Zip$LT$A$C$B$GT$$u20$as$u20$core..iter..adapters..zip..ZipImpl$LT$A$C$B$GT$$GT$4next17h495ad7648bf10354E_988_, 1156
_ZN4core3ptr65drop_in_place$LT$core..option..Option$LT$weezl..StreamBuf$GT$$GT$17hab39435439ff229fE_original, 1157
_ZN8bytemuck10cast_slice17h7b28e47f7b743836E_990_, 1158
_ZN4core6option15Option$LT$T$GT$9unwrap_or17h8ce80bed58c9da15E_991_, 1159
_ZN130_$LT$png..common..Transformations$u20$as$u20$$LT$png..common..Transformations$u20$as$u20$core..fmt..Debug$GT$..fmt..__BitFlags$GT$18STRIP_FILLER_AFTER17h8b2ff0bff4aeb853E_993_, 1160
_ZN4core6option15Option$LT$T$GT$3map17h83ac2c71ca32f8a9E_994_, 1161
_ZN4core6option47Option$LT$core..result..Result$LT$T$C$E$GT$$GT$9transpose17he43841c2093c2f73E_995_, 1162
_ZN153_$LT$core..result..Result$LT$T$C$F$GT$$u20$as$u20$core..ops..try_trait..FromResidual$LT$core..result..Result$LT$core..convert..Infallible$C$E$GT$$GT$$GT$13from_residual17h571fa2b99265a39fE_original, 1163
_ZN3png7decoder15Reader$LT$R$GT$9line_size17hd697ec76058bfc83E_original, 1164
_ZN5image8dynimage12DynamicImage14as_luma_alpha817h884885172accc8c0E_original, 1165
_ZN4core3cmp10PartialOrd2lt17h74a20fce2828e43eE_997_, 1166
_ZN4core6option15Option$LT$T$GT$9unwrap_or17h8ce80bed58c9da15E_998_, 1167
_ZN5image6codecs3bmp7decoder18set_2bit_pixel_run17hc34b365783160e24E_999_, 1168
_ZN68_$LT$core..option..Option$LT$T$GT$$u20$as$u20$core..clone..Clone$GT$5clone17h7c4ed7cc0844d274E_1000_, 1169
_ZN107_$LT$core..iter..adapters..fuse..Fuse$LT$I$GT$$u20$as$u20$core..iter..adapters..fuse..FuseImpl$LT$I$GT$$GT$8try_fold17h957a34c799108b9eE_1001_, 1170
_ZN4core6option47Option$LT$core..result..Result$LT$T$C$E$GT$$GT$9transpose17he43841c2093c2f73E_1002_, 1171
_ZN111_$LT$core..iter..adapters..zip..Zip$LT$A$C$B$GT$$u20$as$u20$core..iter..adapters..zip..ZipImpl$LT$A$C$B$GT$$GT$4next17hc0ff4e9041e9037aE_1003_, 1172
_ZN4core3cmp10PartialOrd2lt17h74a20fce2828e43eE_1004_, 1173
_ZN4core6option15Option$LT$T$GT$9unwrap_or17h8ce80bed58c9da15E_1005_, 1174
_ZN5image6codecs3tga7decoder19TgaDecoder$LT$R$GT$21is_flipped_vertically17h77aed2b06b6c01daE_1007_, 1175
_ZN4core6option15Option$LT$T$GT$9unwrap_or17h8ce80bed58c9da15E_1008_, 1176
_ZN4core6result19Result$LT$T$C$E$GT$3map17h4d8bfd9bcd90b7b3E_original, 1177
_ZN8bytemuck14cast_slice_mut17h4023ac7a00be0a7eE_1010_, 1178
_ZN107_$LT$core..iter..adapters..fuse..Fuse$LT$I$GT$$u20$as$u20$core..iter..adapters..fuse..FuseImpl$LT$I$GT$$GT$8try_fold17h957a34c799108b9eE_1011_, 1179
_ZN57_$LT$png..common..BlendOp$u20$as$u20$core..fmt..Debug$GT$3fmt17hf31a4d638767ba53E_1012_, 1180
_ZN4core3ptr65drop_in_place$LT$core..option..Option$LT$weezl..StreamBuf$GT$$GT$17hab39435439ff229fE_1013_, 1181
_ZN4core6option15Option$LT$T$GT$9unwrap_or17h8ce80bed58c9da15E_1014_, 1182
_ZN4core6option47Option$LT$core..result..Result$LT$T$C$E$GT$$GT$9transpose17he43841c2093c2f73E_1015_, 1183
_ZN111_$LT$core..iter..adapters..zip..Zip$LT$A$C$B$GT$$u20$as$u20$core..iter..adapters..zip..ZipImpl$LT$A$C$B$GT$$GT$4next17h495ad7648bf10354E_1016_, 1184
_ZN4core6option15Option$LT$T$GT$9unwrap_or17h8ce80bed58c9da15E_1017_, 1185
_ZN5image6codecs3ico7decoder10read_entry17h84ccb48ec7de8e00E_1019_, 1186
_ZN4core6option15Option$LT$T$GT$3map17h83ac2c71ca32f8a9E_1020_, 1187
_ZN5image6codecs3tga7decoder19TgaDecoder$LT$R$GT$21is_flipped_vertically17h77aed2b06b6c01daE_1021_, 1188
_ZN5image4math2nq8NeuQuant8index_of17h0afafc5acad13a7fE_1022_, 1189
_ZN107_$LT$core..iter..adapters..fuse..Fuse$LT$I$GT$$u20$as$u20$core..iter..adapters..fuse..FuseImpl$LT$I$GT$$GT$8try_fold17h957a34c799108b9eE_1023_, 1190
_ZN4core6option15Option$LT$T$GT$5ok_or17ha615b22f03a42152E_1024_, 1191
_ZN4core6option15Option$LT$T$GT$6as_mut17hf71675d610d15f3fE_1025_, 1192
_ZN111_$LT$alloc..vec..Vec$LT$T$GT$$u20$as$u20$alloc..vec..spec_from_iter_nested..SpecFromIterNested$LT$T$C$I$GT$$GT$9from_iter17h339176d3ca90d853E_1026_, 1193
_ZN4core4char7methods15encode_utf8_raw17hfdc6ee0c7f45eaebE_1028_, 1194
_ZN4core4iter6traits8iterator8Iterator8try_fold17h6e3cb15cd4d0dd24E_1029_, 1195
_ZN4core6option15Option$LT$T$GT$3map17h83ac2c71ca32f8a9E_1030_, 1196
_ZN4core6result19Result$LT$T$C$E$GT$5is_ok17h300de609953bd91dE_1031_, 1197
_ZN4core6option15Option$LT$T$GT$9unwrap_or17h8ce80bed58c9da15E_1032_, 1198
_ZN4core6option15Option$LT$T$GT$9unwrap_or17h8ce80bed58c9da15E_1033_, 1199
_ZN4core6option47Option$LT$core..result..Result$LT$T$C$E$GT$$GT$9transpose17he43841c2093c2f73E_1034_, 1200
_ZN5image6codecs3bmp7decoder18set_2bit_pixel_run17hc34b365783160e24E_1035_, 1201
_ZN4core6option15Option$LT$T$GT$9unwrap_or17h8ce80bed58c9da15E_1037_, 1202
_ZN4core4iter6traits8iterator8Iterator8try_fold17h6e3cb15cd4d0dd24E_1038_, 1203
_ZN4core3cmp10PartialOrd2lt17h74a20fce2828e43eE_1039_, 1204
_ZN4core6option15Option$LT$T$GT$9unwrap_or17h8ce80bed58c9da15E_1040_, 1205
_ZN4core4iter6traits8iterator8Iterator8try_fold17h6e3cb15cd4d0dd24E_1041_, 1206
_ZN4core6option15Option$LT$T$GT$9unwrap_or17h8ce80bed58c9da15E_1042_, 1207
_ZN57_$LT$png..common..BlendOp$u20$as$u20$core..fmt..Debug$GT$3fmt17hf31a4d638767ba53E_1043_, 1208
_ZN75_$LT$core..option..Option$LT$T$GT$$u20$as$u20$core..ops..try_trait..Try$GT$6branch17ha92a25d5a9328bd1E_1044_, 1209
_ZN4core4iter6traits8iterator8Iterator3nth17h7c59d588296c5d75E_1045_, 1210
_ZN4core3cmp10PartialOrd2lt17h74a20fce2828e43eE_1046_, 1211
_ZN4core6option15Option$LT$T$GT$3map17ha90f874f66362a6eE_1047_, 1212
_ZN4core6option15Option$LT$T$GT$9unwrap_or17h8ce80bed58c9da15E_1048_, 1213
_ZN4core6result19Result$LT$T$C$E$GT$7map_err17h99d4d0931147a915E_1049_, 1214
_ZN4core6option47Option$LT$core..result..Result$LT$T$C$E$GT$$GT$9transpose17he43841c2093c2f73E_1050_, 1215
_ZN4core6result19Result$LT$T$C$E$GT$5is_ok17h300de609953bd91dE_1051_, 1216
_ZN4core6option15Option$LT$T$GT$9unwrap_or17h8ce80bed58c9da15E_1052_, 1217
_ZN111_$LT$core..iter..adapters..zip..Zip$LT$A$C$B$GT$$u20$as$u20$core..iter..adapters..zip..ZipImpl$LT$A$C$B$GT$$GT$4next17h495ad7648bf10354E_1053_, 1218
_ZN102_$LT$core..iter..adapters..zip..Zip$LT$A$C$B$GT$$u20$as$u20$core..iter..traits..iterator..Iterator$GT$4next17hb64c490d1a6d3a73E_1054_, 1219
_ZN5alloc5slice4hack6to_vec17hfd55395bf7646009E_1054_, 1220
_ZN5image6codecs3bmp7encoder19BmpEncoder$LT$W$GT$10encode_rgb17hb6406b059794e6c9E_1054_, 1221
_ZN236_$LT$image..buffer_..ImageBuffer$LT$FromType$C$Container$GT$$u20$as$u20$image..buffer_..ConvertBuffer$LT$image..buffer_..ImageBuffer$LT$ToType$C$alloc..vec..Vec$LT$$LT$ToType$u20$as$u20$image..traits..Pixel$GT$..Subpixel$GT$$GT$$GT$$GT$7convert17hcd7d15d86f3e3b99E_1055_, 1222
_ZN3gif7encoder16Encoder$LT$W$GT$15write_extension17h31216512db391286E_1056_, 1223
_ZN3gif7encoder16Encoder$LT$W$GT$15write_extension17h31216512db391286E_original, 1224
_ZN5image6codecs3ico7decoder10read_entry17h84ccb48ec7de8e00E_1058_, 1225
_ZN4core6option15Option$LT$T$GT$5ok_or17ha615b22f03a42152E_1059_, 1226
_ZN8bytemuck14cast_slice_mut17h4023ac7a00be0a7eE_1060_, 1227
_ZN4core6option15Option$LT$T$GT$9unwrap_or17h8ce80bed58c9da15E_1061_, 1228
_ZN4core6option15Option$LT$T$GT$9unwrap_or17h8ce80bed58c9da15E_1062_, 1229
_ZN4core6option15Option$LT$T$GT$9unwrap_or17h8ce80bed58c9da15E_1063_, 1230
_ZN4core5array85_$LT$impl$u20$core..ops..index..Index$LT$I$GT$$u20$for$u20$$u5b$T$u3b$$u20$N$u5d$$GT$5index17he2419c2324a34880E_1064_, 1231
_ZN4core3cmp10PartialOrd2lt17h74a20fce2828e43eE_1065_, 1232
_ZN5image6codecs4jpeg7encoder17build_scan_header17h591a8464a2132c7cE_1066_, 1233
_ZN4core6option15Option$LT$T$GT$9unwrap_or17h8ce80bed58c9da15E_1068_, 1234
_ZN4core6option15Option$LT$T$GT$3map17h83ac2c71ca32f8a9E_1069_, 1235
_ZN5image6codecs3tga7decoder19TgaDecoder$LT$R$GT$21is_flipped_vertically17h77aed2b06b6c01daE_1070_, 1236
_ZN8bytemuck10cast_slice17h7b28e47f7b743836E_1071_, 1237
_ZN111_$LT$core..iter..adapters..zip..Zip$LT$A$C$B$GT$$u20$as$u20$core..iter..adapters..zip..ZipImpl$LT$A$C$B$GT$$GT$4next17h344b94838f46062aE_1072_, 1238
_ZN111_$LT$core..iter..adapters..zip..Zip$LT$A$C$B$GT$$u20$as$u20$core..iter..adapters..zip..ZipImpl$LT$A$C$B$GT$$GT$4next17hc0ff4e9041e9037aE_1073_, 1239
_ZN4core6option15Option$LT$T$GT$9unwrap_or17h8ce80bed58c9da15E_1074_, 1240
_ZN5image6codecs3tga7decoder19TgaDecoder$LT$R$GT$16expand_color_map17hf31f21953e494808E_1075_, 1241
_ZN4core6option15Option$LT$T$GT$9unwrap_or17h8ce80bed58c9da15E_1076_, 1242
_ZN107_$LT$core..iter..adapters..fuse..Fuse$LT$I$GT$$u20$as$u20$core..iter..adapters..fuse..FuseImpl$LT$I$GT$$GT$8try_fold17h957a34c799108b9eE_1077_, 1243
_ZN4core6option15Option$LT$T$GT$9unwrap_or17h8ce80bed58c9da15E_1078_, 1244
_ZN4core6result19Result$LT$T$C$E$GT$7map_err17h99d4d0931147a915E_1079_, 1245
_ZN75_$LT$core..option..Option$LT$T$GT$$u20$as$u20$core..ops..try_trait..Try$GT$6branch17ha92a25d5a9328bd1E_1080_, 1246
_ZN4core6option15Option$LT$T$GT$3map17h83ac2c71ca32f8a9E_1081_, 1247
_ZN4core6option15Option$LT$T$GT$9unwrap_or17h8ce80bed58c9da15E_1082_, 1248
_ZN4core6option15Option$LT$T$GT$3map17h83ac2c71ca32f8a9E_1083_, 1249
_ZN4core6option15Option$LT$T$GT$9unwrap_or17h8ce80bed58c9da15E_1084_, 1250
_ZN4tiff7decoder6stream12EndianReader8read_i3217hfdbca248c262029aE_1085_, 1251
_ZN80_$LT$core..str..pattern..StrSearcher$u20$as$u20$core..str..pattern..Searcher$GT$4next17he812986a6604b9f8E_1086_, 1252
_ZN5image6codecs3tga7decoder19TgaDecoder$LT$R$GT$21is_flipped_vertically17h77aed2b06b6c01daE_1087_, 1253
_ZN5image6codecs3tga7decoder19TgaDecoder$LT$R$GT$16expand_color_map17hf31f21953e494808E_1088_, 1254
_ZN4core6option47Option$LT$core..result..Result$LT$T$C$E$GT$$GT$9transpose17he43841c2093c2f73E_1089_, 1255
_ZN68_$LT$core..option..Option$LT$T$GT$$u20$as$u20$core..clone..Clone$GT$5clone17h7c4ed7cc0844d274E_1091_, 1256
_ZN4core3cmp10PartialOrd2lt17h74a20fce2828e43eE_1092_, 1257
_ZN4core6option15Option$LT$T$GT$6expect17h33b3d106e33e8437E_1093_, 1258
_ZN4core6option15Option$LT$T$GT$9unwrap_or17h8ce80bed58c9da15E_1094_, 1259
_ZN3gif7encoder16Encoder$LT$W$GT$15write_extension17h31216512db391286E_1095_, 1260
_ZN4core6option15Option$LT$T$GT$3map17h2dfbad31fb31d4f7E_1096_, 1261
_ZN130_$LT$png..common..Transformations$u20$as$u20$$LT$png..common..Transformations$u20$as$u20$core..fmt..Debug$GT$..fmt..__BitFlags$GT$18STRIP_FILLER_AFTER17h8b2ff0bff4aeb853E_1097_, 1262
_ZN4core6option15Option$LT$T$GT$3map17h83ac2c71ca32f8a9E_1098_, 1263
_ZN4core6option15Option$LT$T$GT$3map17h83ac2c71ca32f8a9E_1099_, 1264
_ZN4core6result19Result$LT$T$C$E$GT$14unwrap_or_else17h0f0161efe2cdc057E_1101_, 1265
_ZN63_$LT$I$u20$as$u20$core..iter..traits..collect..IntoIterator$GT$9into_iter17h60d03248cbf2bb79E_1101_, 1266
_ZN5image6codecs3pnm7encoder19PnmEncoder$LT$W$GT$12with_subtype17h3f79a6698a44dc0eE_1101_, 1267
_ZN4core6result19Result$LT$T$C$E$GT$5is_ok17h300de609953bd91dE_1102_, 1268
_ZN4core6option15Option$LT$T$GT$6as_mut17hf71675d610d15f3fE_1103_, 1269
_ZN4core6option15Option$LT$T$GT$9unwrap_or17h8ce80bed58c9da15E_1104_, 1270
_ZN4core6option15Option$LT$T$GT$9unwrap_or17h8ce80bed58c9da15E_1105_, 1271
_ZN107_$LT$core..iter..adapters..fuse..Fuse$LT$I$GT$$u20$as$u20$core..iter..adapters..fuse..FuseImpl$LT$I$GT$$GT$8try_fold17h957a34c799108b9eE_1106_, 1272
_ZN4core4iter6traits8iterator8Iterator8try_fold17h6e3cb15cd4d0dd24E_1107_, 1273
_ZN5image6codecs3bmp7decoder18set_2bit_pixel_run17hc34b365783160e24E_1108_, 1274
_ZN4core6option15Option$LT$T$GT$9unwrap_or17h8ce80bed58c9da15E_1109_, 1275
_ZN4core6result19Result$LT$T$C$E$GT$5is_ok17h300de609953bd91dE_1110_, 1276
_ZN57_$LT$png..common..BlendOp$u20$as$u20$core..fmt..Debug$GT$3fmt17hf31a4d638767ba53E_1111_, 1277
_ZN4core6option15Option$LT$T$GT$9unwrap_or17h8ce80bed58c9da15E_1112_, 1278
_ZN4core6option15Option$LT$T$GT$5ok_or17ha615b22f03a42152E_1113_, 1279
_ZN3std2io4copy17stack_buffer_copy17hc2b3a0f758ad00ecE_1114_, 1280
_ZN4core4iter6traits8iterator8Iterator6max_by17h60a93aac51769605E_1114_, 1281
_ZN4core3cmp10PartialOrd2lt17h74a20fce2828e43eE_1115_, 1282
_ZN4core4iter6traits8iterator8Iterator8try_fold17h6e3cb15cd4d0dd24E_1116_, 1283
_ZN80_$LT$core..str..pattern..StrSearcher$u20$as$u20$core..str..pattern..Searcher$GT$4next17he812986a6604b9f8E_1117_, 1284
_ZN71_$LT$image..codecs..dds..DecoderError$u20$as$u20$core..fmt..Display$GT$3fmt17h6219249a85ea5eebE_original, 1285
_ZN8bytemuck10cast_slice17h7b28e47f7b743836E_1119_, 1286
_ZN4core6option15Option$LT$T$GT$5ok_or17ha615b22f03a42152E_1120_, 1287
_ZN91_$LT$core..slice..iter..Iter$LT$T$GT$$u20$as$u20$core..iter..traits..iterator..Iterator$GT$3any17h86cdd884fc69f6d2E_1121_, 1288
_ZN75_$LT$core..option..Option$LT$T$GT$$u20$as$u20$core..ops..try_trait..Try$GT$6branch17ha92a25d5a9328bd1E_original, 1289
_ZN4core6option15Option$LT$T$GT$9unwrap_or17h8ce80bed58c9da15E_1123_, 1290
_ZN4core4iter6traits8iterator8Iterator8try_fold17h6e3cb15cd4d0dd24E_1124_, 1291
_ZN107_$LT$core..iter..adapters..fuse..Fuse$LT$I$GT$$u20$as$u20$core..iter..adapters..fuse..FuseImpl$LT$I$GT$$GT$8try_fold17h957a34c799108b9eE_1125_, 1292
_ZN5image8imageops6sample30thumbnail_sample_fraction_both17h23649c2c1c595432E_original, 1293
_ZN4core6option15Option$LT$T$GT$9unwrap_or17h8ce80bed58c9da15E_1127_, 1294
_ZN4core3ptr65drop_in_place$LT$core..option..Option$LT$weezl..StreamBuf$GT$$GT$17hab39435439ff229fE_1128_, 1295
_ZN79_$LT$core..result..Result$LT$T$C$E$GT$$u20$as$u20$core..ops..try_trait..Try$GT$6branch17h2345af5a05185ac1E_1129_, 1296
_ZN111_$LT$core..iter..adapters..zip..Zip$LT$A$C$B$GT$$u20$as$u20$core..iter..adapters..zip..ZipImpl$LT$A$C$B$GT$$GT$4next17h344b94838f46062aE_1130_, 1297
_ZN4core6option15Option$LT$T$GT$9unwrap_or17h8ce80bed58c9da15E_1131_, 1298
_ZN4core6result19Result$LT$T$C$E$GT$5is_ok17h300de609953bd91dE_1132_, 1299
_ZN4core6option15Option$LT$T$GT$3map17ha90f874f66362a6eE_1133_, 1300
_ZN4core6option15Option$LT$T$GT$9unwrap_or17h8ce80bed58c9da15E_1134_, 1301
_ZN5image6codecs3tga7decoder19TgaDecoder$LT$R$GT$21is_flipped_vertically17h77aed2b06b6c01daE_1135_, 1302
_ZN4core4iter6traits8iterator8Iterator8try_fold17h6e3cb15cd4d0dd24E_1137_, 1303
_ZN5image6codecs3tga7decoder19TgaDecoder$LT$R$GT$21is_flipped_vertically17h77aed2b06b6c01daE_1138_, 1304
_ZN4core6option15Option$LT$T$GT$3map17h62f15030b7c554b2E_1139_, 1305
_ZN4core6option15Option$LT$T$GT$3map17h83ac2c71ca32f8a9E_1140_, 1306
_ZN66_$LT$core..option..Option$LT$T$GT$$u20$as$u20$core..fmt..Debug$GT$3fmt17h7f4a4b523075d69aE_1141_, 1307
_ZN91_$LT$core..slice..iter..Iter$LT$T$GT$$u20$as$u20$core..iter..traits..iterator..Iterator$GT$3any17h86cdd884fc69f6d2E_1142_, 1308
_ZN5image6codecs3tga7decoder19TgaDecoder$LT$R$GT$21is_flipped_vertically17h77aed2b06b6c01daE_1143_, 1309
_ZN4core6option15Option$LT$T$GT$3map17h83ac2c71ca32f8a9E_1144_, 1310
_ZN4core4iter6traits8iterator8Iterator8try_fold17h6e3cb15cd4d0dd24E_1146_, 1311
_ZN111_$LT$core..iter..adapters..zip..Zip$LT$A$C$B$GT$$u20$as$u20$core..iter..adapters..zip..ZipImpl$LT$A$C$B$GT$$GT$4next17h344b94838f46062aE_1147_, 1312
_ZN4core6option15Option$LT$T$GT$9unwrap_or17h8ce80bed58c9da15E_1148_, 1313
_ZN4core6option15Option$LT$T$GT$9unwrap_or17h8ce80bed58c9da15E_1149_, 1314
_ZN105_$LT$core..iter..adapters..step_by..StepBy$LT$I$GT$$u20$as$u20$core..iter..traits..iterator..Iterator$GT$4next17ha56620f560e39d9eE_1150_, 1315
_ZN4core6option15Option$LT$T$GT$9unwrap_or17h8ce80bed58c9da15E_1151_, 1316
_ZN4core6option15Option$LT$T$GT$9unwrap_or17h8ce80bed58c9da15E_1152_, 1317
_ZN4core6option15Option$LT$T$GT$3map17h83ac2c71ca32f8a9E_1153_, 1318
_ZN111_$LT$core..iter..adapters..zip..Zip$LT$A$C$B$GT$$u20$as$u20$core..iter..adapters..zip..ZipImpl$LT$A$C$B$GT$$GT$4next17h495ad7648bf10354E_1155_, 1319
_ZN4core3ptr681drop_in_place$LT$$LT$alloc..vec..Vec$LT$core..option..Option$LT$jpeg_decoder..huffman..HuffmanTable$GT$$GT$$u20$as$u20$alloc..vec..spec_extend..SpecExtend$LT$core..option..Option$LT$jpeg_decoder..huffman..HuffmanTable$GT$$C$core..iter..adapters..map..Map$LT$core..iter..adapters..zip..Zip$LT$alloc..vec..into_iter..IntoIter$LT$core..option..Option$LT$jpeg_decoder..huffman..HuffmanTable$GT$$GT$$C$alloc..vec..into_iter..IntoIter$LT$core..option..Option$LT$jpeg_decoder..huffman..HuffmanTable$GT$$GT$$GT$$C$jpeg_decoder..decoder..Decoder$LT$tiff..decoder..stream..JpegReader$GT$..decode_internal..$u7b$$u7b$closure$u7d$$u7d$$GT$$GT$$GT$..spec_extend..$u7b$$u7b$closure$u7d$$u7d$$GT$17hae631fefea5cec7cE_original, 1320
_ZN91_$LT$core..slice..iter..Iter$LT$T$GT$$u20$as$u20$core..iter..traits..iterator..Iterator$GT$8position17h171830cc48039656E_1156_, 1321
_ZN4core6option15Option$LT$T$GT$9unwrap_or17h8ce80bed58c9da15E_1157_, 1322
_ZN4core4iter6traits8iterator8Iterator8try_fold17h6e3cb15cd4d0dd24E_1158_, 1323
_ZN130_$LT$png..common..Transformations$u20$as$u20$$LT$png..common..Transformations$u20$as$u20$core..fmt..Debug$GT$..fmt..__BitFlags$GT$18STRIP_FILLER_AFTER17h8b2ff0bff4aeb853E_1159_, 1324
_ZN4core6option15Option$LT$T$GT$9unwrap_or17h8ce80bed58c9da15E_1160_, 1325
_ZN4core6option15Option$LT$T$GT$3map17h83ac2c71ca32f8a9E_1161_, 1326
_ZN5image6codecs3ico7decoder10read_entry17h84ccb48ec7de8e00E_1162_, 1327
_ZN4tiff7decoder6stream12EndianReader8read_i3217hfdbca248c262029aE_1163_, 1328
_ZN5image6codecs3tga7decoder19TgaDecoder$LT$R$GT$16expand_color_map17hf31f21953e494808E_1164_, 1329
_ZN4core6option15Option$LT$T$GT$9unwrap_or17h8ce80bed58c9da15E_1165_, 1330
_ZN66_$LT$image..error..ParameterError$u20$as$u20$std..error..Error$GT$6source17h0ea6de21718273e4E_1166_, 1331
_ZN75_$LT$core..option..Option$LT$T$GT$$u20$as$u20$core..ops..try_trait..Try$GT$6branch17ha92a25d5a9328bd1E_1167_, 1332
_ZN4core6option15Option$LT$T$GT$9unwrap_or17h8ce80bed58c9da15E_1168_, 1333
_ZN4core3cmp10PartialOrd2lt17h74a20fce2828e43eE_1169_, 1334
_ZN5image6codecs3bmp7decoder18set_2bit_pixel_run17hc34b365783160e24E_1170_, 1335
_ZN91_$LT$core..slice..iter..Iter$LT$T$GT$$u20$as$u20$core..iter..traits..iterator..Iterator$GT$3any17h86cdd884fc69f6d2E_1171_, 1336
_ZN111_$LT$core..iter..adapters..zip..Zip$LT$A$C$B$GT$$u20$as$u20$core..iter..adapters..zip..ZipImpl$LT$A$C$B$GT$$GT$4next17h495ad7648bf10354E_1172_, 1337
_ZN4core6option15Option$LT$T$GT$3map17h62f15030b7c554b2E_1173_, 1338
_ZN4core6option15Option$LT$T$GT$9unwrap_or17h8ce80bed58c9da15E_1174_, 1339
_ZN4core6option15Option$LT$T$GT$9unwrap_or17h8ce80bed58c9da15E_1175_, 1340
_ZN80_$LT$core..str..pattern..StrSearcher$u20$as$u20$core..str..pattern..Searcher$GT$4next17he812986a6604b9f8E_1177_, 1341
_ZN66_$LT$image..error..ParameterError$u20$as$u20$std..error..Error$GT$6source17h0ea6de21718273e4E_1178_, 1342
_ZN4core6result19Result$LT$T$C$E$GT$5is_ok17h300de609953bd91dE_1179_, 1343
_ZN3gif7encoder16Encoder$LT$W$GT$15write_extension17h31216512db391286E_1180_, 1344
_ZN4core6option15Option$LT$T$GT$3map17h62f15030b7c554b2E_1181_, 1345
_ZN5image6codecs3tga7decoder19TgaDecoder$LT$R$GT$21is_flipped_vertically17h77aed2b06b6c01daE_original, 1346
_ZN4core6option15Option$LT$T$GT$3map17h62f15030b7c554b2E_1183_, 1347
_ZN111_$LT$core..iter..adapters..zip..Zip$LT$A$C$B$GT$$u20$as$u20$core..iter..adapters..zip..ZipImpl$LT$A$C$B$GT$$GT$4next17h495ad7648bf10354E_1184_, 1348
_ZN111_$LT$core..iter..adapters..zip..Zip$LT$A$C$B$GT$$u20$as$u20$core..iter..adapters..zip..ZipImpl$LT$A$C$B$GT$$GT$4next17h495ad7648bf10354E_1185_, 1349
_ZN66_$LT$image..error..ParameterError$u20$as$u20$std..error..Error$GT$6source17h0ea6de21718273e4E_1186_, 1350
_ZN4core6option15Option$LT$T$GT$9unwrap_or17h8ce80bed58c9da15E_1187_, 1351
_ZN236_$LT$image..buffer_..ImageBuffer$LT$FromType$C$Container$GT$$u20$as$u20$image..buffer_..ConvertBuffer$LT$image..buffer_..ImageBuffer$LT$ToType$C$alloc..vec..Vec$LT$$LT$ToType$u20$as$u20$image..traits..Pixel$GT$..Subpixel$GT$$GT$$GT$$GT$7convert17hcd7d15d86f3e3b99E_1188_, 1352
_ZN4core3cmp10PartialOrd2lt17h74a20fce2828e43eE_1189_, 1353
_ZN4core6option15Option$LT$T$GT$3map17h83ac2c71ca32f8a9E_1190_, 1354
_ZN130_$LT$png..common..Transformations$u20$as$u20$$LT$png..common..Transformations$u20$as$u20$core..fmt..Debug$GT$..fmt..__BitFlags$GT$18STRIP_FILLER_AFTER17h8b2ff0bff4aeb853E_1191_, 1355
_ZN4core6option15Option$LT$T$GT$9unwrap_or17h8ce80bed58c9da15E_1192_, 1356
_ZN75_$LT$core..option..Option$LT$T$GT$$u20$as$u20$core..ops..try_trait..Try$GT$6branch17ha92a25d5a9328bd1E_1193_, 1357
_ZN4core6option15Option$LT$T$GT$9unwrap_or17h8ce80bed58c9da15E_1194_, 1358
_ZN4core6option15Option$LT$T$GT$3map17h2dfbad31fb31d4f7E_1195_, 1359
_ZN4core6option15Option$LT$T$GT$9unwrap_or17h8ce80bed58c9da15E_1196_, 1360
_ZN107_$LT$core..iter..adapters..fuse..Fuse$LT$I$GT$$u20$as$u20$core..iter..adapters..fuse..FuseImpl$LT$I$GT$$GT$8try_fold17h957a34c799108b9eE_1197_, 1361
_ZN79_$LT$core..result..Result$LT$T$C$E$GT$$u20$as$u20$core..ops..try_trait..Try$GT$6branch17h2345af5a05185ac1E_original, 1362
_ZN4core6result19Result$LT$T$C$E$GT$5is_ok17h300de609953bd91dE_1199_, 1363
_ZN4core4iter6traits8iterator8Iterator8try_fold17h6e3cb15cd4d0dd24E_1200_, 1364
_ZN66_$LT$core..option..Option$LT$T$GT$$u20$as$u20$core..fmt..Debug$GT$3fmt17h7f4a4b523075d69aE_1201_, 1365
_ZN4core6option15Option$LT$T$GT$9unwrap_or17h8ce80bed58c9da15E_1202_, 1366
_ZN5image6codecs3bmp7decoder18set_2bit_pixel_run17hc34b365783160e24E_1203_, 1367
_ZN4core6option15Option$LT$T$GT$3map17h83ac2c71ca32f8a9E_1204_, 1368
_ZN80_$LT$core..str..pattern..StrSearcher$u20$as$u20$core..str..pattern..Searcher$GT$4next17he812986a6604b9f8E_1205_, 1369
_ZN4core6result19Result$LT$T$C$E$GT$7map_err17h99d4d0931147a915E_1206_, 1370
_ZN3gif7encoder16Encoder$LT$W$GT$15write_extension17h31216512db391286E_1207_, 1371
_ZN4core6result19Result$LT$T$C$E$GT$7map_err17h99d4d0931147a915E_1208_, 1372
_ZN4core6option15Option$LT$T$GT$9unwrap_or17h8ce80bed58c9da15E_1209_, 1373
_ZN4core6result19Result$LT$T$C$E$GT$7map_err17h99d4d0931147a915E_1210_, 1374
_ZN4core6option15Option$LT$T$GT$9unwrap_or17h8ce80bed58c9da15E_1211_, 1375
_ZN4core6option15Option$LT$T$GT$9unwrap_or17h8ce80bed58c9da15E_1212_, 1376
_ZN111_$LT$core..iter..adapters..zip..Zip$LT$A$C$B$GT$$u20$as$u20$core..iter..adapters..zip..ZipImpl$LT$A$C$B$GT$$GT$4next17h495ad7648bf10354E_1213_, 1377
_ZN130_$LT$png..common..Transformations$u20$as$u20$$LT$png..common..Transformations$u20$as$u20$core..fmt..Debug$GT$..fmt..__BitFlags$GT$18STRIP_FILLER_AFTER17h8b2ff0bff4aeb853E_1214_, 1378
_ZN4core6option15Option$LT$T$GT$3map17ha90f874f66362a6eE_1216_, 1379
_ZN4core3ptr65drop_in_place$LT$core..option..Option$LT$weezl..StreamBuf$GT$$GT$17hab39435439ff229fE_1217_, 1380
_ZN4core6option15Option$LT$T$GT$9unwrap_or17h8ce80bed58c9da15E_1218_, 1381
_ZN4core6option15Option$LT$T$GT$3map17h83ac2c71ca32f8a9E_1219_, 1382
_ZN5alloc7raw_vec19RawVec$LT$T$C$A$GT$14current_memory17h2ebfc26687c09d8bE_original, 1383
_ZN105_$LT$image..color..Rgb$LT$T$GT$$u20$as$u20$image..color..FromColor$LT$image..color..Luma$LT$T$GT$$GT$$GT$10from_color17hfded6d83c20eeff5E_original, 1384
_ZN130_$LT$png..common..Transformations$u20$as$u20$$LT$png..common..Transformations$u20$as$u20$core..fmt..Debug$GT$..fmt..__BitFlags$GT$18STRIP_FILLER_AFTER17h8b2ff0bff4aeb853E_1221_, 1385
_ZN4core6option15Option$LT$T$GT$5ok_or17ha615b22f03a42152E_1222_, 1386
